  Sun Jan  9 2022 20:52                                                Page 1


                     ***************************************
                     **      WDC 65C816 Macro Assembler   **
                     **                                   **
                     **     Version 3.49.1- Feb  6 2006    **
                     ***************************************

     1                        ;:ts=8
     2             00000001   R0	equ	1
     3             00000005   R1	equ	5
     4             00000009   R2	equ	9
     5             0000000D   R3	equ	13
     6                        	code
     7                        	xdef	~~exec_assembler
     8                        	func
     9                        ~~exec_assembler:
    10                        	longa	on
    11                        	longi	on
    12 00:0000: 3B           	tsc
    13 00:0001: 38           	sec
    14 00:0002: E9 00 00     	sbc	#L2
    15 00:0005: 1B           	tcs
    16 00:0006: 0B           	phd
    17 00:0007: 5B           	tcd
    18 00:0008: F4 01 00     	pea	#<$1
    19 00:000B: F4 04 00     	pea	#4
    20 00:000E: 22 xx xx xx  	jsl	~~error
    21                        L4:
    22 00:0012: 2B           	pld
    23 00:0013: 3B           	tsc
    24 00:0014: 18           	clc
    25 00:0015: 69 00 00     	adc	#L2
    26 00:0018: 1B           	tcs
    27 00:0019: 6B           	rtl
    28             00000000   L2	equ	0
    29             00000001   L3	equ	1
    30                        	ends
    31                        	efunc
    32                        	code
    33                        	xdef	~~exec_asmend
    34                        	func
    35                        ~~exec_asmend:
    36                        	longa	on
    37                        	longi	on
    38 00:001A: 3B           	tsc
    39 00:001B: 38           	sec
    40 00:001C: E9 00 00     	sbc	#L5
    41 00:001F: 1B           	tcs
    42 00:0020: 0B           	phd
    43 00:0021: 5B           	tcd
    44 00:0022: F4 01 00     	pea	#<$1
    45 00:0025: F4 04 00     	pea	#4
    46 00:0028: 22 xx xx xx  	jsl	~~error
    47                        L7:
    48 00:002C: 2B           	pld
    49 00:002D: 3B           	tsc
    50 00:002E: 18           	clc
    51 00:002F: 69 00 00     	adc	#L5
    52 00:0032: 1B           	tcs
  Sun Jan  9 2022 20:52                                                Page 2


    53 00:0033: 6B           	rtl
    54             00000000   L5	equ	0
    55             00000001   L6	equ	1
    56                        	ends
    57                        	efunc
    58                        	code
    59                        	xdef	~~exec_oscmd
    60                        	func
    61                        ~~exec_oscmd:
    62                        	longa	on
    63                        	longi	on
    64 00:0034: 3B           	tsc
    65 00:0035: 38           	sec
    66 00:0036: E9 04 00     	sbc	#L8
    67 00:0039: 1B           	tcs
    68 00:003A: 0B           	phd
    69 00:003B: 5B           	tcd
    70             00000000   p_1	set	0
    71 00:003C: AD xx xx     	lda	|~~basicvars+62+2
    72 00:003F: 48           	pha
    73 00:0040: AD xx xx     	lda	|~~basicvars+62
    74 00:0043: 48           	pha
    75 00:0044: 22 xx xx xx  	jsl	~~get_srcaddr
    76 00:0048: 85 01        	sta	<L9+p_1
    77 00:004A: 86 03        	stx	<L9+p_1+2
    78 00:004C: F4 00 00     	pea	#^$0
    79 00:004F: F4 00 00     	pea	#<$0
    80 00:0052: D4 03        	pei	<L9+p_1+2
    81 00:0054: D4 01        	pei	<L9+p_1
    82 00:0056: 22 xx xx xx  	jsl	~~emulate_oscli
    83 00:005A: 18           	clc
    84 00:005B: A9 03 00     	lda	#$3
    85 00:005E: 6D xx xx     	adc	|~~basicvars+62
    86 00:0061: 8D xx xx     	sta	|~~basicvars+62
    87 00:0064: 90 03        	bcc	L10
    88 00:0066: EE xx xx     	inc	|~~basicvars+62+2
    89                        L10:
    90                        L11:
    91 00:0069: 2B           	pld
    92 00:006A: 3B           	tsc
    93 00:006B: 18           	clc
    94 00:006C: 69 04 00     	adc	#L8
    95 00:006F: 1B           	tcs
    96 00:0070: 6B           	rtl
    97             00000004   L8	equ	4
    98             00000001   L9	equ	1
    99                        	ends
   100                        	efunc
   101                        	code
   102                        	xdef	~~exec_call
   103                        	func
   104                        ~~exec_call:
   105                        	longa	on
   106                        	longi	on
   107 00:0071: 3B           	tsc
   108 00:0072: 38           	sec
   109 00:0073: E9 06 00     	sbc	#L12
   110 00:0076: 1B           	tcs
  Sun Jan  9 2022 20:52                                                Page 3


   111 00:0077: 0B           	phd
   112 00:0078: 5B           	tcd
   113             00000000   address_1	set	0
   114             00000002   parmcount_1	set	2
   115             00000004   parameters_1	set	4
   116 00:0079: EE xx xx     	inc	|~~basicvars+62
   117 00:007C: D0 03        	bne	L14
   118 00:007E: EE xx xx     	inc	|~~basicvars+62+2
   119                        L14:
   120 00:0081: 64 03        	stz	<L13+parmcount_1
   121 00:0083: 22 xx xx xx  	jsl	~~eval_integer
   122 00:0087: 85 01        	sta	<L13+address_1
   123 00:0089: 22 xx xx xx  	jsl	~~check_ateol
   124 00:008D: F4 00 00     	pea	#0
   125 00:0090: 18           	clc
   126 00:0091: 7B           	tdc
   127 00:0092: 69 05 00     	adc	#<L13+parameters_1
   128 00:0095: 48           	pha
   129 00:0096: D4 03        	pei	<L13+parmcount_1
   130 00:0098: D4 01        	pei	<L13+address_1
   131 00:009A: 22 xx xx xx  	jsl	~~emulate_call
   132                        L15:
   133 00:009E: 2B           	pld
   134 00:009F: 3B           	tsc
   135 00:00A0: 18           	clc
   136 00:00A1: 69 06 00     	adc	#L12
   137 00:00A4: 1B           	tcs
   138 00:00A5: 6B           	rtl
   139             00000006   L12	equ	6
   140             00000001   L13	equ	1
   141                        	ends
   142                        	efunc
   143                        	code
   144                        	xdef	~~exec_case
   145                        	func
   146                        ~~exec_case:
   147                        	longa	on
   148                        	longi	on
   149 00:00A6: 3B           	tsc
   150 00:00A7: 38           	sec
   151 00:00A8: E9 2D 00     	sbc	#L16
   152 00:00AB: 1B           	tcs
   153 00:00AC: 0B           	phd
   154 00:00AD: 5B           	tcd
   155                        	udata
   156                        L10001:
   157 00:0000:              	ds	4
   158 00:0004:              	ends
   159             00000000   casetype_1	set	0
   160             00000002   whentype_1	set	2
   161             00000004   n_1	set	4
   162             00000006   intcase_1	set	6
   163             00000008   casestring_1	set	8
   164             0000000E   whenstring_1	set	14
   165             00000014   cp_1	set	20
   166             00000018   found_1	set	24
   167             00000019   here_1	set	25
   168 00:00AE: AD xx xx     	lda	|~~basicvars+62
  Sun Jan  9 2022 20:52                                                Page 4


   169 00:00B1: 85 2A        	sta	<L17+here_1
   170 00:00B3: AD xx xx     	lda	|~~basicvars+62+2
   171 00:00B6: 85 2C        	sta	<L17+here_1+2
   172 00:00B8: AD xx xx     	lda	|~~basicvars+62
   173 00:00BB: 85 01        	sta	<R0
   174 00:00BD: AD xx xx     	lda	|~~basicvars+62+2
   175 00:00C0: 85 03        	sta	<R0+2
   176 00:00C2: A0 01 00     	ldy	#$1
   177 00:00C5: B7 01        	lda	[<R0],Y
   178 00:00C7: 29 FF 00     	and	#$ff
   179 00:00CA: 85 01        	sta	<R0
   180 00:00CC: AD xx xx     	lda	|~~basicvars+62
   181 00:00CF: 85 09        	sta	<R2
   182 00:00D1: AD xx xx     	lda	|~~basicvars+62+2
   183 00:00D4: 85 0B        	sta	<R2+2
   184 00:00D6: A0 02 00     	ldy	#$2
   185 00:00D9: B7 09        	lda	[<R2],Y
   186 00:00DB: 29 FF 00     	and	#$ff
   187 00:00DE: 85 09        	sta	<R2
   188 00:00E0: A5 09        	lda	<R2
   189 00:00E2: EB           	xba
   190 00:00E3: 29 00 FF     	and	#$ff00
   191 00:00E6: 85 05        	sta	<R1
   192 00:00E8: A5 05        	lda	<R1
   193 00:00EA: 05 01        	ora	<R0
   194 00:00EC: 85 09        	sta	<R2
   195 00:00EE: AD xx xx     	lda	|~~basicvars+62
   196 00:00F1: 85 05        	sta	<R1
   197 00:00F3: AD xx xx     	lda	|~~basicvars+62+2
   198 00:00F6: 85 07        	sta	<R1+2
   199 00:00F8: A0 03 00     	ldy	#$3
   200 00:00FB: B7 05        	lda	[<R1],Y
   201 00:00FD: 29 FF 00     	and	#$ff
   202 00:0100: A2 10 00     	ldx	#<$10
   203                        	xref	~~~asl
   204 00:0103: 22 xx xx xx  	jsl	~~~asl
   205 00:0107: 85 01        	sta	<R0
   206 00:0109: A5 01        	lda	<R0
   207 00:010B: 05 09        	ora	<R2
   208 00:010D: 85 05        	sta	<R1
   209 00:010F: AD xx xx     	lda	|~~basicvars+62
   210 00:0112: 85 09        	sta	<R2
   211 00:0114: AD xx xx     	lda	|~~basicvars+62+2
   212 00:0117: 85 0B        	sta	<R2+2
   213 00:0119: A0 04 00     	ldy	#$4
   214 00:011C: B7 09        	lda	[<R2],Y
   215 00:011E: 29 FF 00     	and	#$ff
   216 00:0121: A2 18 00     	ldx	#<$18
   217                        	xref	~~~asl
   218 00:0124: 22 xx xx xx  	jsl	~~~asl
   219 00:0128: 85 01        	sta	<R0
   220 00:012A: A5 01        	lda	<R0
   221 00:012C: 05 05        	ora	<R1
   222 00:012E: 85 09        	sta	<R2
   223 00:0130: A0 00 00     	ldy	#$0
   224 00:0133: A5 09        	lda	<R2
   225 00:0135: 10 01        	bpl	L18
   226 00:0137: 88           	dey
  Sun Jan  9 2022 20:52                                                Page 5


   227                        L18:
   228 00:0138: 85 01        	sta	<R0
   229 00:013A: 84 03        	sty	<R0+2
   230 00:013C: 18           	clc
   231 00:013D: AD xx xx     	lda	|~~basicvars
   232 00:0140: 65 01        	adc	<R0
   233 00:0142: 85 25        	sta	<L17+cp_1
   234 00:0144: AD xx xx     	lda	|~~basicvars+2
   235 00:0147: 65 03        	adc	<R0+2
   236 00:0149: 85 27        	sta	<L17+cp_1+2
   237 00:014B: 18           	clc
   238 00:014C: A9 05 00     	lda	#$5
   239 00:014F: 6D xx xx     	adc	|~~basicvars+62
   240 00:0152: 8D xx xx     	sta	|~~basicvars+62
   241 00:0155: 90 03        	bcc	L19
   242 00:0157: EE xx xx     	inc	|~~basicvars+62+2
   243                        L19:
   244 00:015A: 22 xx xx xx  	jsl	~~expression
   245 00:015E: AD xx xx     	lda	|~~basicvars+42
   246 00:0161: 85 01        	sta	<R0
   247 00:0163: AD xx xx     	lda	|~~basicvars+42+2
   248 00:0166: 85 03        	sta	<R0+2
   249 00:0168: A7 01        	lda	[<R0]
   250 00:016A: 85 11        	sta	<L17+casetype_1
   251 00:016C: A5 11        	lda	<L17+casetype_1
   252 00:016E: 82 4D 00     	brl	L10002
   253                        L10004:
   254 00:0171: 22 xx xx xx  	jsl	~~pop_int
   255 00:0175: 85 17        	sta	<L17+intcase_1
   256 00:0177: 82 56 00     	brl	L10003
   257                        L10005:
   258 00:017A: 5A           	phy
   259 00:017B: 5A           	phy
   260 00:017C: 22 xx xx xx  	jsl	~~pop_float
   261 00:0180: 68           	pla
   262 00:0181: 8D xx xx     	sta	|L10001
   263 00:0184: 68           	pla
   264 00:0185: 8D xx xx     	sta	|L10001+2
   265 00:0188: 82 45 00     	brl	L10003
   266                        L10006:
   267                        L10007:
   268 00:018B: 22 xx xx xx  	jsl	~~pop_string
   269 00:018F: 85 01        	sta	<R0
   270 00:0191: 86 03        	stx	<R0+2
   271 00:0193: D4 03        	pei	<R0+2
   272 00:0195: D4 01        	pei	<R0
   273 00:0197: 18           	clc
   274 00:0198: 7B           	tdc
   275 00:0199: 69 19 00     	adc	#<L17+casestring_1
   276 00:019C: 85 01        	sta	<R0
   277 00:019E: A9 00 00     	lda	#$0
   278 00:01A1: 85 03        	sta	<R0+2
   279 00:01A3: D4 03        	pei	<R0+2
   280 00:01A5: D4 01        	pei	<R0
   281 00:01A7: A9 06 00     	lda	#$6
   282                        	xref	~~~fmov
   283 00:01AA: 22 xx xx xx  	jsl	~~~fmov
   284 00:01AE: 82 1F 00     	brl	L10003
  Sun Jan  9 2022 20:52                                                Page 6


   285                        L10008:
   286 00:01B1: F4 45 00     	pea	#<$45
   287 00:01B4: F4 04 00     	pea	#4
   288 00:01B7: 22 xx xx xx  	jsl	~~error
   289 00:01BB: 82 12 00     	brl	L10003
   290                        L10002:
   291                        	xref	~~~fsw
   292 00:01BE: 22 xx xx xx  	jsl	~~~fsw
   293 00:01C2: 02 00        	dw	2
   294 00:01C4: 04 00        	dw	4
   295 00:01C6: xx xx        	dw	L10008-1
   296 00:01C8: xx xx        	dw	L10004-1
   297 00:01CA: xx xx        	dw	L10005-1
   298 00:01CC: xx xx        	dw	L10006-1
   299 00:01CE: xx xx        	dw	L10007-1
   300                        L10003:
   301 00:01D0: E2 20        	sep	#$20
   302                        	longa	off
   303 00:01D2: 64 29        	stz	<L17+found_1
   304 00:01D4: C2 20        	rep	#$20
   305                        	longa	on
   306 00:01D6: 64 15        	stz	<L17+n_1
   307 00:01D8: 82 AD 02     	brl	L10012
   308                        L10011:
   309 00:01DB: A0 00 00     	ldy	#$0
   310 00:01DE: A5 15        	lda	<L17+n_1
   311 00:01E0: 10 01        	bpl	L20
   312 00:01E2: 88           	dey
   313                        L20:
   314 00:01E3: 85 05        	sta	<R1
   315 00:01E5: 84 07        	sty	<R1+2
   316 00:01E7: D4 07        	pei	<R1+2
   317 00:01E9: D4 05        	pei	<R1
   318 00:01EB: A9 03 00     	lda	#$3
   319                        	xref	~~~lasl
   320 00:01EE: 22 xx xx xx  	jsl	~~~lasl
   321 00:01F2: 85 01        	sta	<R0
   322 00:01F4: 86 03        	stx	<R0+2
   323 00:01F6: 18           	clc
   324 00:01F7: A9 06 00     	lda	#$6
   325 00:01FA: 65 25        	adc	<L17+cp_1
   326 00:01FC: 85 09        	sta	<R2
   327 00:01FE: A9 00 00     	lda	#$0
   328 00:0201: 65 27        	adc	<L17+cp_1+2
   329 00:0203: 85 0B        	sta	<R2+2
   330 00:0205: 18           	clc
   331 00:0206: A5 09        	lda	<R2
   332 00:0208: 65 01        	adc	<R0
   333 00:020A: 85 0D        	sta	<R3
   334 00:020C: A5 0B        	lda	<R2+2
   335 00:020E: 65 03        	adc	<R0+2
   336 00:0210: 85 0F        	sta	<R3+2
   337 00:0212: A7 0D        	lda	[<R3]
   338 00:0214: 8D xx xx     	sta	|~~basicvars+62
   339 00:0217: A0 02 00     	ldy	#$2
   340 00:021A: B7 0D        	lda	[<R3],Y
   341 00:021C: 8D xx xx     	sta	|~~basicvars+62+2
   342 00:021F: AD xx xx     	lda	|~~basicvars+425
  Sun Jan  9 2022 20:52                                                Page 7


   343 00:0222: 89 02 00     	bit	#$2
   344 00:0225: D0 03        	bne	L21
   345 00:0227: 82 1B 00     	brl	L10013
   346                        L21:
   347 00:022A: AD xx xx     	lda	|~~basicvars+62+2
   348 00:022D: 48           	pha
   349 00:022E: AD xx xx     	lda	|~~basicvars+62
   350 00:0231: 48           	pha
   351 00:0232: 22 xx xx xx  	jsl	~~find_linestart
   352 00:0236: 85 01        	sta	<R0
   353 00:0238: 86 03        	stx	<R0+2
   354 00:023A: DA           	phx
   355 00:023B: 48           	pha
   356 00:023C: 22 xx xx xx  	jsl	~~get_lineno
   357 00:0240: 48           	pha
   358 00:0241: 22 xx xx xx  	jsl	~~trace_line
   359                        L10013:
   360                        L10014:
   361 00:0245: 22 xx xx xx  	jsl	~~expression
   362 00:0249: AD xx xx     	lda	|~~basicvars+42
   363 00:024C: 85 01        	sta	<R0
   364 00:024E: AD xx xx     	lda	|~~basicvars+42+2
   365 00:0251: 85 03        	sta	<R0+2
   366 00:0253: A7 01        	lda	[<R0]
   367 00:0255: 85 13        	sta	<L17+whentype_1
   368 00:0257: A5 11        	lda	<L17+casetype_1
   369 00:0259: C9 02 00     	cmp	#<$2
   370 00:025C: F0 03        	beq	L22
   371 00:025E: 82 6B 00     	brl	L10016
   372                        L22:
   373 00:0261: A5 13        	lda	<L17+whentype_1
   374 00:0263: C9 02 00     	cmp	#<$2
   375 00:0266: F0 03        	beq	L23
   376 00:0268: 82 1E 00     	brl	L10017
   377                        L23:
   378 00:026B: 64 01        	stz	<R0
   379 00:026D: 22 xx xx xx  	jsl	~~pop_int
   380 00:0271: 85 05        	sta	<R1
   381 00:0273: A5 05        	lda	<R1
   382 00:0275: C5 17        	cmp	<L17+intcase_1
   383 00:0277: F0 03        	beq	L25
   384 00:0279: 82 02 00     	brl	L24
   385                        L25:
   386 00:027C: E6 01        	inc	<R0
   387                        L24:
   388 00:027E: E2 20        	sep	#$20
   389                        	longa	off
   390 00:0280: A5 01        	lda	<R0
   391 00:0282: 85 29        	sta	<L17+found_1
   392 00:0284: C2 20        	rep	#$20
   393                        	longa	on
   394 00:0286: 82 40 00     	brl	L10018
   395                        L10017:
   396 00:0289: A5 13        	lda	<L17+whentype_1
   397 00:028B: C9 03 00     	cmp	#<$3
   398 00:028E: F0 03        	beq	L26
   399 00:0290: 82 2C 00     	brl	L10019
   400                        L26:
  Sun Jan  9 2022 20:52                                                Page 8


   401 00:0293: 64 01        	stz	<R0
   402 00:0295: A0 00 00     	ldy	#$0
   403 00:0298: A5 17        	lda	<L17+intcase_1
   404 00:029A: 10 01        	bpl	L28
   405 00:029C: 88           	dey
   406                        L28:
   407 00:029D: 5A           	phy
   408 00:029E: 48           	pha
   409                        	xref	~~~fflt
   410 00:029F: 22 xx xx xx  	jsl	~~~fflt
   411 00:02A3: 5A           	phy
   412 00:02A4: 5A           	phy
   413 00:02A5: 22 xx xx xx  	jsl	~~pop_float
   414                        	xref	~~~fcmp
   415 00:02A9: 22 xx xx xx  	jsl	~~~fcmp
   416 00:02AD: F0 03        	beq	L29
   417 00:02AF: 82 02 00     	brl	L27
   418                        L29:
   419 00:02B2: E6 01        	inc	<R0
   420                        L27:
   421 00:02B4: E2 20        	sep	#$20
   422                        	longa	off
   423 00:02B6: A5 01        	lda	<R0
   424 00:02B8: 85 29        	sta	<L17+found_1
   425 00:02BA: C2 20        	rep	#$20
   426                        	longa	on
   427 00:02BC: 82 0A 00     	brl	L10020
   428                        L10019:
   429 00:02BF: F4 3F 00     	pea	#<$3f
   430 00:02C2: F4 04 00     	pea	#4
   431 00:02C5: 22 xx xx xx  	jsl	~~error
   432                        L10020:
   433                        L10018:
   434 00:02C9: 82 4C 01     	brl	L10021
   435                        L10016:
   436 00:02CC: A5 11        	lda	<L17+casetype_1
   437 00:02CE: C9 03 00     	cmp	#<$3
   438 00:02D1: F0 03        	beq	L30
   439 00:02D3: 82 7B 00     	brl	L10022
   440                        L30:
   441 00:02D6: A5 13        	lda	<L17+whentype_1
   442 00:02D8: C9 02 00     	cmp	#<$2
   443 00:02DB: F0 03        	beq	L31
   444 00:02DD: 82 34 00     	brl	L10023
   445                        L31:
   446 00:02E0: 64 01        	stz	<R0
   447 00:02E2: AD xx xx     	lda	|L10001+2
   448 00:02E5: 48           	pha
   449 00:02E6: AD xx xx     	lda	|L10001
   450 00:02E9: 48           	pha
   451 00:02EA: 22 xx xx xx  	jsl	~~pop_int
   452 00:02EE: 85 05        	sta	<R1
   453 00:02F0: A0 00 00     	ldy	#$0
   454 00:02F3: A5 05        	lda	<R1
   455 00:02F5: 10 01        	bpl	L33
   456 00:02F7: 88           	dey
   457                        L33:
   458 00:02F8: 5A           	phy
  Sun Jan  9 2022 20:52                                                Page 9


   459 00:02F9: 48           	pha
   460                        	xref	~~~fflt
   461 00:02FA: 22 xx xx xx  	jsl	~~~fflt
   462                        	xref	~~~fcmp
   463 00:02FE: 22 xx xx xx  	jsl	~~~fcmp
   464 00:0302: F0 03        	beq	L34
   465 00:0304: 82 02 00     	brl	L32
   466                        L34:
   467 00:0307: E6 01        	inc	<R0
   468                        L32:
   469 00:0309: E2 20        	sep	#$20
   470                        	longa	off
   471 00:030B: A5 01        	lda	<R0
   472 00:030D: 85 29        	sta	<L17+found_1
   473 00:030F: C2 20        	rep	#$20
   474                        	longa	on
   475 00:0311: 82 3A 00     	brl	L10024
   476                        L10023:
   477 00:0314: A5 13        	lda	<L17+whentype_1
   478 00:0316: C9 03 00     	cmp	#<$3
   479 00:0319: F0 03        	beq	L35
   480 00:031B: 82 26 00     	brl	L10025
   481                        L35:
   482 00:031E: 64 01        	stz	<R0
   483 00:0320: AD xx xx     	lda	|L10001+2
   484 00:0323: 48           	pha
   485 00:0324: AD xx xx     	lda	|L10001
   486 00:0327: 48           	pha
   487 00:0328: 5A           	phy
   488 00:0329: 5A           	phy
   489 00:032A: 22 xx xx xx  	jsl	~~pop_float
   490                        	xref	~~~fcmp
   491 00:032E: 22 xx xx xx  	jsl	~~~fcmp
   492 00:0332: F0 03        	beq	L37
   493 00:0334: 82 02 00     	brl	L36
   494                        L37:
   495 00:0337: E6 01        	inc	<R0
   496                        L36:
   497 00:0339: E2 20        	sep	#$20
   498                        	longa	off
   499 00:033B: A5 01        	lda	<R0
   500 00:033D: 85 29        	sta	<L17+found_1
   501 00:033F: C2 20        	rep	#$20
   502                        	longa	on
   503 00:0341: 82 0A 00     	brl	L10026
   504                        L10025:
   505 00:0344: F4 3F 00     	pea	#<$3f
   506 00:0347: F4 04 00     	pea	#4
   507 00:034A: 22 xx xx xx  	jsl	~~error
   508                        L10026:
   509                        L10024:
   510 00:034E: 82 C7 00     	brl	L10027
   511                        L10022:
   512 00:0351: A5 13        	lda	<L17+whentype_1
   513 00:0353: C9 04 00     	cmp	#<$4
   514 00:0356: D0 03        	bne	L38
   515 00:0358: 82 14 00     	brl	L10028
   516                        L38:
  Sun Jan  9 2022 20:52                                                Page 10


   517 00:035B: A5 13        	lda	<L17+whentype_1
   518 00:035D: C9 05 00     	cmp	#<$5
   519 00:0360: D0 03        	bne	L39
   520 00:0362: 82 0A 00     	brl	L10028
   521                        L39:
   522 00:0365: F4 40 00     	pea	#<$40
   523 00:0368: F4 04 00     	pea	#4
   524 00:036B: 22 xx xx xx  	jsl	~~error
   525                        L10028:
   526 00:036F: 22 xx xx xx  	jsl	~~pop_string
   527 00:0373: 85 01        	sta	<R0
   528 00:0375: 86 03        	stx	<R0+2
   529 00:0377: D4 03        	pei	<R0+2
   530 00:0379: D4 01        	pei	<R0
   531 00:037B: 18           	clc
   532 00:037C: 7B           	tdc
   533 00:037D: 69 1F 00     	adc	#<L17+whenstring_1
   534 00:0380: 85 01        	sta	<R0
   535 00:0382: A9 00 00     	lda	#$0
   536 00:0385: 85 03        	sta	<R0+2
   537 00:0387: D4 03        	pei	<R0+2
   538 00:0389: D4 01        	pei	<R0
   539 00:038B: A9 06 00     	lda	#$6
   540                        	xref	~~~fmov
   541 00:038E: 22 xx xx xx  	jsl	~~~fmov
   542 00:0392: A5 1F        	lda	<L17+whenstring_1
   543 00:0394: C5 19        	cmp	<L17+casestring_1
   544 00:0396: D0 03        	bne	L40
   545 00:0398: 82 09 00     	brl	L10029
   546                        L40:
   547 00:039B: E2 20        	sep	#$20
   548                        	longa	off
   549 00:039D: 64 29        	stz	<L17+found_1
   550 00:039F: C2 20        	rep	#$20
   551                        	longa	on
   552 00:03A1: 82 40 00     	brl	L10030
   553                        L10029:
   554 00:03A4: A5 1F        	lda	<L17+whenstring_1
   555 00:03A6: F0 03        	beq	L41
   556 00:03A8: 82 0B 00     	brl	L10031
   557                        L41:
   558 00:03AB: E2 20        	sep	#$20
   559                        	longa	off
   560 00:03AD: A9 01        	lda	#$1
   561 00:03AF: 85 29        	sta	<L17+found_1
   562 00:03B1: C2 20        	rep	#$20
   563                        	longa	on
   564 00:03B3: 82 2E 00     	brl	L10032
   565                        L10031:
   566 00:03B6: 64 01        	stz	<R0
   567 00:03B8: A0 00 00     	ldy	#$0
   568 00:03BB: A5 1F        	lda	<L17+whenstring_1
   569 00:03BD: 10 01        	bpl	L43
   570 00:03BF: 88           	dey
   571                        L43:
   572 00:03C0: 85 05        	sta	<R1
   573 00:03C2: 84 07        	sty	<R1+2
   574 00:03C4: D4 07        	pei	<R1+2
  Sun Jan  9 2022 20:52                                                Page 11


   575 00:03C6: D4 05        	pei	<R1
   576 00:03C8: D4 1D        	pei	<L17+casestring_1+4
   577 00:03CA: D4 1B        	pei	<L17+casestring_1+2
   578 00:03CC: D4 23        	pei	<L17+whenstring_1+4
   579 00:03CE: D4 21        	pei	<L17+whenstring_1+2
   580 00:03D0: 22 xx xx xx  	jsl	~~memcmp
   581 00:03D4: AA           	tax
   582 00:03D5: F0 03        	beq	L44
   583 00:03D7: 82 02 00     	brl	L42
   584                        L44:
   585 00:03DA: E6 01        	inc	<R0
   586                        L42:
   587 00:03DC: E2 20        	sep	#$20
   588                        	longa	off
   589 00:03DE: A5 01        	lda	<R0
   590 00:03E0: 85 29        	sta	<L17+found_1
   591 00:03E2: C2 20        	rep	#$20
   592                        	longa	on
   593                        L10032:
   594                        L10030:
   595 00:03E4: A5 13        	lda	<L17+whentype_1
   596 00:03E6: C9 05 00     	cmp	#<$5
   597 00:03E9: F0 03        	beq	L45
   598 00:03EB: 82 2A 00     	brl	L10033
   599                        L45:
   600 00:03EE: 38           	sec
   601 00:03EF: 3B           	tsc
   602 00:03F0: E9 06 00     	sbc	#6
   603 00:03F3: 1B           	tcs
   604 00:03F4: 1A           	ina
   605 00:03F5: 85 01        	sta	<R0
   606 00:03F7: 64 03        	stz	<R0+2
   607 00:03F9: 18           	clc
   608 00:03FA: 7B           	tdc
   609 00:03FB: 69 1F 00     	adc	#<L17+whenstring_1
   610 00:03FE: 85 05        	sta	<R1
   611 00:0400: A9 00 00     	lda	#$0
   612 00:0403: 85 07        	sta	<R1+2
   613 00:0405: D4 07        	pei	<R1+2
   614 00:0407: D4 05        	pei	<R1
   615 00:0409: D4 03        	pei	<R0+2
   616 00:040B: D4 01        	pei	<R0
   617 00:040D: A9 06 00     	lda	#$6
   618                        	xref	~~~fmov
   619 00:0410: 22 xx xx xx  	jsl	~~~fmov
   620 00:0414: 22 xx xx xx  	jsl	~~free_string
   621                        L10033:
   622                        L10027:
   623                        L10021:
   624 00:0418: A5 29        	lda	<L17+found_1
   625 00:041A: 29 FF 00     	and	#$ff
   626 00:041D: F0 03        	beq	L46
   627 00:041F: 82 5A 00     	brl	L10015
   628                        L46:
   629 00:0422: AD xx xx     	lda	|~~basicvars+62
   630 00:0425: 85 01        	sta	<R0
   631 00:0427: AD xx xx     	lda	|~~basicvars+62+2
   632 00:042A: 85 03        	sta	<R0+2
  Sun Jan  9 2022 20:52                                                Page 12


   633 00:042C: E2 20        	sep	#$20
   634                        	longa	off
   635 00:042E: A7 01        	lda	[<R0]
   636 00:0430: C9 3A        	cmp	#<$3a
   637 00:0432: C2 20        	rep	#$20
   638                        	longa	on
   639 00:0434: D0 03        	bne	L47
   640 00:0436: 82 43 00     	brl	L10015
   641                        L47:
   642 00:0439: AD xx xx     	lda	|~~basicvars+62
   643 00:043C: 85 01        	sta	<R0
   644 00:043E: AD xx xx     	lda	|~~basicvars+62+2
   645 00:0441: 85 03        	sta	<R0+2
   646 00:0443: A7 01        	lda	[<R0]
   647 00:0445: 29 FF 00     	and	#$ff
   648 00:0448: D0 03        	bne	L48
   649 00:044A: 82 2F 00     	brl	L10015
   650                        L48:
   651 00:044D: AD xx xx     	lda	|~~basicvars+62
   652 00:0450: 85 01        	sta	<R0
   653 00:0452: AD xx xx     	lda	|~~basicvars+62+2
   654 00:0455: 85 03        	sta	<R0+2
   655 00:0457: E2 20        	sep	#$20
   656                        	longa	off
   657 00:0459: A7 01        	lda	[<R0]
   658 00:045B: C9 2C        	cmp	#<$2c
   659 00:045D: C2 20        	rep	#$20
   660                        	longa	on
   661 00:045F: F0 03        	beq	L49
   662 00:0461: 82 0B 00     	brl	L10034
   663                        L49:
   664 00:0464: EE xx xx     	inc	|~~basicvars+62
   665 00:0467: D0 03        	bne	L50
   666 00:0469: EE xx xx     	inc	|~~basicvars+62+2
   667                        L50:
   668 00:046C: 82 0A 00     	brl	L10035
   669                        L10034:
   670 00:046F: F4 05 00     	pea	#<$5
   671 00:0472: F4 04 00     	pea	#4
   672 00:0475: 22 xx xx xx  	jsl	~~error
   673                        L10035:
   674 00:0479: 82 C9 FD     	brl	L10014
   675                        L10015:
   676 00:047C: A5 29        	lda	<L17+found_1
   677 00:047E: 29 FF 00     	and	#$ff
   678 00:0481: F0 03        	beq	L51
   679 00:0483: 82 11 00     	brl	L10010
   680                        L51:
   681                        L10009:
   682 00:0486: E6 15        	inc	<L17+n_1
   683                        L10012:
   684 00:0488: 38           	sec
   685 00:0489: A5 15        	lda	<L17+n_1
   686 00:048B: E7 25        	sbc	[<L17+cp_1]
   687 00:048D: 70 03        	bvs	L52
   688 00:048F: 49 00 80     	eor	#$8000
   689                        L52:
   690 00:0492: 30 03        	bmi	L53
  Sun Jan  9 2022 20:52                                                Page 13


   691 00:0494: 82 44 FD     	brl	L10011
   692                        L53:
   693                        L10010:
   694 00:0497: A5 11        	lda	<L17+casetype_1
   695 00:0499: C9 05 00     	cmp	#<$5
   696 00:049C: F0 03        	beq	L54
   697 00:049E: 82 2A 00     	brl	L10036
   698                        L54:
   699 00:04A1: 38           	sec
   700 00:04A2: 3B           	tsc
   701 00:04A3: E9 06 00     	sbc	#6
   702 00:04A6: 1B           	tcs
   703 00:04A7: 1A           	ina
   704 00:04A8: 85 01        	sta	<R0
   705 00:04AA: 64 03        	stz	<R0+2
   706 00:04AC: 18           	clc
   707 00:04AD: 7B           	tdc
   708 00:04AE: 69 19 00     	adc	#<L17+casestring_1
   709 00:04B1: 85 05        	sta	<R1
   710 00:04B3: A9 00 00     	lda	#$0
   711 00:04B6: 85 07        	sta	<R1+2
   712 00:04B8: D4 07        	pei	<R1+2
   713 00:04BA: D4 05        	pei	<R1
   714 00:04BC: D4 03        	pei	<R0+2
   715 00:04BE: D4 01        	pei	<R0
   716 00:04C0: A9 06 00     	lda	#$6
   717                        	xref	~~~fmov
   718 00:04C3: 22 xx xx xx  	jsl	~~~fmov
   719 00:04C7: 22 xx xx xx  	jsl	~~free_string
   720                        L10036:
   721 00:04CB: A5 29        	lda	<L17+found_1
   722 00:04CD: 29 FF 00     	and	#$ff
   723 00:04D0: D0 03        	bne	L55
   724 00:04D2: 82 9A 00     	brl	L10037
   725                        L55:
   726 00:04D5: AD xx xx     	lda	|~~basicvars+425
   727 00:04D8: 89 10 00     	bit	#$10
   728 00:04DB: D0 03        	bne	L56
   729 00:04DD: 82 48 00     	brl	L10038
   730                        L56:
   731 00:04E0: A0 00 00     	ldy	#$0
   732 00:04E3: A5 15        	lda	<L17+n_1
   733 00:04E5: 10 01        	bpl	L57
   734 00:04E7: 88           	dey
   735                        L57:
   736 00:04E8: 85 05        	sta	<R1
   737 00:04EA: 84 07        	sty	<R1+2
   738 00:04EC: D4 07        	pei	<R1+2
   739 00:04EE: D4 05        	pei	<R1
   740 00:04F0: A9 03 00     	lda	#$3
   741                        	xref	~~~lasl
   742 00:04F3: 22 xx xx xx  	jsl	~~~lasl
   743 00:04F7: 85 01        	sta	<R0
   744 00:04F9: 86 03        	stx	<R0+2
   745 00:04FB: 18           	clc
   746 00:04FC: A9 0A 00     	lda	#$a
   747 00:04FF: 65 25        	adc	<L17+cp_1
   748 00:0501: 85 09        	sta	<R2
  Sun Jan  9 2022 20:52                                                Page 14


   749 00:0503: A9 00 00     	lda	#$0
   750 00:0506: 65 27        	adc	<L17+cp_1+2
   751 00:0508: 85 0B        	sta	<R2+2
   752 00:050A: 18           	clc
   753 00:050B: A5 09        	lda	<R2
   754 00:050D: 65 01        	adc	<R0
   755 00:050F: 85 0D        	sta	<R3
   756 00:0511: A5 0B        	lda	<R2+2
   757 00:0513: 65 03        	adc	<R0+2
   758 00:0515: 85 0F        	sta	<R3+2
   759 00:0517: A0 02 00     	ldy	#$2
   760 00:051A: B7 0D        	lda	[<R3],Y
   761 00:051C: 48           	pha
   762 00:051D: A7 0D        	lda	[<R3]
   763 00:051F: 48           	pha
   764 00:0520: D4 2C        	pei	<L17+here_1+2
   765 00:0522: D4 2A        	pei	<L17+here_1
   766 00:0524: 22 xx xx xx  	jsl	~~trace_branch
   767                        L10038:
   768 00:0528: A0 00 00     	ldy	#$0
   769 00:052B: A5 15        	lda	<L17+n_1
   770 00:052D: 10 01        	bpl	L58
   771 00:052F: 88           	dey
   772                        L58:
   773 00:0530: 85 05        	sta	<R1
   774 00:0532: 84 07        	sty	<R1+2
   775 00:0534: D4 07        	pei	<R1+2
   776 00:0536: D4 05        	pei	<R1
   777 00:0538: A9 03 00     	lda	#$3
   778                        	xref	~~~lasl
   779 00:053B: 22 xx xx xx  	jsl	~~~lasl
   780 00:053F: 85 01        	sta	<R0
   781 00:0541: 86 03        	stx	<R0+2
   782 00:0543: 18           	clc
   783 00:0544: A9 0A 00     	lda	#$a
   784 00:0547: 65 25        	adc	<L17+cp_1
   785 00:0549: 85 09        	sta	<R2
   786 00:054B: A9 00 00     	lda	#$0
   787 00:054E: 65 27        	adc	<L17+cp_1+2
   788 00:0550: 85 0B        	sta	<R2+2
   789 00:0552: 18           	clc
   790 00:0553: A5 09        	lda	<R2
   791 00:0555: 65 01        	adc	<R0
   792 00:0557: 85 0D        	sta	<R3
   793 00:0559: A5 0B        	lda	<R2+2
   794 00:055B: 65 03        	adc	<R0+2
   795 00:055D: 85 0F        	sta	<R3+2
   796 00:055F: A7 0D        	lda	[<R3]
   797 00:0561: 8D xx xx     	sta	|~~basicvars+62
   798 00:0564: A0 02 00     	ldy	#$2
   799 00:0567: B7 0D        	lda	[<R3],Y
   800 00:0569: 8D xx xx     	sta	|~~basicvars+62+2
   801 00:056C: 82 2F 00     	brl	L10039
   802                        L10037:
   803 00:056F: AD xx xx     	lda	|~~basicvars+425
   804 00:0572: 89 10 00     	bit	#$10
   805 00:0575: D0 03        	bne	L59
   806 00:0577: 82 14 00     	brl	L10040
  Sun Jan  9 2022 20:52                                                Page 15


   807                        L59:
   808 00:057A: A0 04 00     	ldy	#$4
   809 00:057D: B7 25        	lda	[<L17+cp_1],Y
   810 00:057F: 48           	pha
   811 00:0580: A0 02 00     	ldy	#$2
   812 00:0583: B7 25        	lda	[<L17+cp_1],Y
   813 00:0585: 48           	pha
   814 00:0586: D4 2C        	pei	<L17+here_1+2
   815 00:0588: D4 2A        	pei	<L17+here_1
   816 00:058A: 22 xx xx xx  	jsl	~~trace_branch
   817                        L10040:
   818 00:058E: A0 02 00     	ldy	#$2
   819 00:0591: B7 25        	lda	[<L17+cp_1],Y
   820 00:0593: 8D xx xx     	sta	|~~basicvars+62
   821 00:0596: A0 04 00     	ldy	#$4
   822 00:0599: B7 25        	lda	[<L17+cp_1],Y
   823 00:059B: 8D xx xx     	sta	|~~basicvars+62+2
   824                        L10039:
   825                        L60:
   826 00:059E: 2B           	pld
   827 00:059F: 3B           	tsc
   828 00:05A0: 18           	clc
   829 00:05A1: 69 2D 00     	adc	#L16
   830 00:05A4: 1B           	tcs
   831 00:05A5: 6B           	rtl
   832             0000002D   L16	equ	45
   833             00000011   L17	equ	17
   834                        	ends
   835                        	efunc
   836                        	code
   837                        	xdef	~~exec_xcase
   838                        	func
   839                        ~~exec_xcase:
   840                        	longa	on
   841                        	longi	on
   842 00:05A6: 3B           	tsc
   843 00:05A7: 38           	sec
   844 00:05A8: E9 76 00     	sbc	#L61
   845 00:05AB: 1B           	tcs
   846 00:05AC: 0B           	phd
   847 00:05AD: 5B           	tcd
   848             00000000   tp_1	set	0
   849             00000004   lp_1	set	4
   850             00000008   defaultaddr_1	set	8
   851             0000000C   whencount_1	set	12
   852             0000000E   depth_1	set	14
   853             00000010   n_1	set	16
   854             00000012   cp_1	set	18
   855             00000016   whentable_1	set	22
   856 00:05AE: AD xx xx     	lda	|~~basicvars+62
   857 00:05B1: 85 15        	sta	<L62+lp_1
   858 00:05B3: AD xx xx     	lda	|~~basicvars+62+2
   859 00:05B6: 85 17        	sta	<L62+lp_1+2
   860                        L10043:
   861 00:05B8: A5 15        	lda	<L62+lp_1
   862 00:05BA: 85 11        	sta	<L62+tp_1
   863 00:05BC: A5 17        	lda	<L62+lp_1+2
   864 00:05BE: 85 13        	sta	<L62+tp_1+2
  Sun Jan  9 2022 20:52                                                Page 16


   865 00:05C0: D4 17        	pei	<L62+lp_1+2
   866 00:05C2: D4 15        	pei	<L62+lp_1
   867 00:05C4: 22 xx xx xx  	jsl	~~skip_token
   868 00:05C8: 85 15        	sta	<L62+lp_1
   869 00:05CA: 86 17        	stx	<L62+lp_1+2
   870                        L10041:
   871 00:05CC: A7 15        	lda	[<L62+lp_1]
   872 00:05CE: 29 FF 00     	and	#$ff
   873 00:05D1: F0 03        	beq	L63
   874 00:05D3: 82 E2 FF     	brl	L10043
   875                        L63:
   876                        L10042:
   877 00:05D6: E2 20        	sep	#$20
   878                        	longa	off
   879 00:05D8: A7 11        	lda	[<L62+tp_1]
   880 00:05DA: C9 C0        	cmp	#<$c0
   881 00:05DC: C2 20        	rep	#$20
   882                        	longa	on
   883 00:05DE: D0 03        	bne	L64
   884 00:05E0: 82 0A 00     	brl	L10044
   885                        L64:
   886 00:05E3: F4 30 00     	pea	#<$30
   887 00:05E6: F4 04 00     	pea	#4
   888 00:05E9: 22 xx xx xx  	jsl	~~error
   889                        L10044:
   890 00:05ED: E6 15        	inc	<L62+lp_1
   891 00:05EF: D0 02        	bne	L65
   892 00:05F1: E6 17        	inc	<L62+lp_1+2
   893                        L65:
   894 00:05F3: 64 1D        	stz	<L62+whencount_1
   895 00:05F5: 64 19        	stz	<L62+defaultaddr_1
   896 00:05F7: 64 1B        	stz	<L62+defaultaddr_1+2
   897 00:05F9: A9 01 00     	lda	#$1
   898 00:05FC: 85 1F        	sta	<L62+depth_1
   899                        L10045:
   900 00:05FE: 38           	sec
   901 00:05FF: A9 00 00     	lda	#$0
   902 00:0602: E5 1F        	sbc	<L62+depth_1
   903 00:0604: 70 03        	bvs	L66
   904 00:0606: 49 00 80     	eor	#$8000
   905                        L66:
   906 00:0609: 10 03        	bpl	L67
   907 00:060B: 82 58 03     	brl	L10046
   908                        L67:
   909 00:060E: E2 20        	sep	#$20
   910                        	longa	off
   911 00:0610: A0 01 00     	ldy	#$1
   912 00:0613: B7 15        	lda	[<L62+lp_1],Y
   913 00:0615: C9 FF        	cmp	#<$ff
   914 00:0617: C2 20        	rep	#$20
   915                        	longa	on
   916 00:0619: F0 03        	beq	L68
   917 00:061B: 82 0A 00     	brl	L10047
   918                        L68:
   919 00:061E: F4 2F 00     	pea	#<$2f
   920 00:0621: F4 04 00     	pea	#4
   921 00:0624: 22 xx xx xx  	jsl	~~error
   922                        L10047:
  Sun Jan  9 2022 20:52                                                Page 17


   923 00:0628: A0 05 00     	ldy	#$5
   924 00:062B: B7 15        	lda	[<L62+lp_1],Y
   925 00:062D: 29 FF 00     	and	#$ff
   926 00:0630: 85 05        	sta	<R1
   927 00:0632: A5 05        	lda	<R1
   928 00:0634: EB           	xba
   929 00:0635: 29 00 FF     	and	#$ff00
   930 00:0638: 85 01        	sta	<R0
   931 00:063A: A0 00 00     	ldy	#$0
   932 00:063D: A5 01        	lda	<R0
   933 00:063F: 10 01        	bpl	L69
   934 00:0641: 88           	dey
   935                        L69:
   936 00:0642: 85 01        	sta	<R0
   937 00:0644: 84 03        	sty	<R0+2
   938 00:0646: A0 04 00     	ldy	#$4
   939 00:0649: B7 15        	lda	[<L62+lp_1],Y
   940 00:064B: 29 FF 00     	and	#$ff
   941 00:064E: 85 05        	sta	<R1
   942 00:0650: 64 07        	stz	<R1+2
   943 00:0652: 18           	clc
   944 00:0653: A5 05        	lda	<R1
   945 00:0655: 65 01        	adc	<R0
   946 00:0657: 85 09        	sta	<R2
   947 00:0659: A5 07        	lda	<R1+2
   948 00:065B: 65 03        	adc	<R0+2
   949 00:065D: 85 0B        	sta	<R2+2
   950 00:065F: 18           	clc
   951 00:0660: A5 15        	lda	<L62+lp_1
   952 00:0662: 65 09        	adc	<R2
   953 00:0664: 85 11        	sta	<L62+tp_1
   954 00:0666: A5 17        	lda	<L62+lp_1+2
   955 00:0668: 65 0B        	adc	<R2+2
   956 00:066A: 85 13        	sta	<L62+tp_1+2
   957 00:066C: A7 11        	lda	[<L62+tp_1]
   958 00:066E: 29 FF 00     	and	#$ff
   959 00:0671: 82 0F 02     	brl	L10048
   960                        L10050:
   961                        L10051:
   962 00:0674: 18           	clc
   963 00:0675: A9 03 00     	lda	#$3
   964 00:0678: 65 11        	adc	<L62+tp_1
   965 00:067A: 85 11        	sta	<L62+tp_1
   966 00:067C: 90 02        	bcc	L70
   967 00:067E: E6 13        	inc	<L62+tp_1+2
   968                        L70:
   969 00:0680: A5 1F        	lda	<L62+depth_1
   970 00:0682: C9 01 00     	cmp	#<$1
   971 00:0685: F0 03        	beq	L71
   972 00:0687: 82 30 01     	brl	L10052
   973                        L71:
   974 00:068A: A5 1D        	lda	<L62+whencount_1
   975 00:068C: C9 0A 00     	cmp	#<$a
   976 00:068F: F0 03        	beq	L72
   977 00:0691: 82 0A 00     	brl	L10053
   978                        L72:
   979 00:0694: F4 5A 00     	pea	#<$5a
   980 00:0697: F4 04 00     	pea	#4
  Sun Jan  9 2022 20:52                                                Page 18


   981 00:069A: 22 xx xx xx  	jsl	~~error
   982                        L10053:
   983 00:069E: A0 00 00     	ldy	#$0
   984 00:06A1: A5 1D        	lda	<L62+whencount_1
   985 00:06A3: 10 01        	bpl	L73
   986 00:06A5: 88           	dey
   987                        L73:
   988 00:06A6: 85 05        	sta	<R1
   989 00:06A8: 84 07        	sty	<R1+2
   990 00:06AA: D4 07        	pei	<R1+2
   991 00:06AC: D4 05        	pei	<R1
   992 00:06AE: A9 03 00     	lda	#$3
   993                        	xref	~~~lasl
   994 00:06B1: 22 xx xx xx  	jsl	~~~lasl
   995 00:06B5: 85 01        	sta	<R0
   996 00:06B7: 86 03        	stx	<R0+2
   997 00:06B9: 18           	clc
   998 00:06BA: 7B           	tdc
   999 00:06BB: 69 27 00     	adc	#<L62+whentable_1
  1000 00:06BE: 85 09        	sta	<R2
  1001 00:06C0: A9 00 00     	lda	#$0
  1002 00:06C3: 85 0B        	sta	<R2+2
  1003 00:06C5: 18           	clc
  1004 00:06C6: A5 09        	lda	<R2
  1005 00:06C8: 65 01        	adc	<R0
  1006 00:06CA: 85 0D        	sta	<R3
  1007 00:06CC: A5 0B        	lda	<R2+2
  1008 00:06CE: 65 03        	adc	<R0+2
  1009 00:06D0: 85 0F        	sta	<R3+2
  1010 00:06D2: A5 11        	lda	<L62+tp_1
  1011 00:06D4: 87 0D        	sta	[<R3]
  1012 00:06D6: A5 13        	lda	<L62+tp_1+2
  1013 00:06D8: A0 02 00     	ldy	#$2
  1014 00:06DB: 97 0D        	sta	[<R3],Y
  1015                        L10054:
  1016 00:06DD: A7 11        	lda	[<L62+tp_1]
  1017 00:06DF: 29 FF 00     	and	#$ff
  1018 00:06E2: D0 03        	bne	L74
  1019 00:06E4: 82 1C 00     	brl	L10055
  1020                        L74:
  1021 00:06E7: E2 20        	sep	#$20
  1022                        	longa	off
  1023 00:06E9: A7 11        	lda	[<L62+tp_1]
  1024 00:06EB: C9 3A        	cmp	#<$3a
  1025 00:06ED: C2 20        	rep	#$20
  1026                        	longa	on
  1027 00:06EF: D0 03        	bne	L75
  1028 00:06F1: 82 0F 00     	brl	L10055
  1029                        L75:
  1030 00:06F4: D4 13        	pei	<L62+tp_1+2
  1031 00:06F6: D4 11        	pei	<L62+tp_1
  1032 00:06F8: 22 xx xx xx  	jsl	~~skip_token
  1033 00:06FC: 85 11        	sta	<L62+tp_1
  1034 00:06FE: 86 13        	stx	<L62+tp_1+2
  1035 00:0700: 82 DA FF     	brl	L10054
  1036                        L10055:
  1037 00:0703: E2 20        	sep	#$20
  1038                        	longa	off
  Sun Jan  9 2022 20:52                                                Page 19


  1039 00:0705: A7 11        	lda	[<L62+tp_1]
  1040 00:0707: C9 3A        	cmp	#<$3a
  1041 00:0709: C2 20        	rep	#$20
  1042                        	longa	on
  1043 00:070B: F0 03        	beq	L76
  1044 00:070D: 82 06 00     	brl	L10056
  1045                        L76:
  1046 00:0710: E6 11        	inc	<L62+tp_1
  1047 00:0712: D0 02        	bne	L77
  1048 00:0714: E6 13        	inc	<L62+tp_1+2
  1049                        L77:
  1050                        L10056:
  1051 00:0716: A7 11        	lda	[<L62+tp_1]
  1052 00:0718: 29 FF 00     	and	#$ff
  1053 00:071B: F0 03        	beq	L78
  1054 00:071D: 82 4A 00     	brl	L10057
  1055                        L78:
  1056 00:0720: E6 11        	inc	<L62+tp_1
  1057 00:0722: D0 02        	bne	L79
  1058 00:0724: E6 13        	inc	<L62+tp_1+2
  1059                        L79:
  1060 00:0726: A0 05 00     	ldy	#$5
  1061 00:0729: B7 11        	lda	[<L62+tp_1],Y
  1062 00:072B: 29 FF 00     	and	#$ff
  1063 00:072E: 85 05        	sta	<R1
  1064 00:0730: A5 05        	lda	<R1
  1065 00:0732: EB           	xba
  1066 00:0733: 29 00 FF     	and	#$ff00
  1067 00:0736: 85 01        	sta	<R0
  1068 00:0738: A0 00 00     	ldy	#$0
  1069 00:073B: A5 01        	lda	<R0
  1070 00:073D: 10 01        	bpl	L80
  1071 00:073F: 88           	dey
  1072                        L80:
  1073 00:0740: 85 01        	sta	<R0
  1074 00:0742: 84 03        	sty	<R0+2
  1075 00:0744: A0 04 00     	ldy	#$4
  1076 00:0747: B7 11        	lda	[<L62+tp_1],Y
  1077 00:0749: 29 FF 00     	and	#$ff
  1078 00:074C: 85 05        	sta	<R1
  1079 00:074E: 64 07        	stz	<R1+2
  1080 00:0750: 18           	clc
  1081 00:0751: A5 05        	lda	<R1
  1082 00:0753: 65 01        	adc	<R0
  1083 00:0755: 85 09        	sta	<R2
  1084 00:0757: A5 07        	lda	<R1+2
  1085 00:0759: 65 03        	adc	<R0+2
  1086 00:075B: 85 0B        	sta	<R2+2
  1087 00:075D: 18           	clc
  1088 00:075E: A5 11        	lda	<L62+tp_1
  1089 00:0760: 65 09        	adc	<R2
  1090 00:0762: 85 11        	sta	<L62+tp_1
  1091 00:0764: A5 13        	lda	<L62+tp_1+2
  1092 00:0766: 65 0B        	adc	<R2+2
  1093 00:0768: 85 13        	sta	<L62+tp_1+2
  1094                        L10057:
  1095 00:076A: A0 00 00     	ldy	#$0
  1096 00:076D: A5 1D        	lda	<L62+whencount_1
  Sun Jan  9 2022 20:52                                                Page 20


  1097 00:076F: 10 01        	bpl	L81
  1098 00:0771: 88           	dey
  1099                        L81:
  1100 00:0772: 85 05        	sta	<R1
  1101 00:0774: 84 07        	sty	<R1+2
  1102 00:0776: D4 07        	pei	<R1+2
  1103 00:0778: D4 05        	pei	<R1
  1104 00:077A: A9 03 00     	lda	#$3
  1105                        	xref	~~~lasl
  1106 00:077D: 22 xx xx xx  	jsl	~~~lasl
  1107 00:0781: 85 01        	sta	<R0
  1108 00:0783: 86 03        	stx	<R0+2
  1109 00:0785: 18           	clc
  1110 00:0786: 7B           	tdc
  1111 00:0787: 69 27 00     	adc	#<L62+whentable_1
  1112 00:078A: 85 09        	sta	<R2
  1113 00:078C: A9 00 00     	lda	#$0
  1114 00:078F: 85 0B        	sta	<R2+2
  1115 00:0791: 18           	clc
  1116 00:0792: A9 04 00     	lda	#$4
  1117 00:0795: 65 09        	adc	<R2
  1118 00:0797: 85 0D        	sta	<R3
  1119 00:0799: A9 00 00     	lda	#$0
  1120 00:079C: 65 0B        	adc	<R2+2
  1121 00:079E: 85 0F        	sta	<R3+2
  1122 00:07A0: 18           	clc
  1123 00:07A1: A5 0D        	lda	<R3
  1124 00:07A3: 65 01        	adc	<R0
  1125 00:07A5: 85 09        	sta	<R2
  1126 00:07A7: A5 0F        	lda	<R3+2
  1127 00:07A9: 65 03        	adc	<R0+2
  1128 00:07AB: 85 0B        	sta	<R2+2
  1129 00:07AD: A5 11        	lda	<L62+tp_1
  1130 00:07AF: 87 09        	sta	[<R2]
  1131 00:07B1: A5 13        	lda	<L62+tp_1+2
  1132 00:07B3: A0 02 00     	ldy	#$2
  1133 00:07B6: 97 09        	sta	[<R2],Y
  1134 00:07B8: E6 1D        	inc	<L62+whencount_1
  1135                        L10052:
  1136 00:07BA: 82 E2 00     	brl	L10049
  1137                        L10058:
  1138                        L10059:
  1139 00:07BD: A5 1F        	lda	<L62+depth_1
  1140 00:07BF: C9 01 00     	cmp	#<$1
  1141 00:07C2: F0 03        	beq	L82
  1142 00:07C4: 82 95 00     	brl	L10060
  1143                        L82:
  1144 00:07C7: 18           	clc
  1145 00:07C8: A9 03 00     	lda	#$3
  1146 00:07CB: 65 11        	adc	<L62+tp_1
  1147 00:07CD: 85 11        	sta	<L62+tp_1
  1148 00:07CF: 90 02        	bcc	L83
  1149 00:07D1: E6 13        	inc	<L62+tp_1+2
  1150                        L83:
  1151 00:07D3: E2 20        	sep	#$20
  1152                        	longa	off
  1153 00:07D5: A7 11        	lda	[<L62+tp_1]
  1154 00:07D7: C9 3A        	cmp	#<$3a
  Sun Jan  9 2022 20:52                                                Page 21


  1155 00:07D9: C2 20        	rep	#$20
  1156                        	longa	on
  1157 00:07DB: F0 03        	beq	L84
  1158 00:07DD: 82 06 00     	brl	L10061
  1159                        L84:
  1160 00:07E0: E6 11        	inc	<L62+tp_1
  1161 00:07E2: D0 02        	bne	L85
  1162 00:07E4: E6 13        	inc	<L62+tp_1+2
  1163                        L85:
  1164                        L10061:
  1165 00:07E6: A7 11        	lda	[<L62+tp_1]
  1166 00:07E8: 29 FF 00     	and	#$ff
  1167 00:07EB: F0 03        	beq	L86
  1168 00:07ED: 82 64 00     	brl	L10062
  1169                        L86:
  1170 00:07F0: E6 11        	inc	<L62+tp_1
  1171 00:07F2: D0 02        	bne	L87
  1172 00:07F4: E6 13        	inc	<L62+tp_1+2
  1173                        L87:
  1174 00:07F6: E2 20        	sep	#$20
  1175                        	longa	off
  1176 00:07F8: A0 01 00     	ldy	#$1
  1177 00:07FB: B7 11        	lda	[<L62+tp_1],Y
  1178 00:07FD: C9 FF        	cmp	#<$ff
  1179 00:07FF: C2 20        	rep	#$20
  1180                        	longa	on
  1181 00:0801: F0 03        	beq	L88
  1182 00:0803: 82 0A 00     	brl	L10063
  1183                        L88:
  1184 00:0806: F4 2F 00     	pea	#<$2f
  1185 00:0809: F4 04 00     	pea	#4
  1186 00:080C: 22 xx xx xx  	jsl	~~error
  1187                        L10063:
  1188 00:0810: A0 05 00     	ldy	#$5
  1189 00:0813: B7 11        	lda	[<L62+tp_1],Y
  1190 00:0815: 29 FF 00     	and	#$ff
  1191 00:0818: 85 05        	sta	<R1
  1192 00:081A: A5 05        	lda	<R1
  1193 00:081C: EB           	xba
  1194 00:081D: 29 00 FF     	and	#$ff00
  1195 00:0820: 85 01        	sta	<R0
  1196 00:0822: A0 00 00     	ldy	#$0
  1197 00:0825: A5 01        	lda	<R0
  1198 00:0827: 10 01        	bpl	L89
  1199 00:0829: 88           	dey
  1200                        L89:
  1201 00:082A: 85 01        	sta	<R0
  1202 00:082C: 84 03        	sty	<R0+2
  1203 00:082E: A0 04 00     	ldy	#$4
  1204 00:0831: B7 11        	lda	[<L62+tp_1],Y
  1205 00:0833: 29 FF 00     	and	#$ff
  1206 00:0836: 85 05        	sta	<R1
  1207 00:0838: 64 07        	stz	<R1+2
  1208 00:083A: 18           	clc
  1209 00:083B: A5 05        	lda	<R1
  1210 00:083D: 65 01        	adc	<R0
  1211 00:083F: 85 09        	sta	<R2
  1212 00:0841: A5 07        	lda	<R1+2
  Sun Jan  9 2022 20:52                                                Page 22


  1213 00:0843: 65 03        	adc	<R0+2
  1214 00:0845: 85 0B        	sta	<R2+2
  1215 00:0847: 18           	clc
  1216 00:0848: A5 11        	lda	<L62+tp_1
  1217 00:084A: 65 09        	adc	<R2
  1218 00:084C: 85 11        	sta	<L62+tp_1
  1219 00:084E: A5 13        	lda	<L62+tp_1+2
  1220 00:0850: 65 0B        	adc	<R2+2
  1221 00:0852: 85 13        	sta	<L62+tp_1+2
  1222                        L10062:
  1223 00:0854: A5 11        	lda	<L62+tp_1
  1224 00:0856: 85 19        	sta	<L62+defaultaddr_1
  1225 00:0858: A5 13        	lda	<L62+tp_1+2
  1226 00:085A: 85 1B        	sta	<L62+defaultaddr_1+2
  1227                        L10060:
  1228 00:085C: 82 40 00     	brl	L10049
  1229                        L10064:
  1230 00:085F: C6 1F        	dec	<L62+depth_1
  1231 00:0861: A5 1F        	lda	<L62+depth_1
  1232 00:0863: F0 03        	beq	L90
  1233 00:0865: 82 18 00     	brl	L10065
  1234                        L90:
  1235 00:0868: A5 19        	lda	<L62+defaultaddr_1
  1236 00:086A: 05 1B        	ora	<L62+defaultaddr_1+2
  1237 00:086C: F0 03        	beq	L91
  1238 00:086E: 82 0F 00     	brl	L10065
  1239                        L91:
  1240 00:0871: 18           	clc
  1241 00:0872: A9 01 00     	lda	#$1
  1242 00:0875: 65 11        	adc	<L62+tp_1
  1243 00:0877: 85 19        	sta	<L62+defaultaddr_1
  1244 00:0879: A9 00 00     	lda	#$0
  1245 00:087C: 65 13        	adc	<L62+tp_1+2
  1246 00:087E: 85 1B        	sta	<L62+defaultaddr_1+2
  1247                        L10065:
  1248 00:0880: 82 1C 00     	brl	L10049
  1249                        L10048:
  1250                        	xref	~~~swt
  1251 00:0883: 22 xx xx xx  	jsl	~~~swt
  1252 00:0887: 05 00        	dw	5
  1253 00:0889: A4 00        	dw	164
  1254 00:088B: xx xx        	dw	L10064-1
  1255 00:088D: C5 00        	dw	197
  1256 00:088F: xx xx        	dw	L10058-1
  1257 00:0891: C6 00        	dw	198
  1258 00:0893: xx xx        	dw	L10059-1
  1259 00:0895: E9 00        	dw	233
  1260 00:0897: xx xx        	dw	L10050-1
  1261 00:0899: EA 00        	dw	234
  1262 00:089B: xx xx        	dw	L10051-1
  1263 00:089D: xx xx        	dw	L10049-1
  1264                        L10049:
  1265 00:089F: 38           	sec
  1266 00:08A0: A9 00 00     	lda	#$0
  1267 00:08A3: E5 1F        	sbc	<L62+depth_1
  1268 00:08A5: 70 03        	bvs	L92
  1269 00:08A7: 49 00 80     	eor	#$8000
  1270                        L92:
  Sun Jan  9 2022 20:52                                                Page 23


  1271 00:08AA: 10 03        	bpl	L93
  1272 00:08AC: 82 B4 00     	brl	L10066
  1273                        L93:
  1274 00:08AF: A0 05 00     	ldy	#$5
  1275 00:08B2: B7 15        	lda	[<L62+lp_1],Y
  1276 00:08B4: 29 FF 00     	and	#$ff
  1277 00:08B7: 85 05        	sta	<R1
  1278 00:08B9: A5 05        	lda	<R1
  1279 00:08BB: EB           	xba
  1280 00:08BC: 29 00 FF     	and	#$ff00
  1281 00:08BF: 85 01        	sta	<R0
  1282 00:08C1: A0 00 00     	ldy	#$0
  1283 00:08C4: A5 01        	lda	<R0
  1284 00:08C6: 10 01        	bpl	L94
  1285 00:08C8: 88           	dey
  1286                        L94:
  1287 00:08C9: 85 01        	sta	<R0
  1288 00:08CB: 84 03        	sty	<R0+2
  1289 00:08CD: A0 04 00     	ldy	#$4
  1290 00:08D0: B7 15        	lda	[<L62+lp_1],Y
  1291 00:08D2: 29 FF 00     	and	#$ff
  1292 00:08D5: 85 05        	sta	<R1
  1293 00:08D7: 64 07        	stz	<R1+2
  1294 00:08D9: 18           	clc
  1295 00:08DA: A5 05        	lda	<R1
  1296 00:08DC: 65 01        	adc	<R0
  1297 00:08DE: 85 09        	sta	<R2
  1298 00:08E0: A5 07        	lda	<R1+2
  1299 00:08E2: 65 03        	adc	<R0+2
  1300 00:08E4: 85 0B        	sta	<R2+2
  1301 00:08E6: 18           	clc
  1302 00:08E7: A5 15        	lda	<L62+lp_1
  1303 00:08E9: 65 09        	adc	<R2
  1304 00:08EB: 85 11        	sta	<L62+tp_1
  1305 00:08ED: A5 17        	lda	<L62+lp_1+2
  1306 00:08EF: 65 0B        	adc	<R2+2
  1307 00:08F1: 85 13        	sta	<L62+tp_1+2
  1308                        L10067:
  1309 00:08F3: A7 11        	lda	[<L62+tp_1]
  1310 00:08F5: 29 FF 00     	and	#$ff
  1311 00:08F8: D0 03        	bne	L95
  1312 00:08FA: 82 1C 00     	brl	L10068
  1313                        L95:
  1314 00:08FD: E2 20        	sep	#$20
  1315                        	longa	off
  1316 00:08FF: A7 11        	lda	[<L62+tp_1]
  1317 00:0901: C9 90        	cmp	#<$90
  1318 00:0903: C2 20        	rep	#$20
  1319                        	longa	on
  1320 00:0905: D0 03        	bne	L96
  1321 00:0907: 82 0F 00     	brl	L10068
  1322                        L96:
  1323 00:090A: D4 13        	pei	<L62+tp_1+2
  1324 00:090C: D4 11        	pei	<L62+tp_1
  1325 00:090E: 22 xx xx xx  	jsl	~~skip_token
  1326 00:0912: 85 11        	sta	<L62+tp_1
  1327 00:0914: 86 13        	stx	<L62+tp_1+2
  1328 00:0916: 82 DA FF     	brl	L10067
  Sun Jan  9 2022 20:52                                                Page 24


  1329                        L10068:
  1330 00:0919: E2 20        	sep	#$20
  1331                        	longa	off
  1332 00:091B: A7 11        	lda	[<L62+tp_1]
  1333 00:091D: C9 90        	cmp	#<$90
  1334 00:091F: C2 20        	rep	#$20
  1335                        	longa	on
  1336 00:0921: F0 03        	beq	L97
  1337 00:0923: 82 02 00     	brl	L10069
  1338                        L97:
  1339 00:0926: E6 1F        	inc	<L62+depth_1
  1340                        L10069:
  1341 00:0928: A0 02 00     	ldy	#$2
  1342 00:092B: B7 15        	lda	[<L62+lp_1],Y
  1343 00:092D: 29 FF 00     	and	#$ff
  1344 00:0930: 85 01        	sta	<R0
  1345 00:0932: A0 03 00     	ldy	#$3
  1346 00:0935: B7 15        	lda	[<L62+lp_1],Y
  1347 00:0937: 29 FF 00     	and	#$ff
  1348 00:093A: 85 09        	sta	<R2
  1349 00:093C: A5 09        	lda	<R2
  1350 00:093E: EB           	xba
  1351 00:093F: 29 00 FF     	and	#$ff00
  1352 00:0942: 85 05        	sta	<R1
  1353 00:0944: A5 05        	lda	<R1
  1354 00:0946: 05 01        	ora	<R0
  1355 00:0948: 85 09        	sta	<R2
  1356 00:094A: A0 00 00     	ldy	#$0
  1357 00:094D: A5 09        	lda	<R2
  1358 00:094F: 10 01        	bpl	L98
  1359 00:0951: 88           	dey
  1360                        L98:
  1361 00:0952: 85 01        	sta	<R0
  1362 00:0954: 84 03        	sty	<R0+2
  1363 00:0956: 18           	clc
  1364 00:0957: A5 15        	lda	<L62+lp_1
  1365 00:0959: 65 01        	adc	<R0
  1366 00:095B: 85 15        	sta	<L62+lp_1
  1367 00:095D: A5 17        	lda	<L62+lp_1+2
  1368 00:095F: 65 03        	adc	<R0+2
  1369 00:0961: 85 17        	sta	<L62+lp_1+2
  1370                        L10066:
  1371 00:0963: 82 98 FC     	brl	L10045
  1372                        L10046:
  1373 00:0966: A0 00 00     	ldy	#$0
  1374 00:0969: A5 1D        	lda	<L62+whencount_1
  1375 00:096B: 10 01        	bpl	L99
  1376 00:096D: 88           	dey
  1377                        L99:
  1378 00:096E: 85 05        	sta	<R1
  1379 00:0970: 84 07        	sty	<R1+2
  1380 00:0972: D4 07        	pei	<R1+2
  1381 00:0974: D4 05        	pei	<R1
  1382 00:0976: A9 03 00     	lda	#$3
  1383                        	xref	~~~lasl
  1384 00:0979: 22 xx xx xx  	jsl	~~~lasl
  1385 00:097D: 85 01        	sta	<R0
  1386 00:097F: 86 03        	stx	<R0+2
  Sun Jan  9 2022 20:52                                                Page 25


  1387 00:0981: 18           	clc
  1388 00:0982: A9 0E 00     	lda	#$e
  1389 00:0985: 65 01        	adc	<R0
  1390 00:0987: 85 09        	sta	<R2
  1391 00:0989: A9 00 00     	lda	#$0
  1392 00:098C: 65 03        	adc	<R0+2
  1393 00:098E: 85 0B        	sta	<R2+2
  1394 00:0990: D4 09        	pei	<R2
  1395 00:0992: 22 xx xx xx  	jsl	~~allocmem
  1396 00:0996: 85 23        	sta	<L62+cp_1
  1397 00:0998: 86 25        	stx	<L62+cp_1+2
  1398 00:099A: A5 1D        	lda	<L62+whencount_1
  1399 00:099C: 87 23        	sta	[<L62+cp_1]
  1400 00:099E: A5 19        	lda	<L62+defaultaddr_1
  1401 00:09A0: A0 02 00     	ldy	#$2
  1402 00:09A3: 97 23        	sta	[<L62+cp_1],Y
  1403 00:09A5: A5 1B        	lda	<L62+defaultaddr_1+2
  1404 00:09A7: A0 04 00     	ldy	#$4
  1405 00:09AA: 97 23        	sta	[<L62+cp_1],Y
  1406 00:09AC: 64 21        	stz	<L62+n_1
  1407 00:09AE: 82 7C 00     	brl	L10073
  1408                        L10072:
  1409 00:09B1: A0 00 00     	ldy	#$0
  1410 00:09B4: A5 21        	lda	<L62+n_1
  1411 00:09B6: 10 01        	bpl	L100
  1412 00:09B8: 88           	dey
  1413                        L100:
  1414 00:09B9: 85 05        	sta	<R1
  1415 00:09BB: 84 07        	sty	<R1+2
  1416 00:09BD: D4 07        	pei	<R1+2
  1417 00:09BF: D4 05        	pei	<R1
  1418 00:09C1: A9 03 00     	lda	#$3
  1419                        	xref	~~~lasl
  1420 00:09C4: 22 xx xx xx  	jsl	~~~lasl
  1421 00:09C8: 85 01        	sta	<R0
  1422 00:09CA: 86 03        	stx	<R0+2
  1423 00:09CC: 18           	clc
  1424 00:09CD: 7B           	tdc
  1425 00:09CE: 69 27 00     	adc	#<L62+whentable_1
  1426 00:09D1: 85 09        	sta	<R2
  1427 00:09D3: A9 00 00     	lda	#$0
  1428 00:09D6: 85 0B        	sta	<R2+2
  1429 00:09D8: 18           	clc
  1430 00:09D9: A5 09        	lda	<R2
  1431 00:09DB: 65 01        	adc	<R0
  1432 00:09DD: 85 0D        	sta	<R3
  1433 00:09DF: A5 0B        	lda	<R2+2
  1434 00:09E1: 65 03        	adc	<R0+2
  1435 00:09E3: 85 0F        	sta	<R3+2
  1436 00:09E5: D4 0F        	pei	<R3+2
  1437 00:09E7: D4 0D        	pei	<R3
  1438 00:09E9: A0 00 00     	ldy	#$0
  1439 00:09EC: A5 21        	lda	<L62+n_1
  1440 00:09EE: 10 01        	bpl	L101
  1441 00:09F0: 88           	dey
  1442                        L101:
  1443 00:09F1: 85 09        	sta	<R2
  1444 00:09F3: 84 0B        	sty	<R2+2
  Sun Jan  9 2022 20:52                                                Page 26


  1445 00:09F5: D4 0B        	pei	<R2+2
  1446 00:09F7: D4 09        	pei	<R2
  1447 00:09F9: A9 03 00     	lda	#$3
  1448                        	xref	~~~lasl
  1449 00:09FC: 22 xx xx xx  	jsl	~~~lasl
  1450 00:0A00: 85 01        	sta	<R0
  1451 00:0A02: 86 03        	stx	<R0+2
  1452 00:0A04: 18           	clc
  1453 00:0A05: A9 06 00     	lda	#$6
  1454 00:0A08: 65 01        	adc	<R0
  1455 00:0A0A: 85 0D        	sta	<R3
  1456 00:0A0C: A9 00 00     	lda	#$0
  1457 00:0A0F: 65 03        	adc	<R0+2
  1458 00:0A11: 85 0F        	sta	<R3+2
  1459 00:0A13: 18           	clc
  1460 00:0A14: A5 23        	lda	<L62+cp_1
  1461 00:0A16: 65 0D        	adc	<R3
  1462 00:0A18: 85 01        	sta	<R0
  1463 00:0A1A: A5 25        	lda	<L62+cp_1+2
  1464 00:0A1C: 65 0F        	adc	<R3+2
  1465 00:0A1E: 85 03        	sta	<R0+2
  1466 00:0A20: D4 03        	pei	<R0+2
  1467 00:0A22: D4 01        	pei	<R0
  1468 00:0A24: A9 08 00     	lda	#$8
  1469                        	xref	~~~fmov
  1470 00:0A27: 22 xx xx xx  	jsl	~~~fmov
  1471                        L10070:
  1472 00:0A2B: E6 21        	inc	<L62+n_1
  1473                        L10073:
  1474 00:0A2D: 38           	sec
  1475 00:0A2E: A5 21        	lda	<L62+n_1
  1476 00:0A30: E5 1D        	sbc	<L62+whencount_1
  1477 00:0A32: 70 03        	bvs	L102
  1478 00:0A34: 49 00 80     	eor	#$8000
  1479                        L102:
  1480 00:0A37: 30 03        	bmi	L103
  1481 00:0A39: 82 75 FF     	brl	L10072
  1482                        L103:
  1483                        L10071:
  1484 00:0A3C: AD xx xx     	lda	|~~basicvars+62
  1485 00:0A3F: 85 01        	sta	<R0
  1486 00:0A41: AD xx xx     	lda	|~~basicvars+62+2
  1487 00:0A44: 85 03        	sta	<R0+2
  1488 00:0A46: E2 20        	sep	#$20
  1489                        	longa	off
  1490 00:0A48: A9 91        	lda	#$91
  1491 00:0A4A: 87 01        	sta	[<R0]
  1492 00:0A4C: C2 20        	rep	#$20
  1493                        	longa	on
  1494 00:0A4E: D4 25        	pei	<L62+cp_1+2
  1495 00:0A50: D4 23        	pei	<L62+cp_1
  1496 00:0A52: AD xx xx     	lda	|~~basicvars+62+2
  1497 00:0A55: 48           	pha
  1498 00:0A56: AD xx xx     	lda	|~~basicvars+62
  1499 00:0A59: 48           	pha
  1500 00:0A5A: 22 xx xx xx  	jsl	~~set_address
  1501 00:0A5E: 22 xx xx xx  	jsl	~~exec_case
  1502                        L104:
  Sun Jan  9 2022 20:52                                                Page 27


  1503 00:0A62: 2B           	pld
  1504 00:0A63: 3B           	tsc
  1505 00:0A64: 18           	clc
  1506 00:0A65: 69 76 00     	adc	#L61
  1507 00:0A68: 1B           	tcs
  1508 00:0A69: 6B           	rtl
  1509             00000076   L61	equ	118
  1510             00000011   L62	equ	17
  1511                        	ends
  1512                        	efunc
  1513                        	code
  1514                        	xdef	~~exec_chain
  1515                        	func
  1516                        ~~exec_chain:
  1517                        	longa	on
  1518                        	longi	on
  1519 00:0A6A: 3B           	tsc
  1520 00:0A6B: 38           	sec
  1521 00:0A6C: E9 18 00     	sbc	#L105
  1522 00:0A6F: 1B           	tcs
  1523 00:0A70: 0B           	phd
  1524 00:0A71: 5B           	tcd
  1525             00000000   namedesc_1	set	0
  1526             00000006   stringtype_1	set	6
  1527             00000008   filename_1	set	8
  1528 00:0A72: EE xx xx     	inc	|~~basicvars+62
  1529 00:0A75: D0 03        	bne	L107
  1530 00:0A77: EE xx xx     	inc	|~~basicvars+62+2
  1531                        L107:
  1532 00:0A7A: 22 xx xx xx  	jsl	~~expression
  1533 00:0A7E: AD xx xx     	lda	|~~basicvars+42
  1534 00:0A81: 85 01        	sta	<R0
  1535 00:0A83: AD xx xx     	lda	|~~basicvars+42+2
  1536 00:0A86: 85 03        	sta	<R0+2
  1537 00:0A88: A7 01        	lda	[<R0]
  1538 00:0A8A: 85 13        	sta	<L106+stringtype_1
  1539 00:0A8C: A5 13        	lda	<L106+stringtype_1
  1540 00:0A8E: C9 04 00     	cmp	#<$4
  1541 00:0A91: D0 03        	bne	L108
  1542 00:0A93: 82 14 00     	brl	L10074
  1543                        L108:
  1544 00:0A96: A5 13        	lda	<L106+stringtype_1
  1545 00:0A98: C9 05 00     	cmp	#<$5
  1546 00:0A9B: D0 03        	bne	L109
  1547 00:0A9D: 82 0A 00     	brl	L10074
  1548                        L109:
  1549 00:0AA0: F4 40 00     	pea	#<$40
  1550 00:0AA3: F4 04 00     	pea	#4
  1551 00:0AA6: 22 xx xx xx  	jsl	~~error
  1552                        L10074:
  1553 00:0AAA: 22 xx xx xx  	jsl	~~pop_string
  1554 00:0AAE: 85 01        	sta	<R0
  1555 00:0AB0: 86 03        	stx	<R0+2
  1556 00:0AB2: D4 03        	pei	<R0+2
  1557 00:0AB4: D4 01        	pei	<R0
  1558 00:0AB6: 18           	clc
  1559 00:0AB7: 7B           	tdc
  1560 00:0AB8: 69 0D 00     	adc	#<L106+namedesc_1
  Sun Jan  9 2022 20:52                                                Page 28


  1561 00:0ABB: 85 01        	sta	<R0
  1562 00:0ABD: A9 00 00     	lda	#$0
  1563 00:0AC0: 85 03        	sta	<R0+2
  1564 00:0AC2: D4 03        	pei	<R0+2
  1565 00:0AC4: D4 01        	pei	<R0
  1566 00:0AC6: A9 06 00     	lda	#$6
  1567                        	xref	~~~fmov
  1568 00:0AC9: 22 xx xx xx  	jsl	~~~fmov
  1569 00:0ACD: D4 0D        	pei	<L106+namedesc_1
  1570 00:0ACF: D4 11        	pei	<L106+namedesc_1+4
  1571 00:0AD1: D4 0F        	pei	<L106+namedesc_1+2
  1572 00:0AD3: 22 xx xx xx  	jsl	~~tocstring
  1573 00:0AD7: 85 15        	sta	<L106+filename_1
  1574 00:0AD9: 86 17        	stx	<L106+filename_1+2
  1575 00:0ADB: A5 13        	lda	<L106+stringtype_1
  1576 00:0ADD: C9 05 00     	cmp	#<$5
  1577 00:0AE0: F0 03        	beq	L110
  1578 00:0AE2: 82 2A 00     	brl	L10075
  1579                        L110:
  1580 00:0AE5: 38           	sec
  1581 00:0AE6: 3B           	tsc
  1582 00:0AE7: E9 06 00     	sbc	#6
  1583 00:0AEA: 1B           	tcs
  1584 00:0AEB: 1A           	ina
  1585 00:0AEC: 85 01        	sta	<R0
  1586 00:0AEE: 64 03        	stz	<R0+2
  1587 00:0AF0: 18           	clc
  1588 00:0AF1: 7B           	tdc
  1589 00:0AF2: 69 0D 00     	adc	#<L106+namedesc_1
  1590 00:0AF5: 85 05        	sta	<R1
  1591 00:0AF7: A9 00 00     	lda	#$0
  1592 00:0AFA: 85 07        	sta	<R1+2
  1593 00:0AFC: D4 07        	pei	<R1+2
  1594 00:0AFE: D4 05        	pei	<R1
  1595 00:0B00: D4 03        	pei	<R0+2
  1596 00:0B02: D4 01        	pei	<R0
  1597 00:0B04: A9 06 00     	lda	#$6
  1598                        	xref	~~~fmov
  1599 00:0B07: 22 xx xx xx  	jsl	~~~fmov
  1600 00:0B0B: 22 xx xx xx  	jsl	~~free_string
  1601                        L10075:
  1602 00:0B0F: 22 xx xx xx  	jsl	~~check_ateol
  1603 00:0B13: 22 xx xx xx  	jsl	~~clear_error
  1604 00:0B17: D4 17        	pei	<L106+filename_1+2
  1605 00:0B19: D4 15        	pei	<L106+filename_1
  1606 00:0B1B: 22 xx xx xx  	jsl	~~read_basic
  1607 00:0B1F: 22 xx xx xx  	jsl	~~init_expressions
  1608 00:0B23: 9C xx xx     	stz	|~~basicvars+407
  1609 00:0B26: 9C xx xx     	stz	|~~basicvars+407+2
  1610 00:0B29: 9C xx xx     	stz	|~~basicvars+447
  1611 00:0B2C: A9 10 00     	lda	#$10
  1612 00:0B2F: 1C xx xx     	trb	~~basicvars+423
  1613 00:0B32: AD xx xx     	lda	|~~basicvars+22
  1614 00:0B35: 85 05        	sta	<R1
  1615 00:0B37: AD xx xx     	lda	|~~basicvars+22+2
  1616 00:0B3A: 85 07        	sta	<R1+2
  1617 00:0B3C: A0 05 00     	ldy	#$5
  1618 00:0B3F: B7 05        	lda	[<R1],Y
  Sun Jan  9 2022 20:52                                                Page 29


  1619 00:0B41: 29 FF 00     	and	#$ff
  1620 00:0B44: 85 05        	sta	<R1
  1621 00:0B46: A5 05        	lda	<R1
  1622 00:0B48: EB           	xba
  1623 00:0B49: 29 00 FF     	and	#$ff00
  1624 00:0B4C: 85 01        	sta	<R0
  1625 00:0B4E: A0 00 00     	ldy	#$0
  1626 00:0B51: A5 01        	lda	<R0
  1627 00:0B53: 10 01        	bpl	L111
  1628 00:0B55: 88           	dey
  1629                        L111:
  1630 00:0B56: 85 01        	sta	<R0
  1631 00:0B58: 84 03        	sty	<R0+2
  1632 00:0B5A: AD xx xx     	lda	|~~basicvars+22
  1633 00:0B5D: 85 05        	sta	<R1
  1634 00:0B5F: AD xx xx     	lda	|~~basicvars+22+2
  1635 00:0B62: 85 07        	sta	<R1+2
  1636 00:0B64: A0 04 00     	ldy	#$4
  1637 00:0B67: B7 05        	lda	[<R1],Y
  1638 00:0B69: 29 FF 00     	and	#$ff
  1639 00:0B6C: 85 05        	sta	<R1
  1640 00:0B6E: 64 07        	stz	<R1+2
  1641 00:0B70: 18           	clc
  1642 00:0B71: A5 05        	lda	<R1
  1643 00:0B73: 65 01        	adc	<R0
  1644 00:0B75: 85 09        	sta	<R2
  1645 00:0B77: A5 07        	lda	<R1+2
  1646 00:0B79: 65 03        	adc	<R0+2
  1647 00:0B7B: 85 0B        	sta	<R2+2
  1648 00:0B7D: 18           	clc
  1649 00:0B7E: AD xx xx     	lda	|~~basicvars+22
  1650 00:0B81: 65 09        	adc	<R2
  1651 00:0B83: 8D xx xx     	sta	|~~basicvars+62
  1652 00:0B86: AD xx xx     	lda	|~~basicvars+22+2
  1653 00:0B89: 65 0B        	adc	<R2+2
  1654 00:0B8B: 8D xx xx     	sta	|~~basicvars+62+2
  1655                        L112:
  1656 00:0B8E: 2B           	pld
  1657 00:0B8F: 3B           	tsc
  1658 00:0B90: 18           	clc
  1659 00:0B91: 69 18 00     	adc	#L105
  1660 00:0B94: 1B           	tcs
  1661 00:0B95: 6B           	rtl
  1662             00000018   L105	equ	24
  1663             0000000D   L106	equ	13
  1664                        	ends
  1665                        	efunc
  1666                        	code
  1667                        	xdef	~~exec_clear
  1668                        	func
  1669                        ~~exec_clear:
  1670                        	longa	on
  1671                        	longi	on
  1672 00:0B96: 3B           	tsc
  1673 00:0B97: 38           	sec
  1674 00:0B98: E9 00 00     	sbc	#L113
  1675 00:0B9B: 1B           	tcs
  1676 00:0B9C: 0B           	phd
  Sun Jan  9 2022 20:52                                                Page 30


  1677 00:0B9D: 5B           	tcd
  1678 00:0B9E: EE xx xx     	inc	|~~basicvars+62
  1679 00:0BA1: D0 03        	bne	L115
  1680 00:0BA3: EE xx xx     	inc	|~~basicvars+62+2
  1681                        L115:
  1682 00:0BA6: 22 xx xx xx  	jsl	~~check_ateol
  1683 00:0BAA: 22 xx xx xx  	jsl	~~clear_varptrs
  1684 00:0BAE: 22 xx xx xx  	jsl	~~clear_varlists
  1685 00:0BB2: 22 xx xx xx  	jsl	~~clear_strings
  1686 00:0BB6: 22 xx xx xx  	jsl	~~clear_heap
  1687 00:0BBA: 22 xx xx xx  	jsl	~~clear_stack
  1688 00:0BBE: 22 xx xx xx  	jsl	~~init_expressions
  1689                        L116:
  1690 00:0BC2: 2B           	pld
  1691 00:0BC3: 3B           	tsc
  1692 00:0BC4: 18           	clc
  1693 00:0BC5: 69 00 00     	adc	#L113
  1694 00:0BC8: 1B           	tcs
  1695 00:0BC9: 6B           	rtl
  1696             00000000   L113	equ	0
  1697             00000001   L114	equ	1
  1698                        	ends
  1699                        	efunc
  1700                        	code
  1701                        	xdef	~~exec_data
  1702                        	func
  1703                        ~~exec_data:
  1704                        	longa	on
  1705                        	longi	on
  1706 00:0BCA: 3B           	tsc
  1707 00:0BCB: 38           	sec
  1708 00:0BCC: E9 00 00     	sbc	#L117
  1709 00:0BCF: 1B           	tcs
  1710 00:0BD0: 0B           	phd
  1711 00:0BD1: 5B           	tcd
  1712 00:0BD2: AD xx xx     	lda	|~~basicvars+62+2
  1713 00:0BD5: 48           	pha
  1714 00:0BD6: AD xx xx     	lda	|~~basicvars+62
  1715 00:0BD9: 48           	pha
  1716 00:0BDA: 22 xx xx xx  	jsl	~~skip_token
  1717 00:0BDE: 8D xx xx     	sta	|~~basicvars+62
  1718 00:0BE1: 8E xx xx     	stx	|~~basicvars+62+2
  1719                        L119:
  1720 00:0BE4: 2B           	pld
  1721 00:0BE5: 3B           	tsc
  1722 00:0BE6: 18           	clc
  1723 00:0BE7: 69 00 00     	adc	#L117
  1724 00:0BEA: 1B           	tcs
  1725 00:0BEB: 6B           	rtl
  1726             00000000   L117	equ	0
  1727             00000001   L118	equ	1
  1728                        	ends
  1729                        	efunc
  1730                        	code
  1731                        	xdef	~~exec_def
  1732                        	func
  1733                        ~~exec_def:
  1734                        	longa	on
  Sun Jan  9 2022 20:52                                                Page 31


  1735                        	longi	on
  1736 00:0BEC: 3B           	tsc
  1737 00:0BED: 38           	sec
  1738 00:0BEE: E9 10 00     	sbc	#L120
  1739 00:0BF1: 1B           	tcs
  1740 00:0BF2: 0B           	phd
  1741 00:0BF3: 5B           	tcd
  1742             00000000   tp_1	set	0
  1743             00000004   base_1	set	4
  1744 00:0BF4: EE xx xx     	inc	|~~basicvars+62
  1745 00:0BF7: D0 03        	bne	L122
  1746 00:0BF9: EE xx xx     	inc	|~~basicvars+62+2
  1747                        L122:
  1748 00:0BFC: AD xx xx     	lda	|~~basicvars+62
  1749 00:0BFF: 85 01        	sta	<R0
  1750 00:0C01: AD xx xx     	lda	|~~basicvars+62+2
  1751 00:0C04: 85 03        	sta	<R0+2
  1752 00:0C06: E2 20        	sep	#$20
  1753                        	longa	off
  1754 00:0C08: A7 01        	lda	[<R0]
  1755 00:0C0A: C9 0C        	cmp	#<$c
  1756 00:0C0C: C2 20        	rep	#$20
  1757                        	longa	on
  1758 00:0C0E: D0 03        	bne	L123
  1759 00:0C10: 82 3B 00     	brl	L10076
  1760                        L123:
  1761                        L10077:
  1762 00:0C13: AD xx xx     	lda	|~~basicvars+62
  1763 00:0C16: 85 01        	sta	<R0
  1764 00:0C18: AD xx xx     	lda	|~~basicvars+62+2
  1765 00:0C1B: 85 03        	sta	<R0+2
  1766 00:0C1D: A7 01        	lda	[<R0]
  1767 00:0C1F: 29 FF 00     	and	#$ff
  1768 00:0C22: 85 01        	sta	<R0
  1769 00:0C24: A6 01        	ldx	<R0
  1770 00:0C26: BD xx xx     	lda	|~~ateol,X
  1771 00:0C29: 29 FF 00     	and	#$ff
  1772 00:0C2C: F0 03        	beq	L124
  1773 00:0C2E: 82 15 00     	brl	L10078
  1774                        L124:
  1775 00:0C31: AD xx xx     	lda	|~~basicvars+62+2
  1776 00:0C34: 48           	pha
  1777 00:0C35: AD xx xx     	lda	|~~basicvars+62
  1778 00:0C38: 48           	pha
  1779 00:0C39: 22 xx xx xx  	jsl	~~skip_token
  1780 00:0C3D: 8D xx xx     	sta	|~~basicvars+62
  1781 00:0C40: 8E xx xx     	stx	|~~basicvars+62+2
  1782 00:0C43: 82 CD FF     	brl	L10077
  1783                        L10078:
  1784                        L125:
  1785 00:0C46: 2B           	pld
  1786 00:0C47: 3B           	tsc
  1787 00:0C48: 18           	clc
  1788 00:0C49: 69 10 00     	adc	#L120
  1789 00:0C4C: 1B           	tcs
  1790 00:0C4D: 6B           	rtl
  1791                        L10076:
  1792 00:0C4E: AD xx xx     	lda	|~~basicvars+62+2
  Sun Jan  9 2022 20:52                                                Page 32


  1793 00:0C51: 48           	pha
  1794 00:0C52: AD xx xx     	lda	|~~basicvars+62
  1795 00:0C55: 48           	pha
  1796 00:0C56: 22 xx xx xx  	jsl	~~get_srcaddr
  1797 00:0C5A: 85 09        	sta	<L121+tp_1
  1798 00:0C5C: 86 0B        	stx	<L121+tp_1+2
  1799 00:0C5E: E2 20        	sep	#$20
  1800                        	longa	off
  1801 00:0C60: A7 09        	lda	[<L121+tp_1]
  1802 00:0C62: C9 CD        	cmp	#<$cd
  1803 00:0C64: C2 20        	rep	#$20
  1804                        	longa	on
  1805 00:0C66: F0 03        	beq	L126
  1806 00:0C68: 82 0A 00     	brl	L10079
  1807                        L126:
  1808 00:0C6B: F4 16 00     	pea	#<$16
  1809 00:0C6E: F4 04 00     	pea	#4
  1810 00:0C71: 22 xx xx xx  	jsl	~~error
  1811                        L10079:
  1812 00:0C75: 18           	clc
  1813 00:0C76: A9 05 00     	lda	#$5
  1814 00:0C79: 6D xx xx     	adc	|~~basicvars+62
  1815 00:0C7C: 85 09        	sta	<L121+tp_1
  1816 00:0C7E: A9 00 00     	lda	#$0
  1817 00:0C81: 6D xx xx     	adc	|~~basicvars+62+2
  1818 00:0C84: 85 0B        	sta	<L121+tp_1+2
  1819 00:0C86: E2 20        	sep	#$20
  1820                        	longa	off
  1821 00:0C88: A7 09        	lda	[<L121+tp_1]
  1822 00:0C8A: C9 28        	cmp	#<$28
  1823 00:0C8C: C2 20        	rep	#$20
  1824                        	longa	on
  1825 00:0C8E: F0 03        	beq	L127
  1826 00:0C90: 82 FE 00     	brl	L10080
  1827                        L127:
  1828 00:0C93: E6 09        	inc	<L121+tp_1
  1829 00:0C95: D0 02        	bne	L128
  1830 00:0C97: E6 0B        	inc	<L121+tp_1+2
  1831                        L128:
  1832                        L10081:
  1833 00:0C99: A7 09        	lda	[<L121+tp_1]
  1834 00:0C9B: 29 FF 00     	and	#$ff
  1835 00:0C9E: 85 01        	sta	<R0
  1836 00:0CA0: A6 01        	ldx	<R0
  1837 00:0CA2: BD xx xx     	lda	|~~ateol,X
  1838 00:0CA5: 29 FF 00     	and	#$ff
  1839 00:0CA8: F0 03        	beq	L129
  1840 00:0CAA: 82 D1 00     	brl	L10082
  1841                        L129:
  1842 00:0CAD: E2 20        	sep	#$20
  1843                        	longa	off
  1844 00:0CAF: A7 09        	lda	[<L121+tp_1]
  1845 00:0CB1: C9 D5        	cmp	#<$d5
  1846 00:0CB3: C2 20        	rep	#$20
  1847                        	longa	on
  1848 00:0CB5: F0 03        	beq	L130
  1849 00:0CB7: 82 06 00     	brl	L10083
  1850                        L130:
  Sun Jan  9 2022 20:52                                                Page 33


  1851 00:0CBA: E6 09        	inc	<L121+tp_1
  1852 00:0CBC: D0 02        	bne	L131
  1853 00:0CBE: E6 0B        	inc	<L121+tp_1+2
  1854                        L131:
  1855                        L10083:
  1856 00:0CC0: E2 20        	sep	#$20
  1857                        	longa	off
  1858 00:0CC2: A7 09        	lda	[<L121+tp_1]
  1859 00:0CC4: C9 01        	cmp	#<$1
  1860 00:0CC6: C2 20        	rep	#$20
  1861                        	longa	on
  1862 00:0CC8: F0 03        	beq	L132
  1863 00:0CCA: 82 5E 00     	brl	L10084
  1864                        L132:
  1865 00:0CCD: A5 09        	lda	<L121+tp_1
  1866 00:0CCF: 85 0D        	sta	<L121+base_1
  1867 00:0CD1: A5 0B        	lda	<L121+tp_1+2
  1868 00:0CD3: 85 0F        	sta	<L121+base_1+2
  1869 00:0CD5: 18           	clc
  1870 00:0CD6: A9 05 00     	lda	#$5
  1871 00:0CD9: 65 09        	adc	<L121+tp_1
  1872 00:0CDB: 85 09        	sta	<L121+tp_1
  1873 00:0CDD: 90 02        	bcc	L133
  1874 00:0CDF: E6 0B        	inc	<L121+tp_1+2
  1875                        L133:
  1876 00:0CE1: E2 20        	sep	#$20
  1877                        	longa	off
  1878 00:0CE3: A7 09        	lda	[<L121+tp_1]
  1879 00:0CE5: C9 29        	cmp	#<$29
  1880 00:0CE7: C2 20        	rep	#$20
  1881                        	longa	on
  1882 00:0CE9: F0 03        	beq	L134
  1883 00:0CEB: 82 3A 00     	brl	L10085
  1884                        L134:
  1885 00:0CEE: D4 0F        	pei	<L121+base_1+2
  1886 00:0CF0: D4 0D        	pei	<L121+base_1
  1887 00:0CF2: 22 xx xx xx  	jsl	~~get_srcaddr
  1888 00:0CF6: 85 0D        	sta	<L121+base_1
  1889 00:0CF8: 86 0F        	stx	<L121+base_1+2
  1890 00:0CFA: D4 0F        	pei	<L121+base_1+2
  1891 00:0CFC: D4 0D        	pei	<L121+base_1
  1892 00:0CFE: 22 xx xx xx  	jsl	~~skip_name
  1893 00:0D02: 85 01        	sta	<R0
  1894 00:0D04: 86 03        	stx	<R0+2
  1895 00:0D06: 18           	clc
  1896 00:0D07: A9 FF FF     	lda	#$ffff
  1897 00:0D0A: 65 01        	adc	<R0
  1898 00:0D0C: 85 05        	sta	<R1
  1899 00:0D0E: A9 FF FF     	lda	#$ffff
  1900 00:0D11: 65 03        	adc	<R0+2
  1901 00:0D13: 85 07        	sta	<R1+2
  1902 00:0D15: E2 20        	sep	#$20
  1903                        	longa	off
  1904 00:0D17: A7 05        	lda	[<R1]
  1905 00:0D19: C9 28        	cmp	#<$28
  1906 00:0D1B: C2 20        	rep	#$20
  1907                        	longa	on
  1908 00:0D1D: F0 03        	beq	L135
  Sun Jan  9 2022 20:52                                                Page 34


  1909 00:0D1F: 82 06 00     	brl	L10086
  1910                        L135:
  1911 00:0D22: E6 09        	inc	<L121+tp_1
  1912 00:0D24: D0 02        	bne	L136
  1913 00:0D26: E6 0B        	inc	<L121+tp_1+2
  1914                        L136:
  1915                        L10086:
  1916                        L10085:
  1917 00:0D28: 82 26 00     	brl	L10087
  1918                        L10084:
  1919 00:0D2B: E2 20        	sep	#$20
  1920                        	longa	off
  1921 00:0D2D: A7 09        	lda	[<L121+tp_1]
  1922 00:0D2F: C9 02        	cmp	#<$2
  1923 00:0D31: C2 20        	rep	#$20
  1924                        	longa	on
  1925 00:0D33: F0 03        	beq	L137
  1926 00:0D35: 82 0F 00     	brl	L10088
  1927                        L137:
  1928 00:0D38: 18           	clc
  1929 00:0D39: A9 02 00     	lda	#$2
  1930 00:0D3C: 65 09        	adc	<L121+tp_1
  1931 00:0D3E: 85 09        	sta	<L121+tp_1
  1932 00:0D40: 90 02        	bcc	L138
  1933 00:0D42: E6 0B        	inc	<L121+tp_1+2
  1934                        L138:
  1935 00:0D44: 82 0A 00     	brl	L10089
  1936                        L10088:
  1937 00:0D47: F4 05 00     	pea	#<$5
  1938 00:0D4A: F4 04 00     	pea	#4
  1939 00:0D4D: 22 xx xx xx  	jsl	~~error
  1940                        L10089:
  1941                        L10087:
  1942 00:0D51: E2 20        	sep	#$20
  1943                        	longa	off
  1944 00:0D53: A7 09        	lda	[<L121+tp_1]
  1945 00:0D55: C9 29        	cmp	#<$29
  1946 00:0D57: C2 20        	rep	#$20
  1947                        	longa	on
  1948 00:0D59: D0 03        	bne	L139
  1949 00:0D5B: 82 20 00     	brl	L10082
  1950                        L139:
  1951 00:0D5E: E2 20        	sep	#$20
  1952                        	longa	off
  1953 00:0D60: A7 09        	lda	[<L121+tp_1]
  1954 00:0D62: C9 2C        	cmp	#<$2c
  1955 00:0D64: C2 20        	rep	#$20
  1956                        	longa	on
  1957 00:0D66: D0 03        	bne	L140
  1958 00:0D68: 82 0A 00     	brl	L10090
  1959                        L140:
  1960 00:0D6B: F4 05 00     	pea	#<$5
  1961 00:0D6E: F4 04 00     	pea	#4
  1962 00:0D71: 22 xx xx xx  	jsl	~~error
  1963                        L10090:
  1964 00:0D75: E6 09        	inc	<L121+tp_1
  1965 00:0D77: D0 02        	bne	L141
  1966 00:0D79: E6 0B        	inc	<L121+tp_1+2
  Sun Jan  9 2022 20:52                                                Page 35


  1967                        L141:
  1968 00:0D7B: 82 1B FF     	brl	L10081
  1969                        L10082:
  1970 00:0D7E: E2 20        	sep	#$20
  1971                        	longa	off
  1972 00:0D80: A7 09        	lda	[<L121+tp_1]
  1973 00:0D82: C9 29        	cmp	#<$29
  1974 00:0D84: C2 20        	rep	#$20
  1975                        	longa	on
  1976 00:0D86: F0 03        	beq	L142
  1977 00:0D88: 82 06 00     	brl	L10091
  1978                        L142:
  1979 00:0D8B: E6 09        	inc	<L121+tp_1
  1980 00:0D8D: D0 02        	bne	L143
  1981 00:0D8F: E6 0B        	inc	<L121+tp_1+2
  1982                        L143:
  1983                        L10091:
  1984                        L10080:
  1985 00:0D91: E2 20        	sep	#$20
  1986                        	longa	off
  1987 00:0D93: A7 09        	lda	[<L121+tp_1]
  1988 00:0D95: C9 3D        	cmp	#<$3d
  1989 00:0D97: C2 20        	rep	#$20
  1990                        	longa	on
  1991 00:0D99: D0 03        	bne	L144
  1992 00:0D9B: 82 0A 00     	brl	L10092
  1993                        L144:
  1994 00:0D9E: F4 16 00     	pea	#<$16
  1995 00:0DA1: F4 04 00     	pea	#4
  1996 00:0DA4: 22 xx xx xx  	jsl	~~error
  1997                        L10092:
  1998                        L10095:
  1999 00:0DA8: D4 0B        	pei	<L121+tp_1+2
  2000 00:0DAA: D4 09        	pei	<L121+tp_1
  2001 00:0DAC: 22 xx xx xx  	jsl	~~skip_token
  2002 00:0DB0: 85 09        	sta	<L121+tp_1
  2003 00:0DB2: 86 0B        	stx	<L121+tp_1+2
  2004                        L10093:
  2005 00:0DB4: A7 09        	lda	[<L121+tp_1]
  2006 00:0DB6: 29 FF 00     	and	#$ff
  2007 00:0DB9: 85 01        	sta	<R0
  2008 00:0DBB: A6 01        	ldx	<R0
  2009 00:0DBD: BD xx xx     	lda	|~~ateol,X
  2010 00:0DC0: 29 FF 00     	and	#$ff
  2011 00:0DC3: D0 03        	bne	L145
  2012 00:0DC5: 82 E0 FF     	brl	L10095
  2013                        L145:
  2014                        L10094:
  2015 00:0DC8: A5 09        	lda	<L121+tp_1
  2016 00:0DCA: 8D xx xx     	sta	|~~basicvars+62
  2017 00:0DCD: A5 0B        	lda	<L121+tp_1+2
  2018 00:0DCF: 8D xx xx     	sta	|~~basicvars+62+2
  2019 00:0DD2: 82 71 FE     	brl	L125
  2020             00000010   L120	equ	16
  2021             00000009   L121	equ	9
  2022                        	ends
  2023                        	efunc
  2024                        	code
  Sun Jan  9 2022 20:52                                                Page 36


  2025                        	func
  2026                        ~~define_byte_array:
  2027                        	longa	on
  2028                        	longi	on
  2029 00:0DD5: 3B           	tsc
  2030 00:0DD6: 38           	sec
  2031 00:0DD7: E9 12 00     	sbc	#L146
  2032 00:0DDA: 1B           	tcs
  2033 00:0DDB: 0B           	phd
  2034 00:0DDC: 5B           	tcd
  2035             00000004   vp_0	set	4
  2036             00000000   isindref_1	set	0
  2037             00000001   islocal_1	set	1
  2038             00000002   offset_1	set	2
  2039             00000004   highindex_1	set	4
  2040             00000006   ep_1	set	6
  2041 00:0DDD: A0 04 00     	ldy	#$4
  2042 00:0DE0: B7 16        	lda	[<L146+vp_0],Y
  2043 00:0DE2: C9 02 00     	cmp	#<$2
  2044 00:0DE5: D0 03        	bne	L148
  2045 00:0DE7: 82 17 00     	brl	L10096
  2046                        L148:
  2047 00:0DEA: A0 04 00     	ldy	#$4
  2048 00:0DED: B7 16        	lda	[<L146+vp_0],Y
  2049 00:0DEF: C9 03 00     	cmp	#<$3
  2050 00:0DF2: D0 03        	bne	L149
  2051 00:0DF4: 82 0A 00     	brl	L10096
  2052                        L149:
  2053 00:0DF7: F4 43 00     	pea	#<$43
  2054 00:0DFA: F4 04 00     	pea	#4
  2055 00:0DFD: 22 xx xx xx  	jsl	~~error
  2056                        L10096:
  2057 00:0E01: 64 01        	stz	<R0
  2058 00:0E03: AD xx xx     	lda	|~~basicvars+62
  2059 00:0E06: 85 05        	sta	<R1
  2060 00:0E08: AD xx xx     	lda	|~~basicvars+62+2
  2061 00:0E0B: 85 07        	sta	<R1+2
  2062 00:0E0D: E2 20        	sep	#$20
  2063                        	longa	off
  2064 00:0E0F: A7 05        	lda	[<R1]
  2065 00:0E11: C9 21        	cmp	#<$21
  2066 00:0E13: C2 20        	rep	#$20
  2067                        	longa	on
  2068 00:0E15: F0 03        	beq	L151
  2069 00:0E17: 82 02 00     	brl	L150
  2070                        L151:
  2071 00:0E1A: E6 01        	inc	<R0
  2072                        L150:
  2073 00:0E1C: E2 20        	sep	#$20
  2074                        	longa	off
  2075 00:0E1E: A5 01        	lda	<R0
  2076 00:0E20: 85 09        	sta	<L147+isindref_1
  2077 00:0E22: C2 20        	rep	#$20
  2078                        	longa	on
  2079 00:0E24: A5 09        	lda	<L147+isindref_1
  2080 00:0E26: 29 FF 00     	and	#$ff
  2081 00:0E29: D0 03        	bne	L152
  2082 00:0E2B: 82 4B 00     	brl	L10097
  Sun Jan  9 2022 20:52                                                Page 37


  2083                        L152:
  2084 00:0E2E: EE xx xx     	inc	|~~basicvars+62
  2085 00:0E31: D0 03        	bne	L153
  2086 00:0E33: EE xx xx     	inc	|~~basicvars+62+2
  2087                        L153:
  2088 00:0E36: A0 04 00     	ldy	#$4
  2089 00:0E39: B7 16        	lda	[<L146+vp_0],Y
  2090 00:0E3B: C9 02 00     	cmp	#<$2
  2091 00:0E3E: F0 03        	beq	L154
  2092 00:0E40: 82 13 00     	brl	L10098
  2093                        L154:
  2094 00:0E43: 22 xx xx xx  	jsl	~~eval_intfactor
  2095 00:0E47: 85 01        	sta	<R0
  2096 00:0E49: 18           	clc
  2097 00:0E4A: A5 01        	lda	<R0
  2098 00:0E4C: A0 10 00     	ldy	#$10
  2099 00:0E4F: 77 16        	adc	[<L146+vp_0],Y
  2100 00:0E51: 85 0B        	sta	<L147+offset_1
  2101 00:0E53: 82 23 00     	brl	L10099
  2102                        L10098:
  2103 00:0E56: A0 12 00     	ldy	#$12
  2104 00:0E59: B7 16        	lda	[<L146+vp_0],Y
  2105 00:0E5B: 48           	pha
  2106 00:0E5C: A0 10 00     	ldy	#$10
  2107 00:0E5F: B7 16        	lda	[<L146+vp_0],Y
  2108 00:0E61: 48           	pha
  2109                        	xref	~~~ffix
  2110 00:0E62: 22 xx xx xx  	jsl	~~~ffix
  2111 00:0E66: 68           	pla
  2112 00:0E67: 85 01        	sta	<R0
  2113 00:0E69: 68           	pla
  2114 00:0E6A: 85 03        	sta	<R0+2
  2115 00:0E6C: 22 xx xx xx  	jsl	~~eval_intfactor
  2116 00:0E70: 85 05        	sta	<R1
  2117 00:0E72: 18           	clc
  2118 00:0E73: A5 05        	lda	<R1
  2119 00:0E75: 65 01        	adc	<R0
  2120 00:0E77: 85 0B        	sta	<L147+offset_1
  2121                        L10099:
  2122                        L10097:
  2123 00:0E79: 64 01        	stz	<R0
  2124 00:0E7B: AD xx xx     	lda	|~~basicvars+62
  2125 00:0E7E: 85 05        	sta	<R1
  2126 00:0E80: AD xx xx     	lda	|~~basicvars+62+2
  2127 00:0E83: 85 07        	sta	<R1+2
  2128 00:0E85: E2 20        	sep	#$20
  2129                        	longa	off
  2130 00:0E87: A7 05        	lda	[<R1]
  2131 00:0E89: C9 B9        	cmp	#<$b9
  2132 00:0E8B: C2 20        	rep	#$20
  2133                        	longa	on
  2134 00:0E8D: F0 03        	beq	L156
  2135 00:0E8F: 82 02 00     	brl	L155
  2136                        L156:
  2137 00:0E92: E6 01        	inc	<R0
  2138                        L155:
  2139 00:0E94: E2 20        	sep	#$20
  2140                        	longa	off
  Sun Jan  9 2022 20:52                                                Page 38


  2141 00:0E96: A5 01        	lda	<R0
  2142 00:0E98: 85 0A        	sta	<L147+islocal_1
  2143 00:0E9A: C2 20        	rep	#$20
  2144                        	longa	on
  2145 00:0E9C: A5 0A        	lda	<L147+islocal_1
  2146 00:0E9E: 29 FF 00     	and	#$ff
  2147 00:0EA1: D0 03        	bne	L157
  2148 00:0EA3: 82 6E 00     	brl	L10100
  2149                        L157:
  2150 00:0EA6: AD xx xx     	lda	|~~basicvars+399
  2151 00:0EA9: 0D xx xx     	ora	|~~basicvars+399+2
  2152 00:0EAC: F0 03        	beq	L158
  2153 00:0EAE: 82 0A 00     	brl	L10101
  2154                        L158:
  2155 00:0EB1: F4 57 00     	pea	#<$57
  2156 00:0EB4: F4 04 00     	pea	#4
  2157 00:0EB7: 22 xx xx xx  	jsl	~~error
  2158                        L10101:
  2159 00:0EBB: EE xx xx     	inc	|~~basicvars+62
  2160 00:0EBE: D0 03        	bne	L159
  2161 00:0EC0: EE xx xx     	inc	|~~basicvars+62+2
  2162                        L159:
  2163 00:0EC3: 22 xx xx xx  	jsl	~~eval_integer
  2164 00:0EC7: 85 0D        	sta	<L147+highindex_1
  2165 00:0EC9: A5 0D        	lda	<L147+highindex_1
  2166 00:0ECB: 30 03        	bmi	L160
  2167 00:0ECD: 82 16 00     	brl	L10102
  2168                        L160:
  2169 00:0ED0: A0 08 00     	ldy	#$8
  2170 00:0ED3: B7 16        	lda	[<L146+vp_0],Y
  2171 00:0ED5: 48           	pha
  2172 00:0ED6: A0 06 00     	ldy	#$6
  2173 00:0ED9: B7 16        	lda	[<L146+vp_0],Y
  2174 00:0EDB: 48           	pha
  2175 00:0EDC: F4 19 00     	pea	#<$19
  2176 00:0EDF: F4 08 00     	pea	#8
  2177 00:0EE2: 22 xx xx xx  	jsl	~~error
  2178                        L10102:
  2179 00:0EE6: A5 0D        	lda	<L147+highindex_1
  2180 00:0EE8: 1A           	ina
  2181 00:0EE9: 48           	pha
  2182 00:0EEA: 22 xx xx xx  	jsl	~~alloc_stackmem
  2183 00:0EEE: 85 0F        	sta	<L147+ep_1
  2184 00:0EF0: 86 11        	stx	<L147+ep_1+2
  2185 00:0EF2: A5 0F        	lda	<L147+ep_1
  2186 00:0EF4: 05 11        	ora	<L147+ep_1+2
  2187 00:0EF6: F0 03        	beq	L161
  2188 00:0EF8: 82 16 00     	brl	L10103
  2189                        L161:
  2190 00:0EFB: A0 08 00     	ldy	#$8
  2191 00:0EFE: B7 16        	lda	[<L146+vp_0],Y
  2192 00:0F00: 48           	pha
  2193 00:0F01: A0 06 00     	ldy	#$6
  2194 00:0F04: B7 16        	lda	[<L146+vp_0],Y
  2195 00:0F06: 48           	pha
  2196 00:0F07: F4 18 00     	pea	#<$18
  2197 00:0F0A: F4 08 00     	pea	#8
  2198 00:0F0D: 22 xx xx xx  	jsl	~~error
  Sun Jan  9 2022 20:52                                                Page 39


  2199                        L10103:
  2200 00:0F11: 82 6E 00     	brl	L10104
  2201                        L10100:
  2202 00:0F14: 22 xx xx xx  	jsl	~~eval_integer
  2203 00:0F18: 85 0D        	sta	<L147+highindex_1
  2204 00:0F1A: 38           	sec
  2205 00:0F1B: A5 0D        	lda	<L147+highindex_1
  2206 00:0F1D: E9 FF FF     	sbc	#<$ffffffff
  2207 00:0F20: 70 03        	bvs	L162
  2208 00:0F22: 49 00 80     	eor	#$8000
  2209                        L162:
  2210 00:0F25: 10 03        	bpl	L163
  2211 00:0F27: 82 16 00     	brl	L10105
  2212                        L163:
  2213 00:0F2A: A0 08 00     	ldy	#$8
  2214 00:0F2D: B7 16        	lda	[<L146+vp_0],Y
  2215 00:0F2F: 48           	pha
  2216 00:0F30: A0 06 00     	ldy	#$6
  2217 00:0F33: B7 16        	lda	[<L146+vp_0],Y
  2218 00:0F35: 48           	pha
  2219 00:0F36: F4 19 00     	pea	#<$19
  2220 00:0F39: F4 08 00     	pea	#8
  2221 00:0F3C: 22 xx xx xx  	jsl	~~error
  2222                        L10105:
  2223 00:0F40: A5 0D        	lda	<L147+highindex_1
  2224 00:0F42: C9 FF FF     	cmp	#<$ffffffff
  2225 00:0F45: F0 03        	beq	L164
  2226 00:0F47: 82 0D 00     	brl	L10106
  2227                        L164:
  2228 00:0F4A: AD xx xx     	lda	|~~basicvars+34
  2229 00:0F4D: 85 0F        	sta	<L147+ep_1
  2230 00:0F4F: AD xx xx     	lda	|~~basicvars+34+2
  2231 00:0F52: 85 11        	sta	<L147+ep_1+2
  2232 00:0F54: 82 2B 00     	brl	L10107
  2233                        L10106:
  2234 00:0F57: A5 0D        	lda	<L147+highindex_1
  2235 00:0F59: 1A           	ina
  2236 00:0F5A: 48           	pha
  2237 00:0F5B: 22 xx xx xx  	jsl	~~condalloc
  2238 00:0F5F: 85 0F        	sta	<L147+ep_1
  2239 00:0F61: 86 11        	stx	<L147+ep_1+2
  2240 00:0F63: A5 0F        	lda	<L147+ep_1
  2241 00:0F65: 05 11        	ora	<L147+ep_1+2
  2242 00:0F67: F0 03        	beq	L165
  2243 00:0F69: 82 16 00     	brl	L10108
  2244                        L165:
  2245 00:0F6C: A0 08 00     	ldy	#$8
  2246 00:0F6F: B7 16        	lda	[<L146+vp_0],Y
  2247 00:0F71: 48           	pha
  2248 00:0F72: A0 06 00     	ldy	#$6
  2249 00:0F75: B7 16        	lda	[<L146+vp_0],Y
  2250 00:0F77: 48           	pha
  2251 00:0F78: F4 18 00     	pea	#<$18
  2252 00:0F7B: F4 08 00     	pea	#8
  2253 00:0F7E: 22 xx xx xx  	jsl	~~error
  2254                        L10108:
  2255                        L10107:
  2256                        L10104:
  Sun Jan  9 2022 20:52                                                Page 40


  2257 00:0F82: A5 09        	lda	<L147+isindref_1
  2258 00:0F84: 29 FF 00     	and	#$ff
  2259 00:0F87: D0 03        	bne	L166
  2260 00:0F89: 82 1A 00     	brl	L10109
  2261                        L166:
  2262 00:0F8C: 38           	sec
  2263 00:0F8D: A5 0F        	lda	<L147+ep_1
  2264 00:0F8F: ED xx xx     	sbc	|~~basicvars+6
  2265 00:0F92: 85 01        	sta	<R0
  2266 00:0F94: A5 11        	lda	<L147+ep_1+2
  2267 00:0F96: ED xx xx     	sbc	|~~basicvars+6+2
  2268 00:0F99: 85 03        	sta	<R0+2
  2269 00:0F9B: D4 01        	pei	<R0
  2270 00:0F9D: D4 0B        	pei	<L147+offset_1
  2271 00:0F9F: 22 xx xx xx  	jsl	~~store_integer
  2272 00:0FA3: 82 49 00     	brl	L10110
  2273                        L10109:
  2274 00:0FA6: A0 04 00     	ldy	#$4
  2275 00:0FA9: B7 16        	lda	[<L146+vp_0],Y
  2276 00:0FAB: C9 02 00     	cmp	#<$2
  2277 00:0FAE: F0 03        	beq	L167
  2278 00:0FB0: 82 19 00     	brl	L10111
  2279                        L167:
  2280 00:0FB3: 38           	sec
  2281 00:0FB4: A5 0F        	lda	<L147+ep_1
  2282 00:0FB6: ED xx xx     	sbc	|~~basicvars+6
  2283 00:0FB9: 85 01        	sta	<R0
  2284 00:0FBB: A5 11        	lda	<L147+ep_1+2
  2285 00:0FBD: ED xx xx     	sbc	|~~basicvars+6+2
  2286 00:0FC0: 85 03        	sta	<R0+2
  2287 00:0FC2: A5 01        	lda	<R0
  2288 00:0FC4: A0 10 00     	ldy	#$10
  2289 00:0FC7: 97 16        	sta	[<L146+vp_0],Y
  2290 00:0FC9: 82 23 00     	brl	L10112
  2291                        L10111:
  2292 00:0FCC: 38           	sec
  2293 00:0FCD: A5 0F        	lda	<L147+ep_1
  2294 00:0FCF: ED xx xx     	sbc	|~~basicvars+6
  2295 00:0FD2: 85 01        	sta	<R0
  2296 00:0FD4: A5 11        	lda	<L147+ep_1+2
  2297 00:0FD6: ED xx xx     	sbc	|~~basicvars+6+2
  2298 00:0FD9: 85 03        	sta	<R0+2
  2299 00:0FDB: D4 03        	pei	<R0+2
  2300 00:0FDD: D4 01        	pei	<R0
  2301                        	xref	~~~fflt
  2302 00:0FDF: 22 xx xx xx  	jsl	~~~fflt
  2303 00:0FE3: 68           	pla
  2304 00:0FE4: A0 10 00     	ldy	#$10
  2305 00:0FE7: 97 16        	sta	[<L146+vp_0],Y
  2306 00:0FE9: 68           	pla
  2307 00:0FEA: A0 12 00     	ldy	#$12
  2308 00:0FED: 97 16        	sta	[<L146+vp_0],Y
  2309                        L10112:
  2310                        L10110:
  2311                        L168:
  2312 00:0FEF: A5 14        	lda	<L146+2
  2313 00:0FF1: 85 18        	sta	<L146+2+4
  2314 00:0FF3: A5 13        	lda	<L146+1
  Sun Jan  9 2022 20:52                                                Page 41


  2315 00:0FF5: 85 17        	sta	<L146+1+4
  2316 00:0FF7: 2B           	pld
  2317 00:0FF8: 3B           	tsc
  2318 00:0FF9: 18           	clc
  2319 00:0FFA: 69 16 00     	adc	#L146+4
  2320 00:0FFD: 1B           	tcs
  2321 00:0FFE: 6B           	rtl
  2322             00000012   L146	equ	18
  2323             00000009   L147	equ	9
  2324                        	ends
  2325                        	efunc
  2326                        	code
  2327                        	xdef	~~exec_dim
  2328                        	func
  2329                        ~~exec_dim:
  2330                        	longa	on
  2331                        	longi	on
  2332 00:0FFF: 3B           	tsc
  2333 00:1000: 38           	sec
  2334 00:1001: E9 16 00     	sbc	#L169
  2335 00:1004: 1B           	tcs
  2336 00:1005: 0B           	phd
  2337 00:1006: 5B           	tcd
  2338             00000000   base_1	set	0
  2339             00000004   ep_1	set	4
  2340             00000008   vp_1	set	8
  2341             0000000C   blockdef_1	set	12
  2342             0000000D   islocal_1	set	13
  2343                        L10115:
  2344 00:1007: EE xx xx     	inc	|~~basicvars+62
  2345 00:100A: D0 03        	bne	L171
  2346 00:100C: EE xx xx     	inc	|~~basicvars+62+2
  2347                        L171:
  2348 00:100F: AD xx xx     	lda	|~~basicvars+62
  2349 00:1012: 85 01        	sta	<R0
  2350 00:1014: AD xx xx     	lda	|~~basicvars+62+2
  2351 00:1017: 85 03        	sta	<R0+2
  2352 00:1019: E2 20        	sep	#$20
  2353                        	longa	off
  2354 00:101B: A7 01        	lda	[<R0]
  2355 00:101D: C9 02        	cmp	#<$2
  2356 00:101F: C2 20        	rep	#$20
  2357                        	longa	on
  2358 00:1021: D0 03        	bne	L172
  2359 00:1023: 82 21 00     	brl	L10116
  2360                        L172:
  2361 00:1026: AD xx xx     	lda	|~~basicvars+62
  2362 00:1029: 85 01        	sta	<R0
  2363 00:102B: AD xx xx     	lda	|~~basicvars+62+2
  2364 00:102E: 85 03        	sta	<R0+2
  2365 00:1030: E2 20        	sep	#$20
  2366                        	longa	off
  2367 00:1032: A7 01        	lda	[<R0]
  2368 00:1034: C9 01        	cmp	#<$1
  2369 00:1036: C2 20        	rep	#$20
  2370                        	longa	on
  2371 00:1038: D0 03        	bne	L173
  2372 00:103A: 82 0A 00     	brl	L10116
  Sun Jan  9 2022 20:52                                                Page 42


  2373                        L173:
  2374 00:103D: F4 25 00     	pea	#<$25
  2375 00:1040: F4 04 00     	pea	#4
  2376 00:1043: 22 xx xx xx  	jsl	~~error
  2377                        L10116:
  2378 00:1047: E2 20        	sep	#$20
  2379                        	longa	off
  2380 00:1049: 64 16        	stz	<L170+islocal_1
  2381 00:104B: C2 20        	rep	#$20
  2382                        	longa	on
  2383 00:104D: AD xx xx     	lda	|~~basicvars+62
  2384 00:1050: 85 01        	sta	<R0
  2385 00:1052: AD xx xx     	lda	|~~basicvars+62+2
  2386 00:1055: 85 03        	sta	<R0+2
  2387 00:1057: E2 20        	sep	#$20
  2388                        	longa	off
  2389 00:1059: A7 01        	lda	[<R0]
  2390 00:105B: C9 02        	cmp	#<$2
  2391 00:105D: C2 20        	rep	#$20
  2392                        	longa	on
  2393 00:105F: F0 03        	beq	L174
  2394 00:1061: 82 54 00     	brl	L10117
  2395                        L174:
  2396 00:1064: AD xx xx     	lda	|~~basicvars+62
  2397 00:1067: 85 01        	sta	<R0
  2398 00:1069: AD xx xx     	lda	|~~basicvars+62+2
  2399 00:106C: 85 03        	sta	<R0+2
  2400 00:106E: A0 01 00     	ldy	#$1
  2401 00:1071: B7 01        	lda	[<R0],Y
  2402 00:1073: 29 FF 00     	and	#$ff
  2403 00:1076: 85 01        	sta	<R0
  2404 00:1078: A5 01        	lda	<R0
  2405 00:107A: A2 16 00     	ldx	#<$16
  2406                        	xref	~~~mul
  2407 00:107D: 22 xx xx xx  	jsl	~~~mul
  2408 00:1081: 85 01        	sta	<R0
  2409 00:1083: 18           	clc
  2410 00:1084: A9 xx xx     	lda	#<~~basicvars+504
  2411 00:1087: 65 01        	adc	<R0
  2412 00:1089: 85 05        	sta	<R1
  2413 00:108B: A5 05        	lda	<R1
  2414 00:108D: 85 11        	sta	<L170+vp_1
  2415                        	xref	_BEG_DATA
  2416 00:108F: A9 xx xx     	lda	#_BEG_DATA>>16
  2417 00:1092: 85 13        	sta	<L170+vp_1+2
  2418 00:1094: AD xx xx     	lda	|~~basicvars+62
  2419 00:1097: 85 09        	sta	<L170+base_1
  2420 00:1099: AD xx xx     	lda	|~~basicvars+62+2
  2421 00:109C: 85 0B        	sta	<L170+base_1+2
  2422 00:109E: 18           	clc
  2423 00:109F: A9 02 00     	lda	#$2
  2424 00:10A2: 6D xx xx     	adc	|~~basicvars+62
  2425 00:10A5: 8D xx xx     	sta	|~~basicvars+62
  2426 00:10A8: 90 03        	bcc	L175
  2427 00:10AA: EE xx xx     	inc	|~~basicvars+62+2
  2428                        L175:
  2429 00:10AD: E2 20        	sep	#$20
  2430                        	longa	off
  Sun Jan  9 2022 20:52                                                Page 43


  2431 00:10AF: A9 01        	lda	#$1
  2432 00:10B1: 85 15        	sta	<L170+blockdef_1
  2433 00:10B3: C2 20        	rep	#$20
  2434                        	longa	on
  2435 00:10B5: 82 5C 01     	brl	L10118
  2436                        L10117:
  2437 00:10B8: AD xx xx     	lda	|~~basicvars+62+2
  2438 00:10BB: 48           	pha
  2439 00:10BC: AD xx xx     	lda	|~~basicvars+62
  2440 00:10BF: 48           	pha
  2441 00:10C0: 22 xx xx xx  	jsl	~~get_srcaddr
  2442 00:10C4: 85 09        	sta	<L170+base_1
  2443 00:10C6: 86 0B        	stx	<L170+base_1+2
  2444 00:10C8: D4 0B        	pei	<L170+base_1+2
  2445 00:10CA: D4 09        	pei	<L170+base_1
  2446 00:10CC: 22 xx xx xx  	jsl	~~skip_name
  2447 00:10D0: 85 0D        	sta	<L170+ep_1
  2448 00:10D2: 86 0F        	stx	<L170+ep_1+2
  2449 00:10D4: 18           	clc
  2450 00:10D5: A9 05 00     	lda	#$5
  2451 00:10D8: 6D xx xx     	adc	|~~basicvars+62
  2452 00:10DB: 8D xx xx     	sta	|~~basicvars+62
  2453 00:10DE: 90 03        	bcc	L176
  2454 00:10E0: EE xx xx     	inc	|~~basicvars+62+2
  2455                        L176:
  2456 00:10E3: 64 01        	stz	<R0
  2457 00:10E5: 18           	clc
  2458 00:10E6: A9 FF FF     	lda	#$ffff
  2459 00:10E9: 65 0D        	adc	<L170+ep_1
  2460 00:10EB: 85 05        	sta	<R1
  2461 00:10ED: A9 FF FF     	lda	#$ffff
  2462 00:10F0: 65 0F        	adc	<L170+ep_1+2
  2463 00:10F2: 85 07        	sta	<R1+2
  2464 00:10F4: E2 20        	sep	#$20
  2465                        	longa	off
  2466 00:10F6: A7 05        	lda	[<R1]
  2467 00:10F8: C9 28        	cmp	#<$28
  2468 00:10FA: C2 20        	rep	#$20
  2469                        	longa	on
  2470 00:10FC: D0 03        	bne	L178
  2471 00:10FE: 82 1E 00     	brl	L177
  2472                        L178:
  2473 00:1101: 18           	clc
  2474 00:1102: A9 FF FF     	lda	#$ffff
  2475 00:1105: 65 0D        	adc	<L170+ep_1
  2476 00:1107: 85 05        	sta	<R1
  2477 00:1109: A9 FF FF     	lda	#$ffff
  2478 00:110C: 65 0F        	adc	<L170+ep_1+2
  2479 00:110E: 85 07        	sta	<R1+2
  2480 00:1110: E2 20        	sep	#$20
  2481                        	longa	off
  2482 00:1112: A7 05        	lda	[<R1]
  2483 00:1114: C9 5B        	cmp	#<$5b
  2484 00:1116: C2 20        	rep	#$20
  2485                        	longa	on
  2486 00:1118: D0 03        	bne	L179
  2487 00:111A: 82 02 00     	brl	L177
  2488                        L179:
  Sun Jan  9 2022 20:52                                                Page 44


  2489 00:111D: E6 01        	inc	<R0
  2490                        L177:
  2491 00:111F: E2 20        	sep	#$20
  2492                        	longa	off
  2493 00:1121: A5 01        	lda	<R0
  2494 00:1123: 85 15        	sta	<L170+blockdef_1
  2495 00:1125: C2 20        	rep	#$20
  2496                        	longa	on
  2497 00:1127: 38           	sec
  2498 00:1128: A5 0D        	lda	<L170+ep_1
  2499 00:112A: E5 09        	sbc	<L170+base_1
  2500 00:112C: 85 01        	sta	<R0
  2501 00:112E: A5 0F        	lda	<L170+ep_1+2
  2502 00:1130: E5 0B        	sbc	<L170+base_1+2
  2503 00:1132: 85 03        	sta	<R0+2
  2504 00:1134: D4 01        	pei	<R0
  2505 00:1136: D4 0B        	pei	<L170+base_1+2
  2506 00:1138: D4 09        	pei	<L170+base_1
  2507 00:113A: 22 xx xx xx  	jsl	~~find_variable
  2508 00:113E: 85 11        	sta	<L170+vp_1
  2509 00:1140: 86 13        	stx	<L170+vp_1+2
  2510 00:1142: A5 15        	lda	<L170+blockdef_1
  2511 00:1144: 29 FF 00     	and	#$ff
  2512 00:1147: D0 03        	bne	L180
  2513 00:1149: 82 6E 00     	brl	L10119
  2514                        L180:
  2515 00:114C: A5 11        	lda	<L170+vp_1
  2516 00:114E: 05 13        	ora	<L170+vp_1+2
  2517 00:1150: F0 03        	beq	L181
  2518 00:1152: 82 62 00     	brl	L10120
  2519                        L181:
  2520 00:1155: AD xx xx     	lda	|~~basicvars+62
  2521 00:1158: 85 01        	sta	<R0
  2522 00:115A: AD xx xx     	lda	|~~basicvars+62+2
  2523 00:115D: 85 03        	sta	<R0+2
  2524 00:115F: E2 20        	sep	#$20
  2525                        	longa	off
  2526 00:1161: A7 01        	lda	[<R0]
  2527 00:1163: C9 21        	cmp	#<$21
  2528 00:1165: C2 20        	rep	#$20
  2529                        	longa	on
  2530 00:1167: F0 03        	beq	L182
  2531 00:1169: 82 2A 00     	brl	L10121
  2532                        L182:
  2533 00:116C: 38           	sec
  2534 00:116D: A5 0D        	lda	<L170+ep_1
  2535 00:116F: E5 09        	sbc	<L170+base_1
  2536 00:1171: 85 01        	sta	<R0
  2537 00:1173: A5 0F        	lda	<L170+ep_1+2
  2538 00:1175: E5 0B        	sbc	<L170+base_1+2
  2539 00:1177: 85 03        	sta	<R0+2
  2540 00:1179: D4 01        	pei	<R0
  2541 00:117B: D4 0B        	pei	<L170+base_1+2
  2542 00:117D: D4 09        	pei	<L170+base_1
  2543 00:117F: 22 xx xx xx  	jsl	~~tocstring
  2544 00:1183: 85 05        	sta	<R1
  2545 00:1185: 86 07        	stx	<R1+2
  2546 00:1187: DA           	phx
  Sun Jan  9 2022 20:52                                                Page 45


  2547 00:1188: 48           	pha
  2548 00:1189: F4 0D 00     	pea	#<$d
  2549 00:118C: F4 08 00     	pea	#8
  2550 00:118F: 22 xx xx xx  	jsl	~~error
  2551 00:1193: 82 21 00     	brl	L10122
  2552                        L10121:
  2553 00:1196: F4 00 00     	pea	#^$0
  2554 00:1199: F4 00 00     	pea	#<$0
  2555 00:119C: 38           	sec
  2556 00:119D: A5 0D        	lda	<L170+ep_1
  2557 00:119F: E5 09        	sbc	<L170+base_1
  2558 00:11A1: 85 01        	sta	<R0
  2559 00:11A3: A5 0F        	lda	<L170+ep_1+2
  2560 00:11A5: E5 0B        	sbc	<L170+base_1+2
  2561 00:11A7: 85 03        	sta	<R0+2
  2562 00:11A9: D4 01        	pei	<R0
  2563 00:11AB: D4 0B        	pei	<L170+base_1+2
  2564 00:11AD: D4 09        	pei	<L170+base_1
  2565 00:11AF: 22 xx xx xx  	jsl	~~create_variable
  2566 00:11B3: 85 11        	sta	<L170+vp_1
  2567 00:11B5: 86 13        	stx	<L170+vp_1+2
  2568                        L10122:
  2569                        L10120:
  2570 00:11B7: 82 5A 00     	brl	L10123
  2571                        L10119:
  2572 00:11BA: A5 11        	lda	<L170+vp_1
  2573 00:11BC: 05 13        	ora	<L170+vp_1+2
  2574 00:11BE: F0 03        	beq	L183
  2575 00:11C0: 82 24 00     	brl	L10124
  2576                        L183:
  2577 00:11C3: F4 00 00     	pea	#^$0
  2578 00:11C6: F4 00 00     	pea	#<$0
  2579 00:11C9: 38           	sec
  2580 00:11CA: A5 0D        	lda	<L170+ep_1
  2581 00:11CC: E5 09        	sbc	<L170+base_1
  2582 00:11CE: 85 01        	sta	<R0
  2583 00:11D0: A5 0F        	lda	<L170+ep_1+2
  2584 00:11D2: E5 0B        	sbc	<L170+base_1+2
  2585 00:11D4: 85 03        	sta	<R0+2
  2586 00:11D6: D4 01        	pei	<R0
  2587 00:11D8: D4 0B        	pei	<L170+base_1+2
  2588 00:11DA: D4 09        	pei	<L170+base_1
  2589 00:11DC: 22 xx xx xx  	jsl	~~create_variable
  2590 00:11E0: 85 11        	sta	<L170+vp_1
  2591 00:11E2: 86 13        	stx	<L170+vp_1+2
  2592 00:11E4: 82 2D 00     	brl	L10125
  2593                        L10124:
  2594 00:11E7: A0 10 00     	ldy	#$10
  2595 00:11EA: B7 11        	lda	[<L170+vp_1],Y
  2596 00:11EC: A0 12 00     	ldy	#$12
  2597 00:11EF: 17 11        	ora	[<L170+vp_1],Y
  2598 00:11F1: D0 03        	bne	L184
  2599 00:11F3: 82 16 00     	brl	L10126
  2600                        L184:
  2601 00:11F6: A0 08 00     	ldy	#$8
  2602 00:11F9: B7 11        	lda	[<L170+vp_1],Y
  2603 00:11FB: 48           	pha
  2604 00:11FC: A0 06 00     	ldy	#$6
  Sun Jan  9 2022 20:52                                                Page 46


  2605 00:11FF: B7 11        	lda	[<L170+vp_1],Y
  2606 00:1201: 48           	pha
  2607 00:1202: F4 1B 00     	pea	#<$1b
  2608 00:1205: F4 08 00     	pea	#8
  2609 00:1208: 22 xx xx xx  	jsl	~~error
  2610                        L10126:
  2611 00:120C: E2 20        	sep	#$20
  2612                        	longa	off
  2613 00:120E: A9 01        	lda	#$1
  2614 00:1210: 85 16        	sta	<L170+islocal_1
  2615 00:1212: C2 20        	rep	#$20
  2616                        	longa	on
  2617                        L10125:
  2618                        L10123:
  2619                        L10118:
  2620 00:1214: A5 15        	lda	<L170+blockdef_1
  2621 00:1216: 29 FF 00     	and	#$ff
  2622 00:1219: D0 03        	bne	L185
  2623 00:121B: 82 0B 00     	brl	L10127
  2624                        L185:
  2625 00:121E: D4 13        	pei	<L170+vp_1+2
  2626 00:1220: D4 11        	pei	<L170+vp_1
  2627 00:1222: 22 xx xx xx  	jsl	~~define_byte_array
  2628 00:1226: 82 0A 00     	brl	L10128
  2629                        L10127:
  2630 00:1229: D4 16        	pei	<L170+islocal_1
  2631 00:122B: D4 13        	pei	<L170+vp_1+2
  2632 00:122D: D4 11        	pei	<L170+vp_1
  2633 00:122F: 22 xx xx xx  	jsl	~~define_array
  2634                        L10128:
  2635                        L10113:
  2636 00:1233: AD xx xx     	lda	|~~basicvars+62
  2637 00:1236: 85 01        	sta	<R0
  2638 00:1238: AD xx xx     	lda	|~~basicvars+62+2
  2639 00:123B: 85 03        	sta	<R0+2
  2640 00:123D: E2 20        	sep	#$20
  2641                        	longa	off
  2642 00:123F: A7 01        	lda	[<R0]
  2643 00:1241: C9 2C        	cmp	#<$2c
  2644 00:1243: C2 20        	rep	#$20
  2645                        	longa	on
  2646 00:1245: D0 03        	bne	L186
  2647 00:1247: 82 BD FD     	brl	L10115
  2648                        L186:
  2649                        L10114:
  2650 00:124A: 22 xx xx xx  	jsl	~~check_ateol
  2651                        L187:
  2652 00:124E: 2B           	pld
  2653 00:124F: 3B           	tsc
  2654 00:1250: 18           	clc
  2655 00:1251: 69 16 00     	adc	#L169
  2656 00:1254: 1B           	tcs
  2657 00:1255: 6B           	rtl
  2658             00000016   L169	equ	22
  2659             00000009   L170	equ	9
  2660                        	ends
  2661                        	efunc
  2662                        	code
  Sun Jan  9 2022 20:52                                                Page 47


  2663                        	func
  2664                        ~~start_blockif:
  2665                        	longa	on
  2666                        	longi	on
  2667 00:1256: 3B           	tsc
  2668 00:1257: 38           	sec
  2669 00:1258: E9 00 00     	sbc	#L188
  2670 00:125B: 1B           	tcs
  2671 00:125C: 0B           	phd
  2672 00:125D: 5B           	tcd
  2673             00000004   tp_0	set	4
  2674                        L10129:
  2675 00:125E: A7 04        	lda	[<L188+tp_0]
  2676 00:1260: 29 FF 00     	and	#$ff
  2677 00:1263: D0 03        	bne	L190
  2678 00:1265: 82 3E 00     	brl	L10130
  2679                        L190:
  2680 00:1268: E2 20        	sep	#$20
  2681                        	longa	off
  2682 00:126A: A7 04        	lda	[<L188+tp_0]
  2683 00:126C: C9 DF        	cmp	#<$df
  2684 00:126E: C2 20        	rep	#$20
  2685                        	longa	on
  2686 00:1270: F0 03        	beq	L191
  2687 00:1272: 82 22 00     	brl	L10131
  2688                        L191:
  2689 00:1275: A0 01 00     	ldy	#$1
  2690 00:1278: B7 04        	lda	[<L188+tp_0],Y
  2691 00:127A: 29 FF 00     	and	#$ff
  2692 00:127D: F0 03        	beq	L192
  2693 00:127F: 82 15 00     	brl	L10131
  2694                        L192:
  2695 00:1282: A9 01 00     	lda	#$1
  2696                        L193:
  2697 00:1285: A8           	tay
  2698 00:1286: A5 02        	lda	<L188+2
  2699 00:1288: 85 06        	sta	<L188+2+4
  2700 00:128A: A5 01        	lda	<L188+1
  2701 00:128C: 85 05        	sta	<L188+1+4
  2702 00:128E: 2B           	pld
  2703 00:128F: 3B           	tsc
  2704 00:1290: 18           	clc
  2705 00:1291: 69 04 00     	adc	#L188+4
  2706 00:1294: 1B           	tcs
  2707 00:1295: 98           	tya
  2708 00:1296: 6B           	rtl
  2709                        L10131:
  2710 00:1297: D4 06        	pei	<L188+tp_0+2
  2711 00:1299: D4 04        	pei	<L188+tp_0
  2712 00:129B: 22 xx xx xx  	jsl	~~skip_token
  2713 00:129F: 85 04        	sta	<L188+tp_0
  2714 00:12A1: 86 06        	stx	<L188+tp_0+2
  2715 00:12A3: 82 B8 FF     	brl	L10129
  2716                        L10130:
  2717 00:12A6: A9 00 00     	lda	#$0
  2718 00:12A9: 82 D9 FF     	brl	L193
  2719             00000000   L188	equ	0
  2720             00000001   L189	equ	1
  Sun Jan  9 2022 20:52                                                Page 48


  2721                        	ends
  2722                        	efunc
  2723                        	code
  2724                        	xdef	~~exec_elsewhen
  2725                        	func
  2726                        ~~exec_elsewhen:
  2727                        	longa	on
  2728                        	longi	on
  2729 00:12AC: 3B           	tsc
  2730 00:12AD: 38           	sec
  2731 00:12AE: E9 10 00     	sbc	#L194
  2732 00:12B1: 1B           	tcs
  2733 00:12B2: 0B           	phd
  2734 00:12B3: 5B           	tcd
  2735             00000000   p_1	set	0
  2736 00:12B4: 18           	clc
  2737 00:12B5: A9 01 00     	lda	#$1
  2738 00:12B8: 6D xx xx     	adc	|~~basicvars+62
  2739 00:12BB: 85 0D        	sta	<L195+p_1
  2740 00:12BD: A9 00 00     	lda	#$0
  2741 00:12C0: 6D xx xx     	adc	|~~basicvars+62+2
  2742 00:12C3: 85 0F        	sta	<L195+p_1+2
  2743 00:12C5: A7 0D        	lda	[<L195+p_1]
  2744 00:12C7: 29 FF 00     	and	#$ff
  2745 00:12CA: 85 01        	sta	<R0
  2746 00:12CC: A0 01 00     	ldy	#$1
  2747 00:12CF: B7 0D        	lda	[<L195+p_1],Y
  2748 00:12D1: 29 FF 00     	and	#$ff
  2749 00:12D4: 85 09        	sta	<R2
  2750 00:12D6: A5 09        	lda	<R2
  2751 00:12D8: EB           	xba
  2752 00:12D9: 29 00 FF     	and	#$ff00
  2753 00:12DC: 85 05        	sta	<R1
  2754 00:12DE: A5 05        	lda	<R1
  2755 00:12E0: 05 01        	ora	<R0
  2756 00:12E2: 85 09        	sta	<R2
  2757 00:12E4: A0 00 00     	ldy	#$0
  2758 00:12E7: A5 09        	lda	<R2
  2759 00:12E9: 10 01        	bpl	L196
  2760 00:12EB: 88           	dey
  2761                        L196:
  2762 00:12EC: 85 01        	sta	<R0
  2763 00:12EE: 84 03        	sty	<R0+2
  2764 00:12F0: 18           	clc
  2765 00:12F1: A5 0D        	lda	<L195+p_1
  2766 00:12F3: 65 01        	adc	<R0
  2767 00:12F5: 85 0D        	sta	<L195+p_1
  2768 00:12F7: A5 0F        	lda	<L195+p_1+2
  2769 00:12F9: 65 03        	adc	<R0+2
  2770 00:12FB: 85 0F        	sta	<L195+p_1+2
  2771 00:12FD: AD xx xx     	lda	|~~basicvars+425
  2772 00:1300: 89 01 00     	bit	#$1
  2773 00:1303: D0 03        	bne	L197
  2774 00:1305: 82 3D 00     	brl	L10132
  2775                        L197:
  2776 00:1308: AD xx xx     	lda	|~~basicvars+425
  2777 00:130B: 89 02 00     	bit	#$2
  2778 00:130E: D0 03        	bne	L198
  Sun Jan  9 2022 20:52                                                Page 49


  2779 00:1310: 82 17 00     	brl	L10133
  2780                        L198:
  2781 00:1313: D4 0F        	pei	<L195+p_1+2
  2782 00:1315: D4 0D        	pei	<L195+p_1
  2783 00:1317: 22 xx xx xx  	jsl	~~find_linestart
  2784 00:131B: 85 01        	sta	<R0
  2785 00:131D: 86 03        	stx	<R0+2
  2786 00:131F: DA           	phx
  2787 00:1320: 48           	pha
  2788 00:1321: 22 xx xx xx  	jsl	~~get_lineno
  2789 00:1325: 48           	pha
  2790 00:1326: 22 xx xx xx  	jsl	~~trace_line
  2791                        L10133:
  2792 00:132A: AD xx xx     	lda	|~~basicvars+425
  2793 00:132D: 89 10 00     	bit	#$10
  2794 00:1330: D0 03        	bne	L199
  2795 00:1332: 82 10 00     	brl	L10134
  2796                        L199:
  2797 00:1335: D4 0F        	pei	<L195+p_1+2
  2798 00:1337: D4 0D        	pei	<L195+p_1
  2799 00:1339: AD xx xx     	lda	|~~basicvars+62+2
  2800 00:133C: 48           	pha
  2801 00:133D: AD xx xx     	lda	|~~basicvars+62
  2802 00:1340: 48           	pha
  2803 00:1341: 22 xx xx xx  	jsl	~~trace_branch
  2804                        L10134:
  2805                        L10132:
  2806 00:1345: A5 0D        	lda	<L195+p_1
  2807 00:1347: 8D xx xx     	sta	|~~basicvars+62
  2808 00:134A: A5 0F        	lda	<L195+p_1+2
  2809 00:134C: 8D xx xx     	sta	|~~basicvars+62+2
  2810                        L200:
  2811 00:134F: 2B           	pld
  2812 00:1350: 3B           	tsc
  2813 00:1351: 18           	clc
  2814 00:1352: 69 10 00     	adc	#L194
  2815 00:1355: 1B           	tcs
  2816 00:1356: 6B           	rtl
  2817             00000010   L194	equ	16
  2818             0000000D   L195	equ	13
  2819                        	ends
  2820                        	efunc
  2821                        	code
  2822                        	xdef	~~exec_xelse
  2823                        	func
  2824                        ~~exec_xelse:
  2825                        	longa	on
  2826                        	longi	on
  2827 00:1357: 3B           	tsc
  2828 00:1358: 38           	sec
  2829 00:1359: E9 10 00     	sbc	#L201
  2830 00:135C: 1B           	tcs
  2831 00:135D: 0B           	phd
  2832 00:135E: 5B           	tcd
  2833             00000000   p_1	set	0
  2834 00:135F: AD xx xx     	lda	|~~basicvars+62
  2835 00:1362: 85 01        	sta	<R0
  2836 00:1364: AD xx xx     	lda	|~~basicvars+62+2
  Sun Jan  9 2022 20:52                                                Page 50


  2837 00:1367: 85 03        	sta	<R0+2
  2838 00:1369: E2 20        	sep	#$20
  2839                        	longa	off
  2840 00:136B: A9 A0        	lda	#$a0
  2841 00:136D: 87 01        	sta	[<R0]
  2842 00:136F: C2 20        	rep	#$20
  2843                        	longa	on
  2844 00:1371: 18           	clc
  2845 00:1372: A9 03 00     	lda	#$3
  2846 00:1375: 6D xx xx     	adc	|~~basicvars+62
  2847 00:1378: 85 0D        	sta	<L202+p_1
  2848 00:137A: A9 00 00     	lda	#$0
  2849 00:137D: 6D xx xx     	adc	|~~basicvars+62+2
  2850 00:1380: 85 0F        	sta	<L202+p_1+2
  2851                        L10137:
  2852 00:1382: D4 0F        	pei	<L202+p_1+2
  2853 00:1384: D4 0D        	pei	<L202+p_1
  2854 00:1386: 22 xx xx xx  	jsl	~~skip_token
  2855 00:138A: 85 0D        	sta	<L202+p_1
  2856 00:138C: 86 0F        	stx	<L202+p_1+2
  2857                        L10135:
  2858 00:138E: A7 0D        	lda	[<L202+p_1]
  2859 00:1390: 29 FF 00     	and	#$ff
  2860 00:1393: F0 03        	beq	L203
  2861 00:1395: 82 EA FF     	brl	L10137
  2862                        L203:
  2863                        L10136:
  2864 00:1398: E6 0D        	inc	<L202+p_1
  2865 00:139A: D0 02        	bne	L204
  2866 00:139C: E6 0F        	inc	<L202+p_1+2
  2867                        L204:
  2868 00:139E: A0 05 00     	ldy	#$5
  2869 00:13A1: B7 0D        	lda	[<L202+p_1],Y
  2870 00:13A3: 29 FF 00     	and	#$ff
  2871 00:13A6: 85 05        	sta	<R1
  2872 00:13A8: A5 05        	lda	<R1
  2873 00:13AA: EB           	xba
  2874 00:13AB: 29 00 FF     	and	#$ff00
  2875 00:13AE: 85 01        	sta	<R0
  2876 00:13B0: A0 00 00     	ldy	#$0
  2877 00:13B3: A5 01        	lda	<R0
  2878 00:13B5: 10 01        	bpl	L205
  2879 00:13B7: 88           	dey
  2880                        L205:
  2881 00:13B8: 85 01        	sta	<R0
  2882 00:13BA: 84 03        	sty	<R0+2
  2883 00:13BC: A0 04 00     	ldy	#$4
  2884 00:13BF: B7 0D        	lda	[<L202+p_1],Y
  2885 00:13C1: 29 FF 00     	and	#$ff
  2886 00:13C4: 85 05        	sta	<R1
  2887 00:13C6: 64 07        	stz	<R1+2
  2888 00:13C8: 18           	clc
  2889 00:13C9: A5 05        	lda	<R1
  2890 00:13CB: 65 01        	adc	<R0
  2891 00:13CD: 85 09        	sta	<R2
  2892 00:13CF: A5 07        	lda	<R1+2
  2893 00:13D1: 65 03        	adc	<R0+2
  2894 00:13D3: 85 0B        	sta	<R2+2
  Sun Jan  9 2022 20:52                                                Page 51


  2895 00:13D5: 18           	clc
  2896 00:13D6: A5 0D        	lda	<L202+p_1
  2897 00:13D8: 65 09        	adc	<R2
  2898 00:13DA: 85 01        	sta	<R0
  2899 00:13DC: A5 0F        	lda	<L202+p_1+2
  2900 00:13DE: 65 0B        	adc	<R2+2
  2901 00:13E0: 85 03        	sta	<R0+2
  2902 00:13E2: D4 03        	pei	<R0+2
  2903 00:13E4: D4 01        	pei	<R0
  2904 00:13E6: 18           	clc
  2905 00:13E7: A9 01 00     	lda	#$1
  2906 00:13EA: 6D xx xx     	adc	|~~basicvars+62
  2907 00:13ED: 85 05        	sta	<R1
  2908 00:13EF: A9 00 00     	lda	#$0
  2909 00:13F2: 6D xx xx     	adc	|~~basicvars+62+2
  2910 00:13F5: 85 07        	sta	<R1+2
  2911 00:13F7: D4 07        	pei	<R1+2
  2912 00:13F9: D4 05        	pei	<R1
  2913 00:13FB: 22 xx xx xx  	jsl	~~set_dest
  2914 00:13FF: 22 xx xx xx  	jsl	~~exec_elsewhen
  2915                        L206:
  2916 00:1403: 2B           	pld
  2917 00:1404: 3B           	tsc
  2918 00:1405: 18           	clc
  2919 00:1406: 69 10 00     	adc	#L201
  2920 00:1409: 1B           	tcs
  2921 00:140A: 6B           	rtl
  2922             00000010   L201	equ	16
  2923             0000000D   L202	equ	13
  2924                        	ends
  2925                        	efunc
  2926                        	code
  2927                        	xdef	~~exec_xlhelse
  2928                        	func
  2929                        ~~exec_xlhelse:
  2930                        	longa	on
  2931                        	longi	on
  2932 00:140B: 3B           	tsc
  2933 00:140C: 38           	sec
  2934 00:140D: E9 16 00     	sbc	#L207
  2935 00:1410: 1B           	tcs
  2936 00:1411: 0B           	phd
  2937 00:1412: 5B           	tcd
  2938             00000000   depth_1	set	0
  2939             00000002   lp_1	set	2
  2940             00000006   lp2_1	set	6
  2941 00:1413: AD xx xx     	lda	|~~basicvars+62+2
  2942 00:1416: 48           	pha
  2943 00:1417: AD xx xx     	lda	|~~basicvars+62
  2944 00:141A: 48           	pha
  2945 00:141B: 22 xx xx xx  	jsl	~~find_linestart
  2946 00:141F: 85 0F        	sta	<L208+lp_1
  2947 00:1421: 86 11        	stx	<L208+lp_1+2
  2948 00:1423: AD xx xx     	lda	|~~basicvars+62
  2949 00:1426: 85 13        	sta	<L208+lp2_1
  2950 00:1428: AD xx xx     	lda	|~~basicvars+62+2
  2951 00:142B: 85 15        	sta	<L208+lp2_1+2
  2952 00:142D: A9 01 00     	lda	#$1
  Sun Jan  9 2022 20:52                                                Page 52


  2953 00:1430: 85 0D        	sta	<L208+depth_1
  2954                        L10140:
  2955 00:1432: E2 20        	sep	#$20
  2956                        	longa	off
  2957 00:1434: A7 13        	lda	[<L208+lp2_1]
  2958 00:1436: C9 A5        	cmp	#<$a5
  2959 00:1438: C2 20        	rep	#$20
  2960                        	longa	on
  2961 00:143A: F0 03        	beq	L209
  2962 00:143C: 82 02 00     	brl	L10141
  2963                        L209:
  2964 00:143F: C6 0D        	dec	<L208+depth_1
  2965                        L10141:
  2966 00:1441: D4 15        	pei	<L208+lp2_1+2
  2967 00:1443: D4 13        	pei	<L208+lp2_1
  2968 00:1445: 22 xx xx xx  	jsl	~~start_blockif
  2969 00:1449: 29 FF 00     	and	#$ff
  2970 00:144C: D0 03        	bne	L210
  2971 00:144E: 82 02 00     	brl	L10142
  2972                        L210:
  2973 00:1451: E6 0D        	inc	<L208+depth_1
  2974                        L10142:
  2975 00:1453: A5 0D        	lda	<L208+depth_1
  2976 00:1455: D0 03        	bne	L211
  2977 00:1457: 82 9C 00     	brl	L10139
  2978                        L211:
  2979 00:145A: A0 02 00     	ldy	#$2
  2980 00:145D: B7 0F        	lda	[<L208+lp_1],Y
  2981 00:145F: 29 FF 00     	and	#$ff
  2982 00:1462: 85 01        	sta	<R0
  2983 00:1464: A0 03 00     	ldy	#$3
  2984 00:1467: B7 0F        	lda	[<L208+lp_1],Y
  2985 00:1469: 29 FF 00     	and	#$ff
  2986 00:146C: 85 09        	sta	<R2
  2987 00:146E: A5 09        	lda	<R2
  2988 00:1470: EB           	xba
  2989 00:1471: 29 00 FF     	and	#$ff00
  2990 00:1474: 85 05        	sta	<R1
  2991 00:1476: A5 05        	lda	<R1
  2992 00:1478: 05 01        	ora	<R0
  2993 00:147A: 85 09        	sta	<R2
  2994 00:147C: A0 00 00     	ldy	#$0
  2995 00:147F: A5 09        	lda	<R2
  2996 00:1481: 10 01        	bpl	L212
  2997 00:1483: 88           	dey
  2998                        L212:
  2999 00:1484: 85 01        	sta	<R0
  3000 00:1486: 84 03        	sty	<R0+2
  3001 00:1488: 18           	clc
  3002 00:1489: A5 0F        	lda	<L208+lp_1
  3003 00:148B: 65 01        	adc	<R0
  3004 00:148D: 85 0F        	sta	<L208+lp_1
  3005 00:148F: A5 11        	lda	<L208+lp_1+2
  3006 00:1491: 65 03        	adc	<R0+2
  3007 00:1493: 85 11        	sta	<L208+lp_1+2
  3008 00:1495: E2 20        	sep	#$20
  3009                        	longa	off
  3010 00:1497: A0 01 00     	ldy	#$1
  Sun Jan  9 2022 20:52                                                Page 53


  3011 00:149A: B7 0F        	lda	[<L208+lp_1],Y
  3012 00:149C: C9 FF        	cmp	#<$ff
  3013 00:149E: C2 20        	rep	#$20
  3014                        	longa	on
  3015 00:14A0: F0 03        	beq	L213
  3016 00:14A2: 82 0A 00     	brl	L10143
  3017                        L213:
  3018 00:14A5: F4 2D 00     	pea	#<$2d
  3019 00:14A8: F4 04 00     	pea	#4
  3020 00:14AB: 22 xx xx xx  	jsl	~~error
  3021                        L10143:
  3022 00:14AF: A0 05 00     	ldy	#$5
  3023 00:14B2: B7 0F        	lda	[<L208+lp_1],Y
  3024 00:14B4: 29 FF 00     	and	#$ff
  3025 00:14B7: 85 05        	sta	<R1
  3026 00:14B9: A5 05        	lda	<R1
  3027 00:14BB: EB           	xba
  3028 00:14BC: 29 00 FF     	and	#$ff00
  3029 00:14BF: 85 01        	sta	<R0
  3030 00:14C1: A0 00 00     	ldy	#$0
  3031 00:14C4: A5 01        	lda	<R0
  3032 00:14C6: 10 01        	bpl	L214
  3033 00:14C8: 88           	dey
  3034                        L214:
  3035 00:14C9: 85 01        	sta	<R0
  3036 00:14CB: 84 03        	sty	<R0+2
  3037 00:14CD: A0 04 00     	ldy	#$4
  3038 00:14D0: B7 0F        	lda	[<L208+lp_1],Y
  3039 00:14D2: 29 FF 00     	and	#$ff
  3040 00:14D5: 85 05        	sta	<R1
  3041 00:14D7: 64 07        	stz	<R1+2
  3042 00:14D9: 18           	clc
  3043 00:14DA: A5 05        	lda	<R1
  3044 00:14DC: 65 01        	adc	<R0
  3045 00:14DE: 85 09        	sta	<R2
  3046 00:14E0: A5 07        	lda	<R1+2
  3047 00:14E2: 65 03        	adc	<R0+2
  3048 00:14E4: 85 0B        	sta	<R2+2
  3049 00:14E6: 18           	clc
  3050 00:14E7: A5 0F        	lda	<L208+lp_1
  3051 00:14E9: 65 09        	adc	<R2
  3052 00:14EB: 85 13        	sta	<L208+lp2_1
  3053 00:14ED: A5 11        	lda	<L208+lp_1+2
  3054 00:14EF: 65 0B        	adc	<R2+2
  3055 00:14F1: 85 15        	sta	<L208+lp2_1+2
  3056                        L10138:
  3057 00:14F3: 82 3C FF     	brl	L10140
  3058                        L10139:
  3059 00:14F6: E6 13        	inc	<L208+lp2_1
  3060 00:14F8: D0 02        	bne	L215
  3061 00:14FA: E6 15        	inc	<L208+lp2_1+2
  3062                        L215:
  3063 00:14FC: A7 13        	lda	[<L208+lp2_1]
  3064 00:14FE: 29 FF 00     	and	#$ff
  3065 00:1501: F0 03        	beq	L216
  3066 00:1503: 82 62 00     	brl	L10144
  3067                        L216:
  3068 00:1506: E6 13        	inc	<L208+lp2_1
  Sun Jan  9 2022 20:52                                                Page 54


  3069 00:1508: D0 02        	bne	L217
  3070 00:150A: E6 15        	inc	<L208+lp2_1+2
  3071                        L217:
  3072 00:150C: AD xx xx     	lda	|~~basicvars+425
  3073 00:150F: 89 02 00     	bit	#$2
  3074 00:1512: D0 03        	bne	L218
  3075 00:1514: 82 0D 00     	brl	L10145
  3076                        L218:
  3077 00:1517: D4 15        	pei	<L208+lp2_1+2
  3078 00:1519: D4 13        	pei	<L208+lp2_1
  3079 00:151B: 22 xx xx xx  	jsl	~~get_lineno
  3080 00:151F: 48           	pha
  3081 00:1520: 22 xx xx xx  	jsl	~~trace_line
  3082                        L10145:
  3083 00:1524: A0 05 00     	ldy	#$5
  3084 00:1527: B7 13        	lda	[<L208+lp2_1],Y
  3085 00:1529: 29 FF 00     	and	#$ff
  3086 00:152C: 85 05        	sta	<R1
  3087 00:152E: A5 05        	lda	<R1
  3088 00:1530: EB           	xba
  3089 00:1531: 29 00 FF     	and	#$ff00
  3090 00:1534: 85 01        	sta	<R0
  3091 00:1536: A0 00 00     	ldy	#$0
  3092 00:1539: A5 01        	lda	<R0
  3093 00:153B: 10 01        	bpl	L219
  3094 00:153D: 88           	dey
  3095                        L219:
  3096 00:153E: 85 01        	sta	<R0
  3097 00:1540: 84 03        	sty	<R0+2
  3098 00:1542: A0 04 00     	ldy	#$4
  3099 00:1545: B7 13        	lda	[<L208+lp2_1],Y
  3100 00:1547: 29 FF 00     	and	#$ff
  3101 00:154A: 85 05        	sta	<R1
  3102 00:154C: 64 07        	stz	<R1+2
  3103 00:154E: 18           	clc
  3104 00:154F: A5 05        	lda	<R1
  3105 00:1551: 65 01        	adc	<R0
  3106 00:1553: 85 09        	sta	<R2
  3107 00:1555: A5 07        	lda	<R1+2
  3108 00:1557: 65 03        	adc	<R0+2
  3109 00:1559: 85 0B        	sta	<R2+2
  3110 00:155B: 18           	clc
  3111 00:155C: A5 13        	lda	<L208+lp2_1
  3112 00:155E: 65 09        	adc	<R2
  3113 00:1560: 85 13        	sta	<L208+lp2_1
  3114 00:1562: A5 15        	lda	<L208+lp2_1+2
  3115 00:1564: 65 0B        	adc	<R2+2
  3116 00:1566: 85 15        	sta	<L208+lp2_1+2
  3117                        L10144:
  3118 00:1568: AD xx xx     	lda	|~~basicvars+62
  3119 00:156B: 85 01        	sta	<R0
  3120 00:156D: AD xx xx     	lda	|~~basicvars+62+2
  3121 00:1570: 85 03        	sta	<R0+2
  3122 00:1572: E2 20        	sep	#$20
  3123                        	longa	off
  3124 00:1574: A9 A2        	lda	#$a2
  3125 00:1576: 87 01        	sta	[<R0]
  3126 00:1578: C2 20        	rep	#$20
  Sun Jan  9 2022 20:52                                                Page 55


  3127                        	longa	on
  3128 00:157A: D4 15        	pei	<L208+lp2_1+2
  3129 00:157C: D4 13        	pei	<L208+lp2_1
  3130 00:157E: 18           	clc
  3131 00:157F: A9 01 00     	lda	#$1
  3132 00:1582: 6D xx xx     	adc	|~~basicvars+62
  3133 00:1585: 85 01        	sta	<R0
  3134 00:1587: A9 00 00     	lda	#$0
  3135 00:158A: 6D xx xx     	adc	|~~basicvars+62+2
  3136 00:158D: 85 03        	sta	<R0+2
  3137 00:158F: D4 03        	pei	<R0+2
  3138 00:1591: D4 01        	pei	<R0
  3139 00:1593: 22 xx xx xx  	jsl	~~set_dest
  3140 00:1597: 22 xx xx xx  	jsl	~~exec_elsewhen
  3141                        L220:
  3142 00:159B: 2B           	pld
  3143 00:159C: 3B           	tsc
  3144 00:159D: 18           	clc
  3145 00:159E: 69 16 00     	adc	#L207
  3146 00:15A1: 1B           	tcs
  3147 00:15A2: 6B           	rtl
  3148             00000016   L207	equ	22
  3149             0000000D   L208	equ	13
  3150                        	ends
  3151                        	efunc
  3152                        	code
  3153                        	xdef	~~exec_end
  3154                        	func
  3155                        ~~exec_end:
  3156                        	longa	on
  3157                        	longi	on
  3158 00:15A3: 3B           	tsc
  3159 00:15A4: 38           	sec
  3160 00:15A5: E9 06 00     	sbc	#L221
  3161 00:15A8: 1B           	tcs
  3162 00:15A9: 0B           	phd
  3163 00:15AA: 5B           	tcd
  3164             00000000   newend_1	set	0
  3165 00:15AB: EE xx xx     	inc	|~~basicvars+62
  3166 00:15AE: D0 03        	bne	L223
  3167 00:15B0: EE xx xx     	inc	|~~basicvars+62+2
  3168                        L223:
  3169 00:15B3: AD xx xx     	lda	|~~basicvars+62
  3170 00:15B6: 85 01        	sta	<R0
  3171 00:15B8: AD xx xx     	lda	|~~basicvars+62+2
  3172 00:15BB: 85 03        	sta	<R0+2
  3173 00:15BD: E2 20        	sep	#$20
  3174                        	longa	off
  3175 00:15BF: A7 01        	lda	[<R0]
  3176 00:15C1: C9 3D        	cmp	#<$3d
  3177 00:15C3: C2 20        	rep	#$20
  3178                        	longa	on
  3179 00:15C5: F0 03        	beq	L224
  3180 00:15C7: 82 65 00     	brl	L10146
  3181                        L224:
  3182 00:15CA: EE xx xx     	inc	|~~basicvars+62
  3183 00:15CD: D0 03        	bne	L225
  3184 00:15CF: EE xx xx     	inc	|~~basicvars+62+2
  Sun Jan  9 2022 20:52                                                Page 56


  3185                        L225:
  3186 00:15D2: 22 xx xx xx  	jsl	~~expression
  3187 00:15D6: 22 xx xx xx  	jsl	~~check_ateol
  3188 00:15DA: AD xx xx     	lda	|~~basicvars+42
  3189 00:15DD: 85 01        	sta	<R0
  3190 00:15DF: AD xx xx     	lda	|~~basicvars+42+2
  3191 00:15E2: 85 03        	sta	<R0+2
  3192 00:15E4: A7 01        	lda	[<R0]
  3193 00:15E6: 82 2D 00     	brl	L10147
  3194                        L10149:
  3195 00:15E9: 22 xx xx xx  	jsl	~~pop_int
  3196 00:15ED: 85 05        	sta	<L222+newend_1
  3197 00:15EF: 82 34 00     	brl	L10148
  3198                        L10150:
  3199 00:15F2: 5A           	phy
  3200 00:15F3: 5A           	phy
  3201 00:15F4: 22 xx xx xx  	jsl	~~pop_float
  3202                        	xref	~~~ffix
  3203 00:15F8: 22 xx xx xx  	jsl	~~~ffix
  3204 00:15FC: 68           	pla
  3205 00:15FD: 85 01        	sta	<R0
  3206 00:15FF: 68           	pla
  3207 00:1600: 85 03        	sta	<R0+2
  3208 00:1602: A5 01        	lda	<R0
  3209 00:1604: 85 05        	sta	<L222+newend_1
  3210 00:1606: 82 1D 00     	brl	L10148
  3211                        L10151:
  3212 00:1609: F4 3F 00     	pea	#<$3f
  3213 00:160C: F4 04 00     	pea	#4
  3214 00:160F: 22 xx xx xx  	jsl	~~error
  3215 00:1613: 82 10 00     	brl	L10148
  3216                        L10147:
  3217                        	xref	~~~swt
  3218 00:1616: 22 xx xx xx  	jsl	~~~swt
  3219 00:161A: 02 00        	dw	2
  3220 00:161C: 02 00        	dw	2
  3221 00:161E: xx xx        	dw	L10149-1
  3222 00:1620: 03 00        	dw	3
  3223 00:1622: xx xx        	dw	L10150-1
  3224 00:1624: xx xx        	dw	L10151-1
  3225                        L10148:
  3226 00:1626: D4 05        	pei	<L222+newend_1
  3227 00:1628: 22 xx xx xx  	jsl	~~emulate_endeq
  3228 00:162C: 82 08 00     	brl	L10152
  3229                        L10146:
  3230 00:162F: 22 xx xx xx  	jsl	~~check_ateol
  3231 00:1633: 22 xx xx xx  	jsl	~~end_run
  3232                        L10152:
  3233                        L226:
  3234 00:1637: 2B           	pld
  3235 00:1638: 3B           	tsc
  3236 00:1639: 18           	clc
  3237 00:163A: 69 06 00     	adc	#L221
  3238 00:163D: 1B           	tcs
  3239 00:163E: 6B           	rtl
  3240             00000006   L221	equ	6
  3241             00000005   L222	equ	5
  3242                        	ends
  Sun Jan  9 2022 20:52                                                Page 57


  3243                        	efunc
  3244                        	code
  3245                        	xdef	~~exec_endifcase
  3246                        	func
  3247                        ~~exec_endifcase:
  3248                        	longa	on
  3249                        	longi	on
  3250 00:163F: 3B           	tsc
  3251 00:1640: 38           	sec
  3252 00:1641: E9 0C 00     	sbc	#L227
  3253 00:1644: 1B           	tcs
  3254 00:1645: 0B           	phd
  3255 00:1646: 5B           	tcd
  3256 00:1647: EE xx xx     	inc	|~~basicvars+62
  3257 00:164A: D0 03        	bne	L229
  3258 00:164C: EE xx xx     	inc	|~~basicvars+62+2
  3259                        L229:
  3260 00:164F: AD xx xx     	lda	|~~basicvars+62
  3261 00:1652: 85 01        	sta	<R0
  3262 00:1654: AD xx xx     	lda	|~~basicvars+62+2
  3263 00:1657: 85 03        	sta	<R0+2
  3264 00:1659: A7 01        	lda	[<R0]
  3265 00:165B: 29 FF 00     	and	#$ff
  3266 00:165E: 85 01        	sta	<R0
  3267 00:1660: A6 01        	ldx	<R0
  3268 00:1662: BD xx xx     	lda	|~~ateol,X
  3269 00:1665: 29 FF 00     	and	#$ff
  3270 00:1668: F0 03        	beq	L230
  3271 00:166A: 82 0A 00     	brl	L10153
  3272                        L230:
  3273 00:166D: F4 05 00     	pea	#<$5
  3274 00:1670: F4 04 00     	pea	#4
  3275 00:1673: 22 xx xx xx  	jsl	~~error
  3276                        L10153:
  3277 00:1677: AD xx xx     	lda	|~~basicvars+62
  3278 00:167A: 85 01        	sta	<R0
  3279 00:167C: AD xx xx     	lda	|~~basicvars+62+2
  3280 00:167F: 85 03        	sta	<R0+2
  3281 00:1681: E2 20        	sep	#$20
  3282                        	longa	off
  3283 00:1683: A7 01        	lda	[<R0]
  3284 00:1685: C9 3A        	cmp	#<$3a
  3285 00:1687: C2 20        	rep	#$20
  3286                        	longa	on
  3287 00:1689: F0 03        	beq	L231
  3288 00:168B: 82 08 00     	brl	L10154
  3289                        L231:
  3290 00:168E: EE xx xx     	inc	|~~basicvars+62
  3291 00:1691: D0 03        	bne	L232
  3292 00:1693: EE xx xx     	inc	|~~basicvars+62+2
  3293                        L232:
  3294                        L10154:
  3295 00:1696: AD xx xx     	lda	|~~basicvars+62
  3296 00:1699: 85 01        	sta	<R0
  3297 00:169B: AD xx xx     	lda	|~~basicvars+62+2
  3298 00:169E: 85 03        	sta	<R0+2
  3299 00:16A0: A7 01        	lda	[<R0]
  3300 00:16A2: 29 FF 00     	and	#$ff
  Sun Jan  9 2022 20:52                                                Page 58


  3301 00:16A5: F0 03        	beq	L233
  3302 00:16A7: 82 80 00     	brl	L10155
  3303                        L233:
  3304 00:16AA: EE xx xx     	inc	|~~basicvars+62
  3305 00:16AD: D0 03        	bne	L234
  3306 00:16AF: EE xx xx     	inc	|~~basicvars+62+2
  3307                        L234:
  3308 00:16B2: AD xx xx     	lda	|~~basicvars+425
  3309 00:16B5: 89 02 00     	bit	#$2
  3310 00:16B8: D0 03        	bne	L235
  3311 00:16BA: 82 11 00     	brl	L10156
  3312                        L235:
  3313 00:16BD: AD xx xx     	lda	|~~basicvars+62+2
  3314 00:16C0: 48           	pha
  3315 00:16C1: AD xx xx     	lda	|~~basicvars+62
  3316 00:16C4: 48           	pha
  3317 00:16C5: 22 xx xx xx  	jsl	~~get_lineno
  3318 00:16C9: 48           	pha
  3319 00:16CA: 22 xx xx xx  	jsl	~~trace_line
  3320                        L10156:
  3321 00:16CE: AD xx xx     	lda	|~~basicvars+62
  3322 00:16D1: 85 05        	sta	<R1
  3323 00:16D3: AD xx xx     	lda	|~~basicvars+62+2
  3324 00:16D6: 85 07        	sta	<R1+2
  3325 00:16D8: A0 05 00     	ldy	#$5
  3326 00:16DB: B7 05        	lda	[<R1],Y
  3327 00:16DD: 29 FF 00     	and	#$ff
  3328 00:16E0: 85 05        	sta	<R1
  3329 00:16E2: A5 05        	lda	<R1
  3330 00:16E4: EB           	xba
  3331 00:16E5: 29 00 FF     	and	#$ff00
  3332 00:16E8: 85 01        	sta	<R0
  3333 00:16EA: A0 00 00     	ldy	#$0
  3334 00:16ED: A5 01        	lda	<R0
  3335 00:16EF: 10 01        	bpl	L236
  3336 00:16F1: 88           	dey
  3337                        L236:
  3338 00:16F2: 85 01        	sta	<R0
  3339 00:16F4: 84 03        	sty	<R0+2
  3340 00:16F6: AD xx xx     	lda	|~~basicvars+62
  3341 00:16F9: 85 05        	sta	<R1
  3342 00:16FB: AD xx xx     	lda	|~~basicvars+62+2
  3343 00:16FE: 85 07        	sta	<R1+2
  3344 00:1700: A0 04 00     	ldy	#$4
  3345 00:1703: B7 05        	lda	[<R1],Y
  3346 00:1705: 29 FF 00     	and	#$ff
  3347 00:1708: 85 05        	sta	<R1
  3348 00:170A: 64 07        	stz	<R1+2
  3349 00:170C: 18           	clc
  3350 00:170D: A5 05        	lda	<R1
  3351 00:170F: 65 01        	adc	<R0
  3352 00:1711: 85 09        	sta	<R2
  3353 00:1713: A5 07        	lda	<R1+2
  3354 00:1715: 65 03        	adc	<R0+2
  3355 00:1717: 85 0B        	sta	<R2+2
  3356 00:1719: 18           	clc
  3357 00:171A: AD xx xx     	lda	|~~basicvars+62
  3358 00:171D: 65 09        	adc	<R2
  Sun Jan  9 2022 20:52                                                Page 59


  3359 00:171F: 8D xx xx     	sta	|~~basicvars+62
  3360 00:1722: AD xx xx     	lda	|~~basicvars+62+2
  3361 00:1725: 65 0B        	adc	<R2+2
  3362 00:1727: 8D xx xx     	sta	|~~basicvars+62+2
  3363                        L10155:
  3364                        L237:
  3365 00:172A: 2B           	pld
  3366 00:172B: 3B           	tsc
  3367 00:172C: 18           	clc
  3368 00:172D: 69 0C 00     	adc	#L227
  3369 00:1730: 1B           	tcs
  3370 00:1731: 6B           	rtl
  3371             0000000C   L227	equ	12
  3372             0000000D   L228	equ	13
  3373                        	ends
  3374                        	efunc
  3375                        	code
  3376                        	xdef	~~exec_endproc
  3377                        	func
  3378                        ~~exec_endproc:
  3379                        	longa	on
  3380                        	longi	on
  3381 00:1732: 3B           	tsc
  3382 00:1733: 38           	sec
  3383 00:1734: E9 12 00     	sbc	#L238
  3384 00:1737: 1B           	tcs
  3385 00:1738: 0B           	phd
  3386 00:1739: 5B           	tcd
  3387             00000000   returnblock_1	set	0
  3388 00:173A: AD xx xx     	lda	|~~basicvars+399
  3389 00:173D: 0D xx xx     	ora	|~~basicvars+399+2
  3390 00:1740: F0 03        	beq	L240
  3391 00:1742: 82 0A 00     	brl	L10157
  3392                        L240:
  3393 00:1745: F4 55 00     	pea	#<$55
  3394 00:1748: F4 04 00     	pea	#4
  3395 00:174B: 22 xx xx xx  	jsl	~~error
  3396                        L10157:
  3397 00:174F: AD xx xx     	lda	|~~basicvars+42
  3398 00:1752: 85 01        	sta	<R0
  3399 00:1754: AD xx xx     	lda	|~~basicvars+42+2
  3400 00:1757: 85 03        	sta	<R0+2
  3401 00:1759: A7 01        	lda	[<R0]
  3402 00:175B: C9 0F 00     	cmp	#<$f
  3403 00:175E: D0 03        	bne	L241
  3404 00:1760: 82 07 00     	brl	L10158
  3405                        L241:
  3406 00:1763: F4 0F 00     	pea	#<$f
  3407 00:1766: 22 xx xx xx  	jsl	~~empty_stack
  3408                        L10158:
  3409 00:176A: 22 xx xx xx  	jsl	~~pop_proc
  3410 00:176E: 85 01        	sta	<R0
  3411 00:1770: 86 03        	stx	<R0+2
  3412 00:1772: D4 03        	pei	<R0+2
  3413 00:1774: D4 01        	pei	<R0
  3414 00:1776: 18           	clc
  3415 00:1777: 7B           	tdc
  3416 00:1778: 69 05 00     	adc	#<L239+returnblock_1
  Sun Jan  9 2022 20:52                                                Page 60


  3417 00:177B: 85 01        	sta	<R0
  3418 00:177D: A9 00 00     	lda	#$0
  3419 00:1780: 85 03        	sta	<R0+2
  3420 00:1782: D4 03        	pei	<R0+2
  3421 00:1784: D4 01        	pei	<R0
  3422 00:1786: A9 0E 00     	lda	#$e
  3423                        	xref	~~~fmov
  3424 00:1789: 22 xx xx xx  	jsl	~~~fmov
  3425 00:178D: A5 0D        	lda	<L239+returnblock_1+8
  3426 00:178F: D0 03        	bne	L242
  3427 00:1791: 82 06 00     	brl	L10159
  3428                        L242:
  3429 00:1794: D4 0D        	pei	<L239+returnblock_1+8
  3430 00:1796: 22 xx xx xx  	jsl	~~restore_parameters
  3431                        L10159:
  3432 00:179A: AD xx xx     	lda	|~~basicvars+425
  3433 00:179D: 89 01 00     	bit	#$1
  3434 00:17A0: D0 03        	bne	L243
  3435 00:17A2: 82 31 00     	brl	L10160
  3436                        L243:
  3437 00:17A5: AD xx xx     	lda	|~~basicvars+425
  3438 00:17A8: 89 04 00     	bit	#$4
  3439 00:17AB: D0 03        	bne	L244
  3440 00:17AD: 82 0B 00     	brl	L10161
  3441                        L244:
  3442 00:17B0: F4 00 00     	pea	#<$0
  3443 00:17B3: D4 11        	pei	<L239+returnblock_1+12
  3444 00:17B5: D4 0F        	pei	<L239+returnblock_1+10
  3445 00:17B7: 22 xx xx xx  	jsl	~~trace_proc
  3446                        L10161:
  3447 00:17BB: AD xx xx     	lda	|~~basicvars+425
  3448 00:17BE: 89 10 00     	bit	#$10
  3449 00:17C1: D0 03        	bne	L245
  3450 00:17C3: 82 10 00     	brl	L10162
  3451                        L245:
  3452 00:17C6: D4 0B        	pei	<L239+returnblock_1+6
  3453 00:17C8: D4 09        	pei	<L239+returnblock_1+4
  3454 00:17CA: AD xx xx     	lda	|~~basicvars+62+2
  3455 00:17CD: 48           	pha
  3456 00:17CE: AD xx xx     	lda	|~~basicvars+62
  3457 00:17D1: 48           	pha
  3458 00:17D2: 22 xx xx xx  	jsl	~~trace_branch
  3459                        L10162:
  3460                        L10160:
  3461 00:17D6: A5 09        	lda	<L239+returnblock_1+4
  3462 00:17D8: 8D xx xx     	sta	|~~basicvars+62
  3463 00:17DB: A5 0B        	lda	<L239+returnblock_1+6
  3464 00:17DD: 8D xx xx     	sta	|~~basicvars+62+2
  3465                        L246:
  3466 00:17E0: 2B           	pld
  3467 00:17E1: 3B           	tsc
  3468 00:17E2: 18           	clc
  3469 00:17E3: 69 12 00     	adc	#L238
  3470 00:17E6: 1B           	tcs
  3471 00:17E7: 6B           	rtl
  3472             00000012   L238	equ	18
  3473             00000005   L239	equ	5
  3474                        	ends
  Sun Jan  9 2022 20:52                                                Page 61


  3475                        	efunc
  3476                        	code
  3477                        	xdef	~~exec_fnreturn
  3478                        	func
  3479                        ~~exec_fnreturn:
  3480                        	longa	on
  3481                        	longi	on
  3482 00:17E8: 3B           	tsc
  3483 00:17E9: 38           	sec
  3484 00:17EA: E9 20 00     	sbc	#L247
  3485 00:17ED: 1B           	tcs
  3486 00:17EE: 0B           	phd
  3487 00:17EF: 5B           	tcd
  3488                        	udata
  3489                        L10163:
  3490 00:0004:              	ds	4
  3491 00:0008:              	ends
  3492             00000000   resultype_1	set	0
  3493             00000002   intresult_1	set	2
  3494             00000004   stresult_1	set	4
  3495             0000000A   sp_1	set	10
  3496             0000000E   returnblock_1	set	14
  3497 00:17F0: AD xx xx     	lda	|~~basicvars+399
  3498 00:17F3: 0D xx xx     	ora	|~~basicvars+399+2
  3499 00:17F6: F0 03        	beq	L249
  3500 00:17F8: 82 0A 00     	brl	L10164
  3501                        L249:
  3502 00:17FB: F4 56 00     	pea	#<$56
  3503 00:17FE: F4 04 00     	pea	#4
  3504 00:1801: 22 xx xx xx  	jsl	~~error
  3505                        L10164:
  3506 00:1805: EE xx xx     	inc	|~~basicvars+62
  3507 00:1808: D0 03        	bne	L250
  3508 00:180A: EE xx xx     	inc	|~~basicvars+62+2
  3509                        L250:
  3510 00:180D: 22 xx xx xx  	jsl	~~expression
  3511 00:1811: AD xx xx     	lda	|~~basicvars+42
  3512 00:1814: 85 01        	sta	<R0
  3513 00:1816: AD xx xx     	lda	|~~basicvars+42+2
  3514 00:1819: 85 03        	sta	<R0+2
  3515 00:181B: A7 01        	lda	[<R0]
  3516 00:181D: 85 05        	sta	<L248+resultype_1
  3517 00:181F: A5 05        	lda	<L248+resultype_1
  3518 00:1821: C9 02 00     	cmp	#<$2
  3519 00:1824: F0 03        	beq	L251
  3520 00:1826: 82 09 00     	brl	L10165
  3521                        L251:
  3522 00:1829: 22 xx xx xx  	jsl	~~pop_int
  3523 00:182D: 85 07        	sta	<L248+intresult_1
  3524 00:182F: 82 BF 00     	brl	L10166
  3525                        L10165:
  3526 00:1832: A5 05        	lda	<L248+resultype_1
  3527 00:1834: C9 03 00     	cmp	#<$3
  3528 00:1837: F0 03        	beq	L252
  3529 00:1839: 82 11 00     	brl	L10167
  3530                        L252:
  3531 00:183C: 5A           	phy
  3532 00:183D: 5A           	phy
  Sun Jan  9 2022 20:52                                                Page 62


  3533 00:183E: 22 xx xx xx  	jsl	~~pop_float
  3534 00:1842: 68           	pla
  3535 00:1843: 8D xx xx     	sta	|L10163
  3536 00:1846: 68           	pla
  3537 00:1847: 8D xx xx     	sta	|L10163+2
  3538 00:184A: 82 A4 00     	brl	L10168
  3539                        L10167:
  3540 00:184D: A5 05        	lda	<L248+resultype_1
  3541 00:184F: C9 04 00     	cmp	#<$4
  3542 00:1852: F0 03        	beq	L253
  3543 00:1854: 82 60 00     	brl	L10169
  3544                        L253:
  3545 00:1857: 22 xx xx xx  	jsl	~~pop_string
  3546 00:185B: 85 01        	sta	<R0
  3547 00:185D: 86 03        	stx	<R0+2
  3548 00:185F: D4 03        	pei	<R0+2
  3549 00:1861: D4 01        	pei	<R0
  3550 00:1863: 18           	clc
  3551 00:1864: 7B           	tdc
  3552 00:1865: 69 09 00     	adc	#<L248+stresult_1
  3553 00:1868: 85 01        	sta	<R0
  3554 00:186A: A9 00 00     	lda	#$0
  3555 00:186D: 85 03        	sta	<R0+2
  3556 00:186F: D4 03        	pei	<R0+2
  3557 00:1871: D4 01        	pei	<R0
  3558 00:1873: A9 06 00     	lda	#$6
  3559                        	xref	~~~fmov
  3560 00:1876: 22 xx xx xx  	jsl	~~~fmov
  3561 00:187A: D4 09        	pei	<L248+stresult_1
  3562 00:187C: 22 xx xx xx  	jsl	~~alloc_string
  3563 00:1880: 85 0F        	sta	<L248+sp_1
  3564 00:1882: 86 11        	stx	<L248+sp_1+2
  3565 00:1884: A5 09        	lda	<L248+stresult_1
  3566 00:1886: D0 03        	bne	L254
  3567 00:1888: 82 1C 00     	brl	L10170
  3568                        L254:
  3569 00:188B: A0 00 00     	ldy	#$0
  3570 00:188E: A5 09        	lda	<L248+stresult_1
  3571 00:1890: 10 01        	bpl	L255
  3572 00:1892: 88           	dey
  3573                        L255:
  3574 00:1893: 85 01        	sta	<R0
  3575 00:1895: 84 03        	sty	<R0+2
  3576 00:1897: D4 03        	pei	<R0+2
  3577 00:1899: D4 01        	pei	<R0
  3578 00:189B: D4 0D        	pei	<L248+stresult_1+4
  3579 00:189D: D4 0B        	pei	<L248+stresult_1+2
  3580 00:189F: D4 11        	pei	<L248+sp_1+2
  3581 00:18A1: D4 0F        	pei	<L248+sp_1
  3582 00:18A3: 22 xx xx xx  	jsl	~~memmove
  3583                        L10170:
  3584 00:18A7: A5 0F        	lda	<L248+sp_1
  3585 00:18A9: 85 0B        	sta	<L248+stresult_1+2
  3586 00:18AB: A5 11        	lda	<L248+sp_1+2
  3587 00:18AD: 85 0D        	sta	<L248+stresult_1+4
  3588 00:18AF: A9 05 00     	lda	#$5
  3589 00:18B2: 85 05        	sta	<L248+resultype_1
  3590 00:18B4: 82 3A 00     	brl	L10171
  Sun Jan  9 2022 20:52                                                Page 63


  3591                        L10169:
  3592 00:18B7: A5 05        	lda	<L248+resultype_1
  3593 00:18B9: C9 05 00     	cmp	#<$5
  3594 00:18BC: F0 03        	beq	L256
  3595 00:18BE: 82 26 00     	brl	L10172
  3596                        L256:
  3597 00:18C1: 22 xx xx xx  	jsl	~~pop_string
  3598 00:18C5: 85 01        	sta	<R0
  3599 00:18C7: 86 03        	stx	<R0+2
  3600 00:18C9: D4 03        	pei	<R0+2
  3601 00:18CB: D4 01        	pei	<R0
  3602 00:18CD: 18           	clc
  3603 00:18CE: 7B           	tdc
  3604 00:18CF: 69 09 00     	adc	#<L248+stresult_1
  3605 00:18D2: 85 01        	sta	<R0
  3606 00:18D4: A9 00 00     	lda	#$0
  3607 00:18D7: 85 03        	sta	<R0+2
  3608 00:18D9: D4 03        	pei	<R0+2
  3609 00:18DB: D4 01        	pei	<R0
  3610 00:18DD: A9 06 00     	lda	#$6
  3611                        	xref	~~~fmov
  3612 00:18E0: 22 xx xx xx  	jsl	~~~fmov
  3613 00:18E4: 82 0A 00     	brl	L10173
  3614                        L10172:
  3615 00:18E7: F4 45 00     	pea	#<$45
  3616 00:18EA: F4 04 00     	pea	#4
  3617 00:18ED: 22 xx xx xx  	jsl	~~error
  3618                        L10173:
  3619                        L10171:
  3620                        L10168:
  3621                        L10166:
  3622 00:18F1: F4 10 00     	pea	#<$10
  3623 00:18F4: 22 xx xx xx  	jsl	~~empty_stack
  3624 00:18F8: 22 xx xx xx  	jsl	~~pop_fn
  3625 00:18FC: 85 01        	sta	<R0
  3626 00:18FE: 86 03        	stx	<R0+2
  3627 00:1900: D4 03        	pei	<R0+2
  3628 00:1902: D4 01        	pei	<R0
  3629 00:1904: 18           	clc
  3630 00:1905: 7B           	tdc
  3631 00:1906: 69 13 00     	adc	#<L248+returnblock_1
  3632 00:1909: 85 01        	sta	<R0
  3633 00:190B: A9 00 00     	lda	#$0
  3634 00:190E: 85 03        	sta	<R0+2
  3635 00:1910: D4 03        	pei	<R0+2
  3636 00:1912: D4 01        	pei	<R0
  3637 00:1914: A9 0E 00     	lda	#$e
  3638                        	xref	~~~fmov
  3639 00:1917: 22 xx xx xx  	jsl	~~~fmov
  3640 00:191B: A5 1B        	lda	<L248+returnblock_1+8
  3641 00:191D: D0 03        	bne	L257
  3642 00:191F: 82 06 00     	brl	L10174
  3643                        L257:
  3644 00:1922: D4 1B        	pei	<L248+returnblock_1+8
  3645 00:1924: 22 xx xx xx  	jsl	~~restore_parameters
  3646                        L10174:
  3647 00:1928: A5 05        	lda	<L248+resultype_1
  3648 00:192A: C9 02 00     	cmp	#<$2
  Sun Jan  9 2022 20:52                                                Page 64


  3649 00:192D: F0 03        	beq	L258
  3650 00:192F: 82 36 00     	brl	L10175
  3651                        L258:
  3652 00:1932: 18           	clc
  3653 00:1933: A9 FC FF     	lda	#$fffc
  3654 00:1936: 6D xx xx     	adc	|~~basicvars+42
  3655 00:1939: 8D xx xx     	sta	|~~basicvars+42
  3656 00:193C: A9 FF FF     	lda	#$ffff
  3657 00:193F: 6D xx xx     	adc	|~~basicvars+42+2
  3658 00:1942: 8D xx xx     	sta	|~~basicvars+42+2
  3659 00:1945: AD xx xx     	lda	|~~basicvars+42
  3660 00:1948: 85 01        	sta	<R0
  3661 00:194A: AD xx xx     	lda	|~~basicvars+42+2
  3662 00:194D: 85 03        	sta	<R0+2
  3663 00:194F: A9 02 00     	lda	#$2
  3664 00:1952: 87 01        	sta	[<R0]
  3665 00:1954: AD xx xx     	lda	|~~basicvars+42
  3666 00:1957: 85 01        	sta	<R0
  3667 00:1959: AD xx xx     	lda	|~~basicvars+42+2
  3668 00:195C: 85 03        	sta	<R0+2
  3669 00:195E: A5 07        	lda	<L248+intresult_1
  3670 00:1960: A0 02 00     	ldy	#$2
  3671 00:1963: 97 01        	sta	[<R0],Y
  3672 00:1965: 82 B8 00     	brl	L10176
  3673                        L10175:
  3674 00:1968: A5 05        	lda	<L248+resultype_1
  3675 00:196A: C9 03 00     	cmp	#<$3
  3676 00:196D: F0 03        	beq	L259
  3677 00:196F: 82 3F 00     	brl	L10177
  3678                        L259:
  3679 00:1972: 18           	clc
  3680 00:1973: A9 FA FF     	lda	#$fffa
  3681 00:1976: 6D xx xx     	adc	|~~basicvars+42
  3682 00:1979: 8D xx xx     	sta	|~~basicvars+42
  3683 00:197C: A9 FF FF     	lda	#$ffff
  3684 00:197F: 6D xx xx     	adc	|~~basicvars+42+2
  3685 00:1982: 8D xx xx     	sta	|~~basicvars+42+2
  3686 00:1985: AD xx xx     	lda	|~~basicvars+42
  3687 00:1988: 85 01        	sta	<R0
  3688 00:198A: AD xx xx     	lda	|~~basicvars+42+2
  3689 00:198D: 85 03        	sta	<R0+2
  3690 00:198F: A9 03 00     	lda	#$3
  3691 00:1992: 87 01        	sta	[<R0]
  3692 00:1994: AD xx xx     	lda	|~~basicvars+42
  3693 00:1997: 85 01        	sta	<R0
  3694 00:1999: AD xx xx     	lda	|~~basicvars+42+2
  3695 00:199C: 85 03        	sta	<R0+2
  3696 00:199E: AD xx xx     	lda	|L10163
  3697 00:19A1: A0 02 00     	ldy	#$2
  3698 00:19A4: 97 01        	sta	[<R0],Y
  3699 00:19A6: AD xx xx     	lda	|L10163+2
  3700 00:19A9: A0 04 00     	ldy	#$4
  3701 00:19AC: 97 01        	sta	[<R0],Y
  3702 00:19AE: 82 6F 00     	brl	L10178
  3703                        L10177:
  3704 00:19B1: A5 05        	lda	<L248+resultype_1
  3705 00:19B3: C9 04 00     	cmp	#<$4
  3706 00:19B6: F0 03        	beq	L260
  Sun Jan  9 2022 20:52                                                Page 65


  3707 00:19B8: 82 51 00     	brl	L10179
  3708                        L260:
  3709 00:19BB: 18           	clc
  3710 00:19BC: A9 F8 FF     	lda	#$fff8
  3711 00:19BF: 6D xx xx     	adc	|~~basicvars+42
  3712 00:19C2: 8D xx xx     	sta	|~~basicvars+42
  3713 00:19C5: A9 FF FF     	lda	#$ffff
  3714 00:19C8: 6D xx xx     	adc	|~~basicvars+42+2
  3715 00:19CB: 8D xx xx     	sta	|~~basicvars+42+2
  3716 00:19CE: AD xx xx     	lda	|~~basicvars+42
  3717 00:19D1: 85 01        	sta	<R0
  3718 00:19D3: AD xx xx     	lda	|~~basicvars+42+2
  3719 00:19D6: 85 03        	sta	<R0+2
  3720 00:19D8: A9 04 00     	lda	#$4
  3721 00:19DB: 87 01        	sta	[<R0]
  3722 00:19DD: 18           	clc
  3723 00:19DE: 7B           	tdc
  3724 00:19DF: 69 09 00     	adc	#<L248+stresult_1
  3725 00:19E2: 85 01        	sta	<R0
  3726 00:19E4: A9 00 00     	lda	#$0
  3727 00:19E7: 85 03        	sta	<R0+2
  3728 00:19E9: D4 03        	pei	<R0+2
  3729 00:19EB: D4 01        	pei	<R0
  3730 00:19ED: 18           	clc
  3731 00:19EE: A9 02 00     	lda	#$2
  3732 00:19F1: 6D xx xx     	adc	|~~basicvars+42
  3733 00:19F4: 85 01        	sta	<R0
  3734 00:19F6: A9 00 00     	lda	#$0
  3735 00:19F9: 6D xx xx     	adc	|~~basicvars+42+2
  3736 00:19FC: 85 03        	sta	<R0+2
  3737 00:19FE: D4 03        	pei	<R0+2
  3738 00:1A00: D4 01        	pei	<R0
  3739 00:1A02: A9 06 00     	lda	#$6
  3740                        	xref	~~~fmov
  3741 00:1A05: 22 xx xx xx  	jsl	~~~fmov
  3742 00:1A09: 82 14 00     	brl	L10180
  3743                        L10179:
  3744 00:1A0C: A5 05        	lda	<L248+resultype_1
  3745 00:1A0E: C9 05 00     	cmp	#<$5
  3746 00:1A11: F0 03        	beq	L261
  3747 00:1A13: 82 0A 00     	brl	L10181
  3748                        L261:
  3749 00:1A16: D4 0D        	pei	<L248+stresult_1+4
  3750 00:1A18: D4 0B        	pei	<L248+stresult_1+2
  3751 00:1A1A: D4 09        	pei	<L248+stresult_1
  3752 00:1A1C: 22 xx xx xx  	jsl	~~push_strtemp
  3753                        L10181:
  3754                        L10180:
  3755                        L10178:
  3756                        L10176:
  3757 00:1A20: AD xx xx     	lda	|~~basicvars+425
  3758 00:1A23: 89 01 00     	bit	#$1
  3759 00:1A26: D0 03        	bne	L262
  3760 00:1A28: 82 31 00     	brl	L10182
  3761                        L262:
  3762 00:1A2B: AD xx xx     	lda	|~~basicvars+425
  3763 00:1A2E: 89 04 00     	bit	#$4
  3764 00:1A31: D0 03        	bne	L263
  Sun Jan  9 2022 20:52                                                Page 66


  3765 00:1A33: 82 0B 00     	brl	L10183
  3766                        L263:
  3767 00:1A36: F4 00 00     	pea	#<$0
  3768 00:1A39: D4 1F        	pei	<L248+returnblock_1+12
  3769 00:1A3B: D4 1D        	pei	<L248+returnblock_1+10
  3770 00:1A3D: 22 xx xx xx  	jsl	~~trace_proc
  3771                        L10183:
  3772 00:1A41: AD xx xx     	lda	|~~basicvars+425
  3773 00:1A44: 89 10 00     	bit	#$10
  3774 00:1A47: D0 03        	bne	L264
  3775 00:1A49: 82 10 00     	brl	L10184
  3776                        L264:
  3777 00:1A4C: D4 19        	pei	<L248+returnblock_1+6
  3778 00:1A4E: D4 17        	pei	<L248+returnblock_1+4
  3779 00:1A50: AD xx xx     	lda	|~~basicvars+62+2
  3780 00:1A53: 48           	pha
  3781 00:1A54: AD xx xx     	lda	|~~basicvars+62
  3782 00:1A57: 48           	pha
  3783 00:1A58: 22 xx xx xx  	jsl	~~trace_branch
  3784                        L10184:
  3785                        L10182:
  3786 00:1A5C: A5 17        	lda	<L248+returnblock_1+4
  3787 00:1A5E: 8D xx xx     	sta	|~~basicvars+62
  3788 00:1A61: A5 19        	lda	<L248+returnblock_1+6
  3789 00:1A63: 8D xx xx     	sta	|~~basicvars+62+2
  3790                        L265:
  3791 00:1A66: 2B           	pld
  3792 00:1A67: 3B           	tsc
  3793 00:1A68: 18           	clc
  3794 00:1A69: 69 20 00     	adc	#L247
  3795 00:1A6C: 1B           	tcs
  3796 00:1A6D: 6B           	rtl
  3797             00000020   L247	equ	32
  3798             00000005   L248	equ	5
  3799                        	ends
  3800                        	efunc
  3801                        	code
  3802                        	xdef	~~exec_endwhile
  3803                        	func
  3804                        ~~exec_endwhile:
  3805                        	longa	on
  3806                        	longi	on
  3807 00:1A6E: 3B           	tsc
  3808 00:1A6F: 38           	sec
  3809 00:1A70: E9 16 00     	sbc	#L266
  3810 00:1A73: 1B           	tcs
  3811 00:1A74: 0B           	phd
  3812 00:1A75: 5B           	tcd
  3813             00000000   tp_1	set	0
  3814             00000004   wp_1	set	4
  3815             00000008   result_1	set	8
  3816 00:1A76: 18           	clc
  3817 00:1A77: A9 01 00     	lda	#$1
  3818 00:1A7A: 6D xx xx     	adc	|~~basicvars+62
  3819 00:1A7D: 85 0D        	sta	<L267+tp_1
  3820 00:1A7F: A9 00 00     	lda	#$0
  3821 00:1A82: 6D xx xx     	adc	|~~basicvars+62+2
  3822 00:1A85: 85 0F        	sta	<L267+tp_1+2
  Sun Jan  9 2022 20:52                                                Page 67


  3823 00:1A87: A7 0D        	lda	[<L267+tp_1]
  3824 00:1A89: 29 FF 00     	and	#$ff
  3825 00:1A8C: 85 01        	sta	<R0
  3826 00:1A8E: A6 01        	ldx	<R0
  3827 00:1A90: BD xx xx     	lda	|~~ateol,X
  3828 00:1A93: 29 FF 00     	and	#$ff
  3829 00:1A96: F0 03        	beq	L268
  3830 00:1A98: 82 0A 00     	brl	L10185
  3831                        L268:
  3832 00:1A9B: F4 05 00     	pea	#<$5
  3833 00:1A9E: F4 04 00     	pea	#4
  3834 00:1AA1: 22 xx xx xx  	jsl	~~error
  3835                        L10185:
  3836 00:1AA5: AD xx xx     	lda	|~~basicvars+42
  3837 00:1AA8: 85 01        	sta	<R0
  3838 00:1AAA: AD xx xx     	lda	|~~basicvars+42+2
  3839 00:1AAD: 85 03        	sta	<R0+2
  3840 00:1AAF: A7 01        	lda	[<R0]
  3841 00:1AB1: C9 13 00     	cmp	#<$13
  3842 00:1AB4: F0 03        	beq	L269
  3843 00:1AB6: 82 0D 00     	brl	L10186
  3844                        L269:
  3845 00:1AB9: AD xx xx     	lda	|~~basicvars+42
  3846 00:1ABC: 85 11        	sta	<L267+wp_1
  3847 00:1ABE: AD xx xx     	lda	|~~basicvars+42+2
  3848 00:1AC1: 85 13        	sta	<L267+wp_1+2
  3849 00:1AC3: 82 08 00     	brl	L10187
  3850                        L10186:
  3851 00:1AC6: 22 xx xx xx  	jsl	~~get_while
  3852 00:1ACA: 85 11        	sta	<L267+wp_1
  3853 00:1ACC: 86 13        	stx	<L267+wp_1+2
  3854                        L10187:
  3855 00:1ACE: A5 11        	lda	<L267+wp_1
  3856 00:1AD0: 05 13        	ora	<L267+wp_1+2
  3857 00:1AD2: F0 03        	beq	L270
  3858 00:1AD4: 82 0A 00     	brl	L10188
  3859                        L270:
  3860 00:1AD7: F4 33 00     	pea	#<$33
  3861 00:1ADA: F4 04 00     	pea	#4
  3862 00:1ADD: 22 xx xx xx  	jsl	~~error
  3863                        L10188:
  3864 00:1AE1: AD xx xx     	lda	|~~basicvars+489
  3865 00:1AE4: 29 FF 00     	and	#$ff
  3866 00:1AE7: D0 03        	bne	L271
  3867 00:1AE9: 82 0A 00     	brl	L10189
  3868                        L271:
  3869 00:1AEC: F4 08 00     	pea	#<$8
  3870 00:1AEF: F4 04 00     	pea	#4
  3871 00:1AF2: 22 xx xx xx  	jsl	~~error
  3872                        L10189:
  3873 00:1AF6: A0 02 00     	ldy	#$2
  3874 00:1AF9: B7 11        	lda	[<L267+wp_1],Y
  3875 00:1AFB: 8D xx xx     	sta	|~~basicvars+62
  3876 00:1AFE: A0 04 00     	ldy	#$4
  3877 00:1B01: B7 11        	lda	[<L267+wp_1],Y
  3878 00:1B03: 8D xx xx     	sta	|~~basicvars+62+2
  3879 00:1B06: 22 xx xx xx  	jsl	~~expression
  3880 00:1B0A: AD xx xx     	lda	|~~basicvars+42
  Sun Jan  9 2022 20:52                                                Page 68


  3881 00:1B0D: 85 01        	sta	<R0
  3882 00:1B0F: AD xx xx     	lda	|~~basicvars+42+2
  3883 00:1B12: 85 03        	sta	<R0+2
  3884 00:1B14: A7 01        	lda	[<R0]
  3885 00:1B16: C9 02 00     	cmp	#<$2
  3886 00:1B19: F0 03        	beq	L272
  3887 00:1B1B: 82 09 00     	brl	L10190
  3888                        L272:
  3889 00:1B1E: 22 xx xx xx  	jsl	~~pop_int
  3890 00:1B22: 85 15        	sta	<L267+result_1
  3891 00:1B24: 82 35 00     	brl	L10191
  3892                        L10190:
  3893 00:1B27: AD xx xx     	lda	|~~basicvars+42
  3894 00:1B2A: 85 01        	sta	<R0
  3895 00:1B2C: AD xx xx     	lda	|~~basicvars+42+2
  3896 00:1B2F: 85 03        	sta	<R0+2
  3897 00:1B31: A7 01        	lda	[<R0]
  3898 00:1B33: C9 03 00     	cmp	#<$3
  3899 00:1B36: F0 03        	beq	L273
  3900 00:1B38: 82 17 00     	brl	L10192
  3901                        L273:
  3902 00:1B3B: 5A           	phy
  3903 00:1B3C: 5A           	phy
  3904 00:1B3D: 22 xx xx xx  	jsl	~~pop_float
  3905                        	xref	~~~ffix
  3906 00:1B41: 22 xx xx xx  	jsl	~~~ffix
  3907 00:1B45: 68           	pla
  3908 00:1B46: 85 01        	sta	<R0
  3909 00:1B48: 68           	pla
  3910 00:1B49: 85 03        	sta	<R0+2
  3911 00:1B4B: A5 01        	lda	<R0
  3912 00:1B4D: 85 15        	sta	<L267+result_1
  3913 00:1B4F: 82 0A 00     	brl	L10193
  3914                        L10192:
  3915 00:1B52: F4 3F 00     	pea	#<$3f
  3916 00:1B55: F4 04 00     	pea	#4
  3917 00:1B58: 22 xx xx xx  	jsl	~~error
  3918                        L10193:
  3919                        L10191:
  3920 00:1B5C: A5 15        	lda	<L267+result_1
  3921 00:1B5E: D0 03        	bne	L274
  3922 00:1B60: 82 32 00     	brl	L10194
  3923                        L274:
  3924 00:1B63: AD xx xx     	lda	|~~basicvars+425
  3925 00:1B66: 89 10 00     	bit	#$10
  3926 00:1B69: D0 03        	bne	L275
  3927 00:1B6B: 82 14 00     	brl	L10195
  3928                        L275:
  3929 00:1B6E: A0 08 00     	ldy	#$8
  3930 00:1B71: B7 11        	lda	[<L267+wp_1],Y
  3931 00:1B73: 48           	pha
  3932 00:1B74: A0 06 00     	ldy	#$6
  3933 00:1B77: B7 11        	lda	[<L267+wp_1],Y
  3934 00:1B79: 48           	pha
  3935 00:1B7A: D4 0F        	pei	<L267+tp_1+2
  3936 00:1B7C: D4 0D        	pei	<L267+tp_1
  3937 00:1B7E: 22 xx xx xx  	jsl	~~trace_branch
  3938                        L10195:
  Sun Jan  9 2022 20:52                                                Page 69


  3939 00:1B82: A0 06 00     	ldy	#$6
  3940 00:1B85: B7 11        	lda	[<L267+wp_1],Y
  3941 00:1B87: 8D xx xx     	sta	|~~basicvars+62
  3942 00:1B8A: A0 08 00     	ldy	#$8
  3943 00:1B8D: B7 11        	lda	[<L267+wp_1],Y
  3944 00:1B8F: 8D xx xx     	sta	|~~basicvars+62+2
  3945 00:1B92: 82 8D 00     	brl	L10196
  3946                        L10194:
  3947 00:1B95: 22 xx xx xx  	jsl	~~pop_while
  3948 00:1B99: E2 20        	sep	#$20
  3949                        	longa	off
  3950 00:1B9B: A7 0D        	lda	[<L267+tp_1]
  3951 00:1B9D: C9 3A        	cmp	#<$3a
  3952 00:1B9F: C2 20        	rep	#$20
  3953                        	longa	on
  3954 00:1BA1: F0 03        	beq	L276
  3955 00:1BA3: 82 06 00     	brl	L10197
  3956                        L276:
  3957 00:1BA6: E6 0D        	inc	<L267+tp_1
  3958 00:1BA8: D0 02        	bne	L277
  3959 00:1BAA: E6 0F        	inc	<L267+tp_1+2
  3960                        L277:
  3961                        L10197:
  3962 00:1BAC: A7 0D        	lda	[<L267+tp_1]
  3963 00:1BAE: 29 FF 00     	and	#$ff
  3964 00:1BB1: F0 03        	beq	L278
  3965 00:1BB3: 82 62 00     	brl	L10198
  3966                        L278:
  3967 00:1BB6: E6 0D        	inc	<L267+tp_1
  3968 00:1BB8: D0 02        	bne	L279
  3969 00:1BBA: E6 0F        	inc	<L267+tp_1+2
  3970                        L279:
  3971 00:1BBC: AD xx xx     	lda	|~~basicvars+425
  3972 00:1BBF: 89 02 00     	bit	#$2
  3973 00:1BC2: D0 03        	bne	L280
  3974 00:1BC4: 82 0D 00     	brl	L10199
  3975                        L280:
  3976 00:1BC7: D4 0F        	pei	<L267+tp_1+2
  3977 00:1BC9: D4 0D        	pei	<L267+tp_1
  3978 00:1BCB: 22 xx xx xx  	jsl	~~get_lineno
  3979 00:1BCF: 48           	pha
  3980 00:1BD0: 22 xx xx xx  	jsl	~~trace_line
  3981                        L10199:
  3982 00:1BD4: A0 05 00     	ldy	#$5
  3983 00:1BD7: B7 0D        	lda	[<L267+tp_1],Y
  3984 00:1BD9: 29 FF 00     	and	#$ff
  3985 00:1BDC: 85 05        	sta	<R1
  3986 00:1BDE: A5 05        	lda	<R1
  3987 00:1BE0: EB           	xba
  3988 00:1BE1: 29 00 FF     	and	#$ff00
  3989 00:1BE4: 85 01        	sta	<R0
  3990 00:1BE6: A0 00 00     	ldy	#$0
  3991 00:1BE9: A5 01        	lda	<R0
  3992 00:1BEB: 10 01        	bpl	L281
  3993 00:1BED: 88           	dey
  3994                        L281:
  3995 00:1BEE: 85 01        	sta	<R0
  3996 00:1BF0: 84 03        	sty	<R0+2
  Sun Jan  9 2022 20:52                                                Page 70


  3997 00:1BF2: A0 04 00     	ldy	#$4
  3998 00:1BF5: B7 0D        	lda	[<L267+tp_1],Y
  3999 00:1BF7: 29 FF 00     	and	#$ff
  4000 00:1BFA: 85 05        	sta	<R1
  4001 00:1BFC: 64 07        	stz	<R1+2
  4002 00:1BFE: 18           	clc
  4003 00:1BFF: A5 05        	lda	<R1
  4004 00:1C01: 65 01        	adc	<R0
  4005 00:1C03: 85 09        	sta	<R2
  4006 00:1C05: A5 07        	lda	<R1+2
  4007 00:1C07: 65 03        	adc	<R0+2
  4008 00:1C09: 85 0B        	sta	<R2+2
  4009 00:1C0B: 18           	clc
  4010 00:1C0C: A5 0D        	lda	<L267+tp_1
  4011 00:1C0E: 65 09        	adc	<R2
  4012 00:1C10: 85 0D        	sta	<L267+tp_1
  4013 00:1C12: A5 0F        	lda	<L267+tp_1+2
  4014 00:1C14: 65 0B        	adc	<R2+2
  4015 00:1C16: 85 0F        	sta	<L267+tp_1+2
  4016                        L10198:
  4017 00:1C18: A5 0D        	lda	<L267+tp_1
  4018 00:1C1A: 8D xx xx     	sta	|~~basicvars+62
  4019 00:1C1D: A5 0F        	lda	<L267+tp_1+2
  4020 00:1C1F: 8D xx xx     	sta	|~~basicvars+62+2
  4021                        L10196:
  4022                        L282:
  4023 00:1C22: 2B           	pld
  4024 00:1C23: 3B           	tsc
  4025 00:1C24: 18           	clc
  4026 00:1C25: 69 16 00     	adc	#L266
  4027 00:1C28: 1B           	tcs
  4028 00:1C29: 6B           	rtl
  4029             00000016   L266	equ	22
  4030             0000000D   L267	equ	13
  4031                        	ends
  4032                        	efunc
  4033                        	code
  4034                        	xdef	~~exec_error
  4035                        	func
  4036                        ~~exec_error:
  4037                        	longa	on
  4038                        	longi	on
  4039 00:1C2A: 3B           	tsc
  4040 00:1C2B: 38           	sec
  4041 00:1C2C: E9 16 00     	sbc	#L283
  4042 00:1C2F: 1B           	tcs
  4043 00:1C30: 0B           	phd
  4044 00:1C31: 5B           	tcd
  4045             00000000   errnumber_1	set	0
  4046             00000002   stringtype_1	set	2
  4047             00000004   descriptor_1	set	4
  4048             0000000A   errtext_1	set	10
  4049 00:1C32: EE xx xx     	inc	|~~basicvars+62
  4050 00:1C35: D0 03        	bne	L285
  4051 00:1C37: EE xx xx     	inc	|~~basicvars+62+2
  4052                        L285:
  4053 00:1C3A: 22 xx xx xx  	jsl	~~eval_integer
  4054 00:1C3E: 85 09        	sta	<L284+errnumber_1
  Sun Jan  9 2022 20:52                                                Page 71


  4055 00:1C40: AD xx xx     	lda	|~~basicvars+62
  4056 00:1C43: 85 01        	sta	<R0
  4057 00:1C45: AD xx xx     	lda	|~~basicvars+62+2
  4058 00:1C48: 85 03        	sta	<R0+2
  4059 00:1C4A: E2 20        	sep	#$20
  4060                        	longa	off
  4061 00:1C4C: A7 01        	lda	[<R0]
  4062 00:1C4E: C9 2C        	cmp	#<$2c
  4063 00:1C50: C2 20        	rep	#$20
  4064                        	longa	on
  4065 00:1C52: D0 03        	bne	L286
  4066 00:1C54: 82 0A 00     	brl	L10200
  4067                        L286:
  4068 00:1C57: F4 27 00     	pea	#<$27
  4069 00:1C5A: F4 04 00     	pea	#4
  4070 00:1C5D: 22 xx xx xx  	jsl	~~error
  4071                        L10200:
  4072 00:1C61: EE xx xx     	inc	|~~basicvars+62
  4073 00:1C64: D0 03        	bne	L287
  4074 00:1C66: EE xx xx     	inc	|~~basicvars+62+2
  4075                        L287:
  4076 00:1C69: 22 xx xx xx  	jsl	~~expression
  4077 00:1C6D: 22 xx xx xx  	jsl	~~check_ateol
  4078 00:1C71: AD xx xx     	lda	|~~basicvars+42
  4079 00:1C74: 85 01        	sta	<R0
  4080 00:1C76: AD xx xx     	lda	|~~basicvars+42+2
  4081 00:1C79: 85 03        	sta	<R0+2
  4082 00:1C7B: A7 01        	lda	[<R0]
  4083 00:1C7D: 85 0B        	sta	<L284+stringtype_1
  4084 00:1C7F: A5 0B        	lda	<L284+stringtype_1
  4085 00:1C81: C9 04 00     	cmp	#<$4
  4086 00:1C84: D0 03        	bne	L288
  4087 00:1C86: 82 14 00     	brl	L10201
  4088                        L288:
  4089 00:1C89: A5 0B        	lda	<L284+stringtype_1
  4090 00:1C8B: C9 05 00     	cmp	#<$5
  4091 00:1C8E: D0 03        	bne	L289
  4092 00:1C90: 82 0A 00     	brl	L10201
  4093                        L289:
  4094 00:1C93: F4 40 00     	pea	#<$40
  4095 00:1C96: F4 04 00     	pea	#4
  4096 00:1C99: 22 xx xx xx  	jsl	~~error
  4097                        L10201:
  4098 00:1C9D: 22 xx xx xx  	jsl	~~pop_string
  4099 00:1CA1: 85 01        	sta	<R0
  4100 00:1CA3: 86 03        	stx	<R0+2
  4101 00:1CA5: D4 03        	pei	<R0+2
  4102 00:1CA7: D4 01        	pei	<R0
  4103 00:1CA9: 18           	clc
  4104 00:1CAA: 7B           	tdc
  4105 00:1CAB: 69 0D 00     	adc	#<L284+descriptor_1
  4106 00:1CAE: 85 01        	sta	<R0
  4107 00:1CB0: A9 00 00     	lda	#$0
  4108 00:1CB3: 85 03        	sta	<R0+2
  4109 00:1CB5: D4 03        	pei	<R0+2
  4110 00:1CB7: D4 01        	pei	<R0
  4111 00:1CB9: A9 06 00     	lda	#$6
  4112                        	xref	~~~fmov
  Sun Jan  9 2022 20:52                                                Page 72


  4113 00:1CBC: 22 xx xx xx  	jsl	~~~fmov
  4114 00:1CC0: D4 0D        	pei	<L284+descriptor_1
  4115 00:1CC2: D4 11        	pei	<L284+descriptor_1+4
  4116 00:1CC4: D4 0F        	pei	<L284+descriptor_1+2
  4117 00:1CC6: 22 xx xx xx  	jsl	~~tocstring
  4118 00:1CCA: 85 13        	sta	<L284+errtext_1
  4119 00:1CCC: 86 15        	stx	<L284+errtext_1+2
  4120 00:1CCE: A5 0B        	lda	<L284+stringtype_1
  4121 00:1CD0: C9 05 00     	cmp	#<$5
  4122 00:1CD3: F0 03        	beq	L290
  4123 00:1CD5: 82 2A 00     	brl	L10202
  4124                        L290:
  4125 00:1CD8: 38           	sec
  4126 00:1CD9: 3B           	tsc
  4127 00:1CDA: E9 06 00     	sbc	#6
  4128 00:1CDD: 1B           	tcs
  4129 00:1CDE: 1A           	ina
  4130 00:1CDF: 85 01        	sta	<R0
  4131 00:1CE1: 64 03        	stz	<R0+2
  4132 00:1CE3: 18           	clc
  4133 00:1CE4: 7B           	tdc
  4134 00:1CE5: 69 0D 00     	adc	#<L284+descriptor_1
  4135 00:1CE8: 85 05        	sta	<R1
  4136 00:1CEA: A9 00 00     	lda	#$0
  4137 00:1CED: 85 07        	sta	<R1+2
  4138 00:1CEF: D4 07        	pei	<R1+2
  4139 00:1CF1: D4 05        	pei	<R1
  4140 00:1CF3: D4 03        	pei	<R0+2
  4141 00:1CF5: D4 01        	pei	<R0
  4142 00:1CF7: A9 06 00     	lda	#$6
  4143                        	xref	~~~fmov
  4144 00:1CFA: 22 xx xx xx  	jsl	~~~fmov
  4145 00:1CFE: 22 xx xx xx  	jsl	~~free_string
  4146                        L10202:
  4147 00:1D02: D4 15        	pei	<L284+errtext_1+2
  4148 00:1D04: D4 13        	pei	<L284+errtext_1
  4149 00:1D06: D4 09        	pei	<L284+errnumber_1
  4150 00:1D08: 22 xx xx xx  	jsl	~~show_error
  4151                        L291:
  4152 00:1D0C: 2B           	pld
  4153 00:1D0D: 3B           	tsc
  4154 00:1D0E: 18           	clc
  4155 00:1D0F: 69 16 00     	adc	#L283
  4156 00:1D12: 1B           	tcs
  4157 00:1D13: 6B           	rtl
  4158             00000016   L283	equ	22
  4159             00000009   L284	equ	9
  4160                        	ends
  4161                        	efunc
  4162                        	code
  4163                        	xdef	~~exec_for
  4164                        	func
  4165                        ~~exec_for:
  4166                        	longa	on
  4167                        	longi	on
  4168 00:1D14: 3B           	tsc
  4169 00:1D15: 38           	sec
  4170 00:1D16: E9 18 00     	sbc	#L292
  Sun Jan  9 2022 20:52                                                Page 73


  4171 00:1D19: 1B           	tcs
  4172 00:1D1A: 0B           	phd
  4173 00:1D1B: 5B           	tcd
  4174                        	udata
  4175                        L10203:
  4176 00:0008:              	ds	4
  4177 00:000C:              	ends
  4178                        	udata
  4179                        L10204:
  4180 00:000C:              	ds	4
  4181 00:0010:              	ends
  4182             00000000   isinteger_1	set	0
  4183             00000001   forvar_1	set	1
  4184             00000007   intlimit_1	set	7
  4185             00000009   intstep_1	set	9
  4186 00:1D1C: EE xx xx     	inc	|~~basicvars+62
  4187 00:1D1F: D0 03        	bne	L294
  4188 00:1D21: EE xx xx     	inc	|~~basicvars+62+2
  4189                        L294:
  4190 00:1D24: F4 00 00     	pea	#0
  4191 00:1D27: 18           	clc
  4192 00:1D28: 7B           	tdc
  4193 00:1D29: 69 0E 00     	adc	#<L293+forvar_1
  4194 00:1D2C: 48           	pha
  4195 00:1D2D: 22 xx xx xx  	jsl	~~get_lvalue
  4196 00:1D31: A5 0E        	lda	<L293+forvar_1
  4197 00:1D33: 29 08 00     	and	#<$8
  4198 00:1D36: F0 03        	beq	L296
  4199 00:1D38: 82 17 00     	brl	L295
  4200                        L296:
  4201 00:1D3B: A5 0E        	lda	<L293+forvar_1
  4202 00:1D3D: 29 07 00     	and	#<$7
  4203 00:1D40: 85 01        	sta	<R0
  4204 00:1D42: 38           	sec
  4205 00:1D43: A9 03 00     	lda	#$3
  4206 00:1D46: E5 01        	sbc	<R0
  4207 00:1D48: 70 03        	bvs	L297
  4208 00:1D4A: 49 00 80     	eor	#$8000
  4209                        L297:
  4210 00:1D4D: 10 03        	bpl	L298
  4211 00:1D4F: 82 0A 00     	brl	L10205
  4212                        L298:
  4213                        L295:
  4214 00:1D52: F4 43 00     	pea	#<$43
  4215 00:1D55: F4 04 00     	pea	#4
  4216 00:1D58: 22 xx xx xx  	jsl	~~error
  4217                        L10205:
  4218 00:1D5C: 64 01        	stz	<R0
  4219 00:1D5E: A5 0E        	lda	<L293+forvar_1
  4220 00:1D60: 29 07 00     	and	#<$7
  4221 00:1D63: 85 05        	sta	<R1
  4222 00:1D65: A5 05        	lda	<R1
  4223 00:1D67: 30 08        	bmi	L300
  4224 00:1D69: 3A           	dea
  4225 00:1D6A: 3A           	dea
  4226 00:1D6B: 3A           	dea
  4227 00:1D6C: 30 03        	bmi	L300
  4228 00:1D6E: 82 02 00     	brl	L299
  Sun Jan  9 2022 20:52                                                Page 74


  4229                        L300:
  4230 00:1D71: E6 01        	inc	<R0
  4231                        L299:
  4232 00:1D73: E2 20        	sep	#$20
  4233                        	longa	off
  4234 00:1D75: A5 01        	lda	<R0
  4235 00:1D77: 85 0D        	sta	<L293+isinteger_1
  4236 00:1D79: C2 20        	rep	#$20
  4237                        	longa	on
  4238 00:1D7B: AD xx xx     	lda	|~~basicvars+62
  4239 00:1D7E: 85 01        	sta	<R0
  4240 00:1D80: AD xx xx     	lda	|~~basicvars+62+2
  4241 00:1D83: 85 03        	sta	<R0+2
  4242 00:1D85: E2 20        	sep	#$20
  4243                        	longa	off
  4244 00:1D87: A7 01        	lda	[<R0]
  4245 00:1D89: C9 3D        	cmp	#<$3d
  4246 00:1D8B: C2 20        	rep	#$20
  4247                        	longa	on
  4248 00:1D8D: D0 03        	bne	L301
  4249 00:1D8F: 82 0A 00     	brl	L10206
  4250                        L301:
  4251 00:1D92: F4 26 00     	pea	#<$26
  4252 00:1D95: F4 04 00     	pea	#4
  4253 00:1D98: 22 xx xx xx  	jsl	~~error
  4254                        L10206:
  4255 00:1D9C: EE xx xx     	inc	|~~basicvars+62
  4256 00:1D9F: D0 03        	bne	L302
  4257 00:1DA1: EE xx xx     	inc	|~~basicvars+62+2
  4258                        L302:
  4259 00:1DA4: 22 xx xx xx  	jsl	~~expression
  4260 00:1DA8: AD xx xx     	lda	|~~basicvars+62
  4261 00:1DAB: 85 01        	sta	<R0
  4262 00:1DAD: AD xx xx     	lda	|~~basicvars+62+2
  4263 00:1DB0: 85 03        	sta	<R0+2
  4264 00:1DB2: E2 20        	sep	#$20
  4265                        	longa	off
  4266 00:1DB4: A7 01        	lda	[<R0]
  4267 00:1DB6: C9 E1        	cmp	#<$e1
  4268 00:1DB8: C2 20        	rep	#$20
  4269                        	longa	on
  4270 00:1DBA: D0 03        	bne	L303
  4271 00:1DBC: 82 0A 00     	brl	L10207
  4272                        L303:
  4273 00:1DBF: F4 31 00     	pea	#<$31
  4274 00:1DC2: F4 04 00     	pea	#4
  4275 00:1DC5: 22 xx xx xx  	jsl	~~error
  4276                        L10207:
  4277 00:1DC9: EE xx xx     	inc	|~~basicvars+62
  4278 00:1DCC: D0 03        	bne	L304
  4279 00:1DCE: EE xx xx     	inc	|~~basicvars+62+2
  4280                        L304:
  4281 00:1DD1: A5 0E        	lda	<L293+forvar_1
  4282 00:1DD3: 82 F1 01     	brl	L10208
  4283                        L10210:
  4284 00:1DD6: AD xx xx     	lda	|~~basicvars+42
  4285 00:1DD9: 85 01        	sta	<R0
  4286 00:1DDB: AD xx xx     	lda	|~~basicvars+42+2
  Sun Jan  9 2022 20:52                                                Page 75


  4287 00:1DDE: 85 03        	sta	<R0+2
  4288 00:1DE0: A7 01        	lda	[<R0]
  4289 00:1DE2: 82 2D 00     	brl	L10211
  4290                        L10213:
  4291 00:1DE5: 22 xx xx xx  	jsl	~~pop_int
  4292 00:1DE9: 87 10        	sta	[<L293+forvar_1+2]
  4293 00:1DEB: 82 34 00     	brl	L10212
  4294                        L10214:
  4295 00:1DEE: 5A           	phy
  4296 00:1DEF: 5A           	phy
  4297 00:1DF0: 22 xx xx xx  	jsl	~~pop_float
  4298                        	xref	~~~ffix
  4299 00:1DF4: 22 xx xx xx  	jsl	~~~ffix
  4300 00:1DF8: 68           	pla
  4301 00:1DF9: 85 01        	sta	<R0
  4302 00:1DFB: 68           	pla
  4303 00:1DFC: 85 03        	sta	<R0+2
  4304 00:1DFE: A5 01        	lda	<R0
  4305 00:1E00: 87 10        	sta	[<L293+forvar_1+2]
  4306 00:1E02: 82 1D 00     	brl	L10212
  4307                        L10215:
  4308 00:1E05: F4 3F 00     	pea	#<$3f
  4309 00:1E08: F4 04 00     	pea	#4
  4310 00:1E0B: 22 xx xx xx  	jsl	~~error
  4311 00:1E0F: 82 10 00     	brl	L10212
  4312                        L10211:
  4313                        	xref	~~~swt
  4314 00:1E12: 22 xx xx xx  	jsl	~~~swt
  4315 00:1E16: 02 00        	dw	2
  4316 00:1E18: 02 00        	dw	2
  4317 00:1E1A: xx xx        	dw	L10213-1
  4318 00:1E1C: 03 00        	dw	3
  4319 00:1E1E: xx xx        	dw	L10214-1
  4320 00:1E20: xx xx        	dw	L10215-1
  4321                        L10212:
  4322 00:1E22: 82 BE 01     	brl	L10209
  4323                        L10216:
  4324 00:1E25: AD xx xx     	lda	|~~basicvars+42
  4325 00:1E28: 85 01        	sta	<R0
  4326 00:1E2A: AD xx xx     	lda	|~~basicvars+42+2
  4327 00:1E2D: 85 03        	sta	<R0+2
  4328 00:1E2F: A7 01        	lda	[<R0]
  4329 00:1E31: 82 3F 00     	brl	L10217
  4330                        L10219:
  4331 00:1E34: 22 xx xx xx  	jsl	~~pop_int
  4332 00:1E38: 85 01        	sta	<R0
  4333 00:1E3A: A0 00 00     	ldy	#$0
  4334 00:1E3D: A5 01        	lda	<R0
  4335 00:1E3F: 10 01        	bpl	L305
  4336 00:1E41: 88           	dey
  4337                        L305:
  4338 00:1E42: 5A           	phy
  4339 00:1E43: 48           	pha
  4340                        	xref	~~~fflt
  4341 00:1E44: 22 xx xx xx  	jsl	~~~fflt
  4342 00:1E48: 68           	pla
  4343 00:1E49: 87 10        	sta	[<L293+forvar_1+2]
  4344 00:1E4B: 68           	pla
  Sun Jan  9 2022 20:52                                                Page 76


  4345 00:1E4C: A0 02 00     	ldy	#$2
  4346 00:1E4F: 97 10        	sta	[<L293+forvar_1+2],Y
  4347 00:1E51: 82 2F 00     	brl	L10218
  4348                        L10220:
  4349 00:1E54: 5A           	phy
  4350 00:1E55: 5A           	phy
  4351 00:1E56: 22 xx xx xx  	jsl	~~pop_float
  4352 00:1E5A: 68           	pla
  4353 00:1E5B: 87 10        	sta	[<L293+forvar_1+2]
  4354 00:1E5D: 68           	pla
  4355 00:1E5E: A0 02 00     	ldy	#$2
  4356 00:1E61: 97 10        	sta	[<L293+forvar_1+2],Y
  4357 00:1E63: 82 1D 00     	brl	L10218
  4358                        L10221:
  4359 00:1E66: F4 3F 00     	pea	#<$3f
  4360 00:1E69: F4 04 00     	pea	#4
  4361 00:1E6C: 22 xx xx xx  	jsl	~~error
  4362 00:1E70: 82 10 00     	brl	L10218
  4363                        L10217:
  4364                        	xref	~~~swt
  4365 00:1E73: 22 xx xx xx  	jsl	~~~swt
  4366 00:1E77: 02 00        	dw	2
  4367 00:1E79: 02 00        	dw	2
  4368 00:1E7B: xx xx        	dw	L10219-1
  4369 00:1E7D: 03 00        	dw	3
  4370 00:1E7F: xx xx        	dw	L10220-1
  4371 00:1E81: xx xx        	dw	L10221-1
  4372                        L10218:
  4373 00:1E83: 82 5D 01     	brl	L10209
  4374                        L10222:
  4375 00:1E86: F4 01 00     	pea	#<$1
  4376 00:1E89: D4 10        	pei	<L293+forvar_1+2
  4377 00:1E8B: 22 xx xx xx  	jsl	~~check_write
  4378 00:1E8F: AD xx xx     	lda	|~~basicvars+42
  4379 00:1E92: 85 01        	sta	<R0
  4380 00:1E94: AD xx xx     	lda	|~~basicvars+42+2
  4381 00:1E97: 85 03        	sta	<R0+2
  4382 00:1E99: A7 01        	lda	[<R0]
  4383 00:1E9B: 82 4D 00     	brl	L10223
  4384                        L10225:
  4385 00:1E9E: AD xx xx     	lda	|~~basicvars+6
  4386 00:1EA1: 85 01        	sta	<R0
  4387 00:1EA3: AD xx xx     	lda	|~~basicvars+6+2
  4388 00:1EA6: 85 03        	sta	<R0+2
  4389 00:1EA8: 22 xx xx xx  	jsl	~~pop_int
  4390 00:1EAC: E2 20        	sep	#$20
  4391                        	longa	off
  4392 00:1EAE: A4 10        	ldy	<L293+forvar_1+2
  4393 00:1EB0: 97 01        	sta	[<R0],Y
  4394 00:1EB2: C2 20        	rep	#$20
  4395                        	longa	on
  4396 00:1EB4: 82 44 00     	brl	L10224
  4397                        L10226:
  4398 00:1EB7: AD xx xx     	lda	|~~basicvars+6
  4399 00:1EBA: 85 01        	sta	<R0
  4400 00:1EBC: AD xx xx     	lda	|~~basicvars+6+2
  4401 00:1EBF: 85 03        	sta	<R0+2
  4402 00:1EC1: 5A           	phy
  Sun Jan  9 2022 20:52                                                Page 77


  4403 00:1EC2: 5A           	phy
  4404 00:1EC3: 22 xx xx xx  	jsl	~~pop_float
  4405                        	xref	~~~ffix
  4406 00:1EC7: 22 xx xx xx  	jsl	~~~ffix
  4407 00:1ECB: 68           	pla
  4408 00:1ECC: 85 05        	sta	<R1
  4409 00:1ECE: 68           	pla
  4410 00:1ECF: 85 07        	sta	<R1+2
  4411 00:1ED1: E2 20        	sep	#$20
  4412                        	longa	off
  4413 00:1ED3: A5 05        	lda	<R1
  4414 00:1ED5: A4 10        	ldy	<L293+forvar_1+2
  4415 00:1ED7: 97 01        	sta	[<R0],Y
  4416 00:1ED9: C2 20        	rep	#$20
  4417                        	longa	on
  4418 00:1EDB: 82 1D 00     	brl	L10224
  4419                        L10227:
  4420 00:1EDE: F4 3F 00     	pea	#<$3f
  4421 00:1EE1: F4 04 00     	pea	#4
  4422 00:1EE4: 22 xx xx xx  	jsl	~~error
  4423 00:1EE8: 82 10 00     	brl	L10224
  4424                        L10223:
  4425                        	xref	~~~swt
  4426 00:1EEB: 22 xx xx xx  	jsl	~~~swt
  4427 00:1EEF: 02 00        	dw	2
  4428 00:1EF1: 02 00        	dw	2
  4429 00:1EF3: xx xx        	dw	L10225-1
  4430 00:1EF5: 03 00        	dw	3
  4431 00:1EF7: xx xx        	dw	L10226-1
  4432 00:1EF9: xx xx        	dw	L10227-1
  4433                        L10224:
  4434 00:1EFB: 82 E5 00     	brl	L10209
  4435                        L10228:
  4436 00:1EFE: AD xx xx     	lda	|~~basicvars+42
  4437 00:1F01: 85 01        	sta	<R0
  4438 00:1F03: AD xx xx     	lda	|~~basicvars+42+2
  4439 00:1F06: 85 03        	sta	<R0+2
  4440 00:1F08: A7 01        	lda	[<R0]
  4441 00:1F0A: 82 36 00     	brl	L10229
  4442                        L10231:
  4443 00:1F0D: 22 xx xx xx  	jsl	~~pop_int
  4444 00:1F11: 48           	pha
  4445 00:1F12: D4 10        	pei	<L293+forvar_1+2
  4446 00:1F14: 22 xx xx xx  	jsl	~~store_integer
  4447 00:1F18: 82 38 00     	brl	L10230
  4448                        L10232:
  4449 00:1F1B: 5A           	phy
  4450 00:1F1C: 5A           	phy
  4451 00:1F1D: 22 xx xx xx  	jsl	~~pop_float
  4452                        	xref	~~~ffix
  4453 00:1F21: 22 xx xx xx  	jsl	~~~ffix
  4454 00:1F25: 68           	pla
  4455 00:1F26: 85 01        	sta	<R0
  4456 00:1F28: 68           	pla
  4457 00:1F29: 85 03        	sta	<R0+2
  4458 00:1F2B: D4 01        	pei	<R0
  4459 00:1F2D: D4 10        	pei	<L293+forvar_1+2
  4460 00:1F2F: 22 xx xx xx  	jsl	~~store_integer
  Sun Jan  9 2022 20:52                                                Page 78


  4461 00:1F33: 82 1D 00     	brl	L10230
  4462                        L10233:
  4463 00:1F36: F4 3F 00     	pea	#<$3f
  4464 00:1F39: F4 04 00     	pea	#4
  4465 00:1F3C: 22 xx xx xx  	jsl	~~error
  4466 00:1F40: 82 10 00     	brl	L10230
  4467                        L10229:
  4468                        	xref	~~~swt
  4469 00:1F43: 22 xx xx xx  	jsl	~~~swt
  4470 00:1F47: 02 00        	dw	2
  4471 00:1F49: 02 00        	dw	2
  4472 00:1F4B: xx xx        	dw	L10231-1
  4473 00:1F4D: 03 00        	dw	3
  4474 00:1F4F: xx xx        	dw	L10232-1
  4475 00:1F51: xx xx        	dw	L10233-1
  4476                        L10230:
  4477 00:1F53: 82 8D 00     	brl	L10209
  4478                        L10234:
  4479 00:1F56: AD xx xx     	lda	|~~basicvars+42
  4480 00:1F59: 85 01        	sta	<R0
  4481 00:1F5B: AD xx xx     	lda	|~~basicvars+42+2
  4482 00:1F5E: 85 03        	sta	<R0+2
  4483 00:1F60: A7 01        	lda	[<R0]
  4484 00:1F62: 82 39 00     	brl	L10235
  4485                        L10237:
  4486 00:1F65: 22 xx xx xx  	jsl	~~pop_int
  4487 00:1F69: 85 01        	sta	<R0
  4488 00:1F6B: A0 00 00     	ldy	#$0
  4489 00:1F6E: A5 01        	lda	<R0
  4490 00:1F70: 10 01        	bpl	L306
  4491 00:1F72: 88           	dey
  4492                        L306:
  4493 00:1F73: 5A           	phy
  4494 00:1F74: 48           	pha
  4495                        	xref	~~~fflt
  4496 00:1F75: 22 xx xx xx  	jsl	~~~fflt
  4497 00:1F79: D4 10        	pei	<L293+forvar_1+2
  4498 00:1F7B: 22 xx xx xx  	jsl	~~store_float
  4499 00:1F7F: 82 2C 00     	brl	L10236
  4500                        L10238:
  4501 00:1F82: 5A           	phy
  4502 00:1F83: 5A           	phy
  4503 00:1F84: 22 xx xx xx  	jsl	~~pop_float
  4504 00:1F88: D4 10        	pei	<L293+forvar_1+2
  4505 00:1F8A: 22 xx xx xx  	jsl	~~store_float
  4506 00:1F8E: 82 1D 00     	brl	L10236
  4507                        L10239:
  4508 00:1F91: F4 3F 00     	pea	#<$3f
  4509 00:1F94: F4 04 00     	pea	#4
  4510 00:1F97: 22 xx xx xx  	jsl	~~error
  4511 00:1F9B: 82 10 00     	brl	L10236
  4512                        L10235:
  4513                        	xref	~~~swt
  4514 00:1F9E: 22 xx xx xx  	jsl	~~~swt
  4515 00:1FA2: 02 00        	dw	2
  4516 00:1FA4: 02 00        	dw	2
  4517 00:1FA6: xx xx        	dw	L10237-1
  4518 00:1FA8: 03 00        	dw	3
  Sun Jan  9 2022 20:52                                                Page 79


  4519 00:1FAA: xx xx        	dw	L10238-1
  4520 00:1FAC: xx xx        	dw	L10239-1
  4521                        L10236:
  4522 00:1FAE: 82 32 00     	brl	L10209
  4523                        L10240:
  4524 00:1FB1: F4 xx xx     	pea	#^L1
  4525 00:1FB4: F4 xx xx     	pea	#<L1
  4526 00:1FB7: F4 51 03     	pea	#<$351
  4527 00:1FBA: F4 82 00     	pea	#<$82
  4528 00:1FBD: F4 0A 00     	pea	#10
  4529 00:1FC0: 22 xx xx xx  	jsl	~~error
  4530 00:1FC4: 82 1C 00     	brl	L10209
  4531                        L10208:
  4532                        	xref	~~~swt
  4533 00:1FC7: 22 xx xx xx  	jsl	~~~swt
  4534 00:1FCB: 05 00        	dw	5
  4535 00:1FCD: 02 00        	dw	2
  4536 00:1FCF: xx xx        	dw	L10210-1
  4537 00:1FD1: 03 00        	dw	3
  4538 00:1FD3: xx xx        	dw	L10216-1
  4539 00:1FD5: 11 00        	dw	17
  4540 00:1FD7: xx xx        	dw	L10222-1
  4541 00:1FD9: 12 00        	dw	18
  4542 00:1FDB: xx xx        	dw	L10228-1
  4543 00:1FDD: 13 00        	dw	19
  4544 00:1FDF: xx xx        	dw	L10234-1
  4545 00:1FE1: xx xx        	dw	L10240-1
  4546                        L10209:
  4547 00:1FE3: 22 xx xx xx  	jsl	~~expression
  4548 00:1FE7: A5 0D        	lda	<L293+isinteger_1
  4549 00:1FE9: 29 FF 00     	and	#$ff
  4550 00:1FEC: D0 03        	bne	L307
  4551 00:1FEE: 82 55 00     	brl	L10241
  4552                        L307:
  4553 00:1FF1: AD xx xx     	lda	|~~basicvars+42
  4554 00:1FF4: 85 01        	sta	<R0
  4555 00:1FF6: AD xx xx     	lda	|~~basicvars+42+2
  4556 00:1FF9: 85 03        	sta	<R0+2
  4557 00:1FFB: A7 01        	lda	[<R0]
  4558 00:1FFD: C9 02 00     	cmp	#<$2
  4559 00:2000: F0 03        	beq	L308
  4560 00:2002: 82 09 00     	brl	L10242
  4561                        L308:
  4562 00:2005: 22 xx xx xx  	jsl	~~pop_int
  4563 00:2009: 85 14        	sta	<L293+intlimit_1
  4564 00:200B: 82 35 00     	brl	L10243
  4565                        L10242:
  4566 00:200E: AD xx xx     	lda	|~~basicvars+42
  4567 00:2011: 85 01        	sta	<R0
  4568 00:2013: AD xx xx     	lda	|~~basicvars+42+2
  4569 00:2016: 85 03        	sta	<R0+2
  4570 00:2018: A7 01        	lda	[<R0]
  4571 00:201A: C9 03 00     	cmp	#<$3
  4572 00:201D: F0 03        	beq	L309
  4573 00:201F: 82 17 00     	brl	L10244
  4574                        L309:
  4575 00:2022: 5A           	phy
  4576 00:2023: 5A           	phy
  Sun Jan  9 2022 20:52                                                Page 80


  4577 00:2024: 22 xx xx xx  	jsl	~~pop_float
  4578                        	xref	~~~ffix
  4579 00:2028: 22 xx xx xx  	jsl	~~~ffix
  4580 00:202C: 68           	pla
  4581 00:202D: 85 01        	sta	<R0
  4582 00:202F: 68           	pla
  4583 00:2030: 85 03        	sta	<R0+2
  4584 00:2032: A5 01        	lda	<R0
  4585 00:2034: 85 14        	sta	<L293+intlimit_1
  4586 00:2036: 82 0A 00     	brl	L10245
  4587                        L10244:
  4588 00:2039: F4 3F 00     	pea	#<$3f
  4589 00:203C: F4 04 00     	pea	#4
  4590 00:203F: 22 xx xx xx  	jsl	~~error
  4591                        L10245:
  4592                        L10243:
  4593 00:2043: 82 62 00     	brl	L10246
  4594                        L10241:
  4595 00:2046: AD xx xx     	lda	|~~basicvars+42
  4596 00:2049: 85 01        	sta	<R0
  4597 00:204B: AD xx xx     	lda	|~~basicvars+42+2
  4598 00:204E: 85 03        	sta	<R0+2
  4599 00:2050: A7 01        	lda	[<R0]
  4600 00:2052: C9 02 00     	cmp	#<$2
  4601 00:2055: F0 03        	beq	L310
  4602 00:2057: 82 1F 00     	brl	L10247
  4603                        L310:
  4604 00:205A: 22 xx xx xx  	jsl	~~pop_int
  4605 00:205E: 85 01        	sta	<R0
  4606 00:2060: A0 00 00     	ldy	#$0
  4607 00:2063: A5 01        	lda	<R0
  4608 00:2065: 10 01        	bpl	L311
  4609 00:2067: 88           	dey
  4610                        L311:
  4611 00:2068: 5A           	phy
  4612 00:2069: 48           	pha
  4613                        	xref	~~~fflt
  4614 00:206A: 22 xx xx xx  	jsl	~~~fflt
  4615 00:206E: 68           	pla
  4616 00:206F: 8D xx xx     	sta	|L10203
  4617 00:2072: 68           	pla
  4618 00:2073: 8D xx xx     	sta	|L10203+2
  4619 00:2076: 82 2F 00     	brl	L10248
  4620                        L10247:
  4621 00:2079: AD xx xx     	lda	|~~basicvars+42
  4622 00:207C: 85 01        	sta	<R0
  4623 00:207E: AD xx xx     	lda	|~~basicvars+42+2
  4624 00:2081: 85 03        	sta	<R0+2
  4625 00:2083: A7 01        	lda	[<R0]
  4626 00:2085: C9 03 00     	cmp	#<$3
  4627 00:2088: F0 03        	beq	L312
  4628 00:208A: 82 11 00     	brl	L10249
  4629                        L312:
  4630 00:208D: 5A           	phy
  4631 00:208E: 5A           	phy
  4632 00:208F: 22 xx xx xx  	jsl	~~pop_float
  4633 00:2093: 68           	pla
  4634 00:2094: 8D xx xx     	sta	|L10203
  Sun Jan  9 2022 20:52                                                Page 81


  4635 00:2097: 68           	pla
  4636 00:2098: 8D xx xx     	sta	|L10203+2
  4637 00:209B: 82 0A 00     	brl	L10250
  4638                        L10249:
  4639 00:209E: F4 3F 00     	pea	#<$3f
  4640 00:20A1: F4 04 00     	pea	#4
  4641 00:20A4: 22 xx xx xx  	jsl	~~error
  4642                        L10250:
  4643                        L10248:
  4644                        L10246:
  4645 00:20A8: AD xx xx     	lda	|~~basicvars+62
  4646 00:20AB: 85 01        	sta	<R0
  4647 00:20AD: AD xx xx     	lda	|~~basicvars+62+2
  4648 00:20B0: 85 03        	sta	<R0+2
  4649 00:20B2: E2 20        	sep	#$20
  4650                        	longa	off
  4651 00:20B4: A7 01        	lda	[<R0]
  4652 00:20B6: C9 D9        	cmp	#<$d9
  4653 00:20B8: C2 20        	rep	#$20
  4654                        	longa	on
  4655 00:20BA: F0 03        	beq	L313
  4656 00:20BC: 82 00 01     	brl	L10251
  4657                        L313:
  4658 00:20BF: EE xx xx     	inc	|~~basicvars+62
  4659 00:20C2: D0 03        	bne	L314
  4660 00:20C4: EE xx xx     	inc	|~~basicvars+62+2
  4661                        L314:
  4662 00:20C7: 22 xx xx xx  	jsl	~~expression
  4663 00:20CB: A5 0D        	lda	<L293+isinteger_1
  4664 00:20CD: 29 FF 00     	and	#$ff
  4665 00:20D0: D0 03        	bne	L315
  4666 00:20D2: 82 66 00     	brl	L10252
  4667                        L315:
  4668 00:20D5: AD xx xx     	lda	|~~basicvars+42
  4669 00:20D8: 85 01        	sta	<R0
  4670 00:20DA: AD xx xx     	lda	|~~basicvars+42+2
  4671 00:20DD: 85 03        	sta	<R0+2
  4672 00:20DF: A7 01        	lda	[<R0]
  4673 00:20E1: C9 02 00     	cmp	#<$2
  4674 00:20E4: F0 03        	beq	L316
  4675 00:20E6: 82 09 00     	brl	L10253
  4676                        L316:
  4677 00:20E9: 22 xx xx xx  	jsl	~~pop_int
  4678 00:20ED: 85 16        	sta	<L293+intstep_1
  4679 00:20EF: 82 35 00     	brl	L10254
  4680                        L10253:
  4681 00:20F2: AD xx xx     	lda	|~~basicvars+42
  4682 00:20F5: 85 01        	sta	<R0
  4683 00:20F7: AD xx xx     	lda	|~~basicvars+42+2
  4684 00:20FA: 85 03        	sta	<R0+2
  4685 00:20FC: A7 01        	lda	[<R0]
  4686 00:20FE: C9 03 00     	cmp	#<$3
  4687 00:2101: F0 03        	beq	L317
  4688 00:2103: 82 17 00     	brl	L10255
  4689                        L317:
  4690 00:2106: 5A           	phy
  4691 00:2107: 5A           	phy
  4692 00:2108: 22 xx xx xx  	jsl	~~pop_float
  Sun Jan  9 2022 20:52                                                Page 82


  4693                        	xref	~~~ffix
  4694 00:210C: 22 xx xx xx  	jsl	~~~ffix
  4695 00:2110: 68           	pla
  4696 00:2111: 85 01        	sta	<R0
  4697 00:2113: 68           	pla
  4698 00:2114: 85 03        	sta	<R0+2
  4699 00:2116: A5 01        	lda	<R0
  4700 00:2118: 85 16        	sta	<L293+intstep_1
  4701 00:211A: 82 0A 00     	brl	L10256
  4702                        L10255:
  4703 00:211D: F4 3F 00     	pea	#<$3f
  4704 00:2120: F4 04 00     	pea	#4
  4705 00:2123: 22 xx xx xx  	jsl	~~error
  4706                        L10256:
  4707                        L10254:
  4708 00:2127: A5 16        	lda	<L293+intstep_1
  4709 00:2129: F0 03        	beq	L318
  4710 00:212B: 82 0A 00     	brl	L10257
  4711                        L318:
  4712 00:212E: F4 06 00     	pea	#<$6
  4713 00:2131: F4 04 00     	pea	#4
  4714 00:2134: 22 xx xx xx  	jsl	~~error
  4715                        L10257:
  4716 00:2138: 82 81 00     	brl	L10258
  4717                        L10252:
  4718 00:213B: AD xx xx     	lda	|~~basicvars+42
  4719 00:213E: 85 01        	sta	<R0
  4720 00:2140: AD xx xx     	lda	|~~basicvars+42+2
  4721 00:2143: 85 03        	sta	<R0+2
  4722 00:2145: A7 01        	lda	[<R0]
  4723 00:2147: C9 02 00     	cmp	#<$2
  4724 00:214A: F0 03        	beq	L319
  4725 00:214C: 82 1F 00     	brl	L10259
  4726                        L319:
  4727 00:214F: 22 xx xx xx  	jsl	~~pop_int
  4728 00:2153: 85 01        	sta	<R0
  4729 00:2155: A0 00 00     	ldy	#$0
  4730 00:2158: A5 01        	lda	<R0
  4731 00:215A: 10 01        	bpl	L320
  4732 00:215C: 88           	dey
  4733                        L320:
  4734 00:215D: 5A           	phy
  4735 00:215E: 48           	pha
  4736                        	xref	~~~fflt
  4737 00:215F: 22 xx xx xx  	jsl	~~~fflt
  4738 00:2163: 68           	pla
  4739 00:2164: 8D xx xx     	sta	|L10204
  4740 00:2167: 68           	pla
  4741 00:2168: 8D xx xx     	sta	|L10204+2
  4742 00:216B: 82 2F 00     	brl	L10260
  4743                        L10259:
  4744 00:216E: AD xx xx     	lda	|~~basicvars+42
  4745 00:2171: 85 01        	sta	<R0
  4746 00:2173: AD xx xx     	lda	|~~basicvars+42+2
  4747 00:2176: 85 03        	sta	<R0+2
  4748 00:2178: A7 01        	lda	[<R0]
  4749 00:217A: C9 03 00     	cmp	#<$3
  4750 00:217D: F0 03        	beq	L321
  Sun Jan  9 2022 20:52                                                Page 83


  4751 00:217F: 82 11 00     	brl	L10261
  4752                        L321:
  4753 00:2182: 5A           	phy
  4754 00:2183: 5A           	phy
  4755 00:2184: 22 xx xx xx  	jsl	~~pop_float
  4756 00:2188: 68           	pla
  4757 00:2189: 8D xx xx     	sta	|L10204
  4758 00:218C: 68           	pla
  4759 00:218D: 8D xx xx     	sta	|L10204+2
  4760 00:2190: 82 0A 00     	brl	L10262
  4761                        L10261:
  4762 00:2193: F4 3F 00     	pea	#<$3f
  4763 00:2196: F4 04 00     	pea	#4
  4764 00:2199: 22 xx xx xx  	jsl	~~error
  4765                        L10262:
  4766                        L10260:
  4767 00:219D: AD xx xx     	lda	|L10204+2
  4768 00:21A0: 48           	pha
  4769 00:21A1: AD xx xx     	lda	|L10204
  4770 00:21A4: 48           	pha
  4771                        	xref	~~~ftod
  4772 00:21A5: 22 xx xx xx  	jsl	~~~ftod
  4773                        	xref	~~~dtst
  4774 00:21A9: 22 xx xx xx  	jsl	~~~dtst
  4775 00:21AD: F0 03        	beq	L322
  4776 00:21AF: 82 0A 00     	brl	L10263
  4777                        L322:
  4778 00:21B2: F4 06 00     	pea	#<$6
  4779 00:21B5: F4 04 00     	pea	#4
  4780 00:21B8: 22 xx xx xx  	jsl	~~error
  4781                        L10263:
  4782                        L10258:
  4783 00:21BC: 82 1E 00     	brl	L10264
  4784                        L10251:
  4785 00:21BF: A5 0D        	lda	<L293+isinteger_1
  4786 00:21C1: 29 FF 00     	and	#$ff
  4787 00:21C4: D0 03        	bne	L323
  4788 00:21C6: 82 08 00     	brl	L10265
  4789                        L323:
  4790 00:21C9: A9 01 00     	lda	#$1
  4791 00:21CC: 85 16        	sta	<L293+intstep_1
  4792 00:21CE: 82 0C 00     	brl	L10266
  4793                        L10265:
  4794 00:21D1: A9 00 00     	lda	#$0
  4795 00:21D4: 8D xx xx     	sta	|L10204
  4796 00:21D7: A9 80 3F     	lda	#$3f80
  4797 00:21DA: 8D xx xx     	sta	|L10204+2
  4798                        L10266:
  4799                        L10264:
  4800 00:21DD: AD xx xx     	lda	|~~basicvars+62
  4801 00:21E0: 85 01        	sta	<R0
  4802 00:21E2: AD xx xx     	lda	|~~basicvars+62+2
  4803 00:21E5: 85 03        	sta	<R0+2
  4804 00:21E7: A7 01        	lda	[<R0]
  4805 00:21E9: 29 FF 00     	and	#$ff
  4806 00:21EC: 85 01        	sta	<R0
  4807 00:21EE: A6 01        	ldx	<R0
  4808 00:21F0: BD xx xx     	lda	|~~ateol,X
  Sun Jan  9 2022 20:52                                                Page 84


  4809 00:21F3: 29 FF 00     	and	#$ff
  4810 00:21F6: F0 03        	beq	L324
  4811 00:21F8: 82 0A 00     	brl	L10267
  4812                        L324:
  4813 00:21FB: F4 05 00     	pea	#<$5
  4814 00:21FE: F4 04 00     	pea	#4
  4815 00:2201: 22 xx xx xx  	jsl	~~error
  4816                        L10267:
  4817 00:2205: AD xx xx     	lda	|~~basicvars+62
  4818 00:2208: 85 01        	sta	<R0
  4819 00:220A: AD xx xx     	lda	|~~basicvars+62+2
  4820 00:220D: 85 03        	sta	<R0+2
  4821 00:220F: E2 20        	sep	#$20
  4822                        	longa	off
  4823 00:2211: A7 01        	lda	[<R0]
  4824 00:2213: C9 3A        	cmp	#<$3a
  4825 00:2215: C2 20        	rep	#$20
  4826                        	longa	on
  4827 00:2217: F0 03        	beq	L325
  4828 00:2219: 82 08 00     	brl	L10268
  4829                        L325:
  4830 00:221C: EE xx xx     	inc	|~~basicvars+62
  4831 00:221F: D0 03        	bne	L326
  4832 00:2221: EE xx xx     	inc	|~~basicvars+62+2
  4833                        L326:
  4834                        L10268:
  4835 00:2224: AD xx xx     	lda	|~~basicvars+62
  4836 00:2227: 85 01        	sta	<R0
  4837 00:2229: AD xx xx     	lda	|~~basicvars+62+2
  4838 00:222C: 85 03        	sta	<R0+2
  4839 00:222E: A7 01        	lda	[<R0]
  4840 00:2230: 29 FF 00     	and	#$ff
  4841 00:2233: F0 03        	beq	L327
  4842 00:2235: 82 80 00     	brl	L10269
  4843                        L327:
  4844 00:2238: EE xx xx     	inc	|~~basicvars+62
  4845 00:223B: D0 03        	bne	L328
  4846 00:223D: EE xx xx     	inc	|~~basicvars+62+2
  4847                        L328:
  4848 00:2240: AD xx xx     	lda	|~~basicvars+425
  4849 00:2243: 89 02 00     	bit	#$2
  4850 00:2246: D0 03        	bne	L329
  4851 00:2248: 82 11 00     	brl	L10270
  4852                        L329:
  4853 00:224B: AD xx xx     	lda	|~~basicvars+62+2
  4854 00:224E: 48           	pha
  4855 00:224F: AD xx xx     	lda	|~~basicvars+62
  4856 00:2252: 48           	pha
  4857 00:2253: 22 xx xx xx  	jsl	~~get_lineno
  4858 00:2257: 48           	pha
  4859 00:2258: 22 xx xx xx  	jsl	~~trace_line
  4860                        L10270:
  4861 00:225C: AD xx xx     	lda	|~~basicvars+62
  4862 00:225F: 85 05        	sta	<R1
  4863 00:2261: AD xx xx     	lda	|~~basicvars+62+2
  4864 00:2264: 85 07        	sta	<R1+2
  4865 00:2266: A0 05 00     	ldy	#$5
  4866 00:2269: B7 05        	lda	[<R1],Y
  Sun Jan  9 2022 20:52                                                Page 85


  4867 00:226B: 29 FF 00     	and	#$ff
  4868 00:226E: 85 05        	sta	<R1
  4869 00:2270: A5 05        	lda	<R1
  4870 00:2272: EB           	xba
  4871 00:2273: 29 00 FF     	and	#$ff00
  4872 00:2276: 85 01        	sta	<R0
  4873 00:2278: A0 00 00     	ldy	#$0
  4874 00:227B: A5 01        	lda	<R0
  4875 00:227D: 10 01        	bpl	L330
  4876 00:227F: 88           	dey
  4877                        L330:
  4878 00:2280: 85 01        	sta	<R0
  4879 00:2282: 84 03        	sty	<R0+2
  4880 00:2284: AD xx xx     	lda	|~~basicvars+62
  4881 00:2287: 85 05        	sta	<R1
  4882 00:2289: AD xx xx     	lda	|~~basicvars+62+2
  4883 00:228C: 85 07        	sta	<R1+2
  4884 00:228E: A0 04 00     	ldy	#$4
  4885 00:2291: B7 05        	lda	[<R1],Y
  4886 00:2293: 29 FF 00     	and	#$ff
  4887 00:2296: 85 05        	sta	<R1
  4888 00:2298: 64 07        	stz	<R1+2
  4889 00:229A: 18           	clc
  4890 00:229B: A5 05        	lda	<R1
  4891 00:229D: 65 01        	adc	<R0
  4892 00:229F: 85 09        	sta	<R2
  4893 00:22A1: A5 07        	lda	<R1+2
  4894 00:22A3: 65 03        	adc	<R0+2
  4895 00:22A5: 85 0B        	sta	<R2+2
  4896 00:22A7: 18           	clc
  4897 00:22A8: AD xx xx     	lda	|~~basicvars+62
  4898 00:22AB: 65 09        	adc	<R2
  4899 00:22AD: 8D xx xx     	sta	|~~basicvars+62
  4900 00:22B0: AD xx xx     	lda	|~~basicvars+62+2
  4901 00:22B3: 65 0B        	adc	<R2+2
  4902 00:22B5: 8D xx xx     	sta	|~~basicvars+62+2
  4903                        L10269:
  4904 00:22B8: A5 0D        	lda	<L293+isinteger_1
  4905 00:22BA: 29 FF 00     	and	#$ff
  4906 00:22BD: D0 03        	bne	L331
  4907 00:22BF: 82 5B 00     	brl	L10271
  4908                        L331:
  4909             0000000B   simple_2	set	11
  4910 00:22C2: 64 01        	stz	<R0
  4911 00:22C4: A5 0E        	lda	<L293+forvar_1
  4912 00:22C6: C9 02 00     	cmp	#<$2
  4913 00:22C9: F0 03        	beq	L333
  4914 00:22CB: 82 0C 00     	brl	L332
  4915                        L333:
  4916 00:22CE: A5 16        	lda	<L293+intstep_1
  4917 00:22D0: C9 01 00     	cmp	#<$1
  4918 00:22D3: F0 03        	beq	L334
  4919 00:22D5: 82 02 00     	brl	L332
  4920                        L334:
  4921 00:22D8: E6 01        	inc	<R0
  4922                        L332:
  4923 00:22DA: E2 20        	sep	#$20
  4924                        	longa	off
  Sun Jan  9 2022 20:52                                                Page 86


  4925 00:22DC: A5 01        	lda	<R0
  4926 00:22DE: 85 18        	sta	<L293+simple_2
  4927 00:22E0: C2 20        	rep	#$20
  4928                        	longa	on
  4929 00:22E2: D4 18        	pei	<L293+simple_2
  4930 00:22E4: D4 16        	pei	<L293+intstep_1
  4931 00:22E6: D4 14        	pei	<L293+intlimit_1
  4932 00:22E8: AD xx xx     	lda	|~~basicvars+62+2
  4933 00:22EB: 48           	pha
  4934 00:22EC: AD xx xx     	lda	|~~basicvars+62
  4935 00:22EF: 48           	pha
  4936 00:22F0: 38           	sec
  4937 00:22F1: 3B           	tsc
  4938 00:22F2: E9 06 00     	sbc	#6
  4939 00:22F5: 1B           	tcs
  4940 00:22F6: 1A           	ina
  4941 00:22F7: 85 01        	sta	<R0
  4942 00:22F9: 64 03        	stz	<R0+2
  4943 00:22FB: 18           	clc
  4944 00:22FC: 7B           	tdc
  4945 00:22FD: 69 0E 00     	adc	#<L293+forvar_1
  4946 00:2300: 85 05        	sta	<R1
  4947 00:2302: A9 00 00     	lda	#$0
  4948 00:2305: 85 07        	sta	<R1+2
  4949 00:2307: D4 07        	pei	<R1+2
  4950 00:2309: D4 05        	pei	<R1
  4951 00:230B: D4 03        	pei	<R0+2
  4952 00:230D: D4 01        	pei	<R0
  4953 00:230F: A9 06 00     	lda	#$6
  4954                        	xref	~~~fmov
  4955 00:2312: 22 xx xx xx  	jsl	~~~fmov
  4956 00:2316: 22 xx xx xx  	jsl	~~push_intfor
  4957 00:231A: 82 45 00     	brl	L10272
  4958                        L10271:
  4959 00:231D: F4 00 00     	pea	#<$0
  4960 00:2320: AD xx xx     	lda	|L10204+2
  4961 00:2323: 48           	pha
  4962 00:2324: AD xx xx     	lda	|L10204
  4963 00:2327: 48           	pha
  4964 00:2328: AD xx xx     	lda	|L10203+2
  4965 00:232B: 48           	pha
  4966 00:232C: AD xx xx     	lda	|L10203
  4967 00:232F: 48           	pha
  4968 00:2330: AD xx xx     	lda	|~~basicvars+62+2
  4969 00:2333: 48           	pha
  4970 00:2334: AD xx xx     	lda	|~~basicvars+62
  4971 00:2337: 48           	pha
  4972 00:2338: 38           	sec
  4973 00:2339: 3B           	tsc
  4974 00:233A: E9 06 00     	sbc	#6
  4975 00:233D: 1B           	tcs
  4976 00:233E: 1A           	ina
  4977 00:233F: 85 01        	sta	<R0
  4978 00:2341: 64 03        	stz	<R0+2
  4979 00:2343: 18           	clc
  4980 00:2344: 7B           	tdc
  4981 00:2345: 69 0E 00     	adc	#<L293+forvar_1
  4982 00:2348: 85 05        	sta	<R1
  Sun Jan  9 2022 20:52                                                Page 87


  4983 00:234A: A9 00 00     	lda	#$0
  4984 00:234D: 85 07        	sta	<R1+2
  4985 00:234F: D4 07        	pei	<R1+2
  4986 00:2351: D4 05        	pei	<R1
  4987 00:2353: D4 03        	pei	<R0+2
  4988 00:2355: D4 01        	pei	<R0
  4989 00:2357: A9 06 00     	lda	#$6
  4990                        	xref	~~~fmov
  4991 00:235A: 22 xx xx xx  	jsl	~~~fmov
  4992 00:235E: 22 xx xx xx  	jsl	~~push_floatfor
  4993                        L10272:
  4994                        L335:
  4995 00:2362: 2B           	pld
  4996 00:2363: 3B           	tsc
  4997 00:2364: 18           	clc
  4998 00:2365: 69 18 00     	adc	#L292
  4999 00:2368: 1B           	tcs
  5000 00:2369: 6B           	rtl
  5001             00000018   L292	equ	24
  5002             0000000D   L293	equ	13
  5003                        	ends
  5004                        	efunc
  5005                        	data
  5006                        L1:
  5007 00:0000: 6D 61 69 6E  	db	$6D,$61,$69,$6E,$73,$74,$61,$74,$65,$00
       00:0004: 73 74 61 74 
       00:0008: 65 00 
  5008 00:000A:              	ends
  5009                        	code
  5010                        	func
  5011                        ~~set_linedest:
  5012                        	longa	on
  5013                        	longi	on
  5014 00:236A: 3B           	tsc
  5015 00:236B: 38           	sec
  5016 00:236C: E9 12 00     	sbc	#L337
  5017 00:236F: 1B           	tcs
  5018 00:2370: 0B           	phd
  5019 00:2371: 5B           	tcd
  5020             00000004   tp_0	set	4
  5021             00000000   line_1	set	0
  5022             00000002   dest_1	set	2
  5023 00:2372: D4 18        	pei	<L337+tp_0+2
  5024 00:2374: D4 16        	pei	<L337+tp_0
  5025 00:2376: 22 xx xx xx  	jsl	~~get_linenum
  5026 00:237A: 85 0D        	sta	<L338+line_1
  5027 00:237C: D4 0D        	pei	<L338+line_1
  5028 00:237E: 22 xx xx xx  	jsl	~~find_line
  5029 00:2382: 85 0F        	sta	<L338+dest_1
  5030 00:2384: 86 11        	stx	<L338+dest_1+2
  5031 00:2386: D4 11        	pei	<L338+dest_1+2
  5032 00:2388: D4 0F        	pei	<L338+dest_1
  5033 00:238A: 22 xx xx xx  	jsl	~~get_lineno
  5034 00:238E: 85 01        	sta	<R0
  5035 00:2390: A5 01        	lda	<R0
  5036 00:2392: C5 0D        	cmp	<L338+line_1
  5037 00:2394: D0 03        	bne	L339
  5038 00:2396: 82 0C 00     	brl	L10273
  Sun Jan  9 2022 20:52                                                Page 88


  5039                        L339:
  5040 00:2399: D4 0D        	pei	<L338+line_1
  5041 00:239B: F4 0C 00     	pea	#<$c
  5042 00:239E: F4 06 00     	pea	#6
  5043 00:23A1: 22 xx xx xx  	jsl	~~error
  5044                        L10273:
  5045 00:23A5: A0 05 00     	ldy	#$5
  5046 00:23A8: B7 0F        	lda	[<L338+dest_1],Y
  5047 00:23AA: 29 FF 00     	and	#$ff
  5048 00:23AD: 85 05        	sta	<R1
  5049 00:23AF: A5 05        	lda	<R1
  5050 00:23B1: EB           	xba
  5051 00:23B2: 29 00 FF     	and	#$ff00
  5052 00:23B5: 85 01        	sta	<R0
  5053 00:23B7: A0 00 00     	ldy	#$0
  5054 00:23BA: A5 01        	lda	<R0
  5055 00:23BC: 10 01        	bpl	L340
  5056 00:23BE: 88           	dey
  5057                        L340:
  5058 00:23BF: 85 01        	sta	<R0
  5059 00:23C1: 84 03        	sty	<R0+2
  5060 00:23C3: A0 04 00     	ldy	#$4
  5061 00:23C6: B7 0F        	lda	[<L338+dest_1],Y
  5062 00:23C8: 29 FF 00     	and	#$ff
  5063 00:23CB: 85 05        	sta	<R1
  5064 00:23CD: 64 07        	stz	<R1+2
  5065 00:23CF: 18           	clc
  5066 00:23D0: A5 05        	lda	<R1
  5067 00:23D2: 65 01        	adc	<R0
  5068 00:23D4: 85 09        	sta	<R2
  5069 00:23D6: A5 07        	lda	<R1+2
  5070 00:23D8: 65 03        	adc	<R0+2
  5071 00:23DA: 85 0B        	sta	<R2+2
  5072 00:23DC: 18           	clc
  5073 00:23DD: A5 0F        	lda	<L338+dest_1
  5074 00:23DF: 65 09        	adc	<R2
  5075 00:23E1: 85 0F        	sta	<L338+dest_1
  5076 00:23E3: A5 11        	lda	<L338+dest_1+2
  5077 00:23E5: 65 0B        	adc	<R2+2
  5078 00:23E7: 85 11        	sta	<L338+dest_1+2
  5079 00:23E9: E2 20        	sep	#$20
  5080                        	longa	off
  5081 00:23EB: A9 1F        	lda	#$1f
  5082 00:23ED: 87 16        	sta	[<L337+tp_0]
  5083 00:23EF: C2 20        	rep	#$20
  5084                        	longa	on
  5085 00:23F1: D4 11        	pei	<L338+dest_1+2
  5086 00:23F3: D4 0F        	pei	<L338+dest_1
  5087 00:23F5: D4 18        	pei	<L337+tp_0+2
  5088 00:23F7: D4 16        	pei	<L337+tp_0
  5089 00:23F9: 22 xx xx xx  	jsl	~~set_address
  5090 00:23FD: A6 11        	ldx	<L338+dest_1+2
  5091 00:23FF: A5 0F        	lda	<L338+dest_1
  5092                        L341:
  5093 00:2401: A8           	tay
  5094 00:2402: A5 14        	lda	<L337+2
  5095 00:2404: 85 18        	sta	<L337+2+4
  5096 00:2406: A5 13        	lda	<L337+1
  Sun Jan  9 2022 20:52                                                Page 89


  5097 00:2408: 85 17        	sta	<L337+1+4
  5098 00:240A: 2B           	pld
  5099 00:240B: 3B           	tsc
  5100 00:240C: 18           	clc
  5101 00:240D: 69 16 00     	adc	#L337+4
  5102 00:2410: 1B           	tcs
  5103 00:2411: 98           	tya
  5104 00:2412: 6B           	rtl
  5105             00000012   L337	equ	18
  5106             0000000D   L338	equ	13
  5107                        	ends
  5108                        	efunc
  5109                        	code
  5110                        	xdef	~~exec_gosub
  5111                        	func
  5112                        ~~exec_gosub:
  5113                        	longa	on
  5114                        	longi	on
  5115 00:2413: 3B           	tsc
  5116 00:2414: 38           	sec
  5117 00:2415: E9 12 00     	sbc	#L342
  5118 00:2418: 1B           	tcs
  5119 00:2419: 0B           	phd
  5120 00:241A: 5B           	tcd
  5121             00000000   dest_1	set	0
  5122             00000004   line_1	set	4
  5123 00:241B: AD xx xx     	lda	|~~basicvars+489
  5124 00:241E: 29 FF 00     	and	#$ff
  5125 00:2421: D0 03        	bne	L344
  5126 00:2423: 82 0A 00     	brl	L10274
  5127                        L344:
  5128 00:2426: F4 08 00     	pea	#<$8
  5129 00:2429: F4 04 00     	pea	#4
  5130 00:242C: 22 xx xx xx  	jsl	~~error
  5131                        L10274:
  5132 00:2430: EE xx xx     	inc	|~~basicvars+62
  5133 00:2433: D0 03        	bne	L345
  5134 00:2435: EE xx xx     	inc	|~~basicvars+62+2
  5135                        L345:
  5136 00:2438: AD xx xx     	lda	|~~basicvars+62
  5137 00:243B: 85 01        	sta	<R0
  5138 00:243D: AD xx xx     	lda	|~~basicvars+62+2
  5139 00:2440: 85 03        	sta	<R0+2
  5140 00:2442: E2 20        	sep	#$20
  5141                        	longa	off
  5142 00:2444: A7 01        	lda	[<R0]
  5143 00:2446: C9 1F        	cmp	#<$1f
  5144 00:2448: C2 20        	rep	#$20
  5145                        	longa	on
  5146 00:244A: F0 03        	beq	L346
  5147 00:244C: 82 A5 00     	brl	L10275
  5148                        L346:
  5149 00:244F: AD xx xx     	lda	|~~basicvars+62
  5150 00:2452: 85 01        	sta	<R0
  5151 00:2454: AD xx xx     	lda	|~~basicvars+62+2
  5152 00:2457: 85 03        	sta	<R0+2
  5153 00:2459: A0 01 00     	ldy	#$1
  5154 00:245C: B7 01        	lda	[<R0],Y
  Sun Jan  9 2022 20:52                                                Page 90


  5155 00:245E: 29 FF 00     	and	#$ff
  5156 00:2461: 85 01        	sta	<R0
  5157 00:2463: AD xx xx     	lda	|~~basicvars+62
  5158 00:2466: 85 09        	sta	<R2
  5159 00:2468: AD xx xx     	lda	|~~basicvars+62+2
  5160 00:246B: 85 0B        	sta	<R2+2
  5161 00:246D: A0 02 00     	ldy	#$2
  5162 00:2470: B7 09        	lda	[<R2],Y
  5163 00:2472: 29 FF 00     	and	#$ff
  5164 00:2475: 85 09        	sta	<R2
  5165 00:2477: A5 09        	lda	<R2
  5166 00:2479: EB           	xba
  5167 00:247A: 29 00 FF     	and	#$ff00
  5168 00:247D: 85 05        	sta	<R1
  5169 00:247F: A5 05        	lda	<R1
  5170 00:2481: 05 01        	ora	<R0
  5171 00:2483: 85 09        	sta	<R2
  5172 00:2485: AD xx xx     	lda	|~~basicvars+62
  5173 00:2488: 85 05        	sta	<R1
  5174 00:248A: AD xx xx     	lda	|~~basicvars+62+2
  5175 00:248D: 85 07        	sta	<R1+2
  5176 00:248F: A0 03 00     	ldy	#$3
  5177 00:2492: B7 05        	lda	[<R1],Y
  5178 00:2494: 29 FF 00     	and	#$ff
  5179 00:2497: A2 10 00     	ldx	#<$10
  5180                        	xref	~~~asl
  5181 00:249A: 22 xx xx xx  	jsl	~~~asl
  5182 00:249E: 85 01        	sta	<R0
  5183 00:24A0: A5 01        	lda	<R0
  5184 00:24A2: 05 09        	ora	<R2
  5185 00:24A4: 85 05        	sta	<R1
  5186 00:24A6: AD xx xx     	lda	|~~basicvars+62
  5187 00:24A9: 85 09        	sta	<R2
  5188 00:24AB: AD xx xx     	lda	|~~basicvars+62+2
  5189 00:24AE: 85 0B        	sta	<R2+2
  5190 00:24B0: A0 04 00     	ldy	#$4
  5191 00:24B3: B7 09        	lda	[<R2],Y
  5192 00:24B5: 29 FF 00     	and	#$ff
  5193 00:24B8: A2 18 00     	ldx	#<$18
  5194                        	xref	~~~asl
  5195 00:24BB: 22 xx xx xx  	jsl	~~~asl
  5196 00:24BF: 85 01        	sta	<R0
  5197 00:24C1: A5 01        	lda	<R0
  5198 00:24C3: 05 05        	ora	<R1
  5199 00:24C5: 85 09        	sta	<R2
  5200 00:24C7: A0 00 00     	ldy	#$0
  5201 00:24CA: A5 09        	lda	<R2
  5202 00:24CC: 10 01        	bpl	L347
  5203 00:24CE: 88           	dey
  5204                        L347:
  5205 00:24CF: 85 01        	sta	<R0
  5206 00:24D1: 84 03        	sty	<R0+2
  5207 00:24D3: 18           	clc
  5208 00:24D4: AD xx xx     	lda	|~~basicvars
  5209 00:24D7: 65 01        	adc	<R0
  5210 00:24D9: 85 0D        	sta	<L343+dest_1
  5211 00:24DB: AD xx xx     	lda	|~~basicvars+2
  5212 00:24DE: 65 03        	adc	<R0+2
  Sun Jan  9 2022 20:52                                                Page 91


  5213 00:24E0: 85 0F        	sta	<L343+dest_1+2
  5214 00:24E2: 18           	clc
  5215 00:24E3: A9 05 00     	lda	#$5
  5216 00:24E6: 6D xx xx     	adc	|~~basicvars+62
  5217 00:24E9: 8D xx xx     	sta	|~~basicvars+62
  5218 00:24EC: 90 03        	bcc	L348
  5219 00:24EE: EE xx xx     	inc	|~~basicvars+62+2
  5220                        L348:
  5221 00:24F1: 82 D0 00     	brl	L10276
  5222                        L10275:
  5223 00:24F4: AD xx xx     	lda	|~~basicvars+62
  5224 00:24F7: 85 01        	sta	<R0
  5225 00:24F9: AD xx xx     	lda	|~~basicvars+62+2
  5226 00:24FC: 85 03        	sta	<R0+2
  5227 00:24FE: E2 20        	sep	#$20
  5228                        	longa	off
  5229 00:2500: A7 01        	lda	[<R0]
  5230 00:2502: C9 1E        	cmp	#<$1e
  5231 00:2504: C2 20        	rep	#$20
  5232                        	longa	on
  5233 00:2506: F0 03        	beq	L349
  5234 00:2508: 82 22 00     	brl	L10277
  5235                        L349:
  5236 00:250B: AD xx xx     	lda	|~~basicvars+62+2
  5237 00:250E: 48           	pha
  5238 00:250F: AD xx xx     	lda	|~~basicvars+62
  5239 00:2512: 48           	pha
  5240 00:2513: 22 xx xx xx  	jsl	~~set_linedest
  5241 00:2517: 85 0D        	sta	<L343+dest_1
  5242 00:2519: 86 0F        	stx	<L343+dest_1+2
  5243 00:251B: 18           	clc
  5244 00:251C: A9 05 00     	lda	#$5
  5245 00:251F: 6D xx xx     	adc	|~~basicvars+62
  5246 00:2522: 8D xx xx     	sta	|~~basicvars+62
  5247 00:2525: 90 03        	bcc	L350
  5248 00:2527: EE xx xx     	inc	|~~basicvars+62+2
  5249                        L350:
  5250 00:252A: 82 97 00     	brl	L10278
  5251                        L10277:
  5252 00:252D: AD xx xx     	lda	|~~basicvars+62
  5253 00:2530: 85 01        	sta	<R0
  5254 00:2532: AD xx xx     	lda	|~~basicvars+62+2
  5255 00:2535: 85 03        	sta	<R0+2
  5256 00:2537: E2 20        	sep	#$20
  5257                        	longa	off
  5258 00:2539: A7 01        	lda	[<R0]
  5259 00:253B: C9 28        	cmp	#<$28
  5260 00:253D: C2 20        	rep	#$20
  5261                        	longa	on
  5262 00:253F: F0 03        	beq	L351
  5263 00:2541: 82 76 00     	brl	L10279
  5264                        L351:
  5265 00:2544: 22 xx xx xx  	jsl	~~eval_intfactor
  5266 00:2548: 85 11        	sta	<L343+line_1
  5267 00:254A: D4 11        	pei	<L343+line_1
  5268 00:254C: 22 xx xx xx  	jsl	~~find_line
  5269 00:2550: 85 0D        	sta	<L343+dest_1
  5270 00:2552: 86 0F        	stx	<L343+dest_1+2
  Sun Jan  9 2022 20:52                                                Page 92


  5271 00:2554: D4 0F        	pei	<L343+dest_1+2
  5272 00:2556: D4 0D        	pei	<L343+dest_1
  5273 00:2558: 22 xx xx xx  	jsl	~~get_lineno
  5274 00:255C: 85 01        	sta	<R0
  5275 00:255E: A5 01        	lda	<R0
  5276 00:2560: C5 11        	cmp	<L343+line_1
  5277 00:2562: D0 03        	bne	L352
  5278 00:2564: 82 0C 00     	brl	L10280
  5279                        L352:
  5280 00:2567: D4 11        	pei	<L343+line_1
  5281 00:2569: F4 0C 00     	pea	#<$c
  5282 00:256C: F4 06 00     	pea	#6
  5283 00:256F: 22 xx xx xx  	jsl	~~error
  5284                        L10280:
  5285 00:2573: A0 05 00     	ldy	#$5
  5286 00:2576: B7 0D        	lda	[<L343+dest_1],Y
  5287 00:2578: 29 FF 00     	and	#$ff
  5288 00:257B: 85 05        	sta	<R1
  5289 00:257D: A5 05        	lda	<R1
  5290 00:257F: EB           	xba
  5291 00:2580: 29 00 FF     	and	#$ff00
  5292 00:2583: 85 01        	sta	<R0
  5293 00:2585: A0 00 00     	ldy	#$0
  5294 00:2588: A5 01        	lda	<R0
  5295 00:258A: 10 01        	bpl	L353
  5296 00:258C: 88           	dey
  5297                        L353:
  5298 00:258D: 85 01        	sta	<R0
  5299 00:258F: 84 03        	sty	<R0+2
  5300 00:2591: A0 04 00     	ldy	#$4
  5301 00:2594: B7 0D        	lda	[<L343+dest_1],Y
  5302 00:2596: 29 FF 00     	and	#$ff
  5303 00:2599: 85 05        	sta	<R1
  5304 00:259B: 64 07        	stz	<R1+2
  5305 00:259D: 18           	clc
  5306 00:259E: A5 05        	lda	<R1
  5307 00:25A0: 65 01        	adc	<R0
  5308 00:25A2: 85 09        	sta	<R2
  5309 00:25A4: A5 07        	lda	<R1+2
  5310 00:25A6: 65 03        	adc	<R0+2
  5311 00:25A8: 85 0B        	sta	<R2+2
  5312 00:25AA: 18           	clc
  5313 00:25AB: A5 0D        	lda	<L343+dest_1
  5314 00:25AD: 65 09        	adc	<R2
  5315 00:25AF: 85 0D        	sta	<L343+dest_1
  5316 00:25B1: A5 0F        	lda	<L343+dest_1+2
  5317 00:25B3: 65 0B        	adc	<R2+2
  5318 00:25B5: 85 0F        	sta	<L343+dest_1+2
  5319 00:25B7: 82 0A 00     	brl	L10281
  5320                        L10279:
  5321 00:25BA: F4 05 00     	pea	#<$5
  5322 00:25BD: F4 04 00     	pea	#4
  5323 00:25C0: 22 xx xx xx  	jsl	~~error
  5324                        L10281:
  5325                        L10278:
  5326                        L10276:
  5327 00:25C4: 22 xx xx xx  	jsl	~~check_ateol
  5328 00:25C8: 22 xx xx xx  	jsl	~~push_gosub
  Sun Jan  9 2022 20:52                                                Page 93


  5329 00:25CC: AD xx xx     	lda	|~~basicvars+425
  5330 00:25CF: 89 10 00     	bit	#$10
  5331 00:25D2: D0 03        	bne	L354
  5332 00:25D4: 82 10 00     	brl	L10282
  5333                        L354:
  5334 00:25D7: D4 0F        	pei	<L343+dest_1+2
  5335 00:25D9: D4 0D        	pei	<L343+dest_1
  5336 00:25DB: AD xx xx     	lda	|~~basicvars+62+2
  5337 00:25DE: 48           	pha
  5338 00:25DF: AD xx xx     	lda	|~~basicvars+62
  5339 00:25E2: 48           	pha
  5340 00:25E3: 22 xx xx xx  	jsl	~~trace_branch
  5341                        L10282:
  5342 00:25E7: A5 0D        	lda	<L343+dest_1
  5343 00:25E9: 8D xx xx     	sta	|~~basicvars+62
  5344 00:25EC: A5 0F        	lda	<L343+dest_1+2
  5345 00:25EE: 8D xx xx     	sta	|~~basicvars+62+2
  5346                        L355:
  5347 00:25F1: 2B           	pld
  5348 00:25F2: 3B           	tsc
  5349 00:25F3: 18           	clc
  5350 00:25F4: 69 12 00     	adc	#L342
  5351 00:25F7: 1B           	tcs
  5352 00:25F8: 6B           	rtl
  5353             00000012   L342	equ	18
  5354             0000000D   L343	equ	13
  5355                        	ends
  5356                        	efunc
  5357                        	code
  5358                        	xdef	~~exec_goto
  5359                        	func
  5360                        ~~exec_goto:
  5361                        	longa	on
  5362                        	longi	on
  5363 00:25F9: 3B           	tsc
  5364 00:25FA: 38           	sec
  5365 00:25FB: E9 12 00     	sbc	#L356
  5366 00:25FE: 1B           	tcs
  5367 00:25FF: 0B           	phd
  5368 00:2600: 5B           	tcd
  5369             00000000   dest_1	set	0
  5370             00000004   line_1	set	4
  5371 00:2601: AD xx xx     	lda	|~~basicvars+489
  5372 00:2604: 29 FF 00     	and	#$ff
  5373 00:2607: D0 03        	bne	L358
  5374 00:2609: 82 0A 00     	brl	L10283
  5375                        L358:
  5376 00:260C: F4 08 00     	pea	#<$8
  5377 00:260F: F4 04 00     	pea	#4
  5378 00:2612: 22 xx xx xx  	jsl	~~error
  5379                        L10283:
  5380 00:2616: EE xx xx     	inc	|~~basicvars+62
  5381 00:2619: D0 03        	bne	L359
  5382 00:261B: EE xx xx     	inc	|~~basicvars+62+2
  5383                        L359:
  5384 00:261E: AD xx xx     	lda	|~~basicvars+62
  5385 00:2621: 85 01        	sta	<R0
  5386 00:2623: AD xx xx     	lda	|~~basicvars+62+2
  Sun Jan  9 2022 20:52                                                Page 94


  5387 00:2626: 85 03        	sta	<R0+2
  5388 00:2628: E2 20        	sep	#$20
  5389                        	longa	off
  5390 00:262A: A7 01        	lda	[<R0]
  5391 00:262C: C9 1F        	cmp	#<$1f
  5392 00:262E: C2 20        	rep	#$20
  5393                        	longa	on
  5394 00:2630: F0 03        	beq	L360
  5395 00:2632: 82 A5 00     	brl	L10284
  5396                        L360:
  5397 00:2635: AD xx xx     	lda	|~~basicvars+62
  5398 00:2638: 85 01        	sta	<R0
  5399 00:263A: AD xx xx     	lda	|~~basicvars+62+2
  5400 00:263D: 85 03        	sta	<R0+2
  5401 00:263F: A0 01 00     	ldy	#$1
  5402 00:2642: B7 01        	lda	[<R0],Y
  5403 00:2644: 29 FF 00     	and	#$ff
  5404 00:2647: 85 01        	sta	<R0
  5405 00:2649: AD xx xx     	lda	|~~basicvars+62
  5406 00:264C: 85 09        	sta	<R2
  5407 00:264E: AD xx xx     	lda	|~~basicvars+62+2
  5408 00:2651: 85 0B        	sta	<R2+2
  5409 00:2653: A0 02 00     	ldy	#$2
  5410 00:2656: B7 09        	lda	[<R2],Y
  5411 00:2658: 29 FF 00     	and	#$ff
  5412 00:265B: 85 09        	sta	<R2
  5413 00:265D: A5 09        	lda	<R2
  5414 00:265F: EB           	xba
  5415 00:2660: 29 00 FF     	and	#$ff00
  5416 00:2663: 85 05        	sta	<R1
  5417 00:2665: A5 05        	lda	<R1
  5418 00:2667: 05 01        	ora	<R0
  5419 00:2669: 85 09        	sta	<R2
  5420 00:266B: AD xx xx     	lda	|~~basicvars+62
  5421 00:266E: 85 05        	sta	<R1
  5422 00:2670: AD xx xx     	lda	|~~basicvars+62+2
  5423 00:2673: 85 07        	sta	<R1+2
  5424 00:2675: A0 03 00     	ldy	#$3
  5425 00:2678: B7 05        	lda	[<R1],Y
  5426 00:267A: 29 FF 00     	and	#$ff
  5427 00:267D: A2 10 00     	ldx	#<$10
  5428                        	xref	~~~asl
  5429 00:2680: 22 xx xx xx  	jsl	~~~asl
  5430 00:2684: 85 01        	sta	<R0
  5431 00:2686: A5 01        	lda	<R0
  5432 00:2688: 05 09        	ora	<R2
  5433 00:268A: 85 05        	sta	<R1
  5434 00:268C: AD xx xx     	lda	|~~basicvars+62
  5435 00:268F: 85 09        	sta	<R2
  5436 00:2691: AD xx xx     	lda	|~~basicvars+62+2
  5437 00:2694: 85 0B        	sta	<R2+2
  5438 00:2696: A0 04 00     	ldy	#$4
  5439 00:2699: B7 09        	lda	[<R2],Y
  5440 00:269B: 29 FF 00     	and	#$ff
  5441 00:269E: A2 18 00     	ldx	#<$18
  5442                        	xref	~~~asl
  5443 00:26A1: 22 xx xx xx  	jsl	~~~asl
  5444 00:26A5: 85 01        	sta	<R0
  Sun Jan  9 2022 20:52                                                Page 95


  5445 00:26A7: A5 01        	lda	<R0
  5446 00:26A9: 05 05        	ora	<R1
  5447 00:26AB: 85 09        	sta	<R2
  5448 00:26AD: A0 00 00     	ldy	#$0
  5449 00:26B0: A5 09        	lda	<R2
  5450 00:26B2: 10 01        	bpl	L361
  5451 00:26B4: 88           	dey
  5452                        L361:
  5453 00:26B5: 85 01        	sta	<R0
  5454 00:26B7: 84 03        	sty	<R0+2
  5455 00:26B9: 18           	clc
  5456 00:26BA: AD xx xx     	lda	|~~basicvars
  5457 00:26BD: 65 01        	adc	<R0
  5458 00:26BF: 85 0D        	sta	<L357+dest_1
  5459 00:26C1: AD xx xx     	lda	|~~basicvars+2
  5460 00:26C4: 65 03        	adc	<R0+2
  5461 00:26C6: 85 0F        	sta	<L357+dest_1+2
  5462 00:26C8: 18           	clc
  5463 00:26C9: A9 05 00     	lda	#$5
  5464 00:26CC: 6D xx xx     	adc	|~~basicvars+62
  5465 00:26CF: 8D xx xx     	sta	|~~basicvars+62
  5466 00:26D2: 90 03        	bcc	L362
  5467 00:26D4: EE xx xx     	inc	|~~basicvars+62+2
  5468                        L362:
  5469 00:26D7: 82 02 01     	brl	L10285
  5470                        L10284:
  5471 00:26DA: AD xx xx     	lda	|~~basicvars+62
  5472 00:26DD: 85 01        	sta	<R0
  5473 00:26DF: AD xx xx     	lda	|~~basicvars+62+2
  5474 00:26E2: 85 03        	sta	<R0+2
  5475 00:26E4: E2 20        	sep	#$20
  5476                        	longa	off
  5477 00:26E6: A7 01        	lda	[<R0]
  5478 00:26E8: C9 1E        	cmp	#<$1e
  5479 00:26EA: C2 20        	rep	#$20
  5480                        	longa	on
  5481 00:26EC: F0 03        	beq	L363
  5482 00:26EE: 82 22 00     	brl	L10286
  5483                        L363:
  5484 00:26F1: AD xx xx     	lda	|~~basicvars+62+2
  5485 00:26F4: 48           	pha
  5486 00:26F5: AD xx xx     	lda	|~~basicvars+62
  5487 00:26F8: 48           	pha
  5488 00:26F9: 22 xx xx xx  	jsl	~~set_linedest
  5489 00:26FD: 85 0D        	sta	<L357+dest_1
  5490 00:26FF: 86 0F        	stx	<L357+dest_1+2
  5491 00:2701: 18           	clc
  5492 00:2702: A9 05 00     	lda	#$5
  5493 00:2705: 6D xx xx     	adc	|~~basicvars+62
  5494 00:2708: 8D xx xx     	sta	|~~basicvars+62
  5495 00:270B: 90 03        	bcc	L364
  5496 00:270D: EE xx xx     	inc	|~~basicvars+62+2
  5497                        L364:
  5498 00:2710: 82 C9 00     	brl	L10287
  5499                        L10286:
  5500 00:2713: AD xx xx     	lda	|~~basicvars+62
  5501 00:2716: 85 01        	sta	<R0
  5502 00:2718: AD xx xx     	lda	|~~basicvars+62+2
  Sun Jan  9 2022 20:52                                                Page 96


  5503 00:271B: 85 03        	sta	<R0+2
  5504 00:271D: E2 20        	sep	#$20
  5505                        	longa	off
  5506 00:271F: A7 01        	lda	[<R0]
  5507 00:2721: C9 28        	cmp	#<$28
  5508 00:2723: C2 20        	rep	#$20
  5509                        	longa	on
  5510 00:2725: F0 03        	beq	L365
  5511 00:2727: 82 A8 00     	brl	L10288
  5512                        L365:
  5513 00:272A: 22 xx xx xx  	jsl	~~eval_intfactor
  5514 00:272E: 85 11        	sta	<L357+line_1
  5515 00:2730: A5 11        	lda	<L357+line_1
  5516 00:2732: 10 03        	bpl	L367
  5517 00:2734: 82 21 00     	brl	L366
  5518                        L367:
  5519 00:2737: A0 00 00     	ldy	#$0
  5520 00:273A: A5 11        	lda	<L357+line_1
  5521 00:273C: 10 01        	bpl	L368
  5522 00:273E: 88           	dey
  5523                        L368:
  5524 00:273F: 85 01        	sta	<R0
  5525 00:2741: 84 03        	sty	<R0+2
  5526 00:2743: 38           	sec
  5527 00:2744: A9 FF FE     	lda	#$feff
  5528 00:2747: E5 01        	sbc	<R0
  5529 00:2749: A9 00 00     	lda	#$0
  5530 00:274C: E5 03        	sbc	<R0+2
  5531 00:274E: 70 03        	bvs	L369
  5532 00:2750: 49 00 80     	eor	#$8000
  5533                        L369:
  5534 00:2753: 10 03        	bpl	L370
  5535 00:2755: 82 0A 00     	brl	L10289
  5536                        L370:
  5537                        L366:
  5538 00:2758: F4 0B 00     	pea	#<$b
  5539 00:275B: F4 04 00     	pea	#4
  5540 00:275E: 22 xx xx xx  	jsl	~~error
  5541                        L10289:
  5542 00:2762: D4 11        	pei	<L357+line_1
  5543 00:2764: 22 xx xx xx  	jsl	~~find_line
  5544 00:2768: 85 0D        	sta	<L357+dest_1
  5545 00:276A: 86 0F        	stx	<L357+dest_1+2
  5546 00:276C: D4 0F        	pei	<L357+dest_1+2
  5547 00:276E: D4 0D        	pei	<L357+dest_1
  5548 00:2770: 22 xx xx xx  	jsl	~~get_lineno
  5549 00:2774: 85 01        	sta	<R0
  5550 00:2776: A5 01        	lda	<R0
  5551 00:2778: C5 11        	cmp	<L357+line_1
  5552 00:277A: D0 03        	bne	L371
  5553 00:277C: 82 0C 00     	brl	L10290
  5554                        L371:
  5555 00:277F: D4 11        	pei	<L357+line_1
  5556 00:2781: F4 0C 00     	pea	#<$c
  5557 00:2784: F4 06 00     	pea	#6
  5558 00:2787: 22 xx xx xx  	jsl	~~error
  5559                        L10290:
  5560 00:278B: A0 05 00     	ldy	#$5
  Sun Jan  9 2022 20:52                                                Page 97


  5561 00:278E: B7 0D        	lda	[<L357+dest_1],Y
  5562 00:2790: 29 FF 00     	and	#$ff
  5563 00:2793: 85 05        	sta	<R1
  5564 00:2795: A5 05        	lda	<R1
  5565 00:2797: EB           	xba
  5566 00:2798: 29 00 FF     	and	#$ff00
  5567 00:279B: 85 01        	sta	<R0
  5568 00:279D: A0 00 00     	ldy	#$0
  5569 00:27A0: A5 01        	lda	<R0
  5570 00:27A2: 10 01        	bpl	L372
  5571 00:27A4: 88           	dey
  5572                        L372:
  5573 00:27A5: 85 01        	sta	<R0
  5574 00:27A7: 84 03        	sty	<R0+2
  5575 00:27A9: A0 04 00     	ldy	#$4
  5576 00:27AC: B7 0D        	lda	[<L357+dest_1],Y
  5577 00:27AE: 29 FF 00     	and	#$ff
  5578 00:27B1: 85 05        	sta	<R1
  5579 00:27B3: 64 07        	stz	<R1+2
  5580 00:27B5: 18           	clc
  5581 00:27B6: A5 05        	lda	<R1
  5582 00:27B8: 65 01        	adc	<R0
  5583 00:27BA: 85 09        	sta	<R2
  5584 00:27BC: A5 07        	lda	<R1+2
  5585 00:27BE: 65 03        	adc	<R0+2
  5586 00:27C0: 85 0B        	sta	<R2+2
  5587 00:27C2: 18           	clc
  5588 00:27C3: A5 0D        	lda	<L357+dest_1
  5589 00:27C5: 65 09        	adc	<R2
  5590 00:27C7: 85 0D        	sta	<L357+dest_1
  5591 00:27C9: A5 0F        	lda	<L357+dest_1+2
  5592 00:27CB: 65 0B        	adc	<R2+2
  5593 00:27CD: 85 0F        	sta	<L357+dest_1+2
  5594 00:27CF: 82 0A 00     	brl	L10291
  5595                        L10288:
  5596 00:27D2: F4 05 00     	pea	#<$5
  5597 00:27D5: F4 04 00     	pea	#4
  5598 00:27D8: 22 xx xx xx  	jsl	~~error
  5599                        L10291:
  5600                        L10287:
  5601                        L10285:
  5602 00:27DC: 22 xx xx xx  	jsl	~~check_ateol
  5603 00:27E0: AD xx xx     	lda	|~~basicvars+425
  5604 00:27E3: 89 10 00     	bit	#$10
  5605 00:27E6: D0 03        	bne	L373
  5606 00:27E8: 82 10 00     	brl	L10292
  5607                        L373:
  5608 00:27EB: D4 0F        	pei	<L357+dest_1+2
  5609 00:27ED: D4 0D        	pei	<L357+dest_1
  5610 00:27EF: AD xx xx     	lda	|~~basicvars+62+2
  5611 00:27F2: 48           	pha
  5612 00:27F3: AD xx xx     	lda	|~~basicvars+62
  5613 00:27F6: 48           	pha
  5614 00:27F7: 22 xx xx xx  	jsl	~~trace_branch
  5615                        L10292:
  5616 00:27FB: A5 0D        	lda	<L357+dest_1
  5617 00:27FD: 8D xx xx     	sta	|~~basicvars+62
  5618 00:2800: A5 0F        	lda	<L357+dest_1+2
  Sun Jan  9 2022 20:52                                                Page 98


  5619 00:2802: 8D xx xx     	sta	|~~basicvars+62+2
  5620                        L374:
  5621 00:2805: 2B           	pld
  5622 00:2806: 3B           	tsc
  5623 00:2807: 18           	clc
  5624 00:2808: 69 12 00     	adc	#L356
  5625 00:280B: 1B           	tcs
  5626 00:280C: 6B           	rtl
  5627             00000012   L356	equ	18
  5628             0000000D   L357	equ	13
  5629                        	ends
  5630                        	efunc
  5631                        	code
  5632                        	xdef	~~exec_blockif
  5633                        	func
  5634                        ~~exec_blockif:
  5635                        	longa	on
  5636                        	longi	on
  5637 00:280D: 3B           	tsc
  5638 00:280E: 38           	sec
  5639 00:280F: E9 10 00     	sbc	#L375
  5640 00:2812: 1B           	tcs
  5641 00:2813: 0B           	phd
  5642 00:2814: 5B           	tcd
  5643             00000000   dest_1	set	0
  5644 00:2815: 18           	clc
  5645 00:2816: A9 01 00     	lda	#$1
  5646 00:2819: 6D xx xx     	adc	|~~basicvars+62
  5647 00:281C: 85 0D        	sta	<L376+dest_1
  5648 00:281E: A9 00 00     	lda	#$0
  5649 00:2821: 6D xx xx     	adc	|~~basicvars+62+2
  5650 00:2824: 85 0F        	sta	<L376+dest_1+2
  5651 00:2826: 18           	clc
  5652 00:2827: A9 05 00     	lda	#$5
  5653 00:282A: 6D xx xx     	adc	|~~basicvars+62
  5654 00:282D: 8D xx xx     	sta	|~~basicvars+62
  5655 00:2830: 90 03        	bcc	L377
  5656 00:2832: EE xx xx     	inc	|~~basicvars+62+2
  5657                        L377:
  5658 00:2835: 22 xx xx xx  	jsl	~~expression
  5659 00:2839: AD xx xx     	lda	|~~basicvars+42
  5660 00:283C: 85 01        	sta	<R0
  5661 00:283E: AD xx xx     	lda	|~~basicvars+42+2
  5662 00:2841: 85 03        	sta	<R0+2
  5663 00:2843: A7 01        	lda	[<R0]
  5664 00:2845: C9 02 00     	cmp	#<$2
  5665 00:2848: F0 03        	beq	L378
  5666 00:284A: 82 19 00     	brl	L10293
  5667                        L378:
  5668 00:284D: 22 xx xx xx  	jsl	~~pop_int
  5669 00:2851: AA           	tax
  5670 00:2852: F0 03        	beq	L379
  5671 00:2854: 82 0C 00     	brl	L10294
  5672                        L379:
  5673 00:2857: 18           	clc
  5674 00:2858: A9 02 00     	lda	#$2
  5675 00:285B: 65 0D        	adc	<L376+dest_1
  5676 00:285D: 85 0D        	sta	<L376+dest_1
  Sun Jan  9 2022 20:52                                                Page 99


  5677 00:285F: 90 02        	bcc	L380
  5678 00:2861: E6 0F        	inc	<L376+dest_1+2
  5679                        L380:
  5680                        L10294:
  5681 00:2863: 82 44 00     	brl	L10295
  5682                        L10293:
  5683 00:2866: AD xx xx     	lda	|~~basicvars+42
  5684 00:2869: 85 01        	sta	<R0
  5685 00:286B: AD xx xx     	lda	|~~basicvars+42+2
  5686 00:286E: 85 03        	sta	<R0+2
  5687 00:2870: A7 01        	lda	[<R0]
  5688 00:2872: C9 03 00     	cmp	#<$3
  5689 00:2875: F0 03        	beq	L381
  5690 00:2877: 82 26 00     	brl	L10296
  5691                        L381:
  5692 00:287A: 5A           	phy
  5693 00:287B: 5A           	phy
  5694 00:287C: 22 xx xx xx  	jsl	~~pop_float
  5695                        	xref	~~~ffix
  5696 00:2880: 22 xx xx xx  	jsl	~~~ffix
  5697 00:2884: 68           	pla
  5698 00:2885: 85 01        	sta	<R0
  5699 00:2887: 68           	pla
  5700 00:2888: 85 03        	sta	<R0+2
  5701 00:288A: A5 01        	lda	<R0
  5702 00:288C: F0 03        	beq	L382
  5703 00:288E: 82 0C 00     	brl	L10297
  5704                        L382:
  5705 00:2891: 18           	clc
  5706 00:2892: A9 02 00     	lda	#$2
  5707 00:2895: 65 0D        	adc	<L376+dest_1
  5708 00:2897: 85 0D        	sta	<L376+dest_1
  5709 00:2899: 90 02        	bcc	L383
  5710 00:289B: E6 0F        	inc	<L376+dest_1+2
  5711                        L383:
  5712                        L10297:
  5713 00:289D: 82 0A 00     	brl	L10298
  5714                        L10296:
  5715 00:28A0: F4 3F 00     	pea	#<$3f
  5716 00:28A3: F4 04 00     	pea	#4
  5717 00:28A6: 22 xx xx xx  	jsl	~~error
  5718                        L10298:
  5719                        L10295:
  5720 00:28AA: AD xx xx     	lda	|~~basicvars+425
  5721 00:28AD: 89 01 00     	bit	#$1
  5722 00:28B0: D0 03        	bne	L384
  5723 00:28B2: 82 A9 00     	brl	L10299
  5724                        L384:
  5725 00:28B5: AD xx xx     	lda	|~~basicvars+425
  5726 00:28B8: 89 02 00     	bit	#$2
  5727 00:28BB: D0 03        	bne	L385
  5728 00:28BD: 82 4F 00     	brl	L10300
  5729                        L385:
  5730 00:28C0: A7 0D        	lda	[<L376+dest_1]
  5731 00:28C2: 29 FF 00     	and	#$ff
  5732 00:28C5: 85 01        	sta	<R0
  5733 00:28C7: A0 01 00     	ldy	#$1
  5734 00:28CA: B7 0D        	lda	[<L376+dest_1],Y
  Sun Jan  9 2022 20:52                                                Page 100


  5735 00:28CC: 29 FF 00     	and	#$ff
  5736 00:28CF: 85 09        	sta	<R2
  5737 00:28D1: A5 09        	lda	<R2
  5738 00:28D3: EB           	xba
  5739 00:28D4: 29 00 FF     	and	#$ff00
  5740 00:28D7: 85 05        	sta	<R1
  5741 00:28D9: A5 05        	lda	<R1
  5742 00:28DB: 05 01        	ora	<R0
  5743 00:28DD: 85 09        	sta	<R2
  5744 00:28DF: A0 00 00     	ldy	#$0
  5745 00:28E2: A5 09        	lda	<R2
  5746 00:28E4: 10 01        	bpl	L386
  5747 00:28E6: 88           	dey
  5748                        L386:
  5749 00:28E7: 85 01        	sta	<R0
  5750 00:28E9: 84 03        	sty	<R0+2
  5751 00:28EB: 18           	clc
  5752 00:28EC: A5 0D        	lda	<L376+dest_1
  5753 00:28EE: 65 01        	adc	<R0
  5754 00:28F0: 85 05        	sta	<R1
  5755 00:28F2: A5 0F        	lda	<L376+dest_1+2
  5756 00:28F4: 65 03        	adc	<R0+2
  5757 00:28F6: 85 07        	sta	<R1+2
  5758 00:28F8: D4 07        	pei	<R1+2
  5759 00:28FA: D4 05        	pei	<R1
  5760 00:28FC: 22 xx xx xx  	jsl	~~find_linestart
  5761 00:2900: 85 01        	sta	<R0
  5762 00:2902: 86 03        	stx	<R0+2
  5763 00:2904: DA           	phx
  5764 00:2905: 48           	pha
  5765 00:2906: 22 xx xx xx  	jsl	~~get_lineno
  5766 00:290A: 48           	pha
  5767 00:290B: 22 xx xx xx  	jsl	~~trace_line
  5768                        L10300:
  5769 00:290F: AD xx xx     	lda	|~~basicvars+425
  5770 00:2912: 89 10 00     	bit	#$10
  5771 00:2915: D0 03        	bne	L387
  5772 00:2917: 82 44 00     	brl	L10301
  5773                        L387:
  5774 00:291A: A7 0D        	lda	[<L376+dest_1]
  5775 00:291C: 29 FF 00     	and	#$ff
  5776 00:291F: 85 01        	sta	<R0
  5777 00:2921: A0 01 00     	ldy	#$1
  5778 00:2924: B7 0D        	lda	[<L376+dest_1],Y
  5779 00:2926: 29 FF 00     	and	#$ff
  5780 00:2929: 85 09        	sta	<R2
  5781 00:292B: A5 09        	lda	<R2
  5782 00:292D: EB           	xba
  5783 00:292E: 29 00 FF     	and	#$ff00
  5784 00:2931: 85 05        	sta	<R1
  5785 00:2933: A5 05        	lda	<R1
  5786 00:2935: 05 01        	ora	<R0
  5787 00:2937: 85 09        	sta	<R2
  5788 00:2939: A0 00 00     	ldy	#$0
  5789 00:293C: A5 09        	lda	<R2
  5790 00:293E: 10 01        	bpl	L388
  5791 00:2940: 88           	dey
  5792                        L388:
  Sun Jan  9 2022 20:52                                                Page 101


  5793 00:2941: 85 01        	sta	<R0
  5794 00:2943: 84 03        	sty	<R0+2
  5795 00:2945: 18           	clc
  5796 00:2946: A5 0D        	lda	<L376+dest_1
  5797 00:2948: 65 01        	adc	<R0
  5798 00:294A: 85 05        	sta	<R1
  5799 00:294C: A5 0F        	lda	<L376+dest_1+2
  5800 00:294E: 65 03        	adc	<R0+2
  5801 00:2950: 85 07        	sta	<R1+2
  5802 00:2952: D4 07        	pei	<R1+2
  5803 00:2954: D4 05        	pei	<R1
  5804 00:2956: D4 0F        	pei	<L376+dest_1+2
  5805 00:2958: D4 0D        	pei	<L376+dest_1
  5806 00:295A: 22 xx xx xx  	jsl	~~trace_branch
  5807                        L10301:
  5808                        L10299:
  5809 00:295E: A7 0D        	lda	[<L376+dest_1]
  5810 00:2960: 29 FF 00     	and	#$ff
  5811 00:2963: 85 01        	sta	<R0
  5812 00:2965: A0 01 00     	ldy	#$1
  5813 00:2968: B7 0D        	lda	[<L376+dest_1],Y
  5814 00:296A: 29 FF 00     	and	#$ff
  5815 00:296D: 85 09        	sta	<R2
  5816 00:296F: A5 09        	lda	<R2
  5817 00:2971: EB           	xba
  5818 00:2972: 29 00 FF     	and	#$ff00
  5819 00:2975: 85 05        	sta	<R1
  5820 00:2977: A5 05        	lda	<R1
  5821 00:2979: 05 01        	ora	<R0
  5822 00:297B: 85 09        	sta	<R2
  5823 00:297D: A0 00 00     	ldy	#$0
  5824 00:2980: A5 09        	lda	<R2
  5825 00:2982: 10 01        	bpl	L389
  5826 00:2984: 88           	dey
  5827                        L389:
  5828 00:2985: 85 01        	sta	<R0
  5829 00:2987: 84 03        	sty	<R0+2
  5830 00:2989: 18           	clc
  5831 00:298A: A5 0D        	lda	<L376+dest_1
  5832 00:298C: 65 01        	adc	<R0
  5833 00:298E: 8D xx xx     	sta	|~~basicvars+62
  5834 00:2991: A5 0F        	lda	<L376+dest_1+2
  5835 00:2993: 65 03        	adc	<R0+2
  5836 00:2995: 8D xx xx     	sta	|~~basicvars+62+2
  5837                        L390:
  5838 00:2998: 2B           	pld
  5839 00:2999: 3B           	tsc
  5840 00:299A: 18           	clc
  5841 00:299B: 69 10 00     	adc	#L375
  5842 00:299E: 1B           	tcs
  5843 00:299F: 6B           	rtl
  5844             00000010   L375	equ	16
  5845             0000000D   L376	equ	13
  5846                        	ends
  5847                        	efunc
  5848                        	code
  5849                        	xdef	~~exec_singlif
  5850                        	func
  Sun Jan  9 2022 20:52                                                Page 102


  5851                        ~~exec_singlif:
  5852                        	longa	on
  5853                        	longi	on
  5854 00:29A0: 3B           	tsc
  5855 00:29A1: 38           	sec
  5856 00:29A2: E9 16 00     	sbc	#L391
  5857 00:29A5: 1B           	tcs
  5858 00:29A6: 0B           	phd
  5859 00:29A7: 5B           	tcd
  5860             00000000   dest_1	set	0
  5861             00000004   here_1	set	4
  5862 00:29A8: 18           	clc
  5863 00:29A9: A9 01 00     	lda	#$1
  5864 00:29AC: 6D xx xx     	adc	|~~basicvars+62
  5865 00:29AF: 85 0D        	sta	<L392+dest_1
  5866 00:29B1: A9 00 00     	lda	#$0
  5867 00:29B4: 6D xx xx     	adc	|~~basicvars+62+2
  5868 00:29B7: 85 0F        	sta	<L392+dest_1+2
  5869 00:29B9: A5 0D        	lda	<L392+dest_1
  5870 00:29BB: 85 11        	sta	<L392+here_1
  5871 00:29BD: A5 0F        	lda	<L392+dest_1+2
  5872 00:29BF: 85 13        	sta	<L392+here_1+2
  5873 00:29C1: 18           	clc
  5874 00:29C2: A9 05 00     	lda	#$5
  5875 00:29C5: 6D xx xx     	adc	|~~basicvars+62
  5876 00:29C8: 8D xx xx     	sta	|~~basicvars+62
  5877 00:29CB: 90 03        	bcc	L393
  5878 00:29CD: EE xx xx     	inc	|~~basicvars+62+2
  5879                        L393:
  5880 00:29D0: 22 xx xx xx  	jsl	~~expression
  5881 00:29D4: AD xx xx     	lda	|~~basicvars+42
  5882 00:29D7: 85 01        	sta	<R0
  5883 00:29D9: AD xx xx     	lda	|~~basicvars+42+2
  5884 00:29DC: 85 03        	sta	<R0+2
  5885 00:29DE: A7 01        	lda	[<R0]
  5886 00:29E0: C9 02 00     	cmp	#<$2
  5887 00:29E3: F0 03        	beq	L394
  5888 00:29E5: 82 19 00     	brl	L10302
  5889                        L394:
  5890 00:29E8: 22 xx xx xx  	jsl	~~pop_int
  5891 00:29EC: AA           	tax
  5892 00:29ED: F0 03        	beq	L395
  5893 00:29EF: 82 0C 00     	brl	L10303
  5894                        L395:
  5895 00:29F2: 18           	clc
  5896 00:29F3: A9 02 00     	lda	#$2
  5897 00:29F6: 65 0D        	adc	<L392+dest_1
  5898 00:29F8: 85 0D        	sta	<L392+dest_1
  5899 00:29FA: 90 02        	bcc	L396
  5900 00:29FC: E6 0F        	inc	<L392+dest_1+2
  5901                        L396:
  5902                        L10303:
  5903 00:29FE: 82 44 00     	brl	L10304
  5904                        L10302:
  5905 00:2A01: AD xx xx     	lda	|~~basicvars+42
  5906 00:2A04: 85 01        	sta	<R0
  5907 00:2A06: AD xx xx     	lda	|~~basicvars+42+2
  5908 00:2A09: 85 03        	sta	<R0+2
  Sun Jan  9 2022 20:52                                                Page 103


  5909 00:2A0B: A7 01        	lda	[<R0]
  5910 00:2A0D: C9 03 00     	cmp	#<$3
  5911 00:2A10: F0 03        	beq	L397
  5912 00:2A12: 82 26 00     	brl	L10305
  5913                        L397:
  5914 00:2A15: 5A           	phy
  5915 00:2A16: 5A           	phy
  5916 00:2A17: 22 xx xx xx  	jsl	~~pop_float
  5917                        	xref	~~~ffix
  5918 00:2A1B: 22 xx xx xx  	jsl	~~~ffix
  5919 00:2A1F: 68           	pla
  5920 00:2A20: 85 01        	sta	<R0
  5921 00:2A22: 68           	pla
  5922 00:2A23: 85 03        	sta	<R0+2
  5923 00:2A25: A5 01        	lda	<R0
  5924 00:2A27: F0 03        	beq	L398
  5925 00:2A29: 82 0C 00     	brl	L10306
  5926                        L398:
  5927 00:2A2C: 18           	clc
  5928 00:2A2D: A9 02 00     	lda	#$2
  5929 00:2A30: 65 0D        	adc	<L392+dest_1
  5930 00:2A32: 85 0D        	sta	<L392+dest_1
  5931 00:2A34: 90 02        	bcc	L399
  5932 00:2A36: E6 0F        	inc	<L392+dest_1+2
  5933                        L399:
  5934                        L10306:
  5935 00:2A38: 82 0A 00     	brl	L10307
  5936                        L10305:
  5937 00:2A3B: F4 3F 00     	pea	#<$3f
  5938 00:2A3E: F4 04 00     	pea	#4
  5939 00:2A41: 22 xx xx xx  	jsl	~~error
  5940                        L10307:
  5941                        L10304:
  5942 00:2A45: A7 0D        	lda	[<L392+dest_1]
  5943 00:2A47: 29 FF 00     	and	#$ff
  5944 00:2A4A: 85 01        	sta	<R0
  5945 00:2A4C: A0 01 00     	ldy	#$1
  5946 00:2A4F: B7 0D        	lda	[<L392+dest_1],Y
  5947 00:2A51: 29 FF 00     	and	#$ff
  5948 00:2A54: 85 09        	sta	<R2
  5949 00:2A56: A5 09        	lda	<R2
  5950 00:2A58: EB           	xba
  5951 00:2A59: 29 00 FF     	and	#$ff00
  5952 00:2A5C: 85 05        	sta	<R1
  5953 00:2A5E: A5 05        	lda	<R1
  5954 00:2A60: 05 01        	ora	<R0
  5955 00:2A62: 85 09        	sta	<R2
  5956 00:2A64: A0 00 00     	ldy	#$0
  5957 00:2A67: A5 09        	lda	<R2
  5958 00:2A69: 10 01        	bpl	L400
  5959 00:2A6B: 88           	dey
  5960                        L400:
  5961 00:2A6C: 85 01        	sta	<R0
  5962 00:2A6E: 84 03        	sty	<R0+2
  5963 00:2A70: 18           	clc
  5964 00:2A71: A5 0D        	lda	<L392+dest_1
  5965 00:2A73: 65 01        	adc	<R0
  5966 00:2A75: 85 0D        	sta	<L392+dest_1
  Sun Jan  9 2022 20:52                                                Page 104


  5967 00:2A77: A5 0F        	lda	<L392+dest_1+2
  5968 00:2A79: 65 03        	adc	<R0+2
  5969 00:2A7B: 85 0F        	sta	<L392+dest_1+2
  5970 00:2A7D: E2 20        	sep	#$20
  5971                        	longa	off
  5972 00:2A7F: A7 0D        	lda	[<L392+dest_1]
  5973 00:2A81: C9 1F        	cmp	#<$1f
  5974 00:2A83: C2 20        	rep	#$20
  5975                        	longa	on
  5976 00:2A85: F0 03        	beq	L401
  5977 00:2A87: 82 6E 00     	brl	L10308
  5978                        L401:
  5979 00:2A8A: A0 01 00     	ldy	#$1
  5980 00:2A8D: B7 0D        	lda	[<L392+dest_1],Y
  5981 00:2A8F: 29 FF 00     	and	#$ff
  5982 00:2A92: 85 01        	sta	<R0
  5983 00:2A94: A0 02 00     	ldy	#$2
  5984 00:2A97: B7 0D        	lda	[<L392+dest_1],Y
  5985 00:2A99: 29 FF 00     	and	#$ff
  5986 00:2A9C: 85 09        	sta	<R2
  5987 00:2A9E: A5 09        	lda	<R2
  5988 00:2AA0: EB           	xba
  5989 00:2AA1: 29 00 FF     	and	#$ff00
  5990 00:2AA4: 85 05        	sta	<R1
  5991 00:2AA6: A5 05        	lda	<R1
  5992 00:2AA8: 05 01        	ora	<R0
  5993 00:2AAA: 85 09        	sta	<R2
  5994 00:2AAC: A0 03 00     	ldy	#$3
  5995 00:2AAF: B7 0D        	lda	[<L392+dest_1],Y
  5996 00:2AB1: 29 FF 00     	and	#$ff
  5997 00:2AB4: A2 10 00     	ldx	#<$10
  5998                        	xref	~~~asl
  5999 00:2AB7: 22 xx xx xx  	jsl	~~~asl
  6000 00:2ABB: 85 01        	sta	<R0
  6001 00:2ABD: A5 01        	lda	<R0
  6002 00:2ABF: 05 09        	ora	<R2
  6003 00:2AC1: 85 05        	sta	<R1
  6004 00:2AC3: A0 04 00     	ldy	#$4
  6005 00:2AC6: B7 0D        	lda	[<L392+dest_1],Y
  6006 00:2AC8: 29 FF 00     	and	#$ff
  6007 00:2ACB: A2 18 00     	ldx	#<$18
  6008                        	xref	~~~asl
  6009 00:2ACE: 22 xx xx xx  	jsl	~~~asl
  6010 00:2AD2: 85 01        	sta	<R0
  6011 00:2AD4: A5 01        	lda	<R0
  6012 00:2AD6: 05 05        	ora	<R1
  6013 00:2AD8: 85 09        	sta	<R2
  6014 00:2ADA: A0 00 00     	ldy	#$0
  6015 00:2ADD: A5 09        	lda	<R2
  6016 00:2ADF: 10 01        	bpl	L402
  6017 00:2AE1: 88           	dey
  6018                        L402:
  6019 00:2AE2: 85 01        	sta	<R0
  6020 00:2AE4: 84 03        	sty	<R0+2
  6021 00:2AE6: 18           	clc
  6022 00:2AE7: AD xx xx     	lda	|~~basicvars
  6023 00:2AEA: 65 01        	adc	<R0
  6024 00:2AEC: 85 0D        	sta	<L392+dest_1
  Sun Jan  9 2022 20:52                                                Page 105


  6025 00:2AEE: AD xx xx     	lda	|~~basicvars+2
  6026 00:2AF1: 65 03        	adc	<R0+2
  6027 00:2AF3: 85 0F        	sta	<L392+dest_1+2
  6028 00:2AF5: 82 19 00     	brl	L10309
  6029                        L10308:
  6030 00:2AF8: E2 20        	sep	#$20
  6031                        	longa	off
  6032 00:2AFA: A7 0D        	lda	[<L392+dest_1]
  6033 00:2AFC: C9 1E        	cmp	#<$1e
  6034 00:2AFE: C2 20        	rep	#$20
  6035                        	longa	on
  6036 00:2B00: F0 03        	beq	L403
  6037 00:2B02: 82 0C 00     	brl	L10310
  6038                        L403:
  6039 00:2B05: D4 0F        	pei	<L392+dest_1+2
  6040 00:2B07: D4 0D        	pei	<L392+dest_1
  6041 00:2B09: 22 xx xx xx  	jsl	~~set_linedest
  6042 00:2B0D: 85 0D        	sta	<L392+dest_1
  6043 00:2B0F: 86 0F        	stx	<L392+dest_1+2
  6044                        L10310:
  6045                        L10309:
  6046 00:2B11: AD xx xx     	lda	|~~basicvars+425
  6047 00:2B14: 89 01 00     	bit	#$1
  6048 00:2B17: D0 03        	bne	L404
  6049 00:2B19: 82 4F 00     	brl	L10311
  6050                        L404:
  6051 00:2B1C: AD xx xx     	lda	|~~basicvars+425
  6052 00:2B1F: 89 02 00     	bit	#$2
  6053 00:2B22: D0 03        	bne	L405
  6054 00:2B24: 82 2D 00     	brl	L10312
  6055                        L405:
  6056             00000008   destline_2	set	8
  6057 00:2B27: D4 0F        	pei	<L392+dest_1+2
  6058 00:2B29: D4 0D        	pei	<L392+dest_1
  6059 00:2B2B: 22 xx xx xx  	jsl	~~find_linestart
  6060 00:2B2F: 85 01        	sta	<R0
  6061 00:2B31: 86 03        	stx	<R0+2
  6062 00:2B33: DA           	phx
  6063 00:2B34: 48           	pha
  6064 00:2B35: 22 xx xx xx  	jsl	~~get_lineno
  6065 00:2B39: 85 15        	sta	<L392+destline_2
  6066 00:2B3B: D4 13        	pei	<L392+here_1+2
  6067 00:2B3D: D4 11        	pei	<L392+here_1
  6068 00:2B3F: 22 xx xx xx  	jsl	~~get_lineno
  6069 00:2B43: 85 01        	sta	<R0
  6070 00:2B45: A5 01        	lda	<R0
  6071 00:2B47: C5 15        	cmp	<L392+destline_2
  6072 00:2B49: D0 03        	bne	L406
  6073 00:2B4B: 82 06 00     	brl	L10313
  6074                        L406:
  6075 00:2B4E: D4 15        	pei	<L392+destline_2
  6076 00:2B50: 22 xx xx xx  	jsl	~~trace_line
  6077                        L10313:
  6078                        L10312:
  6079 00:2B54: AD xx xx     	lda	|~~basicvars+425
  6080 00:2B57: 89 10 00     	bit	#$10
  6081 00:2B5A: D0 03        	bne	L407
  6082 00:2B5C: 82 0C 00     	brl	L10314
  Sun Jan  9 2022 20:52                                                Page 106


  6083                        L407:
  6084 00:2B5F: D4 0F        	pei	<L392+dest_1+2
  6085 00:2B61: D4 0D        	pei	<L392+dest_1
  6086 00:2B63: D4 13        	pei	<L392+here_1+2
  6087 00:2B65: D4 11        	pei	<L392+here_1
  6088 00:2B67: 22 xx xx xx  	jsl	~~trace_branch
  6089                        L10314:
  6090                        L10311:
  6091 00:2B6B: A5 0D        	lda	<L392+dest_1
  6092 00:2B6D: 8D xx xx     	sta	|~~basicvars+62
  6093 00:2B70: A5 0F        	lda	<L392+dest_1+2
  6094 00:2B72: 8D xx xx     	sta	|~~basicvars+62+2
  6095                        L408:
  6096 00:2B75: 2B           	pld
  6097 00:2B76: 3B           	tsc
  6098 00:2B77: 18           	clc
  6099 00:2B78: 69 16 00     	adc	#L391
  6100 00:2B7B: 1B           	tcs
  6101 00:2B7C: 6B           	rtl
  6102             00000016   L391	equ	22
  6103             0000000D   L392	equ	13
  6104                        	ends
  6105                        	efunc
  6106                        	code
  6107                        	xdef	~~exec_xif
  6108                        	func
  6109                        ~~exec_xif:
  6110                        	longa	on
  6111                        	longi	on
  6112 00:2B7D: 3B           	tsc
  6113 00:2B7E: 38           	sec
  6114 00:2B7F: E9 25 00     	sbc	#L409
  6115 00:2B82: 1B           	tcs
  6116 00:2B83: 0B           	phd
  6117 00:2B84: 5B           	tcd
  6118             00000000   lp2_1	set	0
  6119             00000004   dest_1	set	4
  6120             00000008   ifplace_1	set	8
  6121             0000000C   thenplace_1	set	12
  6122             00000010   elseplace_1	set	16
  6123             00000014   result_1	set	20
  6124             00000016   single_1	set	22
  6125 00:2B85: AD xx xx     	lda	|~~basicvars+62
  6126 00:2B88: 85 15        	sta	<L410+ifplace_1
  6127 00:2B8A: AD xx xx     	lda	|~~basicvars+62+2
  6128 00:2B8D: 85 17        	sta	<L410+ifplace_1+2
  6129 00:2B8F: 18           	clc
  6130 00:2B90: A9 01 00     	lda	#$1
  6131 00:2B93: 65 15        	adc	<L410+ifplace_1
  6132 00:2B95: 85 19        	sta	<L410+thenplace_1
  6133 00:2B97: A9 00 00     	lda	#$0
  6134 00:2B9A: 65 17        	adc	<L410+ifplace_1+2
  6135 00:2B9C: 85 1B        	sta	<L410+thenplace_1+2
  6136 00:2B9E: 18           	clc
  6137 00:2B9F: A9 03 00     	lda	#$3
  6138 00:2BA2: 65 15        	adc	<L410+ifplace_1
  6139 00:2BA4: 85 1D        	sta	<L410+elseplace_1
  6140 00:2BA6: A9 00 00     	lda	#$0
  Sun Jan  9 2022 20:52                                                Page 107


  6141 00:2BA9: 65 17        	adc	<L410+ifplace_1+2
  6142 00:2BAB: 85 1F        	sta	<L410+elseplace_1+2
  6143 00:2BAD: 18           	clc
  6144 00:2BAE: A9 05 00     	lda	#$5
  6145 00:2BB1: 6D xx xx     	adc	|~~basicvars+62
  6146 00:2BB4: 8D xx xx     	sta	|~~basicvars+62
  6147 00:2BB7: 90 03        	bcc	L411
  6148 00:2BB9: EE xx xx     	inc	|~~basicvars+62+2
  6149                        L411:
  6150 00:2BBC: 22 xx xx xx  	jsl	~~expression
  6151 00:2BC0: AD xx xx     	lda	|~~basicvars+42
  6152 00:2BC3: 85 01        	sta	<R0
  6153 00:2BC5: AD xx xx     	lda	|~~basicvars+42+2
  6154 00:2BC8: 85 03        	sta	<R0+2
  6155 00:2BCA: A7 01        	lda	[<R0]
  6156 00:2BCC: C9 02 00     	cmp	#<$2
  6157 00:2BCF: F0 03        	beq	L412
  6158 00:2BD1: 82 09 00     	brl	L10315
  6159                        L412:
  6160 00:2BD4: 22 xx xx xx  	jsl	~~pop_int
  6161 00:2BD8: 85 21        	sta	<L410+result_1
  6162 00:2BDA: 82 35 00     	brl	L10316
  6163                        L10315:
  6164 00:2BDD: AD xx xx     	lda	|~~basicvars+42
  6165 00:2BE0: 85 01        	sta	<R0
  6166 00:2BE2: AD xx xx     	lda	|~~basicvars+42+2
  6167 00:2BE5: 85 03        	sta	<R0+2
  6168 00:2BE7: A7 01        	lda	[<R0]
  6169 00:2BE9: C9 03 00     	cmp	#<$3
  6170 00:2BEC: F0 03        	beq	L413
  6171 00:2BEE: 82 17 00     	brl	L10317
  6172                        L413:
  6173 00:2BF1: 5A           	phy
  6174 00:2BF2: 5A           	phy
  6175 00:2BF3: 22 xx xx xx  	jsl	~~pop_float
  6176                        	xref	~~~ffix
  6177 00:2BF7: 22 xx xx xx  	jsl	~~~ffix
  6178 00:2BFB: 68           	pla
  6179 00:2BFC: 85 01        	sta	<R0
  6180 00:2BFE: 68           	pla
  6181 00:2BFF: 85 03        	sta	<R0+2
  6182 00:2C01: A5 01        	lda	<R0
  6183 00:2C03: 85 21        	sta	<L410+result_1
  6184 00:2C05: 82 0A 00     	brl	L10318
  6185                        L10317:
  6186 00:2C08: F4 3F 00     	pea	#<$3f
  6187 00:2C0B: F4 04 00     	pea	#4
  6188 00:2C0E: 22 xx xx xx  	jsl	~~error
  6189                        L10318:
  6190                        L10316:
  6191 00:2C12: 64 01        	stz	<R0
  6192 00:2C14: AD xx xx     	lda	|~~basicvars+62
  6193 00:2C17: 85 05        	sta	<R1
  6194 00:2C19: AD xx xx     	lda	|~~basicvars+62+2
  6195 00:2C1C: 85 07        	sta	<R1+2
  6196 00:2C1E: E2 20        	sep	#$20
  6197                        	longa	off
  6198 00:2C20: A7 05        	lda	[<R1]
  Sun Jan  9 2022 20:52                                                Page 108


  6199 00:2C22: C9 DF        	cmp	#<$df
  6200 00:2C24: C2 20        	rep	#$20
  6201                        	longa	on
  6202 00:2C26: D0 03        	bne	L415
  6203 00:2C28: 82 02 00     	brl	L414
  6204                        L415:
  6205 00:2C2B: E6 01        	inc	<R0
  6206                        L414:
  6207 00:2C2D: E2 20        	sep	#$20
  6208                        	longa	off
  6209 00:2C2F: A5 01        	lda	<R0
  6210 00:2C31: 85 23        	sta	<L410+single_1
  6211 00:2C33: C2 20        	rep	#$20
  6212                        	longa	on
  6213 00:2C35: AD xx xx     	lda	|~~basicvars+62
  6214 00:2C38: 85 01        	sta	<R0
  6215 00:2C3A: AD xx xx     	lda	|~~basicvars+62+2
  6216 00:2C3D: 85 03        	sta	<R0+2
  6217 00:2C3F: E2 20        	sep	#$20
  6218                        	longa	off
  6219 00:2C41: A7 01        	lda	[<R0]
  6220 00:2C43: C9 DF        	cmp	#<$df
  6221 00:2C45: C2 20        	rep	#$20
  6222                        	longa	on
  6223 00:2C47: F0 03        	beq	L416
  6224 00:2C49: 82 27 00     	brl	L10319
  6225                        L416:
  6226 00:2C4C: 18           	clc
  6227 00:2C4D: A9 01 00     	lda	#$1
  6228 00:2C50: 6D xx xx     	adc	|~~basicvars+62
  6229 00:2C53: 85 0D        	sta	<L410+lp2_1
  6230 00:2C55: A9 00 00     	lda	#$0
  6231 00:2C58: 6D xx xx     	adc	|~~basicvars+62+2
  6232 00:2C5B: 85 0F        	sta	<L410+lp2_1+2
  6233 00:2C5D: 64 01        	stz	<R0
  6234 00:2C5F: A7 0D        	lda	[<L410+lp2_1]
  6235 00:2C61: 29 FF 00     	and	#$ff
  6236 00:2C64: D0 03        	bne	L418
  6237 00:2C66: 82 02 00     	brl	L417
  6238                        L418:
  6239 00:2C69: E6 01        	inc	<R0
  6240                        L417:
  6241 00:2C6B: E2 20        	sep	#$20
  6242                        	longa	off
  6243 00:2C6D: A5 01        	lda	<R0
  6244 00:2C6F: 85 23        	sta	<L410+single_1
  6245 00:2C71: C2 20        	rep	#$20
  6246                        	longa	on
  6247                        L10319:
  6248 00:2C73: A5 23        	lda	<L410+single_1
  6249 00:2C75: 29 FF 00     	and	#$ff
  6250 00:2C78: D0 03        	bne	L419
  6251 00:2C7A: 82 7D 01     	brl	L10320
  6252                        L419:
  6253 00:2C7D: E2 20        	sep	#$20
  6254                        	longa	off
  6255 00:2C7F: A9 B4        	lda	#$b4
  6256 00:2C81: 87 15        	sta	[<L410+ifplace_1]
  Sun Jan  9 2022 20:52                                                Page 109


  6257 00:2C83: C2 20        	rep	#$20
  6258                        	longa	on
  6259 00:2C85: AD xx xx     	lda	|~~basicvars+62
  6260 00:2C88: 85 01        	sta	<R0
  6261 00:2C8A: AD xx xx     	lda	|~~basicvars+62+2
  6262 00:2C8D: 85 03        	sta	<R0+2
  6263 00:2C8F: E2 20        	sep	#$20
  6264                        	longa	off
  6265 00:2C91: A7 01        	lda	[<R0]
  6266 00:2C93: C9 9F        	cmp	#<$9f
  6267 00:2C95: C2 20        	rep	#$20
  6268                        	longa	on
  6269 00:2C97: F0 03        	beq	L420
  6270 00:2C99: 82 8F 00     	brl	L10321
  6271                        L420:
  6272 00:2C9C: 18           	clc
  6273 00:2C9D: A9 03 00     	lda	#$3
  6274 00:2CA0: 6D xx xx     	adc	|~~basicvars+62
  6275 00:2CA3: 85 0D        	sta	<L410+lp2_1
  6276 00:2CA5: A9 00 00     	lda	#$0
  6277 00:2CA8: 6D xx xx     	adc	|~~basicvars+62+2
  6278 00:2CAB: 85 0F        	sta	<L410+lp2_1+2
  6279 00:2CAD: D4 0F        	pei	<L410+lp2_1+2
  6280 00:2CAF: D4 0D        	pei	<L410+lp2_1
  6281 00:2CB1: D4 1F        	pei	<L410+elseplace_1+2
  6282 00:2CB3: D4 1D        	pei	<L410+elseplace_1
  6283 00:2CB5: 22 xx xx xx  	jsl	~~set_dest
  6284                        L10322:
  6285 00:2CB9: A7 0D        	lda	[<L410+lp2_1]
  6286 00:2CBB: 29 FF 00     	and	#$ff
  6287 00:2CBE: D0 03        	bne	L421
  6288 00:2CC0: 82 0F 00     	brl	L10323
  6289                        L421:
  6290 00:2CC3: D4 0F        	pei	<L410+lp2_1+2
  6291 00:2CC5: D4 0D        	pei	<L410+lp2_1
  6292 00:2CC7: 22 xx xx xx  	jsl	~~skip_token
  6293 00:2CCB: 85 0D        	sta	<L410+lp2_1
  6294 00:2CCD: 86 0F        	stx	<L410+lp2_1+2
  6295 00:2CCF: 82 E7 FF     	brl	L10322
  6296                        L10323:
  6297 00:2CD2: E6 0D        	inc	<L410+lp2_1
  6298 00:2CD4: D0 02        	bne	L422
  6299 00:2CD6: E6 0F        	inc	<L410+lp2_1+2
  6300                        L422:
  6301 00:2CD8: A0 05 00     	ldy	#$5
  6302 00:2CDB: B7 0D        	lda	[<L410+lp2_1],Y
  6303 00:2CDD: 29 FF 00     	and	#$ff
  6304 00:2CE0: 85 05        	sta	<R1
  6305 00:2CE2: A5 05        	lda	<R1
  6306 00:2CE4: EB           	xba
  6307 00:2CE5: 29 00 FF     	and	#$ff00
  6308 00:2CE8: 85 01        	sta	<R0
  6309 00:2CEA: A0 00 00     	ldy	#$0
  6310 00:2CED: A5 01        	lda	<R0
  6311 00:2CEF: 10 01        	bpl	L423
  6312 00:2CF1: 88           	dey
  6313                        L423:
  6314 00:2CF2: 85 01        	sta	<R0
  Sun Jan  9 2022 20:52                                                Page 110


  6315 00:2CF4: 84 03        	sty	<R0+2
  6316 00:2CF6: A0 04 00     	ldy	#$4
  6317 00:2CF9: B7 0D        	lda	[<L410+lp2_1],Y
  6318 00:2CFB: 29 FF 00     	and	#$ff
  6319 00:2CFE: 85 05        	sta	<R1
  6320 00:2D00: 64 07        	stz	<R1+2
  6321 00:2D02: 18           	clc
  6322 00:2D03: A5 05        	lda	<R1
  6323 00:2D05: 65 01        	adc	<R0
  6324 00:2D07: 85 09        	sta	<R2
  6325 00:2D09: A5 07        	lda	<R1+2
  6326 00:2D0B: 65 03        	adc	<R0+2
  6327 00:2D0D: 85 0B        	sta	<R2+2
  6328 00:2D0F: 18           	clc
  6329 00:2D10: A5 0D        	lda	<L410+lp2_1
  6330 00:2D12: 65 09        	adc	<R2
  6331 00:2D14: 85 01        	sta	<R0
  6332 00:2D16: A5 0F        	lda	<L410+lp2_1+2
  6333 00:2D18: 65 0B        	adc	<R2+2
  6334 00:2D1A: 85 03        	sta	<R0+2
  6335 00:2D1C: D4 03        	pei	<R0+2
  6336 00:2D1E: D4 01        	pei	<R0
  6337 00:2D20: D4 1B        	pei	<L410+thenplace_1+2
  6338 00:2D22: D4 19        	pei	<L410+thenplace_1
  6339 00:2D24: 22 xx xx xx  	jsl	~~set_dest
  6340 00:2D28: 82 CC 00     	brl	L10324
  6341                        L10321:
  6342 00:2D2B: AD xx xx     	lda	|~~basicvars+62
  6343 00:2D2E: 85 01        	sta	<R0
  6344 00:2D30: AD xx xx     	lda	|~~basicvars+62+2
  6345 00:2D33: 85 03        	sta	<R0+2
  6346 00:2D35: E2 20        	sep	#$20
  6347                        	longa	off
  6348 00:2D37: A7 01        	lda	[<R0]
  6349 00:2D39: C9 DF        	cmp	#<$df
  6350 00:2D3B: C2 20        	rep	#$20
  6351                        	longa	on
  6352 00:2D3D: D0 03        	bne	L424
  6353 00:2D3F: 82 0A 00     	brl	L10325
  6354                        L424:
  6355 00:2D42: AD xx xx     	lda	|~~basicvars+62
  6356 00:2D45: 85 0D        	sta	<L410+lp2_1
  6357 00:2D47: AD xx xx     	lda	|~~basicvars+62+2
  6358 00:2D4A: 85 0F        	sta	<L410+lp2_1+2
  6359                        L10325:
  6360 00:2D4C: D4 0F        	pei	<L410+lp2_1+2
  6361 00:2D4E: D4 0D        	pei	<L410+lp2_1
  6362 00:2D50: D4 1B        	pei	<L410+thenplace_1+2
  6363 00:2D52: D4 19        	pei	<L410+thenplace_1
  6364 00:2D54: 22 xx xx xx  	jsl	~~set_dest
  6365                        L10326:
  6366 00:2D58: A7 0D        	lda	[<L410+lp2_1]
  6367 00:2D5A: 29 FF 00     	and	#$ff
  6368 00:2D5D: D0 03        	bne	L425
  6369 00:2D5F: 82 1C 00     	brl	L10327
  6370                        L425:
  6371 00:2D62: E2 20        	sep	#$20
  6372                        	longa	off
  Sun Jan  9 2022 20:52                                                Page 111


  6373 00:2D64: A7 0D        	lda	[<L410+lp2_1]
  6374 00:2D66: C9 9F        	cmp	#<$9f
  6375 00:2D68: C2 20        	rep	#$20
  6376                        	longa	on
  6377 00:2D6A: D0 03        	bne	L426
  6378 00:2D6C: 82 0F 00     	brl	L10327
  6379                        L426:
  6380 00:2D6F: D4 0F        	pei	<L410+lp2_1+2
  6381 00:2D71: D4 0D        	pei	<L410+lp2_1
  6382 00:2D73: 22 xx xx xx  	jsl	~~skip_token
  6383 00:2D77: 85 0D        	sta	<L410+lp2_1
  6384 00:2D79: 86 0F        	stx	<L410+lp2_1+2
  6385 00:2D7B: 82 DA FF     	brl	L10326
  6386                        L10327:
  6387 00:2D7E: E2 20        	sep	#$20
  6388                        	longa	off
  6389 00:2D80: A7 0D        	lda	[<L410+lp2_1]
  6390 00:2D82: C9 9F        	cmp	#<$9f
  6391 00:2D84: C2 20        	rep	#$20
  6392                        	longa	on
  6393 00:2D86: F0 03        	beq	L427
  6394 00:2D88: 82 0C 00     	brl	L10328
  6395                        L427:
  6396 00:2D8B: 18           	clc
  6397 00:2D8C: A9 03 00     	lda	#$3
  6398 00:2D8F: 65 0D        	adc	<L410+lp2_1
  6399 00:2D91: 85 0D        	sta	<L410+lp2_1
  6400 00:2D93: 90 02        	bcc	L428
  6401 00:2D95: E6 0F        	inc	<L410+lp2_1+2
  6402                        L428:
  6403                        L10328:
  6404 00:2D97: A7 0D        	lda	[<L410+lp2_1]
  6405 00:2D99: 29 FF 00     	and	#$ff
  6406 00:2D9C: F0 03        	beq	L429
  6407 00:2D9E: 82 4A 00     	brl	L10329
  6408                        L429:
  6409 00:2DA1: E6 0D        	inc	<L410+lp2_1
  6410 00:2DA3: D0 02        	bne	L430
  6411 00:2DA5: E6 0F        	inc	<L410+lp2_1+2
  6412                        L430:
  6413 00:2DA7: A0 05 00     	ldy	#$5
  6414 00:2DAA: B7 0D        	lda	[<L410+lp2_1],Y
  6415 00:2DAC: 29 FF 00     	and	#$ff
  6416 00:2DAF: 85 05        	sta	<R1
  6417 00:2DB1: A5 05        	lda	<R1
  6418 00:2DB3: EB           	xba
  6419 00:2DB4: 29 00 FF     	and	#$ff00
  6420 00:2DB7: 85 01        	sta	<R0
  6421 00:2DB9: A0 00 00     	ldy	#$0
  6422 00:2DBC: A5 01        	lda	<R0
  6423 00:2DBE: 10 01        	bpl	L431
  6424 00:2DC0: 88           	dey
  6425                        L431:
  6426 00:2DC1: 85 01        	sta	<R0
  6427 00:2DC3: 84 03        	sty	<R0+2
  6428 00:2DC5: A0 04 00     	ldy	#$4
  6429 00:2DC8: B7 0D        	lda	[<L410+lp2_1],Y
  6430 00:2DCA: 29 FF 00     	and	#$ff
  Sun Jan  9 2022 20:52                                                Page 112


  6431 00:2DCD: 85 05        	sta	<R1
  6432 00:2DCF: 64 07        	stz	<R1+2
  6433 00:2DD1: 18           	clc
  6434 00:2DD2: A5 05        	lda	<R1
  6435 00:2DD4: 65 01        	adc	<R0
  6436 00:2DD6: 85 09        	sta	<R2
  6437 00:2DD8: A5 07        	lda	<R1+2
  6438 00:2DDA: 65 03        	adc	<R0+2
  6439 00:2DDC: 85 0B        	sta	<R2+2
  6440 00:2DDE: 18           	clc
  6441 00:2DDF: A5 0D        	lda	<L410+lp2_1
  6442 00:2DE1: 65 09        	adc	<R2
  6443 00:2DE3: 85 0D        	sta	<L410+lp2_1
  6444 00:2DE5: A5 0F        	lda	<L410+lp2_1+2
  6445 00:2DE7: 65 0B        	adc	<R2+2
  6446 00:2DE9: 85 0F        	sta	<L410+lp2_1+2
  6447                        L10329:
  6448 00:2DEB: D4 0F        	pei	<L410+lp2_1+2
  6449 00:2DED: D4 0D        	pei	<L410+lp2_1
  6450 00:2DEF: D4 1F        	pei	<L410+elseplace_1+2
  6451 00:2DF1: D4 1D        	pei	<L410+elseplace_1
  6452 00:2DF3: 22 xx xx xx  	jsl	~~set_dest
  6453                        L10324:
  6454 00:2DF7: 82 BE 02     	brl	L10330
  6455                        L10320:
  6456             00000017   depth_2	set	23
  6457 00:2DFA: E2 20        	sep	#$20
  6458                        	longa	off
  6459 00:2DFC: A9 B3        	lda	#$b3
  6460 00:2DFE: 87 15        	sta	[<L410+ifplace_1]
  6461 00:2E00: C2 20        	rep	#$20
  6462                        	longa	on
  6463 00:2E02: 18           	clc
  6464 00:2E03: A9 01 00     	lda	#$1
  6465 00:2E06: 65 0D        	adc	<L410+lp2_1
  6466 00:2E08: 8D xx xx     	sta	|~~basicvars+62
  6467 00:2E0B: A9 00 00     	lda	#$0
  6468 00:2E0E: 65 0F        	adc	<L410+lp2_1+2
  6469 00:2E10: 8D xx xx     	sta	|~~basicvars+62+2
  6470 00:2E13: AD xx xx     	lda	|~~basicvars+62
  6471 00:2E16: 85 05        	sta	<R1
  6472 00:2E18: AD xx xx     	lda	|~~basicvars+62+2
  6473 00:2E1B: 85 07        	sta	<R1+2
  6474 00:2E1D: A0 05 00     	ldy	#$5
  6475 00:2E20: B7 05        	lda	[<R1],Y
  6476 00:2E22: 29 FF 00     	and	#$ff
  6477 00:2E25: 85 05        	sta	<R1
  6478 00:2E27: A5 05        	lda	<R1
  6479 00:2E29: EB           	xba
  6480 00:2E2A: 29 00 FF     	and	#$ff00
  6481 00:2E2D: 85 01        	sta	<R0
  6482 00:2E2F: A0 00 00     	ldy	#$0
  6483 00:2E32: A5 01        	lda	<R0
  6484 00:2E34: 10 01        	bpl	L432
  6485 00:2E36: 88           	dey
  6486                        L432:
  6487 00:2E37: 85 01        	sta	<R0
  6488 00:2E39: 84 03        	sty	<R0+2
  Sun Jan  9 2022 20:52                                                Page 113


  6489 00:2E3B: AD xx xx     	lda	|~~basicvars+62
  6490 00:2E3E: 85 05        	sta	<R1
  6491 00:2E40: AD xx xx     	lda	|~~basicvars+62+2
  6492 00:2E43: 85 07        	sta	<R1+2
  6493 00:2E45: A0 04 00     	ldy	#$4
  6494 00:2E48: B7 05        	lda	[<R1],Y
  6495 00:2E4A: 29 FF 00     	and	#$ff
  6496 00:2E4D: 85 05        	sta	<R1
  6497 00:2E4F: 64 07        	stz	<R1+2
  6498 00:2E51: 18           	clc
  6499 00:2E52: A5 05        	lda	<R1
  6500 00:2E54: 65 01        	adc	<R0
  6501 00:2E56: 85 09        	sta	<R2
  6502 00:2E58: A5 07        	lda	<R1+2
  6503 00:2E5A: 65 03        	adc	<R0+2
  6504 00:2E5C: 85 0B        	sta	<R2+2
  6505 00:2E5E: 18           	clc
  6506 00:2E5F: AD xx xx     	lda	|~~basicvars+62
  6507 00:2E62: 65 09        	adc	<R2
  6508 00:2E64: 85 01        	sta	<R0
  6509 00:2E66: AD xx xx     	lda	|~~basicvars+62+2
  6510 00:2E69: 65 0B        	adc	<R2+2
  6511 00:2E6B: 85 03        	sta	<R0+2
  6512 00:2E6D: D4 03        	pei	<R0+2
  6513 00:2E6F: D4 01        	pei	<R0
  6514 00:2E71: D4 1B        	pei	<L410+thenplace_1+2
  6515 00:2E73: D4 19        	pei	<L410+thenplace_1
  6516 00:2E75: 22 xx xx xx  	jsl	~~set_dest
  6517 00:2E79: A9 01 00     	lda	#$1
  6518 00:2E7C: 85 24        	sta	<L410+depth_2
  6519                        L10331:
  6520 00:2E7E: 38           	sec
  6521 00:2E7F: A9 00 00     	lda	#$0
  6522 00:2E82: E5 24        	sbc	<L410+depth_2
  6523 00:2E84: 70 03        	bvs	L433
  6524 00:2E86: 49 00 80     	eor	#$8000
  6525                        L433:
  6526 00:2E89: 10 03        	bpl	L434
  6527 00:2E8B: 82 31 01     	brl	L10332
  6528                        L434:
  6529 00:2E8E: AD xx xx     	lda	|~~basicvars+62
  6530 00:2E91: 85 01        	sta	<R0
  6531 00:2E93: AD xx xx     	lda	|~~basicvars+62+2
  6532 00:2E96: 85 03        	sta	<R0+2
  6533 00:2E98: E2 20        	sep	#$20
  6534                        	longa	off
  6535 00:2E9A: A0 01 00     	ldy	#$1
  6536 00:2E9D: B7 01        	lda	[<R0],Y
  6537 00:2E9F: C9 FF        	cmp	#<$ff
  6538 00:2EA1: C2 20        	rep	#$20
  6539                        	longa	on
  6540 00:2EA3: F0 03        	beq	L435
  6541 00:2EA5: 82 17 00     	brl	L10333
  6542                        L435:
  6543 00:2EA8: A5 21        	lda	<L410+result_1
  6544 00:2EAA: F0 03        	beq	L436
  6545 00:2EAC: 82 0D 00     	brl	L10334
  6546                        L436:
  Sun Jan  9 2022 20:52                                                Page 114


  6547 00:2EAF: F4 2D 00     	pea	#<$2d
  6548 00:2EB2: F4 04 00     	pea	#4
  6549 00:2EB5: 22 xx xx xx  	jsl	~~error
  6550 00:2EB9: 82 03 00     	brl	L10335
  6551                        L10334:
  6552 00:2EBC: 82 00 01     	brl	L10332
  6553                        L10335:
  6554                        L10333:
  6555 00:2EBF: AD xx xx     	lda	|~~basicvars+62
  6556 00:2EC2: 85 05        	sta	<R1
  6557 00:2EC4: AD xx xx     	lda	|~~basicvars+62+2
  6558 00:2EC7: 85 07        	sta	<R1+2
  6559 00:2EC9: A0 05 00     	ldy	#$5
  6560 00:2ECC: B7 05        	lda	[<R1],Y
  6561 00:2ECE: 29 FF 00     	and	#$ff
  6562 00:2ED1: 85 05        	sta	<R1
  6563 00:2ED3: A5 05        	lda	<R1
  6564 00:2ED5: EB           	xba
  6565 00:2ED6: 29 00 FF     	and	#$ff00
  6566 00:2ED9: 85 01        	sta	<R0
  6567 00:2EDB: A0 00 00     	ldy	#$0
  6568 00:2EDE: A5 01        	lda	<R0
  6569 00:2EE0: 10 01        	bpl	L437
  6570 00:2EE2: 88           	dey
  6571                        L437:
  6572 00:2EE3: 85 01        	sta	<R0
  6573 00:2EE5: 84 03        	sty	<R0+2
  6574 00:2EE7: AD xx xx     	lda	|~~basicvars+62
  6575 00:2EEA: 85 05        	sta	<R1
  6576 00:2EEC: AD xx xx     	lda	|~~basicvars+62+2
  6577 00:2EEF: 85 07        	sta	<R1+2
  6578 00:2EF1: A0 04 00     	ldy	#$4
  6579 00:2EF4: B7 05        	lda	[<R1],Y
  6580 00:2EF6: 29 FF 00     	and	#$ff
  6581 00:2EF9: 85 05        	sta	<R1
  6582 00:2EFB: 64 07        	stz	<R1+2
  6583 00:2EFD: 18           	clc
  6584 00:2EFE: A5 05        	lda	<R1
  6585 00:2F00: 65 01        	adc	<R0
  6586 00:2F02: 85 09        	sta	<R2
  6587 00:2F04: A5 07        	lda	<R1+2
  6588 00:2F06: 65 03        	adc	<R0+2
  6589 00:2F08: 85 0B        	sta	<R2+2
  6590 00:2F0A: 18           	clc
  6591 00:2F0B: AD xx xx     	lda	|~~basicvars+62
  6592 00:2F0E: 65 09        	adc	<R2
  6593 00:2F10: 85 0D        	sta	<L410+lp2_1
  6594 00:2F12: AD xx xx     	lda	|~~basicvars+62+2
  6595 00:2F15: 65 0B        	adc	<R2+2
  6596 00:2F17: 85 0F        	sta	<L410+lp2_1+2
  6597 00:2F19: E2 20        	sep	#$20
  6598                        	longa	off
  6599 00:2F1B: A7 0D        	lda	[<L410+lp2_1]
  6600 00:2F1D: C9 A5        	cmp	#<$a5
  6601 00:2F1F: C2 20        	rep	#$20
  6602                        	longa	on
  6603 00:2F21: F0 03        	beq	L438
  6604 00:2F23: 82 05 00     	brl	L10336
  Sun Jan  9 2022 20:52                                                Page 115


  6605                        L438:
  6606 00:2F26: C6 24        	dec	<L410+depth_2
  6607 00:2F28: 82 2E 00     	brl	L10337
  6608                        L10336:
  6609 00:2F2B: E2 20        	sep	#$20
  6610                        	longa	off
  6611 00:2F2D: A7 0D        	lda	[<L410+lp2_1]
  6612 00:2F2F: C9 A1        	cmp	#<$a1
  6613 00:2F31: C2 20        	rep	#$20
  6614                        	longa	on
  6615 00:2F33: F0 03        	beq	L439
  6616 00:2F35: 82 0F 00     	brl	L10338
  6617                        L439:
  6618 00:2F38: A5 24        	lda	<L410+depth_2
  6619 00:2F3A: C9 01 00     	cmp	#<$1
  6620 00:2F3D: F0 03        	beq	L440
  6621 00:2F3F: 82 02 00     	brl	L10339
  6622                        L440:
  6623 00:2F42: 64 24        	stz	<L410+depth_2
  6624                        L10339:
  6625 00:2F44: 82 12 00     	brl	L10340
  6626                        L10338:
  6627 00:2F47: D4 0F        	pei	<L410+lp2_1+2
  6628 00:2F49: D4 0D        	pei	<L410+lp2_1
  6629 00:2F4B: 22 xx xx xx  	jsl	~~start_blockif
  6630 00:2F4F: 29 FF 00     	and	#$ff
  6631 00:2F52: D0 03        	bne	L441
  6632 00:2F54: 82 02 00     	brl	L10341
  6633                        L441:
  6634 00:2F57: E6 24        	inc	<L410+depth_2
  6635                        L10341:
  6636                        L10340:
  6637                        L10337:
  6638 00:2F59: 38           	sec
  6639 00:2F5A: A9 00 00     	lda	#$0
  6640 00:2F5D: E5 24        	sbc	<L410+depth_2
  6641 00:2F5F: 70 03        	bvs	L442
  6642 00:2F61: 49 00 80     	eor	#$8000
  6643                        L442:
  6644 00:2F64: 10 03        	bpl	L443
  6645 00:2F66: 82 53 00     	brl	L10342
  6646                        L443:
  6647 00:2F69: AD xx xx     	lda	|~~basicvars+62
  6648 00:2F6C: 85 01        	sta	<R0
  6649 00:2F6E: AD xx xx     	lda	|~~basicvars+62+2
  6650 00:2F71: 85 03        	sta	<R0+2
  6651 00:2F73: A0 02 00     	ldy	#$2
  6652 00:2F76: B7 01        	lda	[<R0],Y
  6653 00:2F78: 29 FF 00     	and	#$ff
  6654 00:2F7B: 85 01        	sta	<R0
  6655 00:2F7D: AD xx xx     	lda	|~~basicvars+62
  6656 00:2F80: 85 09        	sta	<R2
  6657 00:2F82: AD xx xx     	lda	|~~basicvars+62+2
  6658 00:2F85: 85 0B        	sta	<R2+2
  6659 00:2F87: A0 03 00     	ldy	#$3
  6660 00:2F8A: B7 09        	lda	[<R2],Y
  6661 00:2F8C: 29 FF 00     	and	#$ff
  6662 00:2F8F: 85 09        	sta	<R2
  Sun Jan  9 2022 20:52                                                Page 116


  6663 00:2F91: A5 09        	lda	<R2
  6664 00:2F93: EB           	xba
  6665 00:2F94: 29 00 FF     	and	#$ff00
  6666 00:2F97: 85 05        	sta	<R1
  6667 00:2F99: A5 05        	lda	<R1
  6668 00:2F9B: 05 01        	ora	<R0
  6669 00:2F9D: 85 09        	sta	<R2
  6670 00:2F9F: A0 00 00     	ldy	#$0
  6671 00:2FA2: A5 09        	lda	<R2
  6672 00:2FA4: 10 01        	bpl	L444
  6673 00:2FA6: 88           	dey
  6674                        L444:
  6675 00:2FA7: 85 01        	sta	<R0
  6676 00:2FA9: 84 03        	sty	<R0+2
  6677 00:2FAB: 18           	clc
  6678 00:2FAC: AD xx xx     	lda	|~~basicvars+62
  6679 00:2FAF: 65 01        	adc	<R0
  6680 00:2FB1: 8D xx xx     	sta	|~~basicvars+62
  6681 00:2FB4: AD xx xx     	lda	|~~basicvars+62+2
  6682 00:2FB7: 65 03        	adc	<R0+2
  6683 00:2FB9: 8D xx xx     	sta	|~~basicvars+62+2
  6684                        L10342:
  6685 00:2FBC: 82 BF FE     	brl	L10331
  6686                        L10332:
  6687 00:2FBF: AD xx xx     	lda	|~~basicvars+62
  6688 00:2FC2: 85 01        	sta	<R0
  6689 00:2FC4: AD xx xx     	lda	|~~basicvars+62+2
  6690 00:2FC7: 85 03        	sta	<R0+2
  6691 00:2FC9: E2 20        	sep	#$20
  6692                        	longa	off
  6693 00:2FCB: A0 01 00     	ldy	#$1
  6694 00:2FCE: B7 01        	lda	[<R0],Y
  6695 00:2FD0: C9 FF        	cmp	#<$ff
  6696 00:2FD2: C2 20        	rep	#$20
  6697                        	longa	on
  6698 00:2FD4: F0 03        	beq	L445
  6699 00:2FD6: 82 5D 00     	brl	L10343
  6700                        L445:
  6701 00:2FD9: AD xx xx     	lda	|~~basicvars+62
  6702 00:2FDC: 85 05        	sta	<R1
  6703 00:2FDE: AD xx xx     	lda	|~~basicvars+62+2
  6704 00:2FE1: 85 07        	sta	<R1+2
  6705 00:2FE3: A0 05 00     	ldy	#$5
  6706 00:2FE6: B7 05        	lda	[<R1],Y
  6707 00:2FE8: 29 FF 00     	and	#$ff
  6708 00:2FEB: 85 05        	sta	<R1
  6709 00:2FED: A5 05        	lda	<R1
  6710 00:2FEF: EB           	xba
  6711 00:2FF0: 29 00 FF     	and	#$ff00
  6712 00:2FF3: 85 01        	sta	<R0
  6713 00:2FF5: A0 00 00     	ldy	#$0
  6714 00:2FF8: A5 01        	lda	<R0
  6715 00:2FFA: 10 01        	bpl	L446
  6716 00:2FFC: 88           	dey
  6717                        L446:
  6718 00:2FFD: 85 01        	sta	<R0
  6719 00:2FFF: 84 03        	sty	<R0+2
  6720 00:3001: AD xx xx     	lda	|~~basicvars+62
  Sun Jan  9 2022 20:52                                                Page 117


  6721 00:3004: 85 05        	sta	<R1
  6722 00:3006: AD xx xx     	lda	|~~basicvars+62+2
  6723 00:3009: 85 07        	sta	<R1+2
  6724 00:300B: A0 04 00     	ldy	#$4
  6725 00:300E: B7 05        	lda	[<R1],Y
  6726 00:3010: 29 FF 00     	and	#$ff
  6727 00:3013: 85 05        	sta	<R1
  6728 00:3015: 64 07        	stz	<R1+2
  6729 00:3017: 18           	clc
  6730 00:3018: A5 05        	lda	<R1
  6731 00:301A: 65 01        	adc	<R0
  6732 00:301C: 85 09        	sta	<R2
  6733 00:301E: A5 07        	lda	<R1+2
  6734 00:3020: 65 03        	adc	<R0+2
  6735 00:3022: 85 0B        	sta	<R2+2
  6736 00:3024: 18           	clc
  6737 00:3025: AD xx xx     	lda	|~~basicvars+62
  6738 00:3028: 65 09        	adc	<R2
  6739 00:302A: 85 0D        	sta	<L410+lp2_1
  6740 00:302C: AD xx xx     	lda	|~~basicvars+62+2
  6741 00:302F: 65 0B        	adc	<R2+2
  6742 00:3031: 85 0F        	sta	<L410+lp2_1+2
  6743 00:3033: 82 76 00     	brl	L10344
  6744                        L10343:
  6745 00:3036: E2 20        	sep	#$20
  6746                        	longa	off
  6747 00:3038: A7 0D        	lda	[<L410+lp2_1]
  6748 00:303A: C9 A1        	cmp	#<$a1
  6749 00:303C: C2 20        	rep	#$20
  6750                        	longa	on
  6751 00:303E: F0 03        	beq	L447
  6752 00:3040: 82 0F 00     	brl	L10345
  6753                        L447:
  6754 00:3043: 18           	clc
  6755 00:3044: A9 03 00     	lda	#$3
  6756 00:3047: 65 0D        	adc	<L410+lp2_1
  6757 00:3049: 85 0D        	sta	<L410+lp2_1
  6758 00:304B: 90 02        	bcc	L448
  6759 00:304D: E6 0F        	inc	<L410+lp2_1+2
  6760                        L448:
  6761 00:304F: 82 06 00     	brl	L10346
  6762                        L10345:
  6763 00:3052: E6 0D        	inc	<L410+lp2_1
  6764 00:3054: D0 02        	bne	L449
  6765 00:3056: E6 0F        	inc	<L410+lp2_1+2
  6766                        L449:
  6767                        L10346:
  6768 00:3058: A7 0D        	lda	[<L410+lp2_1]
  6769 00:305A: 29 FF 00     	and	#$ff
  6770 00:305D: F0 03        	beq	L450
  6771 00:305F: 82 4A 00     	brl	L10347
  6772                        L450:
  6773 00:3062: E6 0D        	inc	<L410+lp2_1
  6774 00:3064: D0 02        	bne	L451
  6775 00:3066: E6 0F        	inc	<L410+lp2_1+2
  6776                        L451:
  6777 00:3068: A0 05 00     	ldy	#$5
  6778 00:306B: B7 0D        	lda	[<L410+lp2_1],Y
  Sun Jan  9 2022 20:52                                                Page 118


  6779 00:306D: 29 FF 00     	and	#$ff
  6780 00:3070: 85 05        	sta	<R1
  6781 00:3072: A5 05        	lda	<R1
  6782 00:3074: EB           	xba
  6783 00:3075: 29 00 FF     	and	#$ff00
  6784 00:3078: 85 01        	sta	<R0
  6785 00:307A: A0 00 00     	ldy	#$0
  6786 00:307D: A5 01        	lda	<R0
  6787 00:307F: 10 01        	bpl	L452
  6788 00:3081: 88           	dey
  6789                        L452:
  6790 00:3082: 85 01        	sta	<R0
  6791 00:3084: 84 03        	sty	<R0+2
  6792 00:3086: A0 04 00     	ldy	#$4
  6793 00:3089: B7 0D        	lda	[<L410+lp2_1],Y
  6794 00:308B: 29 FF 00     	and	#$ff
  6795 00:308E: 85 05        	sta	<R1
  6796 00:3090: 64 07        	stz	<R1+2
  6797 00:3092: 18           	clc
  6798 00:3093: A5 05        	lda	<R1
  6799 00:3095: 65 01        	adc	<R0
  6800 00:3097: 85 09        	sta	<R2
  6801 00:3099: A5 07        	lda	<R1+2
  6802 00:309B: 65 03        	adc	<R0+2
  6803 00:309D: 85 0B        	sta	<R2+2
  6804 00:309F: 18           	clc
  6805 00:30A0: A5 0D        	lda	<L410+lp2_1
  6806 00:30A2: 65 09        	adc	<R2
  6807 00:30A4: 85 0D        	sta	<L410+lp2_1
  6808 00:30A6: A5 0F        	lda	<L410+lp2_1+2
  6809 00:30A8: 65 0B        	adc	<R2+2
  6810 00:30AA: 85 0F        	sta	<L410+lp2_1+2
  6811                        L10347:
  6812                        L10344:
  6813 00:30AC: D4 0F        	pei	<L410+lp2_1+2
  6814 00:30AE: D4 0D        	pei	<L410+lp2_1
  6815 00:30B0: D4 1F        	pei	<L410+elseplace_1+2
  6816 00:30B2: D4 1D        	pei	<L410+elseplace_1
  6817 00:30B4: 22 xx xx xx  	jsl	~~set_dest
  6818                        L10330:
  6819 00:30B8: A5 21        	lda	<L410+result_1
  6820 00:30BA: D0 03        	bne	L453
  6821 00:30BC: 82 3B 00     	brl	L10348
  6822                        L453:
  6823 00:30BF: A7 19        	lda	[<L410+thenplace_1]
  6824 00:30C1: 29 FF 00     	and	#$ff
  6825 00:30C4: 85 01        	sta	<R0
  6826 00:30C6: A0 01 00     	ldy	#$1
  6827 00:30C9: B7 19        	lda	[<L410+thenplace_1],Y
  6828 00:30CB: 29 FF 00     	and	#$ff
  6829 00:30CE: 85 09        	sta	<R2
  6830 00:30D0: A5 09        	lda	<R2
  6831 00:30D2: EB           	xba
  6832 00:30D3: 29 00 FF     	and	#$ff00
  6833 00:30D6: 85 05        	sta	<R1
  6834 00:30D8: A5 05        	lda	<R1
  6835 00:30DA: 05 01        	ora	<R0
  6836 00:30DC: 85 09        	sta	<R2
  Sun Jan  9 2022 20:52                                                Page 119


  6837 00:30DE: A0 00 00     	ldy	#$0
  6838 00:30E1: A5 09        	lda	<R2
  6839 00:30E3: 10 01        	bpl	L454
  6840 00:30E5: 88           	dey
  6841                        L454:
  6842 00:30E6: 85 01        	sta	<R0
  6843 00:30E8: 84 03        	sty	<R0+2
  6844 00:30EA: 18           	clc
  6845 00:30EB: A5 19        	lda	<L410+thenplace_1
  6846 00:30ED: 65 01        	adc	<R0
  6847 00:30EF: 85 11        	sta	<L410+dest_1
  6848 00:30F1: A5 1B        	lda	<L410+thenplace_1+2
  6849 00:30F3: 65 03        	adc	<R0+2
  6850 00:30F5: 85 13        	sta	<L410+dest_1+2
  6851 00:30F7: 82 38 00     	brl	L10349
  6852                        L10348:
  6853 00:30FA: A7 1D        	lda	[<L410+elseplace_1]
  6854 00:30FC: 29 FF 00     	and	#$ff
  6855 00:30FF: 85 01        	sta	<R0
  6856 00:3101: A0 01 00     	ldy	#$1
  6857 00:3104: B7 1D        	lda	[<L410+elseplace_1],Y
  6858 00:3106: 29 FF 00     	and	#$ff
  6859 00:3109: 85 09        	sta	<R2
  6860 00:310B: A5 09        	lda	<R2
  6861 00:310D: EB           	xba
  6862 00:310E: 29 00 FF     	and	#$ff00
  6863 00:3111: 85 05        	sta	<R1
  6864 00:3113: A5 05        	lda	<R1
  6865 00:3115: 05 01        	ora	<R0
  6866 00:3117: 85 09        	sta	<R2
  6867 00:3119: A0 00 00     	ldy	#$0
  6868 00:311C: A5 09        	lda	<R2
  6869 00:311E: 10 01        	bpl	L455
  6870 00:3120: 88           	dey
  6871                        L455:
  6872 00:3121: 85 01        	sta	<R0
  6873 00:3123: 84 03        	sty	<R0+2
  6874 00:3125: 18           	clc
  6875 00:3126: A5 1D        	lda	<L410+elseplace_1
  6876 00:3128: 65 01        	adc	<R0
  6877 00:312A: 85 11        	sta	<L410+dest_1
  6878 00:312C: A5 1F        	lda	<L410+elseplace_1+2
  6879 00:312E: 65 03        	adc	<R0+2
  6880 00:3130: 85 13        	sta	<L410+dest_1+2
  6881                        L10349:
  6882 00:3132: A5 23        	lda	<L410+single_1
  6883 00:3134: 29 FF 00     	and	#$ff
  6884 00:3137: D0 03        	bne	L456
  6885 00:3139: 82 94 00     	brl	L10350
  6886                        L456:
  6887 00:313C: E2 20        	sep	#$20
  6888                        	longa	off
  6889 00:313E: A7 11        	lda	[<L410+dest_1]
  6890 00:3140: C9 1E        	cmp	#<$1e
  6891 00:3142: C2 20        	rep	#$20
  6892                        	longa	on
  6893 00:3144: F0 03        	beq	L457
  6894 00:3146: 82 0F 00     	brl	L10351
  Sun Jan  9 2022 20:52                                                Page 120


  6895                        L457:
  6896 00:3149: D4 13        	pei	<L410+dest_1+2
  6897 00:314B: D4 11        	pei	<L410+dest_1
  6898 00:314D: 22 xx xx xx  	jsl	~~set_linedest
  6899 00:3151: 85 11        	sta	<L410+dest_1
  6900 00:3153: 86 13        	stx	<L410+dest_1+2
  6901 00:3155: 82 78 00     	brl	L10352
  6902                        L10351:
  6903 00:3158: E2 20        	sep	#$20
  6904                        	longa	off
  6905 00:315A: A7 11        	lda	[<L410+dest_1]
  6906 00:315C: C9 1F        	cmp	#<$1f
  6907 00:315E: C2 20        	rep	#$20
  6908                        	longa	on
  6909 00:3160: F0 03        	beq	L458
  6910 00:3162: 82 6B 00     	brl	L10353
  6911                        L458:
  6912 00:3165: A0 01 00     	ldy	#$1
  6913 00:3168: B7 11        	lda	[<L410+dest_1],Y
  6914 00:316A: 29 FF 00     	and	#$ff
  6915 00:316D: 85 01        	sta	<R0
  6916 00:316F: A0 02 00     	ldy	#$2
  6917 00:3172: B7 11        	lda	[<L410+dest_1],Y
  6918 00:3174: 29 FF 00     	and	#$ff
  6919 00:3177: 85 09        	sta	<R2
  6920 00:3179: A5 09        	lda	<R2
  6921 00:317B: EB           	xba
  6922 00:317C: 29 00 FF     	and	#$ff00
  6923 00:317F: 85 05        	sta	<R1
  6924 00:3181: A5 05        	lda	<R1
  6925 00:3183: 05 01        	ora	<R0
  6926 00:3185: 85 09        	sta	<R2
  6927 00:3187: A0 03 00     	ldy	#$3
  6928 00:318A: B7 11        	lda	[<L410+dest_1],Y
  6929 00:318C: 29 FF 00     	and	#$ff
  6930 00:318F: A2 10 00     	ldx	#<$10
  6931                        	xref	~~~asl
  6932 00:3192: 22 xx xx xx  	jsl	~~~asl
  6933 00:3196: 85 01        	sta	<R0
  6934 00:3198: A5 01        	lda	<R0
  6935 00:319A: 05 09        	ora	<R2
  6936 00:319C: 85 05        	sta	<R1
  6937 00:319E: A0 04 00     	ldy	#$4
  6938 00:31A1: B7 11        	lda	[<L410+dest_1],Y
  6939 00:31A3: 29 FF 00     	and	#$ff
  6940 00:31A6: A2 18 00     	ldx	#<$18
  6941                        	xref	~~~asl
  6942 00:31A9: 22 xx xx xx  	jsl	~~~asl
  6943 00:31AD: 85 01        	sta	<R0
  6944 00:31AF: A5 01        	lda	<R0
  6945 00:31B1: 05 05        	ora	<R1
  6946 00:31B3: 85 09        	sta	<R2
  6947 00:31B5: A0 00 00     	ldy	#$0
  6948 00:31B8: A5 09        	lda	<R2
  6949 00:31BA: 10 01        	bpl	L459
  6950 00:31BC: 88           	dey
  6951                        L459:
  6952 00:31BD: 85 01        	sta	<R0
  Sun Jan  9 2022 20:52                                                Page 121


  6953 00:31BF: 84 03        	sty	<R0+2
  6954 00:31C1: 18           	clc
  6955 00:31C2: AD xx xx     	lda	|~~basicvars
  6956 00:31C5: 65 01        	adc	<R0
  6957 00:31C7: 85 11        	sta	<L410+dest_1
  6958 00:31C9: AD xx xx     	lda	|~~basicvars+2
  6959 00:31CC: 65 03        	adc	<R0+2
  6960 00:31CE: 85 13        	sta	<L410+dest_1+2
  6961                        L10353:
  6962                        L10352:
  6963                        L10350:
  6964 00:31D0: AD xx xx     	lda	|~~basicvars+425
  6965 00:31D3: 89 02 00     	bit	#$2
  6966 00:31D6: D0 03        	bne	L460
  6967 00:31D8: 82 31 00     	brl	L10354
  6968                        L460:
  6969             00000017   destline_3	set	23
  6970 00:31DB: D4 13        	pei	<L410+dest_1+2
  6971 00:31DD: D4 11        	pei	<L410+dest_1
  6972 00:31DF: 22 xx xx xx  	jsl	~~find_linestart
  6973 00:31E3: 85 01        	sta	<R0
  6974 00:31E5: 86 03        	stx	<R0+2
  6975 00:31E7: DA           	phx
  6976 00:31E8: 48           	pha
  6977 00:31E9: 22 xx xx xx  	jsl	~~get_lineno
  6978 00:31ED: 85 24        	sta	<L410+destline_3
  6979 00:31EF: AD xx xx     	lda	|~~basicvars+62+2
  6980 00:31F2: 48           	pha
  6981 00:31F3: AD xx xx     	lda	|~~basicvars+62
  6982 00:31F6: 48           	pha
  6983 00:31F7: 22 xx xx xx  	jsl	~~get_lineno
  6984 00:31FB: 85 01        	sta	<R0
  6985 00:31FD: A5 01        	lda	<R0
  6986 00:31FF: C5 24        	cmp	<L410+destline_3
  6987 00:3201: D0 03        	bne	L461
  6988 00:3203: 82 06 00     	brl	L10355
  6989                        L461:
  6990 00:3206: D4 24        	pei	<L410+destline_3
  6991 00:3208: 22 xx xx xx  	jsl	~~trace_line
  6992                        L10355:
  6993                        L10354:
  6994 00:320C: AD xx xx     	lda	|~~basicvars+425
  6995 00:320F: 89 10 00     	bit	#$10
  6996 00:3212: D0 03        	bne	L462
  6997 00:3214: 82 0C 00     	brl	L10356
  6998                        L462:
  6999 00:3217: D4 13        	pei	<L410+dest_1+2
  7000 00:3219: D4 11        	pei	<L410+dest_1
  7001 00:321B: D4 17        	pei	<L410+ifplace_1+2
  7002 00:321D: D4 15        	pei	<L410+ifplace_1
  7003 00:321F: 22 xx xx xx  	jsl	~~trace_branch
  7004                        L10356:
  7005 00:3223: A5 11        	lda	<L410+dest_1
  7006 00:3225: 8D xx xx     	sta	|~~basicvars+62
  7007 00:3228: A5 13        	lda	<L410+dest_1+2
  7008 00:322A: 8D xx xx     	sta	|~~basicvars+62+2
  7009                        L463:
  7010 00:322D: 2B           	pld
  Sun Jan  9 2022 20:52                                                Page 122


  7011 00:322E: 3B           	tsc
  7012 00:322F: 18           	clc
  7013 00:3230: 69 25 00     	adc	#L409
  7014 00:3233: 1B           	tcs
  7015 00:3234: 6B           	rtl
  7016             00000025   L409	equ	37
  7017             0000000D   L410	equ	13
  7018                        	ends
  7019                        	efunc
  7020                        	code
  7021                        	xdef	~~exec_library
  7022                        	func
  7023                        ~~exec_library:
  7024                        	longa	on
  7025                        	longi	on
  7026 00:3235: 3B           	tsc
  7027 00:3236: 38           	sec
  7028 00:3237: E9 14 00     	sbc	#L464
  7029 00:323A: 1B           	tcs
  7030 00:323B: 0B           	phd
  7031 00:323C: 5B           	tcd
  7032             00000000   stringtype_1	set	0
  7033             00000002   name_1	set	2
  7034             00000008   libname_1	set	8
  7035 00:323D: EE xx xx     	inc	|~~basicvars+62
  7036 00:3240: D0 03        	bne	L466
  7037 00:3242: EE xx xx     	inc	|~~basicvars+62+2
  7038                        L466:
  7039 00:3245: AD xx xx     	lda	|~~basicvars+62
  7040 00:3248: 85 01        	sta	<R0
  7041 00:324A: AD xx xx     	lda	|~~basicvars+62+2
  7042 00:324D: 85 03        	sta	<R0+2
  7043 00:324F: E2 20        	sep	#$20
  7044                        	longa	off
  7045 00:3251: A7 01        	lda	[<R0]
  7046 00:3253: C9 B9        	cmp	#<$b9
  7047 00:3255: C2 20        	rep	#$20
  7048                        	longa	on
  7049 00:3257: F0 03        	beq	L467
  7050 00:3259: 82 0A 00     	brl	L10357
  7051                        L467:
  7052 00:325C: F4 6C 00     	pea	#<$6c
  7053 00:325F: F4 04 00     	pea	#4
  7054 00:3262: 22 xx xx xx  	jsl	~~error
  7055                        L10357:
  7056                        L10360:
  7057 00:3266: 22 xx xx xx  	jsl	~~expression
  7058 00:326A: AD xx xx     	lda	|~~basicvars+42
  7059 00:326D: 85 01        	sta	<R0
  7060 00:326F: AD xx xx     	lda	|~~basicvars+42+2
  7061 00:3272: 85 03        	sta	<R0+2
  7062 00:3274: A7 01        	lda	[<R0]
  7063 00:3276: 85 09        	sta	<L465+stringtype_1
  7064 00:3278: A5 09        	lda	<L465+stringtype_1
  7065 00:327A: C9 04 00     	cmp	#<$4
  7066 00:327D: D0 03        	bne	L468
  7067 00:327F: 82 14 00     	brl	L10361
  7068                        L468:
  Sun Jan  9 2022 20:52                                                Page 123


  7069 00:3282: A5 09        	lda	<L465+stringtype_1
  7070 00:3284: C9 05 00     	cmp	#<$5
  7071 00:3287: D0 03        	bne	L469
  7072 00:3289: 82 0A 00     	brl	L10361
  7073                        L469:
  7074 00:328C: F4 40 00     	pea	#<$40
  7075 00:328F: F4 04 00     	pea	#4
  7076 00:3292: 22 xx xx xx  	jsl	~~error
  7077                        L10361:
  7078 00:3296: 22 xx xx xx  	jsl	~~pop_string
  7079 00:329A: 85 01        	sta	<R0
  7080 00:329C: 86 03        	stx	<R0+2
  7081 00:329E: D4 03        	pei	<R0+2
  7082 00:32A0: D4 01        	pei	<R0
  7083 00:32A2: 18           	clc
  7084 00:32A3: 7B           	tdc
  7085 00:32A4: 69 0B 00     	adc	#<L465+name_1
  7086 00:32A7: 85 01        	sta	<R0
  7087 00:32A9: A9 00 00     	lda	#$0
  7088 00:32AC: 85 03        	sta	<R0+2
  7089 00:32AE: D4 03        	pei	<R0+2
  7090 00:32B0: D4 01        	pei	<R0
  7091 00:32B2: A9 06 00     	lda	#$6
  7092                        	xref	~~~fmov
  7093 00:32B5: 22 xx xx xx  	jsl	~~~fmov
  7094 00:32B9: 38           	sec
  7095 00:32BA: A9 00 00     	lda	#$0
  7096 00:32BD: E5 0B        	sbc	<L465+name_1
  7097 00:32BF: 70 03        	bvs	L470
  7098 00:32C1: 49 00 80     	eor	#$8000
  7099                        L470:
  7100 00:32C4: 10 03        	bpl	L471
  7101 00:32C6: 82 4D 00     	brl	L10362
  7102                        L471:
  7103 00:32C9: D4 0B        	pei	<L465+name_1
  7104 00:32CB: D4 0F        	pei	<L465+name_1+4
  7105 00:32CD: D4 0D        	pei	<L465+name_1+2
  7106 00:32CF: 22 xx xx xx  	jsl	~~tocstring
  7107 00:32D3: 85 11        	sta	<L465+libname_1
  7108 00:32D5: 86 13        	stx	<L465+libname_1+2
  7109 00:32D7: A5 09        	lda	<L465+stringtype_1
  7110 00:32D9: C9 05 00     	cmp	#<$5
  7111 00:32DC: F0 03        	beq	L472
  7112 00:32DE: 82 2A 00     	brl	L10363
  7113                        L472:
  7114 00:32E1: 38           	sec
  7115 00:32E2: 3B           	tsc
  7116 00:32E3: E9 06 00     	sbc	#6
  7117 00:32E6: 1B           	tcs
  7118 00:32E7: 1A           	ina
  7119 00:32E8: 85 01        	sta	<R0
  7120 00:32EA: 64 03        	stz	<R0+2
  7121 00:32EC: 18           	clc
  7122 00:32ED: 7B           	tdc
  7123 00:32EE: 69 0B 00     	adc	#<L465+name_1
  7124 00:32F1: 85 05        	sta	<R1
  7125 00:32F3: A9 00 00     	lda	#$0
  7126 00:32F6: 85 07        	sta	<R1+2
  Sun Jan  9 2022 20:52                                                Page 124


  7127 00:32F8: D4 07        	pei	<R1+2
  7128 00:32FA: D4 05        	pei	<R1
  7129 00:32FC: D4 03        	pei	<R0+2
  7130 00:32FE: D4 01        	pei	<R0
  7131 00:3300: A9 06 00     	lda	#$6
  7132                        	xref	~~~fmov
  7133 00:3303: 22 xx xx xx  	jsl	~~~fmov
  7134 00:3307: 22 xx xx xx  	jsl	~~free_string
  7135                        L10363:
  7136 00:330B: F4 01 00     	pea	#<$1
  7137 00:330E: D4 13        	pei	<L465+libname_1+2
  7138 00:3310: D4 11        	pei	<L465+libname_1
  7139 00:3312: 22 xx xx xx  	jsl	~~read_library
  7140                        L10362:
  7141 00:3316: AD xx xx     	lda	|~~basicvars+62
  7142 00:3319: 85 01        	sta	<R0
  7143 00:331B: AD xx xx     	lda	|~~basicvars+62+2
  7144 00:331E: 85 03        	sta	<R0+2
  7145 00:3320: E2 20        	sep	#$20
  7146                        	longa	off
  7147 00:3322: A7 01        	lda	[<R0]
  7148 00:3324: C9 2C        	cmp	#<$2c
  7149 00:3326: C2 20        	rep	#$20
  7150                        	longa	on
  7151 00:3328: F0 03        	beq	L473
  7152 00:332A: 82 0B 00     	brl	L10359
  7153                        L473:
  7154 00:332D: EE xx xx     	inc	|~~basicvars+62
  7155 00:3330: D0 03        	bne	L474
  7156 00:3332: EE xx xx     	inc	|~~basicvars+62+2
  7157                        L474:
  7158                        L10358:
  7159 00:3335: 82 2E FF     	brl	L10360
  7160                        L10359:
  7161 00:3338: 22 xx xx xx  	jsl	~~check_ateol
  7162                        L475:
  7163 00:333C: 2B           	pld
  7164 00:333D: 3B           	tsc
  7165 00:333E: 18           	clc
  7166 00:333F: 69 14 00     	adc	#L464
  7167 00:3342: 1B           	tcs
  7168 00:3343: 6B           	rtl
  7169             00000014   L464	equ	20
  7170             00000009   L465	equ	9
  7171                        	ends
  7172                        	efunc
  7173                        	code
  7174                        	func
  7175                        ~~def_locvar:
  7176                        	longa	on
  7177                        	longi	on
  7178 00:3344: 3B           	tsc
  7179 00:3345: 38           	sec
  7180 00:3346: E9 18 00     	sbc	#L476
  7181 00:3349: 1B           	tcs
  7182 00:334A: 0B           	phd
  7183 00:334B: 5B           	tcd
  7184             00000000   descriptor_1	set	0
  Sun Jan  9 2022 20:52                                                Page 125


  7185             00000006   locvar_1	set	6
  7186 00:334C: AD xx xx     	lda	|~~basicvars+399
  7187 00:334F: 0D xx xx     	ora	|~~basicvars+399+2
  7188 00:3352: F0 03        	beq	L478
  7189 00:3354: 82 0A 00     	brl	L10364
  7190                        L478:
  7191 00:3357: F4 57 00     	pea	#<$57
  7192 00:335A: F4 04 00     	pea	#4
  7193 00:335D: 22 xx xx xx  	jsl	~~error
  7194                        L10364:
  7195 00:3361: A9 80 00     	lda	#$80
  7196 00:3364: 0C xx xx     	tsb	~~basicvars+423
  7197                        L10367:
  7198 00:3367: F4 00 00     	pea	#0
  7199 00:336A: 18           	clc
  7200 00:336B: 7B           	tdc
  7201 00:336C: 69 13 00     	adc	#<L477+locvar_1
  7202 00:336F: 48           	pha
  7203 00:3370: 22 xx xx xx  	jsl	~~get_lvalue
  7204 00:3374: A5 13        	lda	<L477+locvar_1
  7205 00:3376: 82 BC 02     	brl	L10368
  7206                        L10370:
  7207 00:3379: A7 15        	lda	[<L477+locvar_1+2]
  7208 00:337B: 48           	pha
  7209 00:337C: 38           	sec
  7210 00:337D: 3B           	tsc
  7211 00:337E: E9 06 00     	sbc	#6
  7212 00:3381: 1B           	tcs
  7213 00:3382: 1A           	ina
  7214 00:3383: 85 01        	sta	<R0
  7215 00:3385: 64 03        	stz	<R0+2
  7216 00:3387: 18           	clc
  7217 00:3388: 7B           	tdc
  7218 00:3389: 69 13 00     	adc	#<L477+locvar_1
  7219 00:338C: 85 05        	sta	<R1
  7220 00:338E: A9 00 00     	lda	#$0
  7221 00:3391: 85 07        	sta	<R1+2
  7222 00:3393: D4 07        	pei	<R1+2
  7223 00:3395: D4 05        	pei	<R1
  7224 00:3397: D4 03        	pei	<R0+2
  7225 00:3399: D4 01        	pei	<R0
  7226 00:339B: A9 06 00     	lda	#$6
  7227                        	xref	~~~fmov
  7228 00:339E: 22 xx xx xx  	jsl	~~~fmov
  7229 00:33A2: 22 xx xx xx  	jsl	~~save_int
  7230 00:33A6: A9 00 00     	lda	#$0
  7231 00:33A9: 87 15        	sta	[<L477+locvar_1+2]
  7232 00:33AB: 82 B9 02     	brl	L10369
  7233                        L10371:
  7234 00:33AE: A0 02 00     	ldy	#$2
  7235 00:33B1: B7 15        	lda	[<L477+locvar_1+2],Y
  7236 00:33B3: 48           	pha
  7237 00:33B4: A7 15        	lda	[<L477+locvar_1+2]
  7238 00:33B6: 48           	pha
  7239 00:33B7: 38           	sec
  7240 00:33B8: 3B           	tsc
  7241 00:33B9: E9 06 00     	sbc	#6
  7242 00:33BC: 1B           	tcs
  Sun Jan  9 2022 20:52                                                Page 126


  7243 00:33BD: 1A           	ina
  7244 00:33BE: 85 01        	sta	<R0
  7245 00:33C0: 64 03        	stz	<R0+2
  7246 00:33C2: 18           	clc
  7247 00:33C3: 7B           	tdc
  7248 00:33C4: 69 13 00     	adc	#<L477+locvar_1
  7249 00:33C7: 85 05        	sta	<R1
  7250 00:33C9: A9 00 00     	lda	#$0
  7251 00:33CC: 85 07        	sta	<R1+2
  7252 00:33CE: D4 07        	pei	<R1+2
  7253 00:33D0: D4 05        	pei	<R1
  7254 00:33D2: D4 03        	pei	<R0+2
  7255 00:33D4: D4 01        	pei	<R0
  7256 00:33D6: A9 06 00     	lda	#$6
  7257                        	xref	~~~fmov
  7258 00:33D9: 22 xx xx xx  	jsl	~~~fmov
  7259 00:33DD: 22 xx xx xx  	jsl	~~save_float
  7260 00:33E1: A9 00 00     	lda	#$0
  7261 00:33E4: 87 15        	sta	[<L477+locvar_1+2]
  7262 00:33E6: A9 00 00     	lda	#$0
  7263 00:33E9: A0 02 00     	ldy	#$2
  7264 00:33EC: 97 15        	sta	[<L477+locvar_1+2],Y
  7265 00:33EE: 82 76 02     	brl	L10369
  7266                        L10372:
  7267 00:33F1: 38           	sec
  7268 00:33F2: 3B           	tsc
  7269 00:33F3: E9 06 00     	sbc	#6
  7270 00:33F6: 1B           	tcs
  7271 00:33F7: 1A           	ina
  7272 00:33F8: 85 01        	sta	<R0
  7273 00:33FA: 64 03        	stz	<R0+2
  7274 00:33FC: D4 17        	pei	<L477+locvar_1+4
  7275 00:33FE: D4 15        	pei	<L477+locvar_1+2
  7276 00:3400: D4 03        	pei	<R0+2
  7277 00:3402: D4 01        	pei	<R0
  7278 00:3404: A9 06 00     	lda	#$6
  7279                        	xref	~~~fmov
  7280 00:3407: 22 xx xx xx  	jsl	~~~fmov
  7281 00:340B: 38           	sec
  7282 00:340C: 3B           	tsc
  7283 00:340D: E9 06 00     	sbc	#6
  7284 00:3410: 1B           	tcs
  7285 00:3411: 1A           	ina
  7286 00:3412: 85 01        	sta	<R0
  7287 00:3414: 64 03        	stz	<R0+2
  7288 00:3416: 18           	clc
  7289 00:3417: 7B           	tdc
  7290 00:3418: 69 13 00     	adc	#<L477+locvar_1
  7291 00:341B: 85 05        	sta	<R1
  7292 00:341D: A9 00 00     	lda	#$0
  7293 00:3420: 85 07        	sta	<R1+2
  7294 00:3422: D4 07        	pei	<R1+2
  7295 00:3424: D4 05        	pei	<R1
  7296 00:3426: D4 03        	pei	<R0+2
  7297 00:3428: D4 01        	pei	<R0
  7298 00:342A: A9 06 00     	lda	#$6
  7299                        	xref	~~~fmov
  7300 00:342D: 22 xx xx xx  	jsl	~~~fmov
  Sun Jan  9 2022 20:52                                                Page 127


  7301 00:3431: 22 xx xx xx  	jsl	~~save_string
  7302 00:3435: A9 00 00     	lda	#$0
  7303 00:3438: 87 15        	sta	[<L477+locvar_1+2]
  7304 00:343A: AD xx xx     	lda	|~~nullstring
  7305 00:343D: A0 02 00     	ldy	#$2
  7306 00:3440: 97 15        	sta	[<L477+locvar_1+2],Y
  7307 00:3442: AD xx xx     	lda	|~~nullstring+2
  7308 00:3445: A0 04 00     	ldy	#$4
  7309 00:3448: 97 15        	sta	[<L477+locvar_1+2],Y
  7310 00:344A: 82 1A 02     	brl	L10369
  7311                        L10373:
  7312 00:344D: F4 01 00     	pea	#<$1
  7313 00:3450: D4 15        	pei	<L477+locvar_1+2
  7314 00:3452: 22 xx xx xx  	jsl	~~check_write
  7315 00:3456: AD xx xx     	lda	|~~basicvars+6
  7316 00:3459: 85 01        	sta	<R0
  7317 00:345B: AD xx xx     	lda	|~~basicvars+6+2
  7318 00:345E: 85 03        	sta	<R0+2
  7319 00:3460: A4 15        	ldy	<L477+locvar_1+2
  7320 00:3462: B7 01        	lda	[<R0],Y
  7321 00:3464: 29 FF 00     	and	#$ff
  7322 00:3467: 48           	pha
  7323 00:3468: 38           	sec
  7324 00:3469: 3B           	tsc
  7325 00:346A: E9 06 00     	sbc	#6
  7326 00:346D: 1B           	tcs
  7327 00:346E: 1A           	ina
  7328 00:346F: 85 01        	sta	<R0
  7329 00:3471: 64 03        	stz	<R0+2
  7330 00:3473: 18           	clc
  7331 00:3474: 7B           	tdc
  7332 00:3475: 69 13 00     	adc	#<L477+locvar_1
  7333 00:3478: 85 05        	sta	<R1
  7334 00:347A: A9 00 00     	lda	#$0
  7335 00:347D: 85 07        	sta	<R1+2
  7336 00:347F: D4 07        	pei	<R1+2
  7337 00:3481: D4 05        	pei	<R1
  7338 00:3483: D4 03        	pei	<R0+2
  7339 00:3485: D4 01        	pei	<R0
  7340 00:3487: A9 06 00     	lda	#$6
  7341                        	xref	~~~fmov
  7342 00:348A: 22 xx xx xx  	jsl	~~~fmov
  7343 00:348E: 22 xx xx xx  	jsl	~~save_int
  7344 00:3492: AD xx xx     	lda	|~~basicvars+6
  7345 00:3495: 85 01        	sta	<R0
  7346 00:3497: AD xx xx     	lda	|~~basicvars+6+2
  7347 00:349A: 85 03        	sta	<R0+2
  7348 00:349C: E2 20        	sep	#$20
  7349                        	longa	off
  7350 00:349E: A9 00        	lda	#$0
  7351 00:34A0: A4 15        	ldy	<L477+locvar_1+2
  7352 00:34A2: 97 01        	sta	[<R0],Y
  7353 00:34A4: C2 20        	rep	#$20
  7354                        	longa	on
  7355 00:34A6: 82 BE 01     	brl	L10369
  7356                        L10374:
  7357 00:34A9: D4 15        	pei	<L477+locvar_1+2
  7358 00:34AB: 22 xx xx xx  	jsl	~~get_integer
  Sun Jan  9 2022 20:52                                                Page 128


  7359 00:34AF: 48           	pha
  7360 00:34B0: 38           	sec
  7361 00:34B1: 3B           	tsc
  7362 00:34B2: E9 06 00     	sbc	#6
  7363 00:34B5: 1B           	tcs
  7364 00:34B6: 1A           	ina
  7365 00:34B7: 85 01        	sta	<R0
  7366 00:34B9: 64 03        	stz	<R0+2
  7367 00:34BB: 18           	clc
  7368 00:34BC: 7B           	tdc
  7369 00:34BD: 69 13 00     	adc	#<L477+locvar_1
  7370 00:34C0: 85 05        	sta	<R1
  7371 00:34C2: A9 00 00     	lda	#$0
  7372 00:34C5: 85 07        	sta	<R1+2
  7373 00:34C7: D4 07        	pei	<R1+2
  7374 00:34C9: D4 05        	pei	<R1
  7375 00:34CB: D4 03        	pei	<R0+2
  7376 00:34CD: D4 01        	pei	<R0
  7377 00:34CF: A9 06 00     	lda	#$6
  7378                        	xref	~~~fmov
  7379 00:34D2: 22 xx xx xx  	jsl	~~~fmov
  7380 00:34D6: 22 xx xx xx  	jsl	~~save_int
  7381 00:34DA: F4 00 00     	pea	#<$0
  7382 00:34DD: D4 15        	pei	<L477+locvar_1+2
  7383 00:34DF: 22 xx xx xx  	jsl	~~store_integer
  7384 00:34E3: 82 81 01     	brl	L10369
  7385                        L10375:
  7386 00:34E6: 5A           	phy
  7387 00:34E7: 5A           	phy
  7388 00:34E8: D4 15        	pei	<L477+locvar_1+2
  7389 00:34EA: 22 xx xx xx  	jsl	~~get_float
  7390 00:34EE: 38           	sec
  7391 00:34EF: 3B           	tsc
  7392 00:34F0: E9 06 00     	sbc	#6
  7393 00:34F3: 1B           	tcs
  7394 00:34F4: 1A           	ina
  7395 00:34F5: 85 01        	sta	<R0
  7396 00:34F7: 64 03        	stz	<R0+2
  7397 00:34F9: 18           	clc
  7398 00:34FA: 7B           	tdc
  7399 00:34FB: 69 13 00     	adc	#<L477+locvar_1
  7400 00:34FE: 85 05        	sta	<R1
  7401 00:3500: A9 00 00     	lda	#$0
  7402 00:3503: 85 07        	sta	<R1+2
  7403 00:3505: D4 07        	pei	<R1+2
  7404 00:3507: D4 05        	pei	<R1
  7405 00:3509: D4 03        	pei	<R0+2
  7406 00:350B: D4 01        	pei	<R0
  7407 00:350D: A9 06 00     	lda	#$6
  7408                        	xref	~~~fmov
  7409 00:3510: 22 xx xx xx  	jsl	~~~fmov
  7410 00:3514: 22 xx xx xx  	jsl	~~save_float
  7411 00:3518: F4 00 00     	pea	#$0000
  7412 00:351B: F4 00 00     	pea	#$0000
  7413 00:351E: D4 15        	pei	<L477+locvar_1+2
  7414 00:3520: 22 xx xx xx  	jsl	~~store_float
  7415 00:3524: 82 40 01     	brl	L10369
  7416                        L10376:
  Sun Jan  9 2022 20:52                                                Page 129


  7417 00:3527: F4 01 00     	pea	#<$1
  7418 00:352A: D4 15        	pei	<L477+locvar_1+2
  7419 00:352C: 22 xx xx xx  	jsl	~~check_write
  7420 00:3530: D4 15        	pei	<L477+locvar_1+2
  7421 00:3532: 22 xx xx xx  	jsl	~~get_stringlen
  7422 00:3536: 85 01        	sta	<R0
  7423 00:3538: A5 01        	lda	<R0
  7424 00:353A: 1A           	ina
  7425 00:353B: 85 0D        	sta	<L477+descriptor_1
  7426 00:353D: D4 0D        	pei	<L477+descriptor_1
  7427 00:353F: 22 xx xx xx  	jsl	~~alloc_string
  7428 00:3543: 85 0F        	sta	<L477+descriptor_1+2
  7429 00:3545: 86 11        	stx	<L477+descriptor_1+4
  7430 00:3547: A0 00 00     	ldy	#$0
  7431 00:354A: A5 0D        	lda	<L477+descriptor_1
  7432 00:354C: 10 01        	bpl	L479
  7433 00:354E: 88           	dey
  7434                        L479:
  7435 00:354F: 85 01        	sta	<R0
  7436 00:3551: 84 03        	sty	<R0+2
  7437 00:3553: D4 03        	pei	<R0+2
  7438 00:3555: D4 01        	pei	<R0
  7439 00:3557: A0 00 00     	ldy	#$0
  7440 00:355A: A5 15        	lda	<L477+locvar_1+2
  7441 00:355C: 10 01        	bpl	L480
  7442 00:355E: 88           	dey
  7443                        L480:
  7444 00:355F: 85 05        	sta	<R1
  7445 00:3561: 84 07        	sty	<R1+2
  7446 00:3563: 18           	clc
  7447 00:3564: AD xx xx     	lda	|~~basicvars+6
  7448 00:3567: 65 05        	adc	<R1
  7449 00:3569: 85 09        	sta	<R2
  7450 00:356B: AD xx xx     	lda	|~~basicvars+6+2
  7451 00:356E: 65 07        	adc	<R1+2
  7452 00:3570: 85 0B        	sta	<R2+2
  7453 00:3572: D4 0B        	pei	<R2+2
  7454 00:3574: D4 09        	pei	<R2
  7455 00:3576: D4 11        	pei	<L477+descriptor_1+4
  7456 00:3578: D4 0F        	pei	<L477+descriptor_1+2
  7457 00:357A: 22 xx xx xx  	jsl	~~memmove
  7458 00:357E: 38           	sec
  7459 00:357F: 3B           	tsc
  7460 00:3580: E9 06 00     	sbc	#6
  7461 00:3583: 1B           	tcs
  7462 00:3584: 1A           	ina
  7463 00:3585: 85 01        	sta	<R0
  7464 00:3587: 64 03        	stz	<R0+2
  7465 00:3589: 18           	clc
  7466 00:358A: 7B           	tdc
  7467 00:358B: 69 0D 00     	adc	#<L477+descriptor_1
  7468 00:358E: 85 05        	sta	<R1
  7469 00:3590: A9 00 00     	lda	#$0
  7470 00:3593: 85 07        	sta	<R1+2
  7471 00:3595: D4 07        	pei	<R1+2
  7472 00:3597: D4 05        	pei	<R1
  7473 00:3599: D4 03        	pei	<R0+2
  7474 00:359B: D4 01        	pei	<R0
  Sun Jan  9 2022 20:52                                                Page 130


  7475 00:359D: A9 06 00     	lda	#$6
  7476                        	xref	~~~fmov
  7477 00:35A0: 22 xx xx xx  	jsl	~~~fmov
  7478 00:35A4: 38           	sec
  7479 00:35A5: 3B           	tsc
  7480 00:35A6: E9 06 00     	sbc	#6
  7481 00:35A9: 1B           	tcs
  7482 00:35AA: 1A           	ina
  7483 00:35AB: 85 01        	sta	<R0
  7484 00:35AD: 64 03        	stz	<R0+2
  7485 00:35AF: 18           	clc
  7486 00:35B0: 7B           	tdc
  7487 00:35B1: 69 13 00     	adc	#<L477+locvar_1
  7488 00:35B4: 85 05        	sta	<R1
  7489 00:35B6: A9 00 00     	lda	#$0
  7490 00:35B9: 85 07        	sta	<R1+2
  7491 00:35BB: D4 07        	pei	<R1+2
  7492 00:35BD: D4 05        	pei	<R1
  7493 00:35BF: D4 03        	pei	<R0+2
  7494 00:35C1: D4 01        	pei	<R0
  7495 00:35C3: A9 06 00     	lda	#$6
  7496                        	xref	~~~fmov
  7497 00:35C6: 22 xx xx xx  	jsl	~~~fmov
  7498 00:35CA: 22 xx xx xx  	jsl	~~save_string
  7499 00:35CE: AD xx xx     	lda	|~~basicvars+6
  7500 00:35D1: 85 01        	sta	<R0
  7501 00:35D3: AD xx xx     	lda	|~~basicvars+6+2
  7502 00:35D6: 85 03        	sta	<R0+2
  7503 00:35D8: E2 20        	sep	#$20
  7504                        	longa	off
  7505 00:35DA: A9 0D        	lda	#$d
  7506 00:35DC: A4 15        	ldy	<L477+locvar_1+2
  7507 00:35DE: 97 01        	sta	[<R0],Y
  7508 00:35E0: C2 20        	rep	#$20
  7509                        	longa	on
  7510 00:35E2: 82 82 00     	brl	L10369
  7511                        L10377:
  7512                        L10378:
  7513                        L10379:
  7514 00:35E5: 38           	sec
  7515 00:35E6: 3B           	tsc
  7516 00:35E7: E9 06 00     	sbc	#6
  7517 00:35EA: 1B           	tcs
  7518 00:35EB: 1A           	ina
  7519 00:35EC: 85 01        	sta	<R0
  7520 00:35EE: 64 03        	stz	<R0+2
  7521 00:35F0: 18           	clc
  7522 00:35F1: 7B           	tdc
  7523 00:35F2: 69 13 00     	adc	#<L477+locvar_1
  7524 00:35F5: 85 05        	sta	<R1
  7525 00:35F7: A9 00 00     	lda	#$0
  7526 00:35FA: 85 07        	sta	<R1+2
  7527 00:35FC: D4 07        	pei	<R1+2
  7528 00:35FE: D4 05        	pei	<R1
  7529 00:3600: D4 03        	pei	<R0+2
  7530 00:3602: D4 01        	pei	<R0
  7531 00:3604: A9 06 00     	lda	#$6
  7532                        	xref	~~~fmov
  Sun Jan  9 2022 20:52                                                Page 131


  7533 00:3607: 22 xx xx xx  	jsl	~~~fmov
  7534 00:360B: 22 xx xx xx  	jsl	~~save_array
  7535 00:360F: A9 00 00     	lda	#$0
  7536 00:3612: 87 15        	sta	[<L477+locvar_1+2]
  7537 00:3614: A9 00 00     	lda	#$0
  7538 00:3617: A0 02 00     	ldy	#$2
  7539 00:361A: 97 15        	sta	[<L477+locvar_1+2],Y
  7540 00:361C: 82 48 00     	brl	L10369
  7541                        L10380:
  7542 00:361F: F4 xx xx     	pea	#^L336
  7543 00:3622: F4 xx xx     	pea	#<L336
  7544 00:3625: F4 F7 04     	pea	#<$4f7
  7545 00:3628: F4 82 00     	pea	#<$82
  7546 00:362B: F4 0A 00     	pea	#10
  7547 00:362E: 22 xx xx xx  	jsl	~~error
  7548 00:3632: 82 32 00     	brl	L10369
  7549                        L10368:
  7550                        	xref	~~~fsw
  7551 00:3635: 22 xx xx xx  	jsl	~~~fsw
  7552 00:3639: 02 00        	dw	2
  7553 00:363B: 14 00        	dw	20
  7554 00:363D: xx xx        	dw	L10380-1
  7555 00:363F: xx xx        	dw	L10370-1
  7556 00:3641: xx xx        	dw	L10371-1
  7557 00:3643: xx xx        	dw	L10372-1
  7558 00:3645: xx xx        	dw	L10380-1
  7559 00:3647: xx xx        	dw	L10380-1
  7560 00:3649: xx xx        	dw	L10380-1
  7561 00:364B: xx xx        	dw	L10380-1
  7562 00:364D: xx xx        	dw	L10380-1
  7563 00:364F: xx xx        	dw	L10377-1
  7564 00:3651: xx xx        	dw	L10378-1
  7565 00:3653: xx xx        	dw	L10379-1
  7566 00:3655: xx xx        	dw	L10380-1
  7567 00:3657: xx xx        	dw	L10380-1
  7568 00:3659: xx xx        	dw	L10380-1
  7569 00:365B: xx xx        	dw	L10380-1
  7570 00:365D: xx xx        	dw	L10373-1
  7571 00:365F: xx xx        	dw	L10374-1
  7572 00:3661: xx xx        	dw	L10375-1
  7573 00:3663: xx xx        	dw	L10380-1
  7574 00:3665: xx xx        	dw	L10376-1
  7575                        L10369:
  7576 00:3667: AD xx xx     	lda	|~~basicvars+62
  7577 00:366A: 85 01        	sta	<R0
  7578 00:366C: AD xx xx     	lda	|~~basicvars+62+2
  7579 00:366F: 85 03        	sta	<R0+2
  7580 00:3671: E2 20        	sep	#$20
  7581                        	longa	off
  7582 00:3673: A7 01        	lda	[<R0]
  7583 00:3675: C9 2C        	cmp	#<$2c
  7584 00:3677: C2 20        	rep	#$20
  7585                        	longa	on
  7586 00:3679: F0 03        	beq	L481
  7587 00:367B: 82 0B 00     	brl	L10366
  7588                        L481:
  7589 00:367E: EE xx xx     	inc	|~~basicvars+62
  7590 00:3681: D0 03        	bne	L482
  Sun Jan  9 2022 20:52                                                Page 132


  7591 00:3683: EE xx xx     	inc	|~~basicvars+62+2
  7592                        L482:
  7593                        L10365:
  7594 00:3686: 82 DE FC     	brl	L10367
  7595                        L10366:
  7596 00:3689: A9 80 00     	lda	#$80
  7597 00:368C: 1C xx xx     	trb	~~basicvars+423
  7598 00:368F: 22 xx xx xx  	jsl	~~check_ateol
  7599                        L483:
  7600 00:3693: 2B           	pld
  7601 00:3694: 3B           	tsc
  7602 00:3695: 18           	clc
  7603 00:3696: 69 18 00     	adc	#L476
  7604 00:3699: 1B           	tcs
  7605 00:369A: 6B           	rtl
  7606             00000018   L476	equ	24
  7607             0000000D   L477	equ	13
  7608                        	ends
  7609                        	efunc
  7610                        	data
  7611                        L336:
  7612 00:000A: 6D 61 69 6E  	db	$6D,$61,$69,$6E,$73,$74,$61,$74,$65,$00
       00:000E: 73 74 61 74 
       00:0012: 65 00 
  7613 00:0014:              	ends
  7614                        	code
  7615                        	xdef	~~exec_local
  7616                        	func
  7617                        ~~exec_local:
  7618                        	longa	on
  7619                        	longi	on
  7620 00:369B: 3B           	tsc
  7621 00:369C: 38           	sec
  7622 00:369D: E9 04 00     	sbc	#L485
  7623 00:36A0: 1B           	tcs
  7624 00:36A1: 0B           	phd
  7625 00:36A2: 5B           	tcd
  7626 00:36A3: EE xx xx     	inc	|~~basicvars+62
  7627 00:36A6: D0 03        	bne	L487
  7628 00:36A8: EE xx xx     	inc	|~~basicvars+62+2
  7629                        L487:
  7630 00:36AB: AD xx xx     	lda	|~~basicvars+62
  7631 00:36AE: 85 01        	sta	<R0
  7632 00:36B0: AD xx xx     	lda	|~~basicvars+62+2
  7633 00:36B3: 85 03        	sta	<R0+2
  7634 00:36B5: A7 01        	lda	[<R0]
  7635 00:36B7: 29 FF 00     	and	#$ff
  7636 00:36BA: 82 62 00     	brl	L10381
  7637                        L10383:
  7638 00:36BD: AD xx xx     	lda	|~~basicvars+62+2
  7639 00:36C0: 48           	pha
  7640 00:36C1: AD xx xx     	lda	|~~basicvars+62
  7641 00:36C4: 48           	pha
  7642 00:36C5: 22 xx xx xx  	jsl	~~skip_token
  7643 00:36C9: 8D xx xx     	sta	|~~basicvars+62
  7644 00:36CC: 8E xx xx     	stx	|~~basicvars+62+2
  7645 00:36CF: 22 xx xx xx  	jsl	~~check_ateol
  7646 00:36D3: 38           	sec
  Sun Jan  9 2022 20:52                                                Page 133


  7647 00:36D4: 3B           	tsc
  7648 00:36D5: E9 09 00     	sbc	#9
  7649 00:36D8: 1B           	tcs
  7650 00:36D9: 1A           	ina
  7651 00:36DA: 85 01        	sta	<R0
  7652 00:36DC: 64 03        	stz	<R0+2
  7653 00:36DE: F4 xx xx     	pea	#<~~basicvars+232
  7654 00:36E1: D4 03        	pei	<R0+2
  7655 00:36E3: D4 01        	pei	<R0
  7656 00:36E5: A9 09 00     	lda	#$9
  7657                        	xref	~~~nfmov
  7658 00:36E8: 22 xx xx xx  	jsl	~~~nfmov
  7659 00:36EC: 22 xx xx xx  	jsl	~~push_error
  7660 00:36F0: 82 3C 00     	brl	L10382
  7661                        L10384:
  7662 00:36F3: AD xx xx     	lda	|~~basicvars+62+2
  7663 00:36F6: 48           	pha
  7664 00:36F7: AD xx xx     	lda	|~~basicvars+62
  7665 00:36FA: 48           	pha
  7666 00:36FB: 22 xx xx xx  	jsl	~~skip_token
  7667 00:36FF: 8D xx xx     	sta	|~~basicvars+62
  7668 00:3702: 8E xx xx     	stx	|~~basicvars+62+2
  7669 00:3705: 22 xx xx xx  	jsl	~~check_ateol
  7670 00:3709: AD xx xx     	lda	|~~basicvars+407+2
  7671 00:370C: 48           	pha
  7672 00:370D: AD xx xx     	lda	|~~basicvars+407
  7673 00:3710: 48           	pha
  7674 00:3711: 22 xx xx xx  	jsl	~~push_data
  7675 00:3715: 82 17 00     	brl	L10382
  7676                        L10385:
  7677 00:3718: 22 xx xx xx  	jsl	~~def_locvar
  7678 00:371C: 82 10 00     	brl	L10382
  7679                        L10381:
  7680                        	xref	~~~swt
  7681 00:371F: 22 xx xx xx  	jsl	~~~swt
  7682 00:3723: 02 00        	dw	2
  7683 00:3725: 99 00        	dw	153
  7684 00:3727: xx xx        	dw	L10384-1
  7685 00:3729: A9 00        	dw	169
  7686 00:372B: xx xx        	dw	L10383-1
  7687 00:372D: xx xx        	dw	L10385-1
  7688                        L10382:
  7689                        L488:
  7690 00:372F: 2B           	pld
  7691 00:3730: 3B           	tsc
  7692 00:3731: 18           	clc
  7693 00:3732: 69 04 00     	adc	#L485
  7694 00:3735: 1B           	tcs
  7695 00:3736: 6B           	rtl
  7696             00000004   L485	equ	4
  7697             00000005   L486	equ	5
  7698                        	ends
  7699                        	efunc
  7700                        	code
  7701                        	xdef	~~exec_next
  7702                        	func
  7703                        ~~exec_next:
  7704                        	longa	on
  Sun Jan  9 2022 20:52                                                Page 134


  7705                        	longi	on
  7706 00:3737: 3B           	tsc
  7707 00:3738: 38           	sec
  7708 00:3739: E9 15 00     	sbc	#L489
  7709 00:373C: 1B           	tcs
  7710 00:373D: 0B           	phd
  7711 00:373E: 5B           	tcd
  7712                        	udata
  7713                        L10386:
  7714 00:0010:              	ds	4
  7715 00:0014:              	ends
  7716             00000000   fp_1	set	0
  7717             00000004   nextvar_1	set	4
  7718             0000000A   contloop_1	set	10
  7719             0000000B   intvalue_1	set	11
  7720 00:373F: AD xx xx     	lda	|~~basicvars+489
  7721 00:3742: 29 FF 00     	and	#$ff
  7722 00:3745: D0 03        	bne	L491
  7723 00:3747: 82 0A 00     	brl	L10387
  7724                        L491:
  7725 00:374A: F4 08 00     	pea	#<$8
  7726 00:374D: F4 04 00     	pea	#4
  7727 00:3750: 22 xx xx xx  	jsl	~~error
  7728                        L10387:
  7729                        L10390:
  7730 00:3754: AD xx xx     	lda	|~~basicvars+42
  7731 00:3757: 85 01        	sta	<R0
  7732 00:3759: AD xx xx     	lda	|~~basicvars+42+2
  7733 00:375C: 85 03        	sta	<R0+2
  7734 00:375E: A7 01        	lda	[<R0]
  7735 00:3760: C9 15 00     	cmp	#<$15
  7736 00:3763: D0 03        	bne	L493
  7737 00:3765: 82 14 00     	brl	L492
  7738                        L493:
  7739 00:3768: AD xx xx     	lda	|~~basicvars+42
  7740 00:376B: 85 01        	sta	<R0
  7741 00:376D: AD xx xx     	lda	|~~basicvars+42+2
  7742 00:3770: 85 03        	sta	<R0+2
  7743 00:3772: A7 01        	lda	[<R0]
  7744 00:3774: C9 16 00     	cmp	#<$16
  7745 00:3777: F0 03        	beq	L494
  7746 00:3779: 82 0D 00     	brl	L10391
  7747                        L494:
  7748                        L492:
  7749 00:377C: AD xx xx     	lda	|~~basicvars+42
  7750 00:377F: 85 09        	sta	<L490+fp_1
  7751 00:3781: AD xx xx     	lda	|~~basicvars+42+2
  7752 00:3784: 85 0B        	sta	<L490+fp_1+2
  7753 00:3786: 82 08 00     	brl	L10392
  7754                        L10391:
  7755 00:3789: 22 xx xx xx  	jsl	~~get_for
  7756 00:378D: 85 09        	sta	<L490+fp_1
  7757 00:378F: 86 0B        	stx	<L490+fp_1+2
  7758                        L10392:
  7759 00:3791: A5 09        	lda	<L490+fp_1
  7760 00:3793: 05 0B        	ora	<L490+fp_1+2
  7761 00:3795: F0 03        	beq	L495
  7762 00:3797: 82 0A 00     	brl	L10393
  Sun Jan  9 2022 20:52                                                Page 135


  7763                        L495:
  7764 00:379A: F4 35 00     	pea	#<$35
  7765 00:379D: F4 04 00     	pea	#4
  7766 00:37A0: 22 xx xx xx  	jsl	~~error
  7767                        L10393:
  7768 00:37A4: EE xx xx     	inc	|~~basicvars+62
  7769 00:37A7: D0 03        	bne	L496
  7770 00:37A9: EE xx xx     	inc	|~~basicvars+62+2
  7771                        L496:
  7772 00:37AC: AD xx xx     	lda	|~~basicvars+62
  7773 00:37AF: 85 01        	sta	<R0
  7774 00:37B1: AD xx xx     	lda	|~~basicvars+62+2
  7775 00:37B4: 85 03        	sta	<R0+2
  7776 00:37B6: A7 01        	lda	[<R0]
  7777 00:37B8: 29 FF 00     	and	#$ff
  7778 00:37BB: 85 01        	sta	<R0
  7779 00:37BD: A6 01        	ldx	<R0
  7780 00:37BF: BD xx xx     	lda	|~~ateol,X
  7781 00:37C2: 29 FF 00     	and	#$ff
  7782 00:37C5: F0 03        	beq	L497
  7783 00:37C7: 82 43 00     	brl	L10394
  7784                        L497:
  7785 00:37CA: AD xx xx     	lda	|~~basicvars+62
  7786 00:37CD: 85 01        	sta	<R0
  7787 00:37CF: AD xx xx     	lda	|~~basicvars+62+2
  7788 00:37D2: 85 03        	sta	<R0+2
  7789 00:37D4: E2 20        	sep	#$20
  7790                        	longa	off
  7791 00:37D6: A7 01        	lda	[<R0]
  7792 00:37D8: C9 2C        	cmp	#<$2c
  7793 00:37DA: C2 20        	rep	#$20
  7794                        	longa	on
  7795 00:37DC: D0 03        	bne	L498
  7796 00:37DE: 82 2C 00     	brl	L10395
  7797                        L498:
  7798 00:37E1: F4 00 00     	pea	#0
  7799 00:37E4: 18           	clc
  7800 00:37E5: 7B           	tdc
  7801 00:37E6: 69 0D 00     	adc	#<L490+nextvar_1
  7802 00:37E9: 48           	pha
  7803 00:37EA: 22 xx xx xx  	jsl	~~get_lvalue
  7804 00:37EE: A5 0F        	lda	<L490+nextvar_1+2
  7805 00:37F0: A0 05 00     	ldy	#$5
  7806 00:37F3: D7 09        	cmp	[<L490+fp_1],Y
  7807 00:37F5: D0 07        	bne	L499
  7808 00:37F7: A5 11        	lda	<L490+nextvar_1+4
  7809 00:37F9: A0 07 00     	ldy	#$7
  7810 00:37FC: D7 09        	cmp	[<L490+fp_1],Y
  7811                        L499:
  7812 00:37FE: D0 03        	bne	L500
  7813 00:3800: 82 0A 00     	brl	L10396
  7814                        L500:
  7815 00:3803: F4 36 00     	pea	#<$36
  7816 00:3806: F4 04 00     	pea	#4
  7817 00:3809: 22 xx xx xx  	jsl	~~error
  7818                        L10396:
  7819                        L10395:
  7820                        L10394:
  Sun Jan  9 2022 20:52                                                Page 136


  7821 00:380D: A0 02 00     	ldy	#$2
  7822 00:3810: B7 09        	lda	[<L490+fp_1],Y
  7823 00:3812: 29 FF 00     	and	#$ff
  7824 00:3815: D0 03        	bne	L501
  7825 00:3817: 82 6D 00     	brl	L10397
  7826                        L501:
  7827 00:381A: A0 05 00     	ldy	#$5
  7828 00:381D: B7 09        	lda	[<L490+fp_1],Y
  7829 00:381F: 85 01        	sta	<R0
  7830 00:3821: A0 07 00     	ldy	#$7
  7831 00:3824: B7 09        	lda	[<L490+fp_1],Y
  7832 00:3826: 85 03        	sta	<R0+2
  7833 00:3828: A7 01        	lda	[<R0]
  7834 00:382A: 1A           	ina
  7835 00:382B: 87 01        	sta	[<R0]
  7836 00:382D: A7 01        	lda	[<R0]
  7837 00:382F: 85 14        	sta	<L490+intvalue_1
  7838 00:3831: 38           	sec
  7839 00:3832: A0 0D 00     	ldy	#$d
  7840 00:3835: B7 09        	lda	[<L490+fp_1],Y
  7841 00:3837: E5 14        	sbc	<L490+intvalue_1
  7842 00:3839: 70 03        	bvs	L502
  7843 00:383B: 49 00 80     	eor	#$8000
  7844                        L502:
  7845 00:383E: 30 03        	bmi	L503
  7846 00:3840: 82 3B 00     	brl	L10398
  7847                        L503:
  7848 00:3843: AD xx xx     	lda	|~~basicvars+425
  7849 00:3846: 89 10 00     	bit	#$10
  7850 00:3849: D0 03        	bne	L504
  7851 00:384B: 82 18 00     	brl	L10399
  7852                        L504:
  7853 00:384E: A0 0B 00     	ldy	#$b
  7854 00:3851: B7 09        	lda	[<L490+fp_1],Y
  7855 00:3853: 48           	pha
  7856 00:3854: A0 09 00     	ldy	#$9
  7857 00:3857: B7 09        	lda	[<L490+fp_1],Y
  7858 00:3859: 48           	pha
  7859 00:385A: AD xx xx     	lda	|~~basicvars+62+2
  7860 00:385D: 48           	pha
  7861 00:385E: AD xx xx     	lda	|~~basicvars+62
  7862 00:3861: 48           	pha
  7863 00:3862: 22 xx xx xx  	jsl	~~trace_branch
  7864                        L10399:
  7865 00:3866: A0 09 00     	ldy	#$9
  7866 00:3869: B7 09        	lda	[<L490+fp_1],Y
  7867 00:386B: 8D xx xx     	sta	|~~basicvars+62
  7868 00:386E: A0 0B 00     	ldy	#$b
  7869 00:3871: B7 09        	lda	[<L490+fp_1],Y
  7870 00:3873: 8D xx xx     	sta	|~~basicvars+62+2
  7871                        L505:
  7872 00:3876: 2B           	pld
  7873 00:3877: 3B           	tsc
  7874 00:3878: 18           	clc
  7875 00:3879: 69 15 00     	adc	#L489
  7876 00:387C: 1B           	tcs
  7877 00:387D: 6B           	rtl
  7878                        L10398:
  Sun Jan  9 2022 20:52                                                Page 137


  7879 00:387E: E2 20        	sep	#$20
  7880                        	longa	off
  7881 00:3880: 64 13        	stz	<L490+contloop_1
  7882 00:3882: C2 20        	rep	#$20
  7883                        	longa	on
  7884 00:3884: 82 2A 03     	brl	L10400
  7885                        L10397:
  7886 00:3887: A0 03 00     	ldy	#$3
  7887 00:388A: B7 09        	lda	[<L490+fp_1],Y
  7888 00:388C: 82 06 03     	brl	L10401
  7889                        L10403:
  7890 00:388F: A0 05 00     	ldy	#$5
  7891 00:3892: B7 09        	lda	[<L490+fp_1],Y
  7892 00:3894: 85 01        	sta	<R0
  7893 00:3896: A0 07 00     	ldy	#$7
  7894 00:3899: B7 09        	lda	[<L490+fp_1],Y
  7895 00:389B: 85 03        	sta	<R0+2
  7896 00:389D: 18           	clc
  7897 00:389E: A7 01        	lda	[<R0]
  7898 00:38A0: A0 0F 00     	ldy	#$f
  7899 00:38A3: 77 09        	adc	[<L490+fp_1],Y
  7900 00:38A5: 85 14        	sta	<L490+intvalue_1
  7901 00:38A7: A0 05 00     	ldy	#$5
  7902 00:38AA: B7 09        	lda	[<L490+fp_1],Y
  7903 00:38AC: 85 01        	sta	<R0
  7904 00:38AE: A0 07 00     	ldy	#$7
  7905 00:38B1: B7 09        	lda	[<L490+fp_1],Y
  7906 00:38B3: 85 03        	sta	<R0+2
  7907 00:38B5: A5 14        	lda	<L490+intvalue_1
  7908 00:38B7: 87 01        	sta	[<R0]
  7909 00:38B9: 38           	sec
  7910 00:38BA: A9 00 00     	lda	#$0
  7911 00:38BD: A0 0F 00     	ldy	#$f
  7912 00:38C0: F7 09        	sbc	[<L490+fp_1],Y
  7913 00:38C2: 70 03        	bvs	L506
  7914 00:38C4: 49 00 80     	eor	#$8000
  7915                        L506:
  7916 00:38C7: 10 03        	bpl	L507
  7917 00:38C9: 82 21 00     	brl	L10404
  7918                        L507:
  7919 00:38CC: 64 01        	stz	<R0
  7920 00:38CE: 38           	sec
  7921 00:38CF: A0 0D 00     	ldy	#$d
  7922 00:38D2: B7 09        	lda	[<L490+fp_1],Y
  7923 00:38D4: E5 14        	sbc	<L490+intvalue_1
  7924 00:38D6: 70 03        	bvs	L509
  7925 00:38D8: 49 00 80     	eor	#$8000
  7926                        L509:
  7927 00:38DB: 30 03        	bmi	L510
  7928 00:38DD: 82 02 00     	brl	L508
  7929                        L510:
  7930 00:38E0: E6 01        	inc	<R0
  7931                        L508:
  7932 00:38E2: E2 20        	sep	#$20
  7933                        	longa	off
  7934 00:38E4: A5 01        	lda	<R0
  7935 00:38E6: 85 13        	sta	<L490+contloop_1
  7936 00:38E8: C2 20        	rep	#$20
  Sun Jan  9 2022 20:52                                                Page 138


  7937                        	longa	on
  7938 00:38EA: 82 1E 00     	brl	L10405
  7939                        L10404:
  7940 00:38ED: 64 01        	stz	<R0
  7941 00:38EF: 38           	sec
  7942 00:38F0: A5 14        	lda	<L490+intvalue_1
  7943 00:38F2: A0 0D 00     	ldy	#$d
  7944 00:38F5: F7 09        	sbc	[<L490+fp_1],Y
  7945 00:38F7: 70 03        	bvs	L512
  7946 00:38F9: 49 00 80     	eor	#$8000
  7947                        L512:
  7948 00:38FC: 30 03        	bmi	L513
  7949 00:38FE: 82 02 00     	brl	L511
  7950                        L513:
  7951 00:3901: E6 01        	inc	<R0
  7952                        L511:
  7953 00:3903: E2 20        	sep	#$20
  7954                        	longa	off
  7955 00:3905: A5 01        	lda	<R0
  7956 00:3907: 85 13        	sta	<L490+contloop_1
  7957 00:3909: C2 20        	rep	#$20
  7958                        	longa	on
  7959                        L10405:
  7960 00:390B: 82 A3 02     	brl	L10402
  7961                        L10406:
  7962 00:390E: A0 13 00     	ldy	#$13
  7963 00:3911: B7 09        	lda	[<L490+fp_1],Y
  7964 00:3913: 48           	pha
  7965 00:3914: A0 11 00     	ldy	#$11
  7966 00:3917: B7 09        	lda	[<L490+fp_1],Y
  7967 00:3919: 48           	pha
  7968 00:391A: A0 05 00     	ldy	#$5
  7969 00:391D: B7 09        	lda	[<L490+fp_1],Y
  7970 00:391F: 85 01        	sta	<R0
  7971 00:3921: A0 07 00     	ldy	#$7
  7972 00:3924: B7 09        	lda	[<L490+fp_1],Y
  7973 00:3926: 85 03        	sta	<R0+2
  7974 00:3928: A0 02 00     	ldy	#$2
  7975 00:392B: B7 01        	lda	[<R0],Y
  7976 00:392D: 48           	pha
  7977 00:392E: A7 01        	lda	[<R0]
  7978 00:3930: 48           	pha
  7979                        	xref	~~~fadc
  7980 00:3931: 22 xx xx xx  	jsl	~~~fadc
  7981 00:3935: 68           	pla
  7982 00:3936: 8D xx xx     	sta	|L10386
  7983 00:3939: 68           	pla
  7984 00:393A: 8D xx xx     	sta	|L10386+2
  7985 00:393D: A0 05 00     	ldy	#$5
  7986 00:3940: B7 09        	lda	[<L490+fp_1],Y
  7987 00:3942: 85 01        	sta	<R0
  7988 00:3944: A0 07 00     	ldy	#$7
  7989 00:3947: B7 09        	lda	[<L490+fp_1],Y
  7990 00:3949: 85 03        	sta	<R0+2
  7991 00:394B: AD xx xx     	lda	|L10386
  7992 00:394E: 87 01        	sta	[<R0]
  7993 00:3950: AD xx xx     	lda	|L10386+2
  7994 00:3953: A0 02 00     	ldy	#$2
  Sun Jan  9 2022 20:52                                                Page 139


  7995 00:3956: 97 01        	sta	[<R0],Y
  7996 00:3958: A0 13 00     	ldy	#$13
  7997 00:395B: B7 09        	lda	[<L490+fp_1],Y
  7998 00:395D: 48           	pha
  7999 00:395E: A0 11 00     	ldy	#$11
  8000 00:3961: B7 09        	lda	[<L490+fp_1],Y
  8001 00:3963: 48           	pha
  8002 00:3964: F4 00 00     	pea	#$0000
  8003 00:3967: F4 00 00     	pea	#$0000
  8004                        	xref	~~~fcmp
  8005 00:396A: 22 xx xx xx  	jsl	~~~fcmp
  8006 00:396E: 30 03        	bmi	L514
  8007 00:3970: 82 2C 00     	brl	L10407
  8008                        L514:
  8009 00:3973: 64 01        	stz	<R0
  8010 00:3975: AD xx xx     	lda	|L10386+2
  8011 00:3978: 48           	pha
  8012 00:3979: AD xx xx     	lda	|L10386
  8013 00:397C: 48           	pha
  8014 00:397D: A0 0F 00     	ldy	#$f
  8015 00:3980: B7 09        	lda	[<L490+fp_1],Y
  8016 00:3982: 48           	pha
  8017 00:3983: A0 0D 00     	ldy	#$d
  8018 00:3986: B7 09        	lda	[<L490+fp_1],Y
  8019 00:3988: 48           	pha
  8020                        	xref	~~~fcmp
  8021 00:3989: 22 xx xx xx  	jsl	~~~fcmp
  8022 00:398D: 10 03        	bpl	L516
  8023 00:398F: 82 02 00     	brl	L515
  8024                        L516:
  8025 00:3992: E6 01        	inc	<R0
  8026                        L515:
  8027 00:3994: E2 20        	sep	#$20
  8028                        	longa	off
  8029 00:3996: A5 01        	lda	<R0
  8030 00:3998: 85 13        	sta	<L490+contloop_1
  8031 00:399A: C2 20        	rep	#$20
  8032                        	longa	on
  8033 00:399C: 82 29 00     	brl	L10408
  8034                        L10407:
  8035 00:399F: 64 01        	stz	<R0
  8036 00:39A1: A0 0F 00     	ldy	#$f
  8037 00:39A4: B7 09        	lda	[<L490+fp_1],Y
  8038 00:39A6: 48           	pha
  8039 00:39A7: A0 0D 00     	ldy	#$d
  8040 00:39AA: B7 09        	lda	[<L490+fp_1],Y
  8041 00:39AC: 48           	pha
  8042 00:39AD: AD xx xx     	lda	|L10386+2
  8043 00:39B0: 48           	pha
  8044 00:39B1: AD xx xx     	lda	|L10386
  8045 00:39B4: 48           	pha
  8046                        	xref	~~~fcmp
  8047 00:39B5: 22 xx xx xx  	jsl	~~~fcmp
  8048 00:39B9: 10 03        	bpl	L518
  8049 00:39BB: 82 02 00     	brl	L517
  8050                        L518:
  8051 00:39BE: E6 01        	inc	<R0
  8052                        L517:
  Sun Jan  9 2022 20:52                                                Page 140


  8053 00:39C0: E2 20        	sep	#$20
  8054                        	longa	off
  8055 00:39C2: A5 01        	lda	<R0
  8056 00:39C4: 85 13        	sta	<L490+contloop_1
  8057 00:39C6: C2 20        	rep	#$20
  8058                        	longa	on
  8059                        L10408:
  8060 00:39C8: 82 E6 01     	brl	L10402
  8061                        L10409:
  8062 00:39CB: A0 05 00     	ldy	#$5
  8063 00:39CE: B7 09        	lda	[<L490+fp_1],Y
  8064 00:39D0: 85 01        	sta	<R0
  8065 00:39D2: AD xx xx     	lda	|~~basicvars+6
  8066 00:39D5: 85 05        	sta	<R1
  8067 00:39D7: AD xx xx     	lda	|~~basicvars+6+2
  8068 00:39DA: 85 07        	sta	<R1+2
  8069 00:39DC: A4 01        	ldy	<R0
  8070 00:39DE: B7 05        	lda	[<R1],Y
  8071 00:39E0: 29 FF 00     	and	#$ff
  8072 00:39E3: 85 05        	sta	<R1
  8073 00:39E5: 18           	clc
  8074 00:39E6: A5 05        	lda	<R1
  8075 00:39E8: A0 0F 00     	ldy	#$f
  8076 00:39EB: 77 09        	adc	[<L490+fp_1],Y
  8077 00:39ED: 85 14        	sta	<L490+intvalue_1
  8078 00:39EF: A0 05 00     	ldy	#$5
  8079 00:39F2: B7 09        	lda	[<L490+fp_1],Y
  8080 00:39F4: 85 01        	sta	<R0
  8081 00:39F6: AD xx xx     	lda	|~~basicvars+6
  8082 00:39F9: 85 05        	sta	<R1
  8083 00:39FB: AD xx xx     	lda	|~~basicvars+6+2
  8084 00:39FE: 85 07        	sta	<R1+2
  8085 00:3A00: E2 20        	sep	#$20
  8086                        	longa	off
  8087 00:3A02: A5 14        	lda	<L490+intvalue_1
  8088 00:3A04: A4 01        	ldy	<R0
  8089 00:3A06: 97 05        	sta	[<R1],Y
  8090 00:3A08: C2 20        	rep	#$20
  8091                        	longa	on
  8092 00:3A0A: 38           	sec
  8093 00:3A0B: A9 00 00     	lda	#$0
  8094 00:3A0E: A0 0F 00     	ldy	#$f
  8095 00:3A11: F7 09        	sbc	[<L490+fp_1],Y
  8096 00:3A13: 70 03        	bvs	L519
  8097 00:3A15: 49 00 80     	eor	#$8000
  8098                        L519:
  8099 00:3A18: 10 03        	bpl	L520
  8100 00:3A1A: 82 21 00     	brl	L10410
  8101                        L520:
  8102 00:3A1D: 64 01        	stz	<R0
  8103 00:3A1F: 38           	sec
  8104 00:3A20: A0 0D 00     	ldy	#$d
  8105 00:3A23: B7 09        	lda	[<L490+fp_1],Y
  8106 00:3A25: E5 14        	sbc	<L490+intvalue_1
  8107 00:3A27: 70 03        	bvs	L522
  8108 00:3A29: 49 00 80     	eor	#$8000
  8109                        L522:
  8110 00:3A2C: 30 03        	bmi	L523
  Sun Jan  9 2022 20:52                                                Page 141


  8111 00:3A2E: 82 02 00     	brl	L521
  8112                        L523:
  8113 00:3A31: E6 01        	inc	<R0
  8114                        L521:
  8115 00:3A33: E2 20        	sep	#$20
  8116                        	longa	off
  8117 00:3A35: A5 01        	lda	<R0
  8118 00:3A37: 85 13        	sta	<L490+contloop_1
  8119 00:3A39: C2 20        	rep	#$20
  8120                        	longa	on
  8121 00:3A3B: 82 1E 00     	brl	L10411
  8122                        L10410:
  8123 00:3A3E: 64 01        	stz	<R0
  8124 00:3A40: 38           	sec
  8125 00:3A41: A5 14        	lda	<L490+intvalue_1
  8126 00:3A43: A0 0D 00     	ldy	#$d
  8127 00:3A46: F7 09        	sbc	[<L490+fp_1],Y
  8128 00:3A48: 70 03        	bvs	L525
  8129 00:3A4A: 49 00 80     	eor	#$8000
  8130                        L525:
  8131 00:3A4D: 30 03        	bmi	L526
  8132 00:3A4F: 82 02 00     	brl	L524
  8133                        L526:
  8134 00:3A52: E6 01        	inc	<R0
  8135                        L524:
  8136 00:3A54: E2 20        	sep	#$20
  8137                        	longa	off
  8138 00:3A56: A5 01        	lda	<R0
  8139 00:3A58: 85 13        	sta	<L490+contloop_1
  8140 00:3A5A: C2 20        	rep	#$20
  8141                        	longa	on
  8142                        L10411:
  8143 00:3A5C: 82 52 01     	brl	L10402
  8144                        L10412:
  8145 00:3A5F: A0 05 00     	ldy	#$5
  8146 00:3A62: B7 09        	lda	[<L490+fp_1],Y
  8147 00:3A64: 48           	pha
  8148 00:3A65: 22 xx xx xx  	jsl	~~get_integer
  8149 00:3A69: 85 01        	sta	<R0
  8150 00:3A6B: 18           	clc
  8151 00:3A6C: A5 01        	lda	<R0
  8152 00:3A6E: A0 0F 00     	ldy	#$f
  8153 00:3A71: 77 09        	adc	[<L490+fp_1],Y
  8154 00:3A73: 85 14        	sta	<L490+intvalue_1
  8155 00:3A75: D4 14        	pei	<L490+intvalue_1
  8156 00:3A77: A0 05 00     	ldy	#$5
  8157 00:3A7A: B7 09        	lda	[<L490+fp_1],Y
  8158 00:3A7C: 48           	pha
  8159 00:3A7D: 22 xx xx xx  	jsl	~~store_integer
  8160 00:3A81: 38           	sec
  8161 00:3A82: A9 00 00     	lda	#$0
  8162 00:3A85: A0 0F 00     	ldy	#$f
  8163 00:3A88: F7 09        	sbc	[<L490+fp_1],Y
  8164 00:3A8A: 70 03        	bvs	L527
  8165 00:3A8C: 49 00 80     	eor	#$8000
  8166                        L527:
  8167 00:3A8F: 10 03        	bpl	L528
  8168 00:3A91: 82 21 00     	brl	L10413
  Sun Jan  9 2022 20:52                                                Page 142


  8169                        L528:
  8170 00:3A94: 64 01        	stz	<R0
  8171 00:3A96: 38           	sec
  8172 00:3A97: A0 0D 00     	ldy	#$d
  8173 00:3A9A: B7 09        	lda	[<L490+fp_1],Y
  8174 00:3A9C: E5 14        	sbc	<L490+intvalue_1
  8175 00:3A9E: 70 03        	bvs	L530
  8176 00:3AA0: 49 00 80     	eor	#$8000
  8177                        L530:
  8178 00:3AA3: 30 03        	bmi	L531
  8179 00:3AA5: 82 02 00     	brl	L529
  8180                        L531:
  8181 00:3AA8: E6 01        	inc	<R0
  8182                        L529:
  8183 00:3AAA: E2 20        	sep	#$20
  8184                        	longa	off
  8185 00:3AAC: A5 01        	lda	<R0
  8186 00:3AAE: 85 13        	sta	<L490+contloop_1
  8187 00:3AB0: C2 20        	rep	#$20
  8188                        	longa	on
  8189 00:3AB2: 82 1E 00     	brl	L10414
  8190                        L10413:
  8191 00:3AB5: 64 01        	stz	<R0
  8192 00:3AB7: 38           	sec
  8193 00:3AB8: A5 14        	lda	<L490+intvalue_1
  8194 00:3ABA: A0 0D 00     	ldy	#$d
  8195 00:3ABD: F7 09        	sbc	[<L490+fp_1],Y
  8196 00:3ABF: 70 03        	bvs	L533
  8197 00:3AC1: 49 00 80     	eor	#$8000
  8198                        L533:
  8199 00:3AC4: 30 03        	bmi	L534
  8200 00:3AC6: 82 02 00     	brl	L532
  8201                        L534:
  8202 00:3AC9: E6 01        	inc	<R0
  8203                        L532:
  8204 00:3ACB: E2 20        	sep	#$20
  8205                        	longa	off
  8206 00:3ACD: A5 01        	lda	<R0
  8207 00:3ACF: 85 13        	sta	<L490+contloop_1
  8208 00:3AD1: C2 20        	rep	#$20
  8209                        	longa	on
  8210                        L10414:
  8211 00:3AD3: 82 DB 00     	brl	L10402
  8212                        L10415:
  8213 00:3AD6: A0 13 00     	ldy	#$13
  8214 00:3AD9: B7 09        	lda	[<L490+fp_1],Y
  8215 00:3ADB: 48           	pha
  8216 00:3ADC: A0 11 00     	ldy	#$11
  8217 00:3ADF: B7 09        	lda	[<L490+fp_1],Y
  8218 00:3AE1: 48           	pha
  8219 00:3AE2: 5A           	phy
  8220 00:3AE3: 5A           	phy
  8221 00:3AE4: A0 05 00     	ldy	#$5
  8222 00:3AE7: B7 09        	lda	[<L490+fp_1],Y
  8223 00:3AE9: 48           	pha
  8224 00:3AEA: 22 xx xx xx  	jsl	~~get_float
  8225                        	xref	~~~fadc
  8226 00:3AEE: 22 xx xx xx  	jsl	~~~fadc
  Sun Jan  9 2022 20:52                                                Page 143


  8227 00:3AF2: 68           	pla
  8228 00:3AF3: 8D xx xx     	sta	|L10386
  8229 00:3AF6: 68           	pla
  8230 00:3AF7: 8D xx xx     	sta	|L10386+2
  8231 00:3AFA: AD xx xx     	lda	|L10386+2
  8232 00:3AFD: 48           	pha
  8233 00:3AFE: AD xx xx     	lda	|L10386
  8234 00:3B01: 48           	pha
  8235 00:3B02: A0 05 00     	ldy	#$5
  8236 00:3B05: B7 09        	lda	[<L490+fp_1],Y
  8237 00:3B07: 48           	pha
  8238 00:3B08: 22 xx xx xx  	jsl	~~store_float
  8239 00:3B0C: A0 13 00     	ldy	#$13
  8240 00:3B0F: B7 09        	lda	[<L490+fp_1],Y
  8241 00:3B11: 48           	pha
  8242 00:3B12: A0 11 00     	ldy	#$11
  8243 00:3B15: B7 09        	lda	[<L490+fp_1],Y
  8244 00:3B17: 48           	pha
  8245 00:3B18: F4 00 00     	pea	#$0000
  8246 00:3B1B: F4 00 00     	pea	#$0000
  8247                        	xref	~~~fcmp
  8248 00:3B1E: 22 xx xx xx  	jsl	~~~fcmp
  8249 00:3B22: 30 03        	bmi	L535
  8250 00:3B24: 82 2C 00     	brl	L10416
  8251                        L535:
  8252 00:3B27: 64 01        	stz	<R0
  8253 00:3B29: AD xx xx     	lda	|L10386+2
  8254 00:3B2C: 48           	pha
  8255 00:3B2D: AD xx xx     	lda	|L10386
  8256 00:3B30: 48           	pha
  8257 00:3B31: A0 0F 00     	ldy	#$f
  8258 00:3B34: B7 09        	lda	[<L490+fp_1],Y
  8259 00:3B36: 48           	pha
  8260 00:3B37: A0 0D 00     	ldy	#$d
  8261 00:3B3A: B7 09        	lda	[<L490+fp_1],Y
  8262 00:3B3C: 48           	pha
  8263                        	xref	~~~fcmp
  8264 00:3B3D: 22 xx xx xx  	jsl	~~~fcmp
  8265 00:3B41: 10 03        	bpl	L537
  8266 00:3B43: 82 02 00     	brl	L536
  8267                        L537:
  8268 00:3B46: E6 01        	inc	<R0
  8269                        L536:
  8270 00:3B48: E2 20        	sep	#$20
  8271                        	longa	off
  8272 00:3B4A: A5 01        	lda	<R0
  8273 00:3B4C: 85 13        	sta	<L490+contloop_1
  8274 00:3B4E: C2 20        	rep	#$20
  8275                        	longa	on
  8276 00:3B50: 82 29 00     	brl	L10417
  8277                        L10416:
  8278 00:3B53: 64 01        	stz	<R0
  8279 00:3B55: A0 0F 00     	ldy	#$f
  8280 00:3B58: B7 09        	lda	[<L490+fp_1],Y
  8281 00:3B5A: 48           	pha
  8282 00:3B5B: A0 0D 00     	ldy	#$d
  8283 00:3B5E: B7 09        	lda	[<L490+fp_1],Y
  8284 00:3B60: 48           	pha
  Sun Jan  9 2022 20:52                                                Page 144


  8285 00:3B61: AD xx xx     	lda	|L10386+2
  8286 00:3B64: 48           	pha
  8287 00:3B65: AD xx xx     	lda	|L10386
  8288 00:3B68: 48           	pha
  8289                        	xref	~~~fcmp
  8290 00:3B69: 22 xx xx xx  	jsl	~~~fcmp
  8291 00:3B6D: 10 03        	bpl	L539
  8292 00:3B6F: 82 02 00     	brl	L538
  8293                        L539:
  8294 00:3B72: E6 01        	inc	<R0
  8295                        L538:
  8296 00:3B74: E2 20        	sep	#$20
  8297                        	longa	off
  8298 00:3B76: A5 01        	lda	<R0
  8299 00:3B78: 85 13        	sta	<L490+contloop_1
  8300 00:3B7A: C2 20        	rep	#$20
  8301                        	longa	on
  8302                        L10417:
  8303 00:3B7C: 82 32 00     	brl	L10402
  8304                        L10418:
  8305 00:3B7F: F4 xx xx     	pea	#^L484
  8306 00:3B82: F4 xx xx     	pea	#<L484
  8307 00:3B85: F4 6C 05     	pea	#<$56c
  8308 00:3B88: F4 82 00     	pea	#<$82
  8309 00:3B8B: F4 0A 00     	pea	#10
  8310 00:3B8E: 22 xx xx xx  	jsl	~~error
  8311 00:3B92: 82 1C 00     	brl	L10402
  8312                        L10401:
  8313                        	xref	~~~swt
  8314 00:3B95: 22 xx xx xx  	jsl	~~~swt
  8315 00:3B99: 05 00        	dw	5
  8316 00:3B9B: 02 00        	dw	2
  8317 00:3B9D: xx xx        	dw	L10403-1
  8318 00:3B9F: 03 00        	dw	3
  8319 00:3BA1: xx xx        	dw	L10406-1
  8320 00:3BA3: 11 00        	dw	17
  8321 00:3BA5: xx xx        	dw	L10409-1
  8322 00:3BA7: 12 00        	dw	18
  8323 00:3BA9: xx xx        	dw	L10412-1
  8324 00:3BAB: 13 00        	dw	19
  8325 00:3BAD: xx xx        	dw	L10415-1
  8326 00:3BAF: xx xx        	dw	L10418-1
  8327                        L10402:
  8328                        L10400:
  8329 00:3BB1: A5 13        	lda	<L490+contloop_1
  8330 00:3BB3: 29 FF 00     	and	#$ff
  8331 00:3BB6: D0 03        	bne	L540
  8332 00:3BB8: 82 36 00     	brl	L10419
  8333                        L540:
  8334 00:3BBB: AD xx xx     	lda	|~~basicvars+425
  8335 00:3BBE: 89 10 00     	bit	#$10
  8336 00:3BC1: D0 03        	bne	L541
  8337 00:3BC3: 82 18 00     	brl	L10420
  8338                        L541:
  8339 00:3BC6: A0 0B 00     	ldy	#$b
  8340 00:3BC9: B7 09        	lda	[<L490+fp_1],Y
  8341 00:3BCB: 48           	pha
  8342 00:3BCC: A0 09 00     	ldy	#$9
  Sun Jan  9 2022 20:52                                                Page 145


  8343 00:3BCF: B7 09        	lda	[<L490+fp_1],Y
  8344 00:3BD1: 48           	pha
  8345 00:3BD2: AD xx xx     	lda	|~~basicvars+62+2
  8346 00:3BD5: 48           	pha
  8347 00:3BD6: AD xx xx     	lda	|~~basicvars+62
  8348 00:3BD9: 48           	pha
  8349 00:3BDA: 22 xx xx xx  	jsl	~~trace_branch
  8350                        L10420:
  8351 00:3BDE: A0 09 00     	ldy	#$9
  8352 00:3BE1: B7 09        	lda	[<L490+fp_1],Y
  8353 00:3BE3: 8D xx xx     	sta	|~~basicvars+62
  8354 00:3BE6: A0 0B 00     	ldy	#$b
  8355 00:3BE9: B7 09        	lda	[<L490+fp_1],Y
  8356 00:3BEB: 8D xx xx     	sta	|~~basicvars+62+2
  8357 00:3BEE: 82 85 FC     	brl	L505
  8358                        L10419:
  8359 00:3BF1: 22 xx xx xx  	jsl	~~pop_for
  8360                        L10388:
  8361 00:3BF5: AD xx xx     	lda	|~~basicvars+62
  8362 00:3BF8: 85 01        	sta	<R0
  8363 00:3BFA: AD xx xx     	lda	|~~basicvars+62+2
  8364 00:3BFD: 85 03        	sta	<R0+2
  8365 00:3BFF: E2 20        	sep	#$20
  8366                        	longa	off
  8367 00:3C01: A7 01        	lda	[<R0]
  8368 00:3C03: C9 2C        	cmp	#<$2c
  8369 00:3C05: C2 20        	rep	#$20
  8370                        	longa	on
  8371 00:3C07: D0 03        	bne	L542
  8372 00:3C09: 82 48 FB     	brl	L10390
  8373                        L542:
  8374                        L10389:
  8375 00:3C0C: 22 xx xx xx  	jsl	~~check_ateol
  8376 00:3C10: 82 63 FC     	brl	L505
  8377             00000015   L489	equ	21
  8378             00000009   L490	equ	9
  8379                        	ends
  8380                        	efunc
  8381                        	data
  8382                        L484:
  8383 00:0014: 6D 61 69 6E  	db	$6D,$61,$69,$6E,$73,$74,$61,$74,$65,$00
       00:0018: 73 74 61 74 
       00:001C: 65 00 
  8384 00:001E:              	ends
  8385                        	code
  8386                        	func
  8387                        ~~exec_onerror:
  8388                        	longa	on
  8389                        	longi	on
  8390 00:3C13: 3B           	tsc
  8391 00:3C14: 38           	sec
  8392 00:3C15: E9 04 00     	sbc	#L544
  8393 00:3C18: 1B           	tcs
  8394 00:3C19: 0B           	phd
  8395 00:3C1A: 5B           	tcd
  8396 00:3C1B: EE xx xx     	inc	|~~basicvars+62
  8397 00:3C1E: D0 03        	bne	L546
  8398 00:3C20: EE xx xx     	inc	|~~basicvars+62+2
  Sun Jan  9 2022 20:52                                                Page 146


  8399                        L546:
  8400 00:3C23: AD xx xx     	lda	|~~basicvars+62
  8401 00:3C26: 85 01        	sta	<R0
  8402 00:3C28: AD xx xx     	lda	|~~basicvars+62+2
  8403 00:3C2B: 85 03        	sta	<R0+2
  8404 00:3C2D: A7 01        	lda	[<R0]
  8405 00:3C2F: 29 FF 00     	and	#$ff
  8406 00:3C32: 82 7B 00     	brl	L10421
  8407                        L10423:
  8408 00:3C35: 22 xx xx xx  	jsl	~~clear_error
  8409 00:3C39: EE xx xx     	inc	|~~basicvars+62
  8410 00:3C3C: D0 03        	bne	L547
  8411 00:3C3E: EE xx xx     	inc	|~~basicvars+62+2
  8412                        L547:
  8413 00:3C41: 22 xx xx xx  	jsl	~~check_ateol
  8414 00:3C45: 82 78 00     	brl	L10422
  8415                        L10424:
  8416 00:3C48: EE xx xx     	inc	|~~basicvars+62
  8417 00:3C4B: D0 03        	bne	L548
  8418 00:3C4D: EE xx xx     	inc	|~~basicvars+62+2
  8419                        L548:
  8420 00:3C50: 22 xx xx xx  	jsl	~~set_local_error
  8421                        L10425:
  8422 00:3C54: AD xx xx     	lda	|~~basicvars+62
  8423 00:3C57: 85 01        	sta	<R0
  8424 00:3C59: AD xx xx     	lda	|~~basicvars+62+2
  8425 00:3C5C: 85 03        	sta	<R0+2
  8426 00:3C5E: A7 01        	lda	[<R0]
  8427 00:3C60: 29 FF 00     	and	#$ff
  8428 00:3C63: D0 03        	bne	L549
  8429 00:3C65: 82 15 00     	brl	L10426
  8430                        L549:
  8431 00:3C68: AD xx xx     	lda	|~~basicvars+62+2
  8432 00:3C6B: 48           	pha
  8433 00:3C6C: AD xx xx     	lda	|~~basicvars+62
  8434 00:3C6F: 48           	pha
  8435 00:3C70: 22 xx xx xx  	jsl	~~skip_token
  8436 00:3C74: 8D xx xx     	sta	|~~basicvars+62
  8437 00:3C77: 8E xx xx     	stx	|~~basicvars+62+2
  8438 00:3C7A: 82 D7 FF     	brl	L10425
  8439                        L10426:
  8440 00:3C7D: 82 40 00     	brl	L10422
  8441                        L10427:
  8442 00:3C80: 22 xx xx xx  	jsl	~~set_error
  8443                        L10428:
  8444 00:3C84: AD xx xx     	lda	|~~basicvars+62
  8445 00:3C87: 85 01        	sta	<R0
  8446 00:3C89: AD xx xx     	lda	|~~basicvars+62+2
  8447 00:3C8C: 85 03        	sta	<R0+2
  8448 00:3C8E: A7 01        	lda	[<R0]
  8449 00:3C90: 29 FF 00     	and	#$ff
  8450 00:3C93: D0 03        	bne	L550
  8451 00:3C95: 82 15 00     	brl	L10429
  8452                        L550:
  8453 00:3C98: AD xx xx     	lda	|~~basicvars+62+2
  8454 00:3C9B: 48           	pha
  8455 00:3C9C: AD xx xx     	lda	|~~basicvars+62
  8456 00:3C9F: 48           	pha
  Sun Jan  9 2022 20:52                                                Page 147


  8457 00:3CA0: 22 xx xx xx  	jsl	~~skip_token
  8458 00:3CA4: 8D xx xx     	sta	|~~basicvars+62
  8459 00:3CA7: 8E xx xx     	stx	|~~basicvars+62+2
  8460 00:3CAA: 82 D7 FF     	brl	L10428
  8461                        L10429:
  8462 00:3CAD: 82 10 00     	brl	L10422
  8463                        L10421:
  8464                        	xref	~~~swt
  8465 00:3CB0: 22 xx xx xx  	jsl	~~~swt
  8466 00:3CB4: 02 00        	dw	2
  8467 00:3CB6: B9 00        	dw	185
  8468 00:3CB8: xx xx        	dw	L10424-1
  8469 00:3CBA: C1 00        	dw	193
  8470 00:3CBC: xx xx        	dw	L10423-1
  8471 00:3CBE: xx xx        	dw	L10427-1
  8472                        L10422:
  8473                        L551:
  8474 00:3CC0: 2B           	pld
  8475 00:3CC1: 3B           	tsc
  8476 00:3CC2: 18           	clc
  8477 00:3CC3: 69 04 00     	adc	#L544
  8478 00:3CC6: 1B           	tcs
  8479 00:3CC7: 6B           	rtl
  8480             00000004   L544	equ	4
  8481             00000005   L545	equ	5
  8482                        	ends
  8483                        	efunc
  8484                        	code
  8485                        	func
  8486                        ~~find_else:
  8487                        	longa	on
  8488                        	longi	on
  8489 00:3CC8: 3B           	tsc
  8490 00:3CC9: 38           	sec
  8491 00:3CCA: E9 04 00     	sbc	#L552
  8492 00:3CCD: 1B           	tcs
  8493 00:3CCE: 0B           	phd
  8494 00:3CCF: 5B           	tcd
  8495             00000004   tp_0	set	4
  8496             00000008   index_0	set	8
  8497                        L10430:
  8498 00:3CD0: A7 08        	lda	[<L552+tp_0]
  8499 00:3CD2: 29 FF 00     	and	#$ff
  8500 00:3CD5: 85 01        	sta	<R0
  8501 00:3CD7: A6 01        	ldx	<R0
  8502 00:3CD9: BD xx xx     	lda	|~~ateol,X
  8503 00:3CDC: 29 FF 00     	and	#$ff
  8504 00:3CDF: F0 03        	beq	L554
  8505 00:3CE1: 82 0F 00     	brl	L10431
  8506                        L554:
  8507 00:3CE4: D4 0A        	pei	<L552+tp_0+2
  8508 00:3CE6: D4 08        	pei	<L552+tp_0
  8509 00:3CE8: 22 xx xx xx  	jsl	~~skip_token
  8510 00:3CEC: 85 08        	sta	<L552+tp_0
  8511 00:3CEE: 86 0A        	stx	<L552+tp_0+2
  8512 00:3CF0: 82 DD FF     	brl	L10430
  8513                        L10431:
  8514 00:3CF3: E2 20        	sep	#$20
  Sun Jan  9 2022 20:52                                                Page 148


  8515                        	longa	off
  8516 00:3CF5: A7 08        	lda	[<L552+tp_0]
  8517 00:3CF7: C9 9F        	cmp	#<$9f
  8518 00:3CF9: C2 20        	rep	#$20
  8519                        	longa	on
  8520 00:3CFB: F0 03        	beq	L555
  8521 00:3CFD: 82 2F 00     	brl	L10432
  8522                        L555:
  8523 00:3D00: AD xx xx     	lda	|~~basicvars+425
  8524 00:3D03: 89 10 00     	bit	#$10
  8525 00:3D06: D0 03        	bne	L556
  8526 00:3D08: 82 10 00     	brl	L10433
  8527                        L556:
  8528 00:3D0B: D4 0A        	pei	<L552+tp_0+2
  8529 00:3D0D: D4 08        	pei	<L552+tp_0
  8530 00:3D0F: AD xx xx     	lda	|~~basicvars+62+2
  8531 00:3D12: 48           	pha
  8532 00:3D13: AD xx xx     	lda	|~~basicvars+62
  8533 00:3D16: 48           	pha
  8534 00:3D17: 22 xx xx xx  	jsl	~~trace_branch
  8535                        L10433:
  8536 00:3D1B: 18           	clc
  8537 00:3D1C: A9 03 00     	lda	#$3
  8538 00:3D1F: 65 08        	adc	<L552+tp_0
  8539 00:3D21: 8D xx xx     	sta	|~~basicvars+62
  8540 00:3D24: A9 00 00     	lda	#$0
  8541 00:3D27: 65 0A        	adc	<L552+tp_0+2
  8542 00:3D29: 8D xx xx     	sta	|~~basicvars+62+2
  8543 00:3D2C: 82 0C 00     	brl	L10434
  8544                        L10432:
  8545 00:3D2F: D4 0C        	pei	<L552+index_0
  8546 00:3D31: F4 3B 00     	pea	#<$3b
  8547 00:3D34: F4 06 00     	pea	#6
  8548 00:3D37: 22 xx xx xx  	jsl	~~error
  8549                        L10434:
  8550                        L557:
  8551 00:3D3B: A5 06        	lda	<L552+2
  8552 00:3D3D: 85 0C        	sta	<L552+2+6
  8553 00:3D3F: A5 05        	lda	<L552+1
  8554 00:3D41: 85 0B        	sta	<L552+1+6
  8555 00:3D43: 2B           	pld
  8556 00:3D44: 3B           	tsc
  8557 00:3D45: 18           	clc
  8558 00:3D46: 69 0A 00     	adc	#L552+6
  8559 00:3D49: 1B           	tcs
  8560 00:3D4A: 6B           	rtl
  8561             00000004   L552	equ	4
  8562             00000005   L553	equ	5
  8563                        	ends
  8564                        	efunc
  8565                        	code
  8566                        	func
  8567                        ~~find_onentry:
  8568                        	longa	on
  8569                        	longi	on
  8570 00:3D4B: 3B           	tsc
  8571 00:3D4C: 38           	sec
  8572 00:3D4D: E9 08 00     	sbc	#L558
  Sun Jan  9 2022 20:52                                                Page 149


  8573 00:3D50: 1B           	tcs
  8574 00:3D51: 0B           	phd
  8575 00:3D52: 5B           	tcd
  8576             00000004   tp_0	set	4
  8577             00000008   wanted_0	set	8
  8578             00000000   brackets_1	set	0
  8579             00000002   count_1	set	2
  8580 00:3D53: A9 01 00     	lda	#$1
  8581 00:3D56: 85 07        	sta	<L559+count_1
  8582 00:3D58: 64 05        	stz	<L559+brackets_1
  8583                        L10437:
  8584                        L10438:
  8585 00:3D5A: E2 20        	sep	#$20
  8586                        	longa	off
  8587 00:3D5C: A7 0C        	lda	[<L558+tp_0]
  8588 00:3D5E: C9 3A        	cmp	#<$3a
  8589 00:3D60: C2 20        	rep	#$20
  8590                        	longa	on
  8591 00:3D62: D0 03        	bne	L560
  8592 00:3D64: 82 5B 00     	brl	L10439
  8593                        L560:
  8594 00:3D67: A7 0C        	lda	[<L558+tp_0]
  8595 00:3D69: 29 FF 00     	and	#$ff
  8596 00:3D6C: D0 03        	bne	L561
  8597 00:3D6E: 82 51 00     	brl	L10439
  8598                        L561:
  8599 00:3D71: E2 20        	sep	#$20
  8600                        	longa	off
  8601 00:3D73: A7 0C        	lda	[<L558+tp_0]
  8602 00:3D75: C9 9F        	cmp	#<$9f
  8603 00:3D77: C2 20        	rep	#$20
  8604                        	longa	on
  8605 00:3D79: D0 03        	bne	L562
  8606 00:3D7B: 82 44 00     	brl	L10439
  8607                        L562:
  8608 00:3D7E: E2 20        	sep	#$20
  8609                        	longa	off
  8610 00:3D80: A7 0C        	lda	[<L558+tp_0]
  8611 00:3D82: C9 2C        	cmp	#<$2c
  8612 00:3D84: C2 20        	rep	#$20
  8613                        	longa	on
  8614 00:3D86: F0 03        	beq	L564
  8615 00:3D88: 82 07 00     	brl	L563
  8616                        L564:
  8617 00:3D8B: A5 05        	lda	<L559+brackets_1
  8618 00:3D8D: D0 03        	bne	L565
  8619 00:3D8F: 82 30 00     	brl	L10439
  8620                        L565:
  8621                        L563:
  8622 00:3D92: D4 0E        	pei	<L558+tp_0+2
  8623 00:3D94: D4 0C        	pei	<L558+tp_0
  8624 00:3D96: 22 xx xx xx  	jsl	~~skip_token
  8625 00:3D9A: 85 0C        	sta	<L558+tp_0
  8626 00:3D9C: 86 0E        	stx	<L558+tp_0+2
  8627 00:3D9E: E2 20        	sep	#$20
  8628                        	longa	off
  8629 00:3DA0: A7 0C        	lda	[<L558+tp_0]
  8630 00:3DA2: C9 28        	cmp	#<$28
  Sun Jan  9 2022 20:52                                                Page 150


  8631 00:3DA4: C2 20        	rep	#$20
  8632                        	longa	on
  8633 00:3DA6: F0 03        	beq	L566
  8634 00:3DA8: 82 05 00     	brl	L10440
  8635                        L566:
  8636 00:3DAB: E6 05        	inc	<L559+brackets_1
  8637 00:3DAD: 82 0F 00     	brl	L10441
  8638                        L10440:
  8639 00:3DB0: E2 20        	sep	#$20
  8640                        	longa	off
  8641 00:3DB2: A7 0C        	lda	[<L558+tp_0]
  8642 00:3DB4: C9 29        	cmp	#<$29
  8643 00:3DB6: C2 20        	rep	#$20
  8644                        	longa	on
  8645 00:3DB8: F0 03        	beq	L567
  8646 00:3DBA: 82 02 00     	brl	L10442
  8647                        L567:
  8648 00:3DBD: C6 05        	dec	<L559+brackets_1
  8649                        L10442:
  8650                        L10441:
  8651 00:3DBF: 82 98 FF     	brl	L10438
  8652                        L10439:
  8653 00:3DC2: E2 20        	sep	#$20
  8654                        	longa	off
  8655 00:3DC4: A7 0C        	lda	[<L558+tp_0]
  8656 00:3DC6: C9 9F        	cmp	#<$9f
  8657 00:3DC8: C2 20        	rep	#$20
  8658                        	longa	on
  8659 00:3DCA: D0 03        	bne	L568
  8660 00:3DCC: 82 4B 00     	brl	L10436
  8661                        L568:
  8662 00:3DCF: A7 0C        	lda	[<L558+tp_0]
  8663 00:3DD1: 29 FF 00     	and	#$ff
  8664 00:3DD4: 85 01        	sta	<R0
  8665 00:3DD6: A6 01        	ldx	<R0
  8666 00:3DD8: BD xx xx     	lda	|~~ateol,X
  8667 00:3DDB: 29 FF 00     	and	#$ff
  8668 00:3DDE: D0 03        	bne	L569
  8669 00:3DE0: 82 0C 00     	brl	L10443
  8670                        L569:
  8671 00:3DE3: D4 10        	pei	<L558+wanted_0
  8672 00:3DE5: F4 3B 00     	pea	#<$3b
  8673 00:3DE8: F4 06 00     	pea	#6
  8674 00:3DEB: 22 xx xx xx  	jsl	~~error
  8675                        L10443:
  8676 00:3DEF: E6 07        	inc	<L559+count_1
  8677 00:3DF1: A5 07        	lda	<L559+count_1
  8678 00:3DF3: C5 10        	cmp	<L558+wanted_0
  8679 00:3DF5: D0 03        	bne	L570
  8680 00:3DF7: 82 20 00     	brl	L10436
  8681                        L570:
  8682 00:3DFA: E2 20        	sep	#$20
  8683                        	longa	off
  8684 00:3DFC: A7 0C        	lda	[<L558+tp_0]
  8685 00:3DFE: C9 2C        	cmp	#<$2c
  8686 00:3E00: C2 20        	rep	#$20
  8687                        	longa	on
  8688 00:3E02: D0 03        	bne	L571
  Sun Jan  9 2022 20:52                                                Page 151


  8689 00:3E04: 82 0A 00     	brl	L10444
  8690                        L571:
  8691 00:3E07: F4 27 00     	pea	#<$27
  8692 00:3E0A: F4 04 00     	pea	#4
  8693 00:3E0D: 22 xx xx xx  	jsl	~~error
  8694                        L10444:
  8695 00:3E11: E6 0C        	inc	<L558+tp_0
  8696 00:3E13: D0 02        	bne	L572
  8697 00:3E15: E6 0E        	inc	<L558+tp_0+2
  8698                        L572:
  8699                        L10435:
  8700 00:3E17: 82 40 FF     	brl	L10437
  8701                        L10436:
  8702 00:3E1A: E2 20        	sep	#$20
  8703                        	longa	off
  8704 00:3E1C: A7 0C        	lda	[<L558+tp_0]
  8705 00:3E1E: C9 2C        	cmp	#<$2c
  8706 00:3E20: C2 20        	rep	#$20
  8707                        	longa	on
  8708 00:3E22: F0 03        	beq	L573
  8709 00:3E24: 82 06 00     	brl	L10445
  8710                        L573:
  8711 00:3E27: E6 0C        	inc	<L558+tp_0
  8712 00:3E29: D0 02        	bne	L574
  8713 00:3E2B: E6 0E        	inc	<L558+tp_0+2
  8714                        L574:
  8715                        L10445:
  8716 00:3E2D: A6 0E        	ldx	<L558+tp_0+2
  8717 00:3E2F: A5 0C        	lda	<L558+tp_0
  8718                        L575:
  8719 00:3E31: A8           	tay
  8720 00:3E32: A5 0A        	lda	<L558+2
  8721 00:3E34: 85 10        	sta	<L558+2+6
  8722 00:3E36: A5 09        	lda	<L558+1
  8723 00:3E38: 85 0F        	sta	<L558+1+6
  8724 00:3E3A: 2B           	pld
  8725 00:3E3B: 3B           	tsc
  8726 00:3E3C: 18           	clc
  8727 00:3E3D: 69 0E 00     	adc	#L558+6
  8728 00:3E40: 1B           	tcs
  8729 00:3E41: 98           	tya
  8730 00:3E42: 6B           	rtl
  8731             00000008   L558	equ	8
  8732             00000005   L559	equ	5
  8733                        	ends
  8734                        	efunc
  8735                        	code
  8736                        	func
  8737                        ~~exec_onbranch:
  8738                        	longa	on
  8739                        	longi	on
  8740 00:3E43: 3B           	tsc
  8741 00:3E44: 38           	sec
  8742 00:3E45: E9 1F 00     	sbc	#L576
  8743 00:3E48: 1B           	tcs
  8744 00:3E49: 0B           	phd
  8745 00:3E4A: 5B           	tcd
  8746             00000000   index_1	set	0
  Sun Jan  9 2022 20:52                                                Page 152


  8747             00000002   onwhat_1	set	2
  8748 00:3E4B: 22 xx xx xx  	jsl	~~eval_integer
  8749 00:3E4F: 85 0D        	sta	<L577+index_1
  8750 00:3E51: A5 0D        	lda	<L577+index_1
  8751 00:3E53: 30 06        	bmi	L578
  8752 00:3E55: 3A           	dea
  8753 00:3E56: 30 03        	bmi	L578
  8754 00:3E58: 82 11 00     	brl	L10446
  8755                        L578:
  8756 00:3E5B: D4 0D        	pei	<L577+index_1
  8757 00:3E5D: AD xx xx     	lda	|~~basicvars+62+2
  8758 00:3E60: 48           	pha
  8759 00:3E61: AD xx xx     	lda	|~~basicvars+62
  8760 00:3E64: 48           	pha
  8761 00:3E65: 22 xx xx xx  	jsl	~~find_else
  8762 00:3E69: 82 2D 06     	brl	L10447
  8763                        L10446:
  8764 00:3E6C: AD xx xx     	lda	|~~basicvars+62
  8765 00:3E6F: 85 01        	sta	<R0
  8766 00:3E71: AD xx xx     	lda	|~~basicvars+62+2
  8767 00:3E74: 85 03        	sta	<R0+2
  8768 00:3E76: E2 20        	sep	#$20
  8769                        	longa	off
  8770 00:3E78: A7 01        	lda	[<R0]
  8771 00:3E7A: 85 0F        	sta	<L577+onwhat_1
  8772 00:3E7C: C2 20        	rep	#$20
  8773                        	longa	on
  8774 00:3E7E: E2 20        	sep	#$20
  8775                        	longa	off
  8776 00:3E80: A5 0F        	lda	<L577+onwhat_1
  8777 00:3E82: C9 B1        	cmp	#<$b1
  8778 00:3E84: C2 20        	rep	#$20
  8779                        	longa	on
  8780 00:3E86: D0 03        	bne	L580
  8781 00:3E88: 82 0D 00     	brl	L579
  8782                        L580:
  8783 00:3E8B: E2 20        	sep	#$20
  8784                        	longa	off
  8785 00:3E8D: A5 0F        	lda	<L577+onwhat_1
  8786 00:3E8F: C9 B0        	cmp	#<$b0
  8787 00:3E91: C2 20        	rep	#$20
  8788                        	longa	on
  8789 00:3E93: F0 03        	beq	L581
  8790 00:3E95: 82 8A 02     	brl	L10448
  8791                        L581:
  8792                        L579:
  8793             00000003   line_2	set	3
  8794             00000005   dest_2	set	5
  8795 00:3E98: EE xx xx     	inc	|~~basicvars+62
  8796 00:3E9B: D0 03        	bne	L582
  8797 00:3E9D: EE xx xx     	inc	|~~basicvars+62+2
  8798                        L582:
  8799 00:3EA0: 38           	sec
  8800 00:3EA1: A9 01 00     	lda	#$1
  8801 00:3EA4: E5 0D        	sbc	<L577+index_1
  8802 00:3EA6: 70 03        	bvs	L583
  8803 00:3EA8: 49 00 80     	eor	#$8000
  8804                        L583:
  Sun Jan  9 2022 20:52                                                Page 153


  8805 00:3EAB: 10 03        	bpl	L584
  8806 00:3EAD: 82 14 00     	brl	L10449
  8807                        L584:
  8808 00:3EB0: D4 0D        	pei	<L577+index_1
  8809 00:3EB2: AD xx xx     	lda	|~~basicvars+62+2
  8810 00:3EB5: 48           	pha
  8811 00:3EB6: AD xx xx     	lda	|~~basicvars+62
  8812 00:3EB9: 48           	pha
  8813 00:3EBA: 22 xx xx xx  	jsl	~~find_onentry
  8814 00:3EBE: 8D xx xx     	sta	|~~basicvars+62
  8815 00:3EC1: 8E xx xx     	stx	|~~basicvars+62+2
  8816                        L10449:
  8817 00:3EC4: AD xx xx     	lda	|~~basicvars+62
  8818 00:3EC7: 85 01        	sta	<R0
  8819 00:3EC9: AD xx xx     	lda	|~~basicvars+62+2
  8820 00:3ECC: 85 03        	sta	<R0+2
  8821 00:3ECE: E2 20        	sep	#$20
  8822                        	longa	off
  8823 00:3ED0: A7 01        	lda	[<R0]
  8824 00:3ED2: C9 9F        	cmp	#<$9f
  8825 00:3ED4: C2 20        	rep	#$20
  8826                        	longa	on
  8827 00:3ED6: F0 03        	beq	L585
  8828 00:3ED8: 82 33 00     	brl	L10450
  8829                        L585:
  8830 00:3EDB: 18           	clc
  8831 00:3EDC: A9 03 00     	lda	#$3
  8832 00:3EDF: 6D xx xx     	adc	|~~basicvars+62
  8833 00:3EE2: 8D xx xx     	sta	|~~basicvars+62
  8834 00:3EE5: 90 03        	bcc	L586
  8835 00:3EE7: EE xx xx     	inc	|~~basicvars+62+2
  8836                        L586:
  8837 00:3EEA: AD xx xx     	lda	|~~basicvars+62
  8838 00:3EED: 85 01        	sta	<R0
  8839 00:3EEF: AD xx xx     	lda	|~~basicvars+62+2
  8840 00:3EF2: 85 03        	sta	<R0+2
  8841 00:3EF4: E2 20        	sep	#$20
  8842                        	longa	off
  8843 00:3EF6: A7 01        	lda	[<R0]
  8844 00:3EF8: C9 1E        	cmp	#<$1e
  8845 00:3EFA: C2 20        	rep	#$20
  8846                        	longa	on
  8847 00:3EFC: F0 03        	beq	L587
  8848 00:3EFE: 82 0A 00     	brl	L10451
  8849                        L587:
  8850 00:3F01: F4 05 00     	pea	#<$5
  8851 00:3F04: F4 04 00     	pea	#4
  8852 00:3F07: 22 xx xx xx  	jsl	~~error
  8853                        L10451:
  8854 00:3F0B: 82 11 02     	brl	L10452
  8855                        L10450:
  8856 00:3F0E: AD xx xx     	lda	|~~basicvars+62
  8857 00:3F11: 85 01        	sta	<R0
  8858 00:3F13: AD xx xx     	lda	|~~basicvars+62+2
  8859 00:3F16: 85 03        	sta	<R0+2
  8860 00:3F18: E2 20        	sep	#$20
  8861                        	longa	off
  8862 00:3F1A: A7 01        	lda	[<R0]
  Sun Jan  9 2022 20:52                                                Page 154


  8863 00:3F1C: C9 1F        	cmp	#<$1f
  8864 00:3F1E: C2 20        	rep	#$20
  8865                        	longa	on
  8866 00:3F20: F0 03        	beq	L588
  8867 00:3F22: 82 96 00     	brl	L10453
  8868                        L588:
  8869 00:3F25: AD xx xx     	lda	|~~basicvars+62
  8870 00:3F28: 85 01        	sta	<R0
  8871 00:3F2A: AD xx xx     	lda	|~~basicvars+62+2
  8872 00:3F2D: 85 03        	sta	<R0+2
  8873 00:3F2F: A0 01 00     	ldy	#$1
  8874 00:3F32: B7 01        	lda	[<R0],Y
  8875 00:3F34: 29 FF 00     	and	#$ff
  8876 00:3F37: 85 01        	sta	<R0
  8877 00:3F39: AD xx xx     	lda	|~~basicvars+62
  8878 00:3F3C: 85 09        	sta	<R2
  8879 00:3F3E: AD xx xx     	lda	|~~basicvars+62+2
  8880 00:3F41: 85 0B        	sta	<R2+2
  8881 00:3F43: A0 02 00     	ldy	#$2
  8882 00:3F46: B7 09        	lda	[<R2],Y
  8883 00:3F48: 29 FF 00     	and	#$ff
  8884 00:3F4B: 85 09        	sta	<R2
  8885 00:3F4D: A5 09        	lda	<R2
  8886 00:3F4F: EB           	xba
  8887 00:3F50: 29 00 FF     	and	#$ff00
  8888 00:3F53: 85 05        	sta	<R1
  8889 00:3F55: A5 05        	lda	<R1
  8890 00:3F57: 05 01        	ora	<R0
  8891 00:3F59: 85 09        	sta	<R2
  8892 00:3F5B: AD xx xx     	lda	|~~basicvars+62
  8893 00:3F5E: 85 05        	sta	<R1
  8894 00:3F60: AD xx xx     	lda	|~~basicvars+62+2
  8895 00:3F63: 85 07        	sta	<R1+2
  8896 00:3F65: A0 03 00     	ldy	#$3
  8897 00:3F68: B7 05        	lda	[<R1],Y
  8898 00:3F6A: 29 FF 00     	and	#$ff
  8899 00:3F6D: A2 10 00     	ldx	#<$10
  8900                        	xref	~~~asl
  8901 00:3F70: 22 xx xx xx  	jsl	~~~asl
  8902 00:3F74: 85 01        	sta	<R0
  8903 00:3F76: A5 01        	lda	<R0
  8904 00:3F78: 05 09        	ora	<R2
  8905 00:3F7A: 85 05        	sta	<R1
  8906 00:3F7C: AD xx xx     	lda	|~~basicvars+62
  8907 00:3F7F: 85 09        	sta	<R2
  8908 00:3F81: AD xx xx     	lda	|~~basicvars+62+2
  8909 00:3F84: 85 0B        	sta	<R2+2
  8910 00:3F86: A0 04 00     	ldy	#$4
  8911 00:3F89: B7 09        	lda	[<R2],Y
  8912 00:3F8B: 29 FF 00     	and	#$ff
  8913 00:3F8E: A2 18 00     	ldx	#<$18
  8914                        	xref	~~~asl
  8915 00:3F91: 22 xx xx xx  	jsl	~~~asl
  8916 00:3F95: 85 01        	sta	<R0
  8917 00:3F97: A5 01        	lda	<R0
  8918 00:3F99: 05 05        	ora	<R1
  8919 00:3F9B: 85 09        	sta	<R2
  8920 00:3F9D: A0 00 00     	ldy	#$0
  Sun Jan  9 2022 20:52                                                Page 155


  8921 00:3FA0: A5 09        	lda	<R2
  8922 00:3FA2: 10 01        	bpl	L589
  8923 00:3FA4: 88           	dey
  8924                        L589:
  8925 00:3FA5: 85 01        	sta	<R0
  8926 00:3FA7: 84 03        	sty	<R0+2
  8927 00:3FA9: 18           	clc
  8928 00:3FAA: AD xx xx     	lda	|~~basicvars
  8929 00:3FAD: 65 01        	adc	<R0
  8930 00:3FAF: 85 12        	sta	<L577+dest_2
  8931 00:3FB1: AD xx xx     	lda	|~~basicvars+2
  8932 00:3FB4: 65 03        	adc	<R0+2
  8933 00:3FB6: 85 14        	sta	<L577+dest_2+2
  8934 00:3FB8: 82 CF 00     	brl	L10454
  8935                        L10453:
  8936 00:3FBB: AD xx xx     	lda	|~~basicvars+62
  8937 00:3FBE: 85 01        	sta	<R0
  8938 00:3FC0: AD xx xx     	lda	|~~basicvars+62+2
  8939 00:3FC3: 85 03        	sta	<R0+2
  8940 00:3FC5: E2 20        	sep	#$20
  8941                        	longa	off
  8942 00:3FC7: A7 01        	lda	[<R0]
  8943 00:3FC9: C9 1E        	cmp	#<$1e
  8944 00:3FCB: C2 20        	rep	#$20
  8945                        	longa	on
  8946 00:3FCD: F0 03        	beq	L590
  8947 00:3FCF: 82 13 00     	brl	L10455
  8948                        L590:
  8949 00:3FD2: AD xx xx     	lda	|~~basicvars+62+2
  8950 00:3FD5: 48           	pha
  8951 00:3FD6: AD xx xx     	lda	|~~basicvars+62
  8952 00:3FD9: 48           	pha
  8953 00:3FDA: 22 xx xx xx  	jsl	~~set_linedest
  8954 00:3FDE: 85 12        	sta	<L577+dest_2
  8955 00:3FE0: 86 14        	stx	<L577+dest_2+2
  8956 00:3FE2: 82 A5 00     	brl	L10456
  8957                        L10455:
  8958 00:3FE5: 22 xx xx xx  	jsl	~~eval_integer
  8959 00:3FE9: 85 10        	sta	<L577+line_2
  8960 00:3FEB: A5 10        	lda	<L577+line_2
  8961 00:3FED: 10 03        	bpl	L592
  8962 00:3FEF: 82 21 00     	brl	L591
  8963                        L592:
  8964 00:3FF2: A0 00 00     	ldy	#$0
  8965 00:3FF5: A5 10        	lda	<L577+line_2
  8966 00:3FF7: 10 01        	bpl	L593
  8967 00:3FF9: 88           	dey
  8968                        L593:
  8969 00:3FFA: 85 01        	sta	<R0
  8970 00:3FFC: 84 03        	sty	<R0+2
  8971 00:3FFE: 38           	sec
  8972 00:3FFF: A9 FF FE     	lda	#$feff
  8973 00:4002: E5 01        	sbc	<R0
  8974 00:4004: A9 00 00     	lda	#$0
  8975 00:4007: E5 03        	sbc	<R0+2
  8976 00:4009: 70 03        	bvs	L594
  8977 00:400B: 49 00 80     	eor	#$8000
  8978                        L594:
  Sun Jan  9 2022 20:52                                                Page 156


  8979 00:400E: 10 03        	bpl	L595
  8980 00:4010: 82 0A 00     	brl	L10457
  8981                        L595:
  8982                        L591:
  8983 00:4013: F4 0B 00     	pea	#<$b
  8984 00:4016: F4 04 00     	pea	#4
  8985 00:4019: 22 xx xx xx  	jsl	~~error
  8986                        L10457:
  8987 00:401D: D4 10        	pei	<L577+line_2
  8988 00:401F: 22 xx xx xx  	jsl	~~find_line
  8989 00:4023: 85 12        	sta	<L577+dest_2
  8990 00:4025: 86 14        	stx	<L577+dest_2+2
  8991 00:4027: D4 14        	pei	<L577+dest_2+2
  8992 00:4029: D4 12        	pei	<L577+dest_2
  8993 00:402B: 22 xx xx xx  	jsl	~~get_lineno
  8994 00:402F: 85 01        	sta	<R0
  8995 00:4031: A5 01        	lda	<R0
  8996 00:4033: C5 10        	cmp	<L577+line_2
  8997 00:4035: D0 03        	bne	L596
  8998 00:4037: 82 0C 00     	brl	L10458
  8999                        L596:
  9000 00:403A: D4 10        	pei	<L577+line_2
  9001 00:403C: F4 0C 00     	pea	#<$c
  9002 00:403F: F4 06 00     	pea	#6
  9003 00:4042: 22 xx xx xx  	jsl	~~error
  9004                        L10458:
  9005 00:4046: A0 05 00     	ldy	#$5
  9006 00:4049: B7 12        	lda	[<L577+dest_2],Y
  9007 00:404B: 29 FF 00     	and	#$ff
  9008 00:404E: 85 05        	sta	<R1
  9009 00:4050: A5 05        	lda	<R1
  9010 00:4052: EB           	xba
  9011 00:4053: 29 00 FF     	and	#$ff00
  9012 00:4056: 85 01        	sta	<R0
  9013 00:4058: A0 00 00     	ldy	#$0
  9014 00:405B: A5 01        	lda	<R0
  9015 00:405D: 10 01        	bpl	L597
  9016 00:405F: 88           	dey
  9017                        L597:
  9018 00:4060: 85 01        	sta	<R0
  9019 00:4062: 84 03        	sty	<R0+2
  9020 00:4064: A0 04 00     	ldy	#$4
  9021 00:4067: B7 12        	lda	[<L577+dest_2],Y
  9022 00:4069: 29 FF 00     	and	#$ff
  9023 00:406C: 85 05        	sta	<R1
  9024 00:406E: 64 07        	stz	<R1+2
  9025 00:4070: 18           	clc
  9026 00:4071: A5 05        	lda	<R1
  9027 00:4073: 65 01        	adc	<R0
  9028 00:4075: 85 09        	sta	<R2
  9029 00:4077: A5 07        	lda	<R1+2
  9030 00:4079: 65 03        	adc	<R0+2
  9031 00:407B: 85 0B        	sta	<R2+2
  9032 00:407D: 18           	clc
  9033 00:407E: A5 12        	lda	<L577+dest_2
  9034 00:4080: 65 09        	adc	<R2
  9035 00:4082: 85 12        	sta	<L577+dest_2
  9036 00:4084: A5 14        	lda	<L577+dest_2+2
  Sun Jan  9 2022 20:52                                                Page 157


  9037 00:4086: 65 0B        	adc	<R2+2
  9038 00:4088: 85 14        	sta	<L577+dest_2+2
  9039                        L10456:
  9040                        L10454:
  9041 00:408A: AD xx xx     	lda	|~~basicvars+425
  9042 00:408D: 89 10 00     	bit	#$10
  9043 00:4090: D0 03        	bne	L598
  9044 00:4092: 82 10 00     	brl	L10459
  9045                        L598:
  9046 00:4095: D4 14        	pei	<L577+dest_2+2
  9047 00:4097: D4 12        	pei	<L577+dest_2
  9048 00:4099: AD xx xx     	lda	|~~basicvars+62+2
  9049 00:409C: 48           	pha
  9050 00:409D: AD xx xx     	lda	|~~basicvars+62
  9051 00:40A0: 48           	pha
  9052 00:40A1: 22 xx xx xx  	jsl	~~trace_branch
  9053                        L10459:
  9054 00:40A5: E2 20        	sep	#$20
  9055                        	longa	off
  9056 00:40A7: A5 0F        	lda	<L577+onwhat_1
  9057 00:40A9: C9 B0        	cmp	#<$b0
  9058 00:40AB: C2 20        	rep	#$20
  9059                        	longa	on
  9060 00:40AD: F0 03        	beq	L599
  9061 00:40AF: 82 63 00     	brl	L10460
  9062                        L599:
  9063                        L10461:
  9064 00:40B2: AD xx xx     	lda	|~~basicvars+62
  9065 00:40B5: 85 01        	sta	<R0
  9066 00:40B7: AD xx xx     	lda	|~~basicvars+62+2
  9067 00:40BA: 85 03        	sta	<R0+2
  9068 00:40BC: E2 20        	sep	#$20
  9069                        	longa	off
  9070 00:40BE: A7 01        	lda	[<R0]
  9071 00:40C0: C9 3A        	cmp	#<$3a
  9072 00:40C2: C2 20        	rep	#$20
  9073                        	longa	on
  9074 00:40C4: D0 03        	bne	L600
  9075 00:40C6: 82 29 00     	brl	L10462
  9076                        L600:
  9077 00:40C9: AD xx xx     	lda	|~~basicvars+62
  9078 00:40CC: 85 01        	sta	<R0
  9079 00:40CE: AD xx xx     	lda	|~~basicvars+62+2
  9080 00:40D1: 85 03        	sta	<R0+2
  9081 00:40D3: A7 01        	lda	[<R0]
  9082 00:40D5: 29 FF 00     	and	#$ff
  9083 00:40D8: D0 03        	bne	L601
  9084 00:40DA: 82 15 00     	brl	L10462
  9085                        L601:
  9086 00:40DD: AD xx xx     	lda	|~~basicvars+62+2
  9087 00:40E0: 48           	pha
  9088 00:40E1: AD xx xx     	lda	|~~basicvars+62
  9089 00:40E4: 48           	pha
  9090 00:40E5: 22 xx xx xx  	jsl	~~skip_token
  9091 00:40E9: 8D xx xx     	sta	|~~basicvars+62
  9092 00:40EC: 8E xx xx     	stx	|~~basicvars+62+2
  9093 00:40EF: 82 C0 FF     	brl	L10461
  9094                        L10462:
  Sun Jan  9 2022 20:52                                                Page 158


  9095 00:40F2: AD xx xx     	lda	|~~basicvars+62
  9096 00:40F5: 85 01        	sta	<R0
  9097 00:40F7: AD xx xx     	lda	|~~basicvars+62+2
  9098 00:40FA: 85 03        	sta	<R0+2
  9099 00:40FC: E2 20        	sep	#$20
  9100                        	longa	off
  9101 00:40FE: A7 01        	lda	[<R0]
  9102 00:4100: C9 3A        	cmp	#<$3a
  9103 00:4102: C2 20        	rep	#$20
  9104                        	longa	on
  9105 00:4104: F0 03        	beq	L602
  9106 00:4106: 82 08 00     	brl	L10463
  9107                        L602:
  9108 00:4109: EE xx xx     	inc	|~~basicvars+62
  9109 00:410C: D0 03        	bne	L603
  9110 00:410E: EE xx xx     	inc	|~~basicvars+62+2
  9111                        L603:
  9112                        L10463:
  9113 00:4111: 22 xx xx xx  	jsl	~~push_gosub
  9114                        L10460:
  9115 00:4115: A5 12        	lda	<L577+dest_2
  9116 00:4117: 8D xx xx     	sta	|~~basicvars+62
  9117 00:411A: A5 14        	lda	<L577+dest_2+2
  9118 00:411C: 8D xx xx     	sta	|~~basicvars+62+2
  9119                        L10452:
  9120 00:411F: 82 77 03     	brl	L10464
  9121                        L10448:
  9122 00:4122: E2 20        	sep	#$20
  9123                        	longa	off
  9124 00:4124: A5 0F        	lda	<L577+onwhat_1
  9125 00:4126: C9 0C        	cmp	#<$c
  9126 00:4128: C2 20        	rep	#$20
  9127                        	longa	on
  9128 00:412A: D0 03        	bne	L605
  9129 00:412C: 82 0D 00     	brl	L604
  9130                        L605:
  9131 00:412F: E2 20        	sep	#$20
  9132                        	longa	off
  9133 00:4131: A5 0F        	lda	<L577+onwhat_1
  9134 00:4133: C9 0D        	cmp	#<$d
  9135 00:4135: C2 20        	rep	#$20
  9136                        	longa	on
  9137 00:4137: F0 03        	beq	L606
  9138 00:4139: 82 53 03     	brl	L10465
  9139                        L606:
  9140                        L604:
  9141             00000003   base_3	set	3
  9142             00000007   dp_3	set	7
  9143             0000000B   pp_3	set	11
  9144 00:413C: 38           	sec
  9145 00:413D: A9 01 00     	lda	#$1
  9146 00:4140: E5 0D        	sbc	<L577+index_1
  9147 00:4142: 70 03        	bvs	L607
  9148 00:4144: 49 00 80     	eor	#$8000
  9149                        L607:
  9150 00:4147: 10 03        	bpl	L608
  9151 00:4149: 82 14 00     	brl	L10466
  9152                        L608:
  Sun Jan  9 2022 20:52                                                Page 159


  9153 00:414C: D4 0D        	pei	<L577+index_1
  9154 00:414E: AD xx xx     	lda	|~~basicvars+62+2
  9155 00:4151: 48           	pha
  9156 00:4152: AD xx xx     	lda	|~~basicvars+62
  9157 00:4155: 48           	pha
  9158 00:4156: 22 xx xx xx  	jsl	~~find_onentry
  9159 00:415A: 8D xx xx     	sta	|~~basicvars+62
  9160 00:415D: 8E xx xx     	stx	|~~basicvars+62+2
  9161                        L10466:
  9162 00:4160: AD xx xx     	lda	|~~basicvars+62
  9163 00:4163: 85 01        	sta	<R0
  9164 00:4165: AD xx xx     	lda	|~~basicvars+62+2
  9165 00:4168: 85 03        	sta	<R0+2
  9166 00:416A: E2 20        	sep	#$20
  9167                        	longa	off
  9168 00:416C: A7 01        	lda	[<R0]
  9169 00:416E: C9 9F        	cmp	#<$9f
  9170 00:4170: C2 20        	rep	#$20
  9171                        	longa	on
  9172 00:4172: F0 03        	beq	L609
  9173 00:4174: 82 33 00     	brl	L10467
  9174                        L609:
  9175 00:4177: 18           	clc
  9176 00:4178: A9 03 00     	lda	#$3
  9177 00:417B: 6D xx xx     	adc	|~~basicvars+62
  9178 00:417E: 8D xx xx     	sta	|~~basicvars+62
  9179 00:4181: 90 03        	bcc	L610
  9180 00:4183: EE xx xx     	inc	|~~basicvars+62+2
  9181                        L610:
  9182 00:4186: AD xx xx     	lda	|~~basicvars+62
  9183 00:4189: 85 01        	sta	<R0
  9184 00:418B: AD xx xx     	lda	|~~basicvars+62+2
  9185 00:418E: 85 03        	sta	<R0+2
  9186 00:4190: E2 20        	sep	#$20
  9187                        	longa	off
  9188 00:4192: A7 01        	lda	[<R0]
  9189 00:4194: C9 1E        	cmp	#<$1e
  9190 00:4196: C2 20        	rep	#$20
  9191                        	longa	on
  9192 00:4198: F0 03        	beq	L611
  9193 00:419A: 82 0A 00     	brl	L10468
  9194                        L611:
  9195 00:419D: F4 05 00     	pea	#<$5
  9196 00:41A0: F4 04 00     	pea	#4
  9197 00:41A3: 22 xx xx xx  	jsl	~~error
  9198                        L10468:
  9199 00:41A7: 82 E2 02     	brl	L10469
  9200                        L10467:
  9201 00:41AA: AD xx xx     	lda	|~~basicvars+62
  9202 00:41AD: 85 01        	sta	<R0
  9203 00:41AF: AD xx xx     	lda	|~~basicvars+62+2
  9204 00:41B2: 85 03        	sta	<R0+2
  9205 00:41B4: E2 20        	sep	#$20
  9206                        	longa	off
  9207 00:41B6: A7 01        	lda	[<R0]
  9208 00:41B8: C9 0C        	cmp	#<$c
  9209 00:41BA: C2 20        	rep	#$20
  9210                        	longa	on
  Sun Jan  9 2022 20:52                                                Page 160


  9211 00:41BC: F0 03        	beq	L612
  9212 00:41BE: 82 01 01     	brl	L10470
  9213                        L612:
  9214             0000000F   ep_4	set	15
  9215 00:41C1: AD xx xx     	lda	|~~basicvars+62+2
  9216 00:41C4: 48           	pha
  9217 00:41C5: AD xx xx     	lda	|~~basicvars+62
  9218 00:41C8: 48           	pha
  9219 00:41C9: 22 xx xx xx  	jsl	~~get_srcaddr
  9220 00:41CD: 85 10        	sta	<L577+base_3
  9221 00:41CF: 86 12        	stx	<L577+base_3+2
  9222 00:41D1: D4 12        	pei	<L577+base_3+2
  9223 00:41D3: D4 10        	pei	<L577+base_3
  9224 00:41D5: 22 xx xx xx  	jsl	~~skip_name
  9225 00:41D9: 85 1C        	sta	<L577+ep_4
  9226 00:41DB: 86 1E        	stx	<L577+ep_4+2
  9227 00:41DD: 18           	clc
  9228 00:41DE: A9 FF FF     	lda	#$ffff
  9229 00:41E1: 65 1C        	adc	<L577+ep_4
  9230 00:41E3: 85 01        	sta	<R0
  9231 00:41E5: A9 FF FF     	lda	#$ffff
  9232 00:41E8: 65 1E        	adc	<L577+ep_4+2
  9233 00:41EA: 85 03        	sta	<R0+2
  9234 00:41EC: E2 20        	sep	#$20
  9235                        	longa	off
  9236 00:41EE: A7 01        	lda	[<R0]
  9237 00:41F0: C9 28        	cmp	#<$28
  9238 00:41F2: C2 20        	rep	#$20
  9239                        	longa	on
  9240 00:41F4: F0 03        	beq	L613
  9241 00:41F6: 82 08 00     	brl	L10471
  9242                        L613:
  9243 00:41F9: A5 1C        	lda	<L577+ep_4
  9244 00:41FB: D0 02        	bne	L614
  9245 00:41FD: C6 1E        	dec	<L577+ep_4+2
  9246                        L614:
  9247 00:41FF: C6 1C        	dec	<L577+ep_4
  9248                        L10471:
  9249 00:4201: 38           	sec
  9250 00:4202: A5 1C        	lda	<L577+ep_4
  9251 00:4204: E5 10        	sbc	<L577+base_3
  9252 00:4206: 85 01        	sta	<R0
  9253 00:4208: A5 1E        	lda	<L577+ep_4+2
  9254 00:420A: E5 12        	sbc	<L577+base_3+2
  9255 00:420C: 85 03        	sta	<R0+2
  9256 00:420E: D4 01        	pei	<R0
  9257 00:4210: D4 12        	pei	<L577+base_3+2
  9258 00:4212: D4 10        	pei	<L577+base_3
  9259 00:4214: 22 xx xx xx  	jsl	~~find_fnproc
  9260 00:4218: 85 18        	sta	<L577+pp_3
  9261 00:421A: 86 1A        	stx	<L577+pp_3+2
  9262 00:421C: A0 10 00     	ldy	#$10
  9263 00:421F: B7 18        	lda	[<L577+pp_3],Y
  9264 00:4221: 85 14        	sta	<L577+dp_3
  9265 00:4223: A0 12 00     	ldy	#$12
  9266 00:4226: B7 18        	lda	[<L577+pp_3],Y
  9267 00:4228: 85 16        	sta	<L577+dp_3+2
  9268 00:422A: D4 1A        	pei	<L577+pp_3+2
  Sun Jan  9 2022 20:52                                                Page 161


  9269 00:422C: D4 18        	pei	<L577+pp_3
  9270 00:422E: AD xx xx     	lda	|~~basicvars+62+2
  9271 00:4231: 48           	pha
  9272 00:4232: AD xx xx     	lda	|~~basicvars+62
  9273 00:4235: 48           	pha
  9274 00:4236: 22 xx xx xx  	jsl	~~set_address
  9275 00:423A: AD xx xx     	lda	|~~basicvars+62
  9276 00:423D: 85 01        	sta	<R0
  9277 00:423F: AD xx xx     	lda	|~~basicvars+62+2
  9278 00:4242: 85 03        	sta	<R0+2
  9279 00:4244: E2 20        	sep	#$20
  9280                        	longa	off
  9281 00:4246: A9 0D        	lda	#$d
  9282 00:4248: 87 01        	sta	[<R0]
  9283 00:424A: C2 20        	rep	#$20
  9284                        	longa	on
  9285 00:424C: 18           	clc
  9286 00:424D: A9 05 00     	lda	#$5
  9287 00:4250: 6D xx xx     	adc	|~~basicvars+62
  9288 00:4253: 8D xx xx     	sta	|~~basicvars+62
  9289 00:4256: 90 03        	bcc	L615
  9290 00:4258: EE xx xx     	inc	|~~basicvars+62+2
  9291                        L615:
  9292 00:425B: AD xx xx     	lda	|~~basicvars+62
  9293 00:425E: 85 01        	sta	<R0
  9294 00:4260: AD xx xx     	lda	|~~basicvars+62+2
  9295 00:4263: 85 03        	sta	<R0+2
  9296 00:4265: E2 20        	sep	#$20
  9297                        	longa	off
  9298 00:4267: A7 01        	lda	[<R0]
  9299 00:4269: C9 28        	cmp	#<$28
  9300 00:426B: C2 20        	rep	#$20
  9301                        	longa	on
  9302 00:426D: D0 03        	bne	L616
  9303 00:426F: 82 28 00     	brl	L10472
  9304                        L616:
  9305 00:4272: A0 07 00     	ldy	#$7
  9306 00:4275: B7 14        	lda	[<L577+dp_3],Y
  9307 00:4277: A0 09 00     	ldy	#$9
  9308 00:427A: 17 14        	ora	[<L577+dp_3],Y
  9309 00:427C: D0 03        	bne	L617
  9310 00:427E: 82 16 00     	brl	L10473
  9311                        L617:
  9312 00:4281: A0 08 00     	ldy	#$8
  9313 00:4284: B7 18        	lda	[<L577+pp_3],Y
  9314 00:4286: 48           	pha
  9315 00:4287: A0 06 00     	ldy	#$6
  9316 00:428A: B7 18        	lda	[<L577+pp_3],Y
  9317 00:428C: 48           	pha
  9318 00:428D: F4 12 00     	pea	#<$12
  9319 00:4290: F4 08 00     	pea	#8
  9320 00:4293: 22 xx xx xx  	jsl	~~error
  9321                        L10473:
  9322 00:4297: 82 25 00     	brl	L10474
  9323                        L10472:
  9324 00:429A: A0 07 00     	ldy	#$7
  9325 00:429D: B7 14        	lda	[<L577+dp_3],Y
  9326 00:429F: A0 09 00     	ldy	#$9
  Sun Jan  9 2022 20:52                                                Page 162


  9327 00:42A2: 17 14        	ora	[<L577+dp_3],Y
  9328 00:42A4: F0 03        	beq	L618
  9329 00:42A6: 82 16 00     	brl	L10475
  9330                        L618:
  9331 00:42A9: A0 08 00     	ldy	#$8
  9332 00:42AC: B7 18        	lda	[<L577+pp_3],Y
  9333 00:42AE: 48           	pha
  9334 00:42AF: A0 06 00     	ldy	#$6
  9335 00:42B2: B7 18        	lda	[<L577+pp_3],Y
  9336 00:42B4: 48           	pha
  9337 00:42B5: F4 11 00     	pea	#<$11
  9338 00:42B8: F4 08 00     	pea	#8
  9339 00:42BB: 22 xx xx xx  	jsl	~~error
  9340                        L10475:
  9341                        L10474:
  9342 00:42BF: 82 D4 00     	brl	L10476
  9343                        L10470:
  9344 00:42C2: AD xx xx     	lda	|~~basicvars+62
  9345 00:42C5: 85 01        	sta	<R0
  9346 00:42C7: AD xx xx     	lda	|~~basicvars+62+2
  9347 00:42CA: 85 03        	sta	<R0+2
  9348 00:42CC: E2 20        	sep	#$20
  9349                        	longa	off
  9350 00:42CE: A7 01        	lda	[<R0]
  9351 00:42D0: C9 0D        	cmp	#<$d
  9352 00:42D2: C2 20        	rep	#$20
  9353                        	longa	on
  9354 00:42D4: F0 03        	beq	L619
  9355 00:42D6: 82 B3 00     	brl	L10477
  9356                        L619:
  9357 00:42D9: AD xx xx     	lda	|~~basicvars+62
  9358 00:42DC: 85 01        	sta	<R0
  9359 00:42DE: AD xx xx     	lda	|~~basicvars+62+2
  9360 00:42E1: 85 03        	sta	<R0+2
  9361 00:42E3: A0 01 00     	ldy	#$1
  9362 00:42E6: B7 01        	lda	[<R0],Y
  9363 00:42E8: 29 FF 00     	and	#$ff
  9364 00:42EB: 85 01        	sta	<R0
  9365 00:42ED: AD xx xx     	lda	|~~basicvars+62
  9366 00:42F0: 85 09        	sta	<R2
  9367 00:42F2: AD xx xx     	lda	|~~basicvars+62+2
  9368 00:42F5: 85 0B        	sta	<R2+2
  9369 00:42F7: A0 02 00     	ldy	#$2
  9370 00:42FA: B7 09        	lda	[<R2],Y
  9371 00:42FC: 29 FF 00     	and	#$ff
  9372 00:42FF: 85 09        	sta	<R2
  9373 00:4301: A5 09        	lda	<R2
  9374 00:4303: EB           	xba
  9375 00:4304: 29 00 FF     	and	#$ff00
  9376 00:4307: 85 05        	sta	<R1
  9377 00:4309: A5 05        	lda	<R1
  9378 00:430B: 05 01        	ora	<R0
  9379 00:430D: 85 09        	sta	<R2
  9380 00:430F: AD xx xx     	lda	|~~basicvars+62
  9381 00:4312: 85 05        	sta	<R1
  9382 00:4314: AD xx xx     	lda	|~~basicvars+62+2
  9383 00:4317: 85 07        	sta	<R1+2
  9384 00:4319: A0 03 00     	ldy	#$3
  Sun Jan  9 2022 20:52                                                Page 163


  9385 00:431C: B7 05        	lda	[<R1],Y
  9386 00:431E: 29 FF 00     	and	#$ff
  9387 00:4321: A2 10 00     	ldx	#<$10
  9388                        	xref	~~~asl
  9389 00:4324: 22 xx xx xx  	jsl	~~~asl
  9390 00:4328: 85 01        	sta	<R0
  9391 00:432A: A5 01        	lda	<R0
  9392 00:432C: 05 09        	ora	<R2
  9393 00:432E: 85 05        	sta	<R1
  9394 00:4330: AD xx xx     	lda	|~~basicvars+62
  9395 00:4333: 85 09        	sta	<R2
  9396 00:4335: AD xx xx     	lda	|~~basicvars+62+2
  9397 00:4338: 85 0B        	sta	<R2+2
  9398 00:433A: A0 04 00     	ldy	#$4
  9399 00:433D: B7 09        	lda	[<R2],Y
  9400 00:433F: 29 FF 00     	and	#$ff
  9401 00:4342: A2 18 00     	ldx	#<$18
  9402                        	xref	~~~asl
  9403 00:4345: 22 xx xx xx  	jsl	~~~asl
  9404 00:4349: 85 01        	sta	<R0
  9405 00:434B: A5 01        	lda	<R0
  9406 00:434D: 05 05        	ora	<R1
  9407 00:434F: 85 09        	sta	<R2
  9408 00:4351: A0 00 00     	ldy	#$0
  9409 00:4354: A5 09        	lda	<R2
  9410 00:4356: 10 01        	bpl	L620
  9411 00:4358: 88           	dey
  9412                        L620:
  9413 00:4359: 85 01        	sta	<R0
  9414 00:435B: 84 03        	sty	<R0+2
  9415 00:435D: 18           	clc
  9416 00:435E: AD xx xx     	lda	|~~basicvars
  9417 00:4361: 65 01        	adc	<R0
  9418 00:4363: 85 18        	sta	<L577+pp_3
  9419 00:4365: AD xx xx     	lda	|~~basicvars+2
  9420 00:4368: 65 03        	adc	<R0+2
  9421 00:436A: 85 1A        	sta	<L577+pp_3+2
  9422 00:436C: A0 10 00     	ldy	#$10
  9423 00:436F: B7 18        	lda	[<L577+pp_3],Y
  9424 00:4371: 85 14        	sta	<L577+dp_3
  9425 00:4373: A0 12 00     	ldy	#$12
  9426 00:4376: B7 18        	lda	[<L577+pp_3],Y
  9427 00:4378: 85 16        	sta	<L577+dp_3+2
  9428 00:437A: 18           	clc
  9429 00:437B: A9 05 00     	lda	#$5
  9430 00:437E: 6D xx xx     	adc	|~~basicvars+62
  9431 00:4381: 8D xx xx     	sta	|~~basicvars+62
  9432 00:4384: 90 03        	bcc	L621
  9433 00:4386: EE xx xx     	inc	|~~basicvars+62+2
  9434                        L621:
  9435 00:4389: 82 0A 00     	brl	L10478
  9436                        L10477:
  9437 00:438C: F4 05 00     	pea	#<$5
  9438 00:438F: F4 04 00     	pea	#4
  9439 00:4392: 22 xx xx xx  	jsl	~~error
  9440                        L10478:
  9441                        L10476:
  9442 00:4396: AD xx xx     	lda	|~~basicvars+62
  Sun Jan  9 2022 20:52                                                Page 164


  9443 00:4399: 85 01        	sta	<R0
  9444 00:439B: AD xx xx     	lda	|~~basicvars+62+2
  9445 00:439E: 85 03        	sta	<R0+2
  9446 00:43A0: E2 20        	sep	#$20
  9447                        	longa	off
  9448 00:43A2: A7 01        	lda	[<R0]
  9449 00:43A4: C9 28        	cmp	#<$28
  9450 00:43A6: C2 20        	rep	#$20
  9451                        	longa	on
  9452 00:43A8: F0 03        	beq	L622
  9453 00:43AA: 82 14 00     	brl	L10479
  9454                        L622:
  9455 00:43AD: A0 08 00     	ldy	#$8
  9456 00:43B0: B7 18        	lda	[<L577+pp_3],Y
  9457 00:43B2: 48           	pha
  9458 00:43B3: A0 06 00     	ldy	#$6
  9459 00:43B6: B7 18        	lda	[<L577+pp_3],Y
  9460 00:43B8: 48           	pha
  9461 00:43B9: D4 16        	pei	<L577+dp_3+2
  9462 00:43BB: D4 14        	pei	<L577+dp_3
  9463 00:43BD: 22 xx xx xx  	jsl	~~push_parameters
  9464                        L10479:
  9465 00:43C1: AD xx xx     	lda	|~~basicvars+425
  9466 00:43C4: 89 01 00     	bit	#$1
  9467 00:43C7: D0 03        	bne	L623
  9468 00:43C9: 82 3E 00     	brl	L10480
  9469                        L623:
  9470 00:43CC: AD xx xx     	lda	|~~basicvars+425
  9471 00:43CF: 89 04 00     	bit	#$4
  9472 00:43D2: D0 03        	bne	L624
  9473 00:43D4: 82 13 00     	brl	L10481
  9474                        L624:
  9475 00:43D7: F4 01 00     	pea	#<$1
  9476 00:43DA: A0 08 00     	ldy	#$8
  9477 00:43DD: B7 18        	lda	[<L577+pp_3],Y
  9478 00:43DF: 48           	pha
  9479 00:43E0: A0 06 00     	ldy	#$6
  9480 00:43E3: B7 18        	lda	[<L577+pp_3],Y
  9481 00:43E5: 48           	pha
  9482 00:43E6: 22 xx xx xx  	jsl	~~trace_proc
  9483                        L10481:
  9484 00:43EA: AD xx xx     	lda	|~~basicvars+425
  9485 00:43ED: 89 10 00     	bit	#$10
  9486 00:43F0: D0 03        	bne	L625
  9487 00:43F2: 82 15 00     	brl	L10482
  9488                        L625:
  9489 00:43F5: A0 02 00     	ldy	#$2
  9490 00:43F8: B7 14        	lda	[<L577+dp_3],Y
  9491 00:43FA: 48           	pha
  9492 00:43FB: A7 14        	lda	[<L577+dp_3]
  9493 00:43FD: 48           	pha
  9494 00:43FE: AD xx xx     	lda	|~~basicvars+62+2
  9495 00:4401: 48           	pha
  9496 00:4402: AD xx xx     	lda	|~~basicvars+62
  9497 00:4405: 48           	pha
  9498 00:4406: 22 xx xx xx  	jsl	~~trace_branch
  9499                        L10482:
  9500                        L10480:
  Sun Jan  9 2022 20:52                                                Page 165


  9501                        L10483:
  9502 00:440A: AD xx xx     	lda	|~~basicvars+62
  9503 00:440D: 85 01        	sta	<R0
  9504 00:440F: AD xx xx     	lda	|~~basicvars+62+2
  9505 00:4412: 85 03        	sta	<R0+2
  9506 00:4414: E2 20        	sep	#$20
  9507                        	longa	off
  9508 00:4416: A7 01        	lda	[<R0]
  9509 00:4418: C9 3A        	cmp	#<$3a
  9510 00:441A: C2 20        	rep	#$20
  9511                        	longa	on
  9512 00:441C: D0 03        	bne	L626
  9513 00:441E: 82 29 00     	brl	L10484
  9514                        L626:
  9515 00:4421: AD xx xx     	lda	|~~basicvars+62
  9516 00:4424: 85 01        	sta	<R0
  9517 00:4426: AD xx xx     	lda	|~~basicvars+62+2
  9518 00:4429: 85 03        	sta	<R0+2
  9519 00:442B: A7 01        	lda	[<R0]
  9520 00:442D: 29 FF 00     	and	#$ff
  9521 00:4430: D0 03        	bne	L627
  9522 00:4432: 82 15 00     	brl	L10484
  9523                        L627:
  9524 00:4435: AD xx xx     	lda	|~~basicvars+62+2
  9525 00:4438: 48           	pha
  9526 00:4439: AD xx xx     	lda	|~~basicvars+62
  9527 00:443C: 48           	pha
  9528 00:443D: 22 xx xx xx  	jsl	~~skip_token
  9529 00:4441: 8D xx xx     	sta	|~~basicvars+62
  9530 00:4444: 8E xx xx     	stx	|~~basicvars+62+2
  9531 00:4447: 82 C0 FF     	brl	L10483
  9532                        L10484:
  9533 00:444A: AD xx xx     	lda	|~~basicvars+62
  9534 00:444D: 85 01        	sta	<R0
  9535 00:444F: AD xx xx     	lda	|~~basicvars+62+2
  9536 00:4452: 85 03        	sta	<R0+2
  9537 00:4454: E2 20        	sep	#$20
  9538                        	longa	off
  9539 00:4456: A7 01        	lda	[<R0]
  9540 00:4458: C9 3A        	cmp	#<$3a
  9541 00:445A: C2 20        	rep	#$20
  9542                        	longa	on
  9543 00:445C: F0 03        	beq	L628
  9544 00:445E: 82 08 00     	brl	L10485
  9545                        L628:
  9546 00:4461: EE xx xx     	inc	|~~basicvars+62
  9547 00:4464: D0 03        	bne	L629
  9548 00:4466: EE xx xx     	inc	|~~basicvars+62+2
  9549                        L629:
  9550                        L10485:
  9551 00:4469: A0 04 00     	ldy	#$4
  9552 00:446C: B7 14        	lda	[<L577+dp_3],Y
  9553 00:446E: 48           	pha
  9554 00:446F: A0 08 00     	ldy	#$8
  9555 00:4472: B7 18        	lda	[<L577+pp_3],Y
  9556 00:4474: 48           	pha
  9557 00:4475: A0 06 00     	ldy	#$6
  9558 00:4478: B7 18        	lda	[<L577+pp_3],Y
  Sun Jan  9 2022 20:52                                                Page 166


  9559 00:447A: 48           	pha
  9560 00:447B: 22 xx xx xx  	jsl	~~push_proc
  9561 00:447F: A7 14        	lda	[<L577+dp_3]
  9562 00:4481: 8D xx xx     	sta	|~~basicvars+62
  9563 00:4484: A0 02 00     	ldy	#$2
  9564 00:4487: B7 14        	lda	[<L577+dp_3],Y
  9565 00:4489: 8D xx xx     	sta	|~~basicvars+62+2
  9566                        L10469:
  9567 00:448C: 82 0A 00     	brl	L10486
  9568                        L10465:
  9569 00:448F: F4 05 00     	pea	#<$5
  9570 00:4492: F4 04 00     	pea	#4
  9571 00:4495: 22 xx xx xx  	jsl	~~error
  9572                        L10486:
  9573                        L10464:
  9574                        L10447:
  9575                        L630:
  9576 00:4499: 2B           	pld
  9577 00:449A: 3B           	tsc
  9578 00:449B: 18           	clc
  9579 00:449C: 69 1F 00     	adc	#L576
  9580 00:449F: 1B           	tcs
  9581 00:44A0: 6B           	rtl
  9582             0000001F   L576	equ	31
  9583             0000000D   L577	equ	13
  9584                        	ends
  9585                        	efunc
  9586                        	code
  9587                        	xdef	~~exec_on
  9588                        	func
  9589                        ~~exec_on:
  9590                        	longa	on
  9591                        	longi	on
  9592 00:44A1: 3B           	tsc
  9593 00:44A2: 38           	sec
  9594 00:44A3: E9 04 00     	sbc	#L631
  9595 00:44A6: 1B           	tcs
  9596 00:44A7: 0B           	phd
  9597 00:44A8: 5B           	tcd
  9598 00:44A9: EE xx xx     	inc	|~~basicvars+62
  9599 00:44AC: D0 03        	bne	L633
  9600 00:44AE: EE xx xx     	inc	|~~basicvars+62+2
  9601                        L633:
  9602 00:44B1: AD xx xx     	lda	|~~basicvars+62
  9603 00:44B4: 85 01        	sta	<R0
  9604 00:44B6: AD xx xx     	lda	|~~basicvars+62+2
  9605 00:44B9: 85 03        	sta	<R0+2
  9606 00:44BB: E2 20        	sep	#$20
  9607                        	longa	off
  9608 00:44BD: A7 01        	lda	[<R0]
  9609 00:44BF: C9 A9        	cmp	#<$a9
  9610 00:44C1: C2 20        	rep	#$20
  9611                        	longa	on
  9612 00:44C3: F0 03        	beq	L634
  9613 00:44C5: 82 07 00     	brl	L10487
  9614                        L634:
  9615 00:44C8: 22 xx xx xx  	jsl	~~exec_onerror
  9616 00:44CC: 82 29 00     	brl	L10488
  Sun Jan  9 2022 20:52                                                Page 167


  9617                        L10487:
  9618 00:44CF: AD xx xx     	lda	|~~basicvars+62
  9619 00:44D2: 85 01        	sta	<R0
  9620 00:44D4: AD xx xx     	lda	|~~basicvars+62+2
  9621 00:44D7: 85 03        	sta	<R0+2
  9622 00:44D9: A7 01        	lda	[<R0]
  9623 00:44DB: 29 FF 00     	and	#$ff
  9624 00:44DE: 85 01        	sta	<R0
  9625 00:44E0: A6 01        	ldx	<R0
  9626 00:44E2: BD xx xx     	lda	|~~ateol,X
  9627 00:44E5: 29 FF 00     	and	#$ff
  9628 00:44E8: D0 03        	bne	L635
  9629 00:44EA: 82 07 00     	brl	L10489
  9630                        L635:
  9631 00:44ED: 22 xx xx xx  	jsl	~~emulate_on
  9632 00:44F1: 82 04 00     	brl	L10490
  9633                        L10489:
  9634 00:44F4: 22 xx xx xx  	jsl	~~exec_onbranch
  9635                        L10490:
  9636                        L10488:
  9637                        L636:
  9638 00:44F8: 2B           	pld
  9639 00:44F9: 3B           	tsc
  9640 00:44FA: 18           	clc
  9641 00:44FB: 69 04 00     	adc	#L631
  9642 00:44FE: 1B           	tcs
  9643 00:44FF: 6B           	rtl
  9644             00000004   L631	equ	4
  9645             00000005   L632	equ	5
  9646                        	ends
  9647                        	efunc
  9648                        	code
  9649                        	xdef	~~exec_oscli
  9650                        	func
  9651                        ~~exec_oscli:
  9652                        	longa	on
  9653                        	longi	on
  9654 00:4500: 3B           	tsc
  9655 00:4501: 38           	sec
  9656 00:4502: E9 43 00     	sbc	#L637
  9657 00:4505: 1B           	tcs
  9658 00:4506: 0B           	phd
  9659 00:4507: 5B           	tcd
  9660             00000000   stringtype_1	set	0
  9661             00000002   descriptor_1	set	2
  9662             00000008   response_1	set	8
  9663             0000000E   linecount_1	set	14
  9664             00000014   tofile_1	set	20
  9665             00000015   respname_1	set	21
  9666             00000025   length_1	set	37
  9667             00000027   count_1	set	39
  9668             00000029   n_1	set	41
  9669             0000002B   respfile_1	set	43
  9670             0000002F   p_1	set	47
  9671             00000033   ap_1	set	51
  9672 00:4508: EE xx xx     	inc	|~~basicvars+62
  9673 00:450B: D0 03        	bne	L639
  9674 00:450D: EE xx xx     	inc	|~~basicvars+62+2
  Sun Jan  9 2022 20:52                                                Page 168


  9675                        L639:
  9676 00:4510: 22 xx xx xx  	jsl	~~expression
  9677 00:4514: AD xx xx     	lda	|~~basicvars+42
  9678 00:4517: 85 01        	sta	<R0
  9679 00:4519: AD xx xx     	lda	|~~basicvars+42+2
  9680 00:451C: 85 03        	sta	<R0+2
  9681 00:451E: A7 01        	lda	[<R0]
  9682 00:4520: 85 0D        	sta	<L638+stringtype_1
  9683 00:4522: A5 0D        	lda	<L638+stringtype_1
  9684 00:4524: C9 04 00     	cmp	#<$4
  9685 00:4527: D0 03        	bne	L640
  9686 00:4529: 82 14 00     	brl	L10491
  9687                        L640:
  9688 00:452C: A5 0D        	lda	<L638+stringtype_1
  9689 00:452E: C9 05 00     	cmp	#<$5
  9690 00:4531: D0 03        	bne	L641
  9691 00:4533: 82 0A 00     	brl	L10491
  9692                        L641:
  9693 00:4536: F4 40 00     	pea	#<$40
  9694 00:4539: F4 04 00     	pea	#4
  9695 00:453C: 22 xx xx xx  	jsl	~~error
  9696                        L10491:
  9697 00:4540: 64 01        	stz	<R0
  9698 00:4542: AD xx xx     	lda	|~~basicvars+62
  9699 00:4545: 85 05        	sta	<R1
  9700 00:4547: AD xx xx     	lda	|~~basicvars+62+2
  9701 00:454A: 85 07        	sta	<R1+2
  9702 00:454C: E2 20        	sep	#$20
  9703                        	longa	off
  9704 00:454E: A7 05        	lda	[<R1]
  9705 00:4550: C9 E1        	cmp	#<$e1
  9706 00:4552: C2 20        	rep	#$20
  9707                        	longa	on
  9708 00:4554: F0 03        	beq	L643
  9709 00:4556: 82 02 00     	brl	L642
  9710                        L643:
  9711 00:4559: E6 01        	inc	<R0
  9712                        L642:
  9713 00:455B: E2 20        	sep	#$20
  9714                        	longa	off
  9715 00:455D: A5 01        	lda	<R0
  9716 00:455F: 85 21        	sta	<L638+tofile_1
  9717 00:4561: C2 20        	rep	#$20
  9718                        	longa	on
  9719 00:4563: A5 21        	lda	<L638+tofile_1
  9720 00:4565: 29 FF 00     	and	#$ff
  9721 00:4568: D0 03        	bne	L644
  9722 00:456A: 82 5A 00     	brl	L10492
  9723                        L644:
  9724 00:456D: EE xx xx     	inc	|~~basicvars+62
  9725 00:4570: D0 03        	bne	L645
  9726 00:4572: EE xx xx     	inc	|~~basicvars+62+2
  9727                        L645:
  9728 00:4575: F4 00 00     	pea	#0
  9729 00:4578: 18           	clc
  9730 00:4579: 7B           	tdc
  9731 00:457A: 69 15 00     	adc	#<L638+response_1
  9732 00:457D: 48           	pha
  Sun Jan  9 2022 20:52                                                Page 169


  9733 00:457E: 22 xx xx xx  	jsl	~~get_lvalue
  9734 00:4582: A5 15        	lda	<L638+response_1
  9735 00:4584: C9 0C 00     	cmp	#<$c
  9736 00:4587: D0 03        	bne	L646
  9737 00:4589: 82 0A 00     	brl	L10493
  9738                        L646:
  9739 00:458C: F4 49 00     	pea	#<$49
  9740 00:458F: F4 04 00     	pea	#4
  9741 00:4592: 22 xx xx xx  	jsl	~~error
  9742                        L10493:
  9743 00:4596: AD xx xx     	lda	|~~basicvars+62
  9744 00:4599: 85 01        	sta	<R0
  9745 00:459B: AD xx xx     	lda	|~~basicvars+62+2
  9746 00:459E: 85 03        	sta	<R0+2
  9747 00:45A0: E2 20        	sep	#$20
  9748                        	longa	off
  9749 00:45A2: A7 01        	lda	[<R0]
  9750 00:45A4: C9 2C        	cmp	#<$2c
  9751 00:45A6: C2 20        	rep	#$20
  9752                        	longa	on
  9753 00:45A8: F0 03        	beq	L647
  9754 00:45AA: 82 18 00     	brl	L10494
  9755                        L647:
  9756 00:45AD: EE xx xx     	inc	|~~basicvars+62
  9757 00:45B0: D0 03        	bne	L648
  9758 00:45B2: EE xx xx     	inc	|~~basicvars+62+2
  9759                        L648:
  9760 00:45B5: F4 00 00     	pea	#0
  9761 00:45B8: 18           	clc
  9762 00:45B9: 7B           	tdc
  9763 00:45BA: 69 1B 00     	adc	#<L638+linecount_1
  9764 00:45BD: 48           	pha
  9765 00:45BE: 22 xx xx xx  	jsl	~~get_lvalue
  9766 00:45C2: 82 02 00     	brl	L10495
  9767                        L10494:
  9768 00:45C5: 64 1B        	stz	<L638+linecount_1
  9769                        L10495:
  9770                        L10492:
  9771 00:45C7: 22 xx xx xx  	jsl	~~check_ateol
  9772 00:45CB: 22 xx xx xx  	jsl	~~pop_string
  9773 00:45CF: 85 01        	sta	<R0
  9774 00:45D1: 86 03        	stx	<R0+2
  9775 00:45D3: D4 03        	pei	<R0+2
  9776 00:45D5: D4 01        	pei	<R0
  9777 00:45D7: 18           	clc
  9778 00:45D8: 7B           	tdc
  9779 00:45D9: 69 0F 00     	adc	#<L638+descriptor_1
  9780 00:45DC: 85 01        	sta	<R0
  9781 00:45DE: A9 00 00     	lda	#$0
  9782 00:45E1: 85 03        	sta	<R0+2
  9783 00:45E3: D4 03        	pei	<R0+2
  9784 00:45E5: D4 01        	pei	<R0
  9785 00:45E7: A9 06 00     	lda	#$6
  9786                        	xref	~~~fmov
  9787 00:45EA: 22 xx xx xx  	jsl	~~~fmov
  9788 00:45EE: A0 00 00     	ldy	#$0
  9789 00:45F1: A5 0F        	lda	<L638+descriptor_1
  9790 00:45F3: 10 01        	bpl	L649
  Sun Jan  9 2022 20:52                                                Page 170


  9791 00:45F5: 88           	dey
  9792                        L649:
  9793 00:45F6: 85 01        	sta	<R0
  9794 00:45F8: 84 03        	sty	<R0+2
  9795 00:45FA: D4 03        	pei	<R0+2
  9796 00:45FC: D4 01        	pei	<R0
  9797 00:45FE: D4 13        	pei	<L638+descriptor_1+4
  9798 00:4600: D4 11        	pei	<L638+descriptor_1+2
  9799 00:4602: AD xx xx     	lda	|~~basicvars+70+2
  9800 00:4605: 48           	pha
  9801 00:4606: AD xx xx     	lda	|~~basicvars+70
  9802 00:4609: 48           	pha
  9803 00:460A: 22 xx xx xx  	jsl	~~memmove
  9804 00:460E: AD xx xx     	lda	|~~basicvars+70
  9805 00:4611: 85 01        	sta	<R0
  9806 00:4613: AD xx xx     	lda	|~~basicvars+70+2
  9807 00:4616: 85 03        	sta	<R0+2
  9808 00:4618: E2 20        	sep	#$20
  9809                        	longa	off
  9810 00:461A: A9 00        	lda	#$0
  9811 00:461C: A4 0F        	ldy	<L638+descriptor_1
  9812 00:461E: 97 01        	sta	[<R0],Y
  9813 00:4620: C2 20        	rep	#$20
  9814                        	longa	on
  9815 00:4622: A5 0D        	lda	<L638+stringtype_1
  9816 00:4624: C9 05 00     	cmp	#<$5
  9817 00:4627: F0 03        	beq	L650
  9818 00:4629: 82 2A 00     	brl	L10496
  9819                        L650:
  9820 00:462C: 38           	sec
  9821 00:462D: 3B           	tsc
  9822 00:462E: E9 06 00     	sbc	#6
  9823 00:4631: 1B           	tcs
  9824 00:4632: 1A           	ina
  9825 00:4633: 85 01        	sta	<R0
  9826 00:4635: 64 03        	stz	<R0+2
  9827 00:4637: 18           	clc
  9828 00:4638: 7B           	tdc
  9829 00:4639: 69 0F 00     	adc	#<L638+descriptor_1
  9830 00:463C: 85 05        	sta	<R1
  9831 00:463E: A9 00 00     	lda	#$0
  9832 00:4641: 85 07        	sta	<R1+2
  9833 00:4643: D4 07        	pei	<R1+2
  9834 00:4645: D4 05        	pei	<R1
  9835 00:4647: D4 03        	pei	<R0+2
  9836 00:4649: D4 01        	pei	<R0
  9837 00:464B: A9 06 00     	lda	#$6
  9838                        	xref	~~~fmov
  9839 00:464E: 22 xx xx xx  	jsl	~~~fmov
  9840 00:4652: 22 xx xx xx  	jsl	~~free_string
  9841                        L10496:
  9842 00:4656: A5 21        	lda	<L638+tofile_1
  9843 00:4658: 29 FF 00     	and	#$ff
  9844 00:465B: F0 03        	beq	L651
  9845 00:465D: 82 1A 00     	brl	L10497
  9846                        L651:
  9847 00:4660: F4 00 00     	pea	#^$0
  9848 00:4663: F4 00 00     	pea	#<$0
  Sun Jan  9 2022 20:52                                                Page 171


  9849 00:4666: AD xx xx     	lda	|~~basicvars+70+2
  9850 00:4669: 48           	pha
  9851 00:466A: AD xx xx     	lda	|~~basicvars+70
  9852 00:466D: 48           	pha
  9853 00:466E: 22 xx xx xx  	jsl	~~emulate_oscli
  9854                        L652:
  9855 00:4672: 2B           	pld
  9856 00:4673: 3B           	tsc
  9857 00:4674: 18           	clc
  9858 00:4675: 69 43 00     	adc	#L637
  9859 00:4678: 1B           	tcs
  9860 00:4679: 6B           	rtl
  9861                        L10497:
  9862 00:467A: F4 00 00     	pea	#0
  9863 00:467D: 18           	clc
  9864 00:467E: 7B           	tdc
  9865 00:467F: 69 22 00     	adc	#<L638+respname_1
  9866 00:4682: 48           	pha
  9867 00:4683: 22 xx xx xx  	jsl	~~secure_tmpnam
  9868 00:4687: 29 FF 00     	and	#$ff
  9869 00:468A: F0 03        	beq	L653
  9870 00:468C: 82 22 00     	brl	L10498
  9871                        L653:
  9872 00:468F: 22 xx xx xx  	jsl	~~__errno_location
  9873 00:4693: 85 01        	sta	<R0
  9874 00:4695: 86 03        	stx	<R0+2
  9875 00:4697: A7 01        	lda	[<R0]
  9876 00:4699: 48           	pha
  9877 00:469A: 22 xx xx xx  	jsl	~~strerror
  9878 00:469E: 85 01        	sta	<R0
  9879 00:46A0: 86 03        	stx	<R0+2
  9880 00:46A2: DA           	phx
  9881 00:46A3: 48           	pha
  9882 00:46A4: F4 8F 00     	pea	#<$8f
  9883 00:46A7: F4 08 00     	pea	#8
  9884 00:46AA: 22 xx xx xx  	jsl	~~error
  9885 00:46AE: 82 C1 FF     	brl	L652
  9886                        L10498:
  9887 00:46B1: F4 00 00     	pea	#0
  9888 00:46B4: 18           	clc
  9889 00:46B5: 7B           	tdc
  9890 00:46B6: 69 22 00     	adc	#<L638+respname_1
  9891 00:46B9: 48           	pha
  9892 00:46BA: AD xx xx     	lda	|~~basicvars+70+2
  9893 00:46BD: 48           	pha
  9894 00:46BE: AD xx xx     	lda	|~~basicvars+70
  9895 00:46C1: 48           	pha
  9896 00:46C2: 22 xx xx xx  	jsl	~~emulate_oscli
  9897 00:46C6: F4 xx xx     	pea	#^L543
  9898 00:46C9: F4 xx xx     	pea	#<L543
  9899 00:46CC: F4 00 00     	pea	#0
  9900 00:46CF: 18           	clc
  9901 00:46D0: 7B           	tdc
  9902 00:46D1: 69 22 00     	adc	#<L638+respname_1
  9903 00:46D4: 48           	pha
  9904 00:46D5: 22 xx xx xx  	jsl	~~fopen
  9905 00:46D9: 85 38        	sta	<L638+respfile_1
  9906 00:46DB: 86 3A        	stx	<L638+respfile_1+2
  Sun Jan  9 2022 20:52                                                Page 172


  9907 00:46DD: A5 38        	lda	<L638+respfile_1
  9908 00:46DF: 05 3A        	ora	<L638+respfile_1+2
  9909 00:46E1: F0 03        	beq	L654
  9910 00:46E3: 82 03 00     	brl	L10499
  9911                        L654:
  9912 00:46E6: 82 89 FF     	brl	L652
  9913                        L10499:
  9914 00:46E9: A7 17        	lda	[<L638+response_1+2]
  9915 00:46EB: 85 40        	sta	<L638+ap_1
  9916 00:46ED: A0 02 00     	ldy	#$2
  9917 00:46F0: B7 17        	lda	[<L638+response_1+2],Y
  9918 00:46F2: 85 42        	sta	<L638+ap_1+2
  9919 00:46F4: 64 0F        	stz	<L638+descriptor_1
  9920 00:46F6: AD xx xx     	lda	|~~nullstring
  9921 00:46F9: 85 11        	sta	<L638+descriptor_1+2
  9922 00:46FB: AD xx xx     	lda	|~~nullstring+2
  9923 00:46FE: 85 13        	sta	<L638+descriptor_1+4
  9924 00:4700: 64 36        	stz	<L638+n_1
  9925 00:4702: 82 9D 00     	brl	L10503
  9926                        L10502:
  9927 00:4705: 38           	sec
  9928 00:4706: 3B           	tsc
  9929 00:4707: E9 06 00     	sbc	#6
  9930 00:470A: 1B           	tcs
  9931 00:470B: 1A           	ina
  9932 00:470C: 85 01        	sta	<R0
  9933 00:470E: 64 03        	stz	<R0+2
  9934 00:4710: A0 00 00     	ldy	#$0
  9935 00:4713: A5 36        	lda	<L638+n_1
  9936 00:4715: 10 01        	bpl	L655
  9937 00:4717: 88           	dey
  9938                        L655:
  9939 00:4718: 85 05        	sta	<R1
  9940 00:471A: 84 07        	sty	<R1+2
  9941 00:471C: F4 00 00     	pea	#^$6
  9942 00:471F: F4 06 00     	pea	#<$6
  9943 00:4722: D4 07        	pei	<R1+2
  9944 00:4724: D4 05        	pei	<R1
  9945                        	xref	~~~lmul
  9946 00:4726: 22 xx xx xx  	jsl	~~~lmul
  9947 00:472A: 85 05        	sta	<R1
  9948 00:472C: 86 07        	stx	<R1+2
  9949 00:472E: 18           	clc
  9950 00:472F: A0 04 00     	ldy	#$4
  9951 00:4732: B7 40        	lda	[<L638+ap_1],Y
  9952 00:4734: 65 05        	adc	<R1
  9953 00:4736: 85 09        	sta	<R2
  9954 00:4738: A0 06 00     	ldy	#$6
  9955 00:473B: B7 40        	lda	[<L638+ap_1],Y
  9956 00:473D: 65 07        	adc	<R1+2
  9957 00:473F: 85 0B        	sta	<R2+2
  9958 00:4741: D4 0B        	pei	<R2+2
  9959 00:4743: D4 09        	pei	<R2
  9960 00:4745: D4 03        	pei	<R0+2
  9961 00:4747: D4 01        	pei	<R0
  9962 00:4749: A9 06 00     	lda	#$6
  9963                        	xref	~~~fmov
  9964 00:474C: 22 xx xx xx  	jsl	~~~fmov
  Sun Jan  9 2022 20:52                                                Page 173


  9965 00:4750: 22 xx xx xx  	jsl	~~free_string
  9966 00:4754: 18           	clc
  9967 00:4755: 7B           	tdc
  9968 00:4756: 69 0F 00     	adc	#<L638+descriptor_1
  9969 00:4759: 85 01        	sta	<R0
  9970 00:475B: A9 00 00     	lda	#$0
  9971 00:475E: 85 03        	sta	<R0+2
  9972 00:4760: D4 03        	pei	<R0+2
  9973 00:4762: D4 01        	pei	<R0
  9974 00:4764: A0 00 00     	ldy	#$0
  9975 00:4767: A5 36        	lda	<L638+n_1
  9976 00:4769: 10 01        	bpl	L656
  9977 00:476B: 88           	dey
  9978                        L656:
  9979 00:476C: 85 01        	sta	<R0
  9980 00:476E: 84 03        	sty	<R0+2
  9981 00:4770: F4 00 00     	pea	#^$6
  9982 00:4773: F4 06 00     	pea	#<$6
  9983 00:4776: D4 03        	pei	<R0+2
  9984 00:4778: D4 01        	pei	<R0
  9985                        	xref	~~~lmul
  9986 00:477A: 22 xx xx xx  	jsl	~~~lmul
  9987 00:477E: 85 01        	sta	<R0
  9988 00:4780: 86 03        	stx	<R0+2
  9989 00:4782: 18           	clc
  9990 00:4783: A0 04 00     	ldy	#$4
  9991 00:4786: B7 40        	lda	[<L638+ap_1],Y
  9992 00:4788: 65 01        	adc	<R0
  9993 00:478A: 85 05        	sta	<R1
  9994 00:478C: A0 06 00     	ldy	#$6
  9995 00:478F: B7 40        	lda	[<L638+ap_1],Y
  9996 00:4791: 65 03        	adc	<R0+2
  9997 00:4793: 85 07        	sta	<R1+2
  9998 00:4795: D4 07        	pei	<R1+2
  9999 00:4797: D4 05        	pei	<R1
 10000 00:4799: A9 06 00     	lda	#$6
 10001                        	xref	~~~fmov
 10002 00:479C: 22 xx xx xx  	jsl	~~~fmov
 10003                        L10500:
 10004 00:47A0: E6 36        	inc	<L638+n_1
 10005                        L10503:
 10006 00:47A2: 38           	sec
 10007 00:47A3: A5 36        	lda	<L638+n_1
 10008 00:47A5: A0 02 00     	ldy	#$2
 10009 00:47A8: F7 40        	sbc	[<L638+ap_1],Y
 10010 00:47AA: 70 03        	bvs	L657
 10011 00:47AC: 49 00 80     	eor	#$8000
 10012                        L657:
 10013 00:47AF: 30 03        	bmi	L658
 10014 00:47B1: 82 51 FF     	brl	L10502
 10015                        L658:
 10016                        L10501:
 10017 00:47B4: 64 34        	stz	<L638+count_1
 10018                        L10504:
 10019 00:47B6: D4 3A        	pei	<L638+respfile_1+2
 10020 00:47B8: D4 38        	pei	<L638+respfile_1
 10021 00:47BA: 22 xx xx xx  	jsl	~~feof
 10022 00:47BE: AA           	tax
  Sun Jan  9 2022 20:52                                                Page 174


 10023 00:47BF: F0 03        	beq	L659
 10024 00:47C1: 82 A0 01     	brl	L10505
 10025                        L659:
 10026 00:47C4: A5 34        	lda	<L638+count_1
 10027 00:47C6: 1A           	ina
 10028 00:47C7: 85 01        	sta	<R0
 10029 00:47C9: 38           	sec
 10030 00:47CA: A5 01        	lda	<R0
 10031 00:47CC: A0 02 00     	ldy	#$2
 10032 00:47CF: F7 40        	sbc	[<L638+ap_1],Y
 10033 00:47D1: 70 03        	bvs	L660
 10034 00:47D3: 49 00 80     	eor	#$8000
 10035                        L660:
 10036 00:47D6: 10 03        	bpl	L661
 10037 00:47D8: 82 89 01     	brl	L10505
 10038                        L661:
 10039 00:47DB: D4 3A        	pei	<L638+respfile_1+2
 10040 00:47DD: D4 38        	pei	<L638+respfile_1
 10041 00:47DF: F4 00 10     	pea	#<$1000
 10042 00:47E2: AD xx xx     	lda	|~~basicvars+70+2
 10043 00:47E5: 48           	pha
 10044 00:47E6: AD xx xx     	lda	|~~basicvars+70
 10045 00:47E9: 48           	pha
 10046 00:47EA: 22 xx xx xx  	jsl	~~fgets
 10047 00:47EE: 85 3C        	sta	<L638+p_1
 10048 00:47F0: 86 3E        	stx	<L638+p_1+2
 10049 00:47F2: A5 3C        	lda	<L638+p_1
 10050 00:47F4: 05 3E        	ora	<L638+p_1+2
 10051 00:47F6: F0 03        	beq	L662
 10052 00:47F8: 82 36 00     	brl	L10506
 10053                        L662:
 10054 00:47FB: D4 3A        	pei	<L638+respfile_1+2
 10055 00:47FD: D4 38        	pei	<L638+respfile_1
 10056 00:47FF: 22 xx xx xx  	jsl	~~ferror
 10057 00:4803: AA           	tax
 10058 00:4804: D0 03        	bne	L663
 10059 00:4806: 82 5B 01     	brl	L10505
 10060                        L663:
 10061 00:4809: D4 3A        	pei	<L638+respfile_1+2
 10062 00:480B: D4 38        	pei	<L638+respfile_1
 10063 00:480D: 22 xx xx xx  	jsl	~~fclose
 10064 00:4811: F4 00 00     	pea	#0
 10065 00:4814: 18           	clc
 10066 00:4815: 7B           	tdc
 10067 00:4816: 69 22 00     	adc	#<L638+respname_1
 10068 00:4819: 48           	pha
 10069 00:481A: 22 xx xx xx  	jsl	~~remove
 10070 00:481E: F4 xx xx     	pea	#^L543+3
 10071 00:4821: F4 xx xx     	pea	#<L543+3
 10072 00:4824: F4 7C 06     	pea	#<$67c
 10073 00:4827: F4 82 00     	pea	#<$82
 10074 00:482A: F4 0A 00     	pea	#10
 10075 00:482D: 22 xx xx xx  	jsl	~~error
 10076                        L10506:
 10077 00:4831: A5 3C        	lda	<L638+p_1
 10078 00:4833: 05 3E        	ora	<L638+p_1+2
 10079 00:4835: D0 03        	bne	L664
 10080 00:4837: 82 2A 01     	brl	L10505
  Sun Jan  9 2022 20:52                                                Page 175


 10081                        L664:
 10082 00:483A: AD xx xx     	lda	|~~basicvars+70
 10083 00:483D: 85 3C        	sta	<L638+p_1
 10084 00:483F: AD xx xx     	lda	|~~basicvars+70+2
 10085 00:4842: 85 3E        	sta	<L638+p_1+2
 10086 00:4844: E2 20        	sep	#$20
 10087                        	longa	off
 10088 00:4846: A7 3C        	lda	[<L638+p_1]
 10089 00:4848: C9 0D        	cmp	#<$d
 10090 00:484A: C2 20        	rep	#$20
 10091                        	longa	on
 10092 00:484C: F0 03        	beq	L665
 10093 00:484E: 82 06 00     	brl	L10507
 10094                        L665:
 10095 00:4851: E6 3C        	inc	<L638+p_1
 10096 00:4853: D0 02        	bne	L666
 10097 00:4855: E6 3E        	inc	<L638+p_1+2
 10098                        L666:
 10099                        L10507:
 10100 00:4857: D4 3E        	pei	<L638+p_1+2
 10101 00:4859: D4 3C        	pei	<L638+p_1
 10102 00:485B: 22 xx xx xx  	jsl	~~strlen
 10103 00:485F: 85 32        	sta	<L638+length_1
 10104                        L10508:
 10105 00:4861: 38           	sec
 10106 00:4862: A9 00 00     	lda	#$0
 10107 00:4865: E5 32        	sbc	<L638+length_1
 10108 00:4867: 70 03        	bvs	L667
 10109 00:4869: 49 00 80     	eor	#$8000
 10110                        L667:
 10111 00:486C: 10 03        	bpl	L668
 10112 00:486E: 82 4A 00     	brl	L10509
 10113                        L668:
 10114 00:4871: 18           	clc
 10115 00:4872: A9 FF FF     	lda	#$ffff
 10116 00:4875: 65 32        	adc	<L638+length_1
 10117 00:4877: 85 01        	sta	<R0
 10118 00:4879: E2 20        	sep	#$20
 10119                        	longa	off
 10120 00:487B: A4 01        	ldy	<R0
 10121 00:487D: B7 3C        	lda	[<L638+p_1],Y
 10122 00:487F: C9 0A        	cmp	#<$a
 10123 00:4881: C2 20        	rep	#$20
 10124                        	longa	on
 10125 00:4883: D0 03        	bne	L670
 10126 00:4885: 82 2E 00     	brl	L669
 10127                        L670:
 10128 00:4888: 18           	clc
 10129 00:4889: A9 FF FF     	lda	#$ffff
 10130 00:488C: 65 32        	adc	<L638+length_1
 10131 00:488E: 85 05        	sta	<R1
 10132 00:4890: E2 20        	sep	#$20
 10133                        	longa	off
 10134 00:4892: A4 05        	ldy	<R1
 10135 00:4894: B7 3C        	lda	[<L638+p_1],Y
 10136 00:4896: C9 0D        	cmp	#<$d
 10137 00:4898: C2 20        	rep	#$20
 10138                        	longa	on
  Sun Jan  9 2022 20:52                                                Page 176


 10139 00:489A: D0 03        	bne	L671
 10140 00:489C: 82 17 00     	brl	L669
 10141                        L671:
 10142 00:489F: 18           	clc
 10143 00:48A0: A9 FF FF     	lda	#$ffff
 10144 00:48A3: 65 32        	adc	<L638+length_1
 10145 00:48A5: 85 09        	sta	<R2
 10146 00:48A7: E2 20        	sep	#$20
 10147                        	longa	off
 10148 00:48A9: A4 09        	ldy	<R2
 10149 00:48AB: B7 3C        	lda	[<L638+p_1],Y
 10150 00:48AD: C9 20        	cmp	#<$20
 10151 00:48AF: C2 20        	rep	#$20
 10152                        	longa	on
 10153 00:48B1: F0 03        	beq	L672
 10154 00:48B3: 82 05 00     	brl	L10509
 10155                        L672:
 10156                        L669:
 10157 00:48B6: C6 32        	dec	<L638+length_1
 10158 00:48B8: 82 A6 FF     	brl	L10508
 10159                        L10509:
 10160 00:48BB: 38           	sec
 10161 00:48BC: A9 00 00     	lda	#$0
 10162 00:48BF: E5 32        	sbc	<L638+length_1
 10163 00:48C1: 70 03        	bvs	L674
 10164 00:48C3: 49 00 80     	eor	#$8000
 10165                        L674:
 10166 00:48C6: 30 03        	bmi	L675
 10167 00:48C8: 82 0E 00     	brl	L673
 10168                        L675:
 10169 00:48CB: D4 3A        	pei	<L638+respfile_1+2
 10170 00:48CD: D4 38        	pei	<L638+respfile_1
 10171 00:48CF: 22 xx xx xx  	jsl	~~feof
 10172 00:48D3: AA           	tax
 10173 00:48D4: F0 03        	beq	L676
 10174 00:48D6: 82 88 00     	brl	L10510
 10175                        L676:
 10176                        L673:
 10177 00:48D9: A5 32        	lda	<L638+length_1
 10178 00:48DB: 85 0F        	sta	<L638+descriptor_1
 10179 00:48DD: D4 32        	pei	<L638+length_1
 10180 00:48DF: 22 xx xx xx  	jsl	~~alloc_string
 10181 00:48E3: 85 11        	sta	<L638+descriptor_1+2
 10182 00:48E5: 86 13        	stx	<L638+descriptor_1+4
 10183 00:48E7: 38           	sec
 10184 00:48E8: A9 00 00     	lda	#$0
 10185 00:48EB: E5 32        	sbc	<L638+length_1
 10186 00:48ED: 70 03        	bvs	L677
 10187 00:48EF: 49 00 80     	eor	#$8000
 10188                        L677:
 10189 00:48F2: 10 03        	bpl	L678
 10190 00:48F4: 82 1C 00     	brl	L10511
 10191                        L678:
 10192 00:48F7: A0 00 00     	ldy	#$0
 10193 00:48FA: A5 32        	lda	<L638+length_1
 10194 00:48FC: 10 01        	bpl	L679
 10195 00:48FE: 88           	dey
 10196                        L679:
  Sun Jan  9 2022 20:52                                                Page 177


 10197 00:48FF: 85 01        	sta	<R0
 10198 00:4901: 84 03        	sty	<R0+2
 10199 00:4903: D4 03        	pei	<R0+2
 10200 00:4905: D4 01        	pei	<R0
 10201 00:4907: D4 3E        	pei	<L638+p_1+2
 10202 00:4909: D4 3C        	pei	<L638+p_1
 10203 00:490B: D4 13        	pei	<L638+descriptor_1+4
 10204 00:490D: D4 11        	pei	<L638+descriptor_1+2
 10205 00:490F: 22 xx xx xx  	jsl	~~memmove
 10206                        L10511:
 10207 00:4913: E6 34        	inc	<L638+count_1
 10208 00:4915: 18           	clc
 10209 00:4916: 7B           	tdc
 10210 00:4917: 69 0F 00     	adc	#<L638+descriptor_1
 10211 00:491A: 85 01        	sta	<R0
 10212 00:491C: A9 00 00     	lda	#$0
 10213 00:491F: 85 03        	sta	<R0+2
 10214 00:4921: D4 03        	pei	<R0+2
 10215 00:4923: D4 01        	pei	<R0
 10216 00:4925: A0 00 00     	ldy	#$0
 10217 00:4928: A5 34        	lda	<L638+count_1
 10218 00:492A: 10 01        	bpl	L680
 10219 00:492C: 88           	dey
 10220                        L680:
 10221 00:492D: 85 01        	sta	<R0
 10222 00:492F: 84 03        	sty	<R0+2
 10223 00:4931: F4 00 00     	pea	#^$6
 10224 00:4934: F4 06 00     	pea	#<$6
 10225 00:4937: D4 03        	pei	<R0+2
 10226 00:4939: D4 01        	pei	<R0
 10227                        	xref	~~~lmul
 10228 00:493B: 22 xx xx xx  	jsl	~~~lmul
 10229 00:493F: 85 01        	sta	<R0
 10230 00:4941: 86 03        	stx	<R0+2
 10231 00:4943: 18           	clc
 10232 00:4944: A0 04 00     	ldy	#$4
 10233 00:4947: B7 40        	lda	[<L638+ap_1],Y
 10234 00:4949: 65 01        	adc	<R0
 10235 00:494B: 85 05        	sta	<R1
 10236 00:494D: A0 06 00     	ldy	#$6
 10237 00:4950: B7 40        	lda	[<L638+ap_1],Y
 10238 00:4952: 65 03        	adc	<R0+2
 10239 00:4954: 85 07        	sta	<R1+2
 10240 00:4956: D4 07        	pei	<R1+2
 10241 00:4958: D4 05        	pei	<R1
 10242 00:495A: A9 06 00     	lda	#$6
 10243                        	xref	~~~fmov
 10244 00:495D: 22 xx xx xx  	jsl	~~~fmov
 10245                        L10510:
 10246 00:4961: 82 52 FE     	brl	L10504
 10247                        L10505:
 10248 00:4964: D4 3A        	pei	<L638+respfile_1+2
 10249 00:4966: D4 38        	pei	<L638+respfile_1
 10250 00:4968: 22 xx xx xx  	jsl	~~fclose
 10251 00:496C: F4 00 00     	pea	#0
 10252 00:496F: 18           	clc
 10253 00:4970: 7B           	tdc
 10254 00:4971: 69 22 00     	adc	#<L638+respname_1
  Sun Jan  9 2022 20:52                                                Page 178


 10255 00:4974: 48           	pha
 10256 00:4975: 22 xx xx xx  	jsl	~~remove
 10257 00:4979: A5 1B        	lda	<L638+linecount_1
 10258 00:497B: D0 03        	bne	L681
 10259 00:497D: 82 2F 00     	brl	L10512
 10260                        L681:
 10261 00:4980: F4 01 00     	pea	#<$1
 10262 00:4983: D4 34        	pei	<L638+count_1
 10263 00:4985: 38           	sec
 10264 00:4986: 3B           	tsc
 10265 00:4987: E9 06 00     	sbc	#6
 10266 00:498A: 1B           	tcs
 10267 00:498B: 1A           	ina
 10268 00:498C: 85 01        	sta	<R0
 10269 00:498E: 64 03        	stz	<R0+2
 10270 00:4990: 18           	clc
 10271 00:4991: 7B           	tdc
 10272 00:4992: 69 1B 00     	adc	#<L638+linecount_1
 10273 00:4995: 85 05        	sta	<R1
 10274 00:4997: A9 00 00     	lda	#$0
 10275 00:499A: 85 07        	sta	<R1+2
 10276 00:499C: D4 07        	pei	<R1+2
 10277 00:499E: D4 05        	pei	<R1
 10278 00:49A0: D4 03        	pei	<R0+2
 10279 00:49A2: D4 01        	pei	<R0
 10280 00:49A4: A9 06 00     	lda	#$6
 10281                        	xref	~~~fmov
 10282 00:49A7: 22 xx xx xx  	jsl	~~~fmov
 10283 00:49AB: 22 xx xx xx  	jsl	~~store_value
 10284                        L10512:
 10285 00:49AF: 82 C0 FC     	brl	L652
 10286             00000043   L637	equ	67
 10287             0000000D   L638	equ	13
 10288                        	ends
 10289                        	efunc
 10290                        	data
 10291                        L543:
 10292 00:001E: 72 62 00 6D  	db	$72,$62,$00,$6D,$61,$69,$6E,$73,$74,$61,
                    $74,$65,$00
       00:0022: 61 69 6E 73 
       00:0026: 74 61 74 65 
       00:002A: 00 
 10293 00:002B:              	ends
 10294                        	code
 10295                        	xdef	~~exec_overlay
 10296                        	func
 10297                        ~~exec_overlay:
 10298                        	longa	on
 10299                        	longi	on
 10300 00:49B2: 3B           	tsc
 10301 00:49B3: 38           	sec
 10302 00:49B4: E9 00 00     	sbc	#L683
 10303 00:49B7: 1B           	tcs
 10304 00:49B8: 0B           	phd
 10305 00:49B9: 5B           	tcd
 10306 00:49BA: F4 02 00     	pea	#<$2
 10307 00:49BD: F4 04 00     	pea	#4
 10308 00:49C0: 22 xx xx xx  	jsl	~~error
  Sun Jan  9 2022 20:52                                                Page 179


 10309                        L685:
 10310 00:49C4: 2B           	pld
 10311 00:49C5: 3B           	tsc
 10312 00:49C6: 18           	clc
 10313 00:49C7: 69 00 00     	adc	#L683
 10314 00:49CA: 1B           	tcs
 10315 00:49CB: 6B           	rtl
 10316             00000000   L683	equ	0
 10317             00000001   L684	equ	1
 10318                        	ends
 10319                        	efunc
 10320                        	code
 10321                        	xdef	~~exec_proc
 10322                        	func
 10323                        ~~exec_proc:
 10324                        	longa	on
 10325                        	longi	on
 10326 00:49CC: 3B           	tsc
 10327 00:49CD: 38           	sec
 10328 00:49CE: E9 14 00     	sbc	#L686
 10329 00:49D1: 1B           	tcs
 10330 00:49D2: 0B           	phd
 10331 00:49D3: 5B           	tcd
 10332             00000000   dp_1	set	0
 10333             00000004   vp_1	set	4
 10334 00:49D4: AD xx xx     	lda	|~~basicvars+489
 10335 00:49D7: 29 FF 00     	and	#$ff
 10336 00:49DA: D0 03        	bne	L688
 10337 00:49DC: 82 0A 00     	brl	L10513
 10338                        L688:
 10339 00:49DF: F4 08 00     	pea	#<$8
 10340 00:49E2: F4 04 00     	pea	#4
 10341 00:49E5: 22 xx xx xx  	jsl	~~error
 10342                        L10513:
 10343 00:49E9: AD xx xx     	lda	|~~basicvars+62
 10344 00:49EC: 85 01        	sta	<R0
 10345 00:49EE: AD xx xx     	lda	|~~basicvars+62+2
 10346 00:49F1: 85 03        	sta	<R0+2
 10347 00:49F3: A0 01 00     	ldy	#$1
 10348 00:49F6: B7 01        	lda	[<R0],Y
 10349 00:49F8: 29 FF 00     	and	#$ff
 10350 00:49FB: 85 01        	sta	<R0
 10351 00:49FD: AD xx xx     	lda	|~~basicvars+62
 10352 00:4A00: 85 09        	sta	<R2
 10353 00:4A02: AD xx xx     	lda	|~~basicvars+62+2
 10354 00:4A05: 85 0B        	sta	<R2+2
 10355 00:4A07: A0 02 00     	ldy	#$2
 10356 00:4A0A: B7 09        	lda	[<R2],Y
 10357 00:4A0C: 29 FF 00     	and	#$ff
 10358 00:4A0F: 85 09        	sta	<R2
 10359 00:4A11: A5 09        	lda	<R2
 10360 00:4A13: EB           	xba
 10361 00:4A14: 29 00 FF     	and	#$ff00
 10362 00:4A17: 85 05        	sta	<R1
 10363 00:4A19: A5 05        	lda	<R1
 10364 00:4A1B: 05 01        	ora	<R0
 10365 00:4A1D: 85 09        	sta	<R2
 10366 00:4A1F: AD xx xx     	lda	|~~basicvars+62
  Sun Jan  9 2022 20:52                                                Page 180


 10367 00:4A22: 85 05        	sta	<R1
 10368 00:4A24: AD xx xx     	lda	|~~basicvars+62+2
 10369 00:4A27: 85 07        	sta	<R1+2
 10370 00:4A29: A0 03 00     	ldy	#$3
 10371 00:4A2C: B7 05        	lda	[<R1],Y
 10372 00:4A2E: 29 FF 00     	and	#$ff
 10373 00:4A31: A2 10 00     	ldx	#<$10
 10374                        	xref	~~~asl
 10375 00:4A34: 22 xx xx xx  	jsl	~~~asl
 10376 00:4A38: 85 01        	sta	<R0
 10377 00:4A3A: A5 01        	lda	<R0
 10378 00:4A3C: 05 09        	ora	<R2
 10379 00:4A3E: 85 05        	sta	<R1
 10380 00:4A40: AD xx xx     	lda	|~~basicvars+62
 10381 00:4A43: 85 09        	sta	<R2
 10382 00:4A45: AD xx xx     	lda	|~~basicvars+62+2
 10383 00:4A48: 85 0B        	sta	<R2+2
 10384 00:4A4A: A0 04 00     	ldy	#$4
 10385 00:4A4D: B7 09        	lda	[<R2],Y
 10386 00:4A4F: 29 FF 00     	and	#$ff
 10387 00:4A52: A2 18 00     	ldx	#<$18
 10388                        	xref	~~~asl
 10389 00:4A55: 22 xx xx xx  	jsl	~~~asl
 10390 00:4A59: 85 01        	sta	<R0
 10391 00:4A5B: A5 01        	lda	<R0
 10392 00:4A5D: 05 05        	ora	<R1
 10393 00:4A5F: 85 09        	sta	<R2
 10394 00:4A61: A0 00 00     	ldy	#$0
 10395 00:4A64: A5 09        	lda	<R2
 10396 00:4A66: 10 01        	bpl	L689
 10397 00:4A68: 88           	dey
 10398                        L689:
 10399 00:4A69: 85 01        	sta	<R0
 10400 00:4A6B: 84 03        	sty	<R0+2
 10401 00:4A6D: 18           	clc
 10402 00:4A6E: AD xx xx     	lda	|~~basicvars
 10403 00:4A71: 65 01        	adc	<R0
 10404 00:4A73: 85 11        	sta	<L687+vp_1
 10405 00:4A75: AD xx xx     	lda	|~~basicvars+2
 10406 00:4A78: 65 03        	adc	<R0+2
 10407 00:4A7A: 85 13        	sta	<L687+vp_1+2
 10408 00:4A7C: A0 10 00     	ldy	#$10
 10409 00:4A7F: B7 11        	lda	[<L687+vp_1],Y
 10410 00:4A81: 85 0D        	sta	<L687+dp_1
 10411 00:4A83: A0 12 00     	ldy	#$12
 10412 00:4A86: B7 11        	lda	[<L687+vp_1],Y
 10413 00:4A88: 85 0F        	sta	<L687+dp_1+2
 10414 00:4A8A: 18           	clc
 10415 00:4A8B: A9 05 00     	lda	#$5
 10416 00:4A8E: 6D xx xx     	adc	|~~basicvars+62
 10417 00:4A91: 8D xx xx     	sta	|~~basicvars+62
 10418 00:4A94: 90 03        	bcc	L690
 10419 00:4A96: EE xx xx     	inc	|~~basicvars+62+2
 10420                        L690:
 10421 00:4A99: AD xx xx     	lda	|~~basicvars+62
 10422 00:4A9C: 85 01        	sta	<R0
 10423 00:4A9E: AD xx xx     	lda	|~~basicvars+62+2
 10424 00:4AA1: 85 03        	sta	<R0+2
  Sun Jan  9 2022 20:52                                                Page 181


 10425 00:4AA3: E2 20        	sep	#$20
 10426                        	longa	off
 10427 00:4AA5: A7 01        	lda	[<R0]
 10428 00:4AA7: C9 28        	cmp	#<$28
 10429 00:4AA9: C2 20        	rep	#$20
 10430                        	longa	on
 10431 00:4AAB: F0 03        	beq	L691
 10432 00:4AAD: 82 3C 00     	brl	L10514
 10433                        L691:
 10434 00:4AB0: A0 08 00     	ldy	#$8
 10435 00:4AB3: B7 11        	lda	[<L687+vp_1],Y
 10436 00:4AB5: 48           	pha
 10437 00:4AB6: A0 06 00     	ldy	#$6
 10438 00:4AB9: B7 11        	lda	[<L687+vp_1],Y
 10439 00:4ABB: 48           	pha
 10440 00:4ABC: D4 0F        	pei	<L687+dp_1+2
 10441 00:4ABE: D4 0D        	pei	<L687+dp_1
 10442 00:4AC0: 22 xx xx xx  	jsl	~~push_parameters
 10443 00:4AC4: AD xx xx     	lda	|~~basicvars+62
 10444 00:4AC7: 85 01        	sta	<R0
 10445 00:4AC9: AD xx xx     	lda	|~~basicvars+62+2
 10446 00:4ACC: 85 03        	sta	<R0+2
 10447 00:4ACE: A7 01        	lda	[<R0]
 10448 00:4AD0: 29 FF 00     	and	#$ff
 10449 00:4AD3: 85 01        	sta	<R0
 10450 00:4AD5: A6 01        	ldx	<R0
 10451 00:4AD7: BD xx xx     	lda	|~~ateol,X
 10452 00:4ADA: 29 FF 00     	and	#$ff
 10453 00:4ADD: F0 03        	beq	L692
 10454 00:4ADF: 82 0A 00     	brl	L10515
 10455                        L692:
 10456 00:4AE2: F4 05 00     	pea	#<$5
 10457 00:4AE5: F4 04 00     	pea	#4
 10458 00:4AE8: 22 xx xx xx  	jsl	~~error
 10459                        L10515:
 10460                        L10514:
 10461 00:4AEC: A0 04 00     	ldy	#$4
 10462 00:4AEF: B7 0D        	lda	[<L687+dp_1],Y
 10463 00:4AF1: 48           	pha
 10464 00:4AF2: A0 08 00     	ldy	#$8
 10465 00:4AF5: B7 11        	lda	[<L687+vp_1],Y
 10466 00:4AF7: 48           	pha
 10467 00:4AF8: A0 06 00     	ldy	#$6
 10468 00:4AFB: B7 11        	lda	[<L687+vp_1],Y
 10469 00:4AFD: 48           	pha
 10470 00:4AFE: 22 xx xx xx  	jsl	~~push_proc
 10471 00:4B02: AD xx xx     	lda	|~~basicvars+425
 10472 00:4B05: 89 01 00     	bit	#$1
 10473 00:4B08: D0 03        	bne	L693
 10474 00:4B0A: 82 3E 00     	brl	L10516
 10475                        L693:
 10476 00:4B0D: AD xx xx     	lda	|~~basicvars+425
 10477 00:4B10: 89 04 00     	bit	#$4
 10478 00:4B13: D0 03        	bne	L694
 10479 00:4B15: 82 13 00     	brl	L10517
 10480                        L694:
 10481 00:4B18: F4 01 00     	pea	#<$1
 10482 00:4B1B: A0 08 00     	ldy	#$8
  Sun Jan  9 2022 20:52                                                Page 182


 10483 00:4B1E: B7 11        	lda	[<L687+vp_1],Y
 10484 00:4B20: 48           	pha
 10485 00:4B21: A0 06 00     	ldy	#$6
 10486 00:4B24: B7 11        	lda	[<L687+vp_1],Y
 10487 00:4B26: 48           	pha
 10488 00:4B27: 22 xx xx xx  	jsl	~~trace_proc
 10489                        L10517:
 10490 00:4B2B: AD xx xx     	lda	|~~basicvars+425
 10491 00:4B2E: 89 10 00     	bit	#$10
 10492 00:4B31: D0 03        	bne	L695
 10493 00:4B33: 82 15 00     	brl	L10518
 10494                        L695:
 10495 00:4B36: A0 02 00     	ldy	#$2
 10496 00:4B39: B7 0D        	lda	[<L687+dp_1],Y
 10497 00:4B3B: 48           	pha
 10498 00:4B3C: A7 0D        	lda	[<L687+dp_1]
 10499 00:4B3E: 48           	pha
 10500 00:4B3F: AD xx xx     	lda	|~~basicvars+62+2
 10501 00:4B42: 48           	pha
 10502 00:4B43: AD xx xx     	lda	|~~basicvars+62
 10503 00:4B46: 48           	pha
 10504 00:4B47: 22 xx xx xx  	jsl	~~trace_branch
 10505                        L10518:
 10506                        L10516:
 10507 00:4B4B: A7 0D        	lda	[<L687+dp_1]
 10508 00:4B4D: 8D xx xx     	sta	|~~basicvars+62
 10509 00:4B50: A0 02 00     	ldy	#$2
 10510 00:4B53: B7 0D        	lda	[<L687+dp_1],Y
 10511 00:4B55: 8D xx xx     	sta	|~~basicvars+62+2
 10512                        L696:
 10513 00:4B58: 2B           	pld
 10514 00:4B59: 3B           	tsc
 10515 00:4B5A: 18           	clc
 10516 00:4B5B: 69 14 00     	adc	#L686
 10517 00:4B5E: 1B           	tcs
 10518 00:4B5F: 6B           	rtl
 10519             00000014   L686	equ	20
 10520             0000000D   L687	equ	13
 10521                        	ends
 10522                        	efunc
 10523                        	code
 10524                        	xdef	~~exec_xproc
 10525                        	func
 10526                        ~~exec_xproc:
 10527                        	longa	on
 10528                        	longi	on
 10529 00:4B60: 3B           	tsc
 10530 00:4B61: 38           	sec
 10531 00:4B62: E9 14 00     	sbc	#L697
 10532 00:4B65: 1B           	tcs
 10533 00:4B66: 0B           	phd
 10534 00:4B67: 5B           	tcd
 10535             00000000   tp_1	set	0
 10536             00000004   base_1	set	4
 10537             00000008   vp_1	set	8
 10538             0000000C   dp_1	set	12
 10539 00:4B68: AD xx xx     	lda	|~~basicvars+62
 10540 00:4B6B: 85 05        	sta	<L698+tp_1
  Sun Jan  9 2022 20:52                                                Page 183


 10541 00:4B6D: AD xx xx     	lda	|~~basicvars+62+2
 10542 00:4B70: 85 07        	sta	<L698+tp_1+2
 10543 00:4B72: D4 07        	pei	<L698+tp_1+2
 10544 00:4B74: D4 05        	pei	<L698+tp_1
 10545 00:4B76: 22 xx xx xx  	jsl	~~get_srcaddr
 10546 00:4B7A: 85 09        	sta	<L698+base_1
 10547 00:4B7C: 86 0B        	stx	<L698+base_1+2
 10548 00:4B7E: E2 20        	sep	#$20
 10549                        	longa	off
 10550 00:4B80: A7 09        	lda	[<L698+base_1]
 10551 00:4B82: C9 CD        	cmp	#<$cd
 10552 00:4B84: C2 20        	rep	#$20
 10553                        	longa	on
 10554 00:4B86: D0 03        	bne	L699
 10555 00:4B88: 82 0A 00     	brl	L10519
 10556                        L699:
 10557 00:4B8B: F4 53 00     	pea	#<$53
 10558 00:4B8E: F4 04 00     	pea	#4
 10559 00:4B91: 22 xx xx xx  	jsl	~~error
 10560                        L10519:
 10561 00:4B95: D4 0B        	pei	<L698+base_1+2
 10562 00:4B97: D4 09        	pei	<L698+base_1
 10563 00:4B99: 22 xx xx xx  	jsl	~~skip_name
 10564 00:4B9D: 85 05        	sta	<L698+tp_1
 10565 00:4B9F: 86 07        	stx	<L698+tp_1+2
 10566 00:4BA1: 18           	clc
 10567 00:4BA2: A9 FF FF     	lda	#$ffff
 10568 00:4BA5: 65 05        	adc	<L698+tp_1
 10569 00:4BA7: 85 01        	sta	<R0
 10570 00:4BA9: A9 FF FF     	lda	#$ffff
 10571 00:4BAC: 65 07        	adc	<L698+tp_1+2
 10572 00:4BAE: 85 03        	sta	<R0+2
 10573 00:4BB0: E2 20        	sep	#$20
 10574                        	longa	off
 10575 00:4BB2: A7 01        	lda	[<R0]
 10576 00:4BB4: C9 28        	cmp	#<$28
 10577 00:4BB6: C2 20        	rep	#$20
 10578                        	longa	on
 10579 00:4BB8: F0 03        	beq	L700
 10580 00:4BBA: 82 08 00     	brl	L10520
 10581                        L700:
 10582 00:4BBD: A5 05        	lda	<L698+tp_1
 10583 00:4BBF: D0 02        	bne	L701
 10584 00:4BC1: C6 07        	dec	<L698+tp_1+2
 10585                        L701:
 10586 00:4BC3: C6 05        	dec	<L698+tp_1
 10587                        L10520:
 10588 00:4BC5: 38           	sec
 10589 00:4BC6: A5 05        	lda	<L698+tp_1
 10590 00:4BC8: E5 09        	sbc	<L698+base_1
 10591 00:4BCA: 85 01        	sta	<R0
 10592 00:4BCC: A5 07        	lda	<L698+tp_1+2
 10593 00:4BCE: E5 0B        	sbc	<L698+base_1+2
 10594 00:4BD0: 85 03        	sta	<R0+2
 10595 00:4BD2: D4 01        	pei	<R0
 10596 00:4BD4: D4 0B        	pei	<L698+base_1+2
 10597 00:4BD6: D4 09        	pei	<L698+base_1
 10598 00:4BD8: 22 xx xx xx  	jsl	~~find_fnproc
  Sun Jan  9 2022 20:52                                                Page 184


 10599 00:4BDC: 85 0D        	sta	<L698+vp_1
 10600 00:4BDE: 86 0F        	stx	<L698+vp_1+2
 10601 00:4BE0: A0 10 00     	ldy	#$10
 10602 00:4BE3: B7 0D        	lda	[<L698+vp_1],Y
 10603 00:4BE5: 85 11        	sta	<L698+dp_1
 10604 00:4BE7: A0 12 00     	ldy	#$12
 10605 00:4BEA: B7 0D        	lda	[<L698+vp_1],Y
 10606 00:4BEC: 85 13        	sta	<L698+dp_1+2
 10607 00:4BEE: AD xx xx     	lda	|~~basicvars+62
 10608 00:4BF1: 85 01        	sta	<R0
 10609 00:4BF3: AD xx xx     	lda	|~~basicvars+62+2
 10610 00:4BF6: 85 03        	sta	<R0+2
 10611 00:4BF8: E2 20        	sep	#$20
 10612                        	longa	off
 10613 00:4BFA: A9 0D        	lda	#$d
 10614 00:4BFC: 87 01        	sta	[<R0]
 10615 00:4BFE: C2 20        	rep	#$20
 10616                        	longa	on
 10617 00:4C00: D4 0F        	pei	<L698+vp_1+2
 10618 00:4C02: D4 0D        	pei	<L698+vp_1
 10619 00:4C04: AD xx xx     	lda	|~~basicvars+62+2
 10620 00:4C07: 48           	pha
 10621 00:4C08: AD xx xx     	lda	|~~basicvars+62
 10622 00:4C0B: 48           	pha
 10623 00:4C0C: 22 xx xx xx  	jsl	~~set_address
 10624 00:4C10: 18           	clc
 10625 00:4C11: A9 05 00     	lda	#$5
 10626 00:4C14: 6D xx xx     	adc	|~~basicvars+62
 10627 00:4C17: 85 05        	sta	<L698+tp_1
 10628 00:4C19: A9 00 00     	lda	#$0
 10629 00:4C1C: 6D xx xx     	adc	|~~basicvars+62+2
 10630 00:4C1F: 85 07        	sta	<L698+tp_1+2
 10631 00:4C21: E2 20        	sep	#$20
 10632                        	longa	off
 10633 00:4C23: A7 05        	lda	[<L698+tp_1]
 10634 00:4C25: C9 28        	cmp	#<$28
 10635 00:4C27: C2 20        	rep	#$20
 10636                        	longa	on
 10637 00:4C29: D0 03        	bne	L702
 10638 00:4C2B: 82 46 00     	brl	L10521
 10639                        L702:
 10640 00:4C2E: A0 07 00     	ldy	#$7
 10641 00:4C31: B7 11        	lda	[<L698+dp_1],Y
 10642 00:4C33: A0 09 00     	ldy	#$9
 10643 00:4C36: 17 11        	ora	[<L698+dp_1],Y
 10644 00:4C38: D0 03        	bne	L703
 10645 00:4C3A: 82 16 00     	brl	L10522
 10646                        L703:
 10647 00:4C3D: A0 08 00     	ldy	#$8
 10648 00:4C40: B7 0D        	lda	[<L698+vp_1],Y
 10649 00:4C42: 48           	pha
 10650 00:4C43: A0 06 00     	ldy	#$6
 10651 00:4C46: B7 0D        	lda	[<L698+vp_1],Y
 10652 00:4C48: 48           	pha
 10653 00:4C49: F4 12 00     	pea	#<$12
 10654 00:4C4C: F4 08 00     	pea	#8
 10655 00:4C4F: 22 xx xx xx  	jsl	~~error
 10656                        L10522:
  Sun Jan  9 2022 20:52                                                Page 185


 10657 00:4C53: A7 05        	lda	[<L698+tp_1]
 10658 00:4C55: 29 FF 00     	and	#$ff
 10659 00:4C58: 85 01        	sta	<R0
 10660 00:4C5A: A6 01        	ldx	<R0
 10661 00:4C5C: BD xx xx     	lda	|~~ateol,X
 10662 00:4C5F: 29 FF 00     	and	#$ff
 10663 00:4C62: F0 03        	beq	L704
 10664 00:4C64: 82 0A 00     	brl	L10523
 10665                        L704:
 10666 00:4C67: F4 05 00     	pea	#<$5
 10667 00:4C6A: F4 04 00     	pea	#4
 10668 00:4C6D: 22 xx xx xx  	jsl	~~error
 10669                        L10523:
 10670 00:4C71: 82 25 00     	brl	L10524
 10671                        L10521:
 10672 00:4C74: A0 07 00     	ldy	#$7
 10673 00:4C77: B7 11        	lda	[<L698+dp_1],Y
 10674 00:4C79: A0 09 00     	ldy	#$9
 10675 00:4C7C: 17 11        	ora	[<L698+dp_1],Y
 10676 00:4C7E: F0 03        	beq	L705
 10677 00:4C80: 82 16 00     	brl	L10525
 10678                        L705:
 10679 00:4C83: A0 08 00     	ldy	#$8
 10680 00:4C86: B7 0D        	lda	[<L698+vp_1],Y
 10681 00:4C88: 48           	pha
 10682 00:4C89: A0 06 00     	ldy	#$6
 10683 00:4C8C: B7 0D        	lda	[<L698+vp_1],Y
 10684 00:4C8E: 48           	pha
 10685 00:4C8F: F4 11 00     	pea	#<$11
 10686 00:4C92: F4 08 00     	pea	#8
 10687 00:4C95: 22 xx xx xx  	jsl	~~error
 10688                        L10525:
 10689                        L10524:
 10690 00:4C99: 22 xx xx xx  	jsl	~~exec_proc
 10691                        L706:
 10692 00:4C9D: 2B           	pld
 10693 00:4C9E: 3B           	tsc
 10694 00:4C9F: 18           	clc
 10695 00:4CA0: 69 14 00     	adc	#L697
 10696 00:4CA3: 1B           	tcs
 10697 00:4CA4: 6B           	rtl
 10698             00000014   L697	equ	20
 10699             00000005   L698	equ	5
 10700                        	ends
 10701                        	efunc
 10702                        	code
 10703                        	xdef	~~exec_quit
 10704                        	func
 10705                        ~~exec_quit:
 10706                        	longa	on
 10707                        	longi	on
 10708 00:4CA5: 3B           	tsc
 10709 00:4CA6: 38           	sec
 10710 00:4CA7: E9 02 00     	sbc	#L707
 10711 00:4CAA: 1B           	tcs
 10712 00:4CAB: 0B           	phd
 10713 00:4CAC: 5B           	tcd
 10714             00000000   retcode_1	set	0
  Sun Jan  9 2022 20:52                                                Page 186


 10715 00:4CAD: EE xx xx     	inc	|~~basicvars+62
 10716 00:4CB0: D0 03        	bne	L709
 10717 00:4CB2: EE xx xx     	inc	|~~basicvars+62+2
 10718                        L709:
 10719 00:4CB5: AD xx xx     	lda	|~~basicvars+62+2
 10720 00:4CB8: 48           	pha
 10721 00:4CB9: AD xx xx     	lda	|~~basicvars+62
 10722 00:4CBC: 48           	pha
 10723 00:4CBD: 22 xx xx xx  	jsl	~~isateol
 10724 00:4CC1: 29 FF 00     	and	#$ff
 10725 00:4CC4: D0 03        	bne	L710
 10726 00:4CC6: 82 05 00     	brl	L10526
 10727                        L710:
 10728 00:4CC9: 64 01        	stz	<L708+retcode_1
 10729 00:4CCB: 82 0A 00     	brl	L10527
 10730                        L10526:
 10731 00:4CCE: 22 xx xx xx  	jsl	~~eval_integer
 10732 00:4CD2: 85 01        	sta	<L708+retcode_1
 10733 00:4CD4: 22 xx xx xx  	jsl	~~check_ateol
 10734                        L10527:
 10735 00:4CD8: D4 01        	pei	<L708+retcode_1
 10736 00:4CDA: 22 xx xx xx  	jsl	~~exit_interpreter
 10737                        L711:
 10738 00:4CDE: 2B           	pld
 10739 00:4CDF: 3B           	tsc
 10740 00:4CE0: 18           	clc
 10741 00:4CE1: 69 02 00     	adc	#L707
 10742 00:4CE4: 1B           	tcs
 10743 00:4CE5: 6B           	rtl
 10744             00000002   L707	equ	2
 10745             00000001   L708	equ	1
 10746                        	ends
 10747                        	efunc
 10748                        	code
 10749                        	func
 10750                        ~~find_data:
 10751                        	longa	on
 10752                        	longi	on
 10753 00:4CE6: 3B           	tsc
 10754 00:4CE7: 38           	sec
 10755 00:4CE8: E9 10 00     	sbc	#L712
 10756 00:4CEB: 1B           	tcs
 10757 00:4CEC: 0B           	phd
 10758 00:4CED: 5B           	tcd
 10759             00000000   dp_1	set	0
 10760 00:4CEE: AD xx xx     	lda	|~~basicvars+407
 10761 00:4CF1: 85 0D        	sta	<L713+dp_1
 10762 00:4CF3: AD xx xx     	lda	|~~basicvars+407+2
 10763 00:4CF6: 85 0F        	sta	<L713+dp_1+2
 10764 00:4CF8: A5 0D        	lda	<L713+dp_1
 10765 00:4CFA: 05 0F        	ora	<L713+dp_1+2
 10766 00:4CFC: D0 03        	bne	L714
 10767 00:4CFE: 82 2A 00     	brl	L10528
 10768                        L714:
 10769 00:4D01: E2 20        	sep	#$20
 10770                        	longa	off
 10771 00:4D03: A7 0D        	lda	[<L713+dp_1]
 10772 00:4D05: C9 2C        	cmp	#<$2c
  Sun Jan  9 2022 20:52                                                Page 187


 10773 00:4D07: C2 20        	rep	#$20
 10774                        	longa	on
 10775 00:4D09: D0 03        	bne	L716
 10776 00:4D0B: 82 0D 00     	brl	L715
 10777                        L716:
 10778 00:4D0E: E2 20        	sep	#$20
 10779                        	longa	off
 10780 00:4D10: A7 0D        	lda	[<L713+dp_1]
 10781 00:4D12: C9 99        	cmp	#<$99
 10782 00:4D14: C2 20        	rep	#$20
 10783                        	longa	on
 10784 00:4D16: F0 03        	beq	L717
 10785 00:4D18: 82 10 00     	brl	L10528
 10786                        L717:
 10787                        L715:
 10788 00:4D1B: EE xx xx     	inc	|~~basicvars+407
 10789 00:4D1E: D0 03        	bne	L718
 10790 00:4D20: EE xx xx     	inc	|~~basicvars+407+2
 10791                        L718:
 10792                        L719:
 10793 00:4D23: 2B           	pld
 10794 00:4D24: 3B           	tsc
 10795 00:4D25: 18           	clc
 10796 00:4D26: 69 10 00     	adc	#L712
 10797 00:4D29: 1B           	tcs
 10798 00:4D2A: 6B           	rtl
 10799                        L10528:
 10800 00:4D2B: A5 0D        	lda	<L713+dp_1
 10801 00:4D2D: 05 0F        	ora	<L713+dp_1+2
 10802 00:4D2F: F0 03        	beq	L720
 10803 00:4D31: 82 0D 00     	brl	L10529
 10804                        L720:
 10805 00:4D34: AD xx xx     	lda	|~~basicvars+22
 10806 00:4D37: 85 0D        	sta	<L713+dp_1
 10807 00:4D39: AD xx xx     	lda	|~~basicvars+22+2
 10808 00:4D3C: 85 0F        	sta	<L713+dp_1+2
 10809 00:4D3E: 82 2A 00     	brl	L10530
 10810                        L10529:
 10811 00:4D41: 18           	clc
 10812 00:4D42: A9 01 00     	lda	#$1
 10813 00:4D45: 65 0D        	adc	<L713+dp_1
 10814 00:4D47: 85 01        	sta	<R0
 10815 00:4D49: A9 00 00     	lda	#$0
 10816 00:4D4C: 65 0F        	adc	<L713+dp_1+2
 10817 00:4D4E: 85 03        	sta	<R0+2
 10818 00:4D50: D4 03        	pei	<R0+2
 10819 00:4D52: D4 01        	pei	<R0
 10820 00:4D54: 22 xx xx xx  	jsl	~~skip_token
 10821 00:4D58: 85 05        	sta	<R1
 10822 00:4D5A: 86 07        	stx	<R1+2
 10823 00:4D5C: 18           	clc
 10824 00:4D5D: A9 01 00     	lda	#$1
 10825 00:4D60: 65 05        	adc	<R1
 10826 00:4D62: 85 0D        	sta	<L713+dp_1
 10827 00:4D64: A9 00 00     	lda	#$0
 10828 00:4D67: 65 07        	adc	<R1+2
 10829 00:4D69: 85 0F        	sta	<L713+dp_1+2
 10830                        L10530:
  Sun Jan  9 2022 20:52                                                Page 188


 10831                        L10531:
 10832 00:4D6B: E2 20        	sep	#$20
 10833                        	longa	off
 10834 00:4D6D: A0 01 00     	ldy	#$1
 10835 00:4D70: B7 0D        	lda	[<L713+dp_1],Y
 10836 00:4D72: C9 FF        	cmp	#<$ff
 10837 00:4D74: C2 20        	rep	#$20
 10838                        	longa	on
 10839 00:4D76: D0 03        	bne	L721
 10840 00:4D78: 82 8F 00     	brl	L10532
 10841                        L721:
 10842 00:4D7B: A0 05 00     	ldy	#$5
 10843 00:4D7E: B7 0D        	lda	[<L713+dp_1],Y
 10844 00:4D80: 29 FF 00     	and	#$ff
 10845 00:4D83: 85 05        	sta	<R1
 10846 00:4D85: A5 05        	lda	<R1
 10847 00:4D87: EB           	xba
 10848 00:4D88: 29 00 FF     	and	#$ff00
 10849 00:4D8B: 85 01        	sta	<R0
 10850 00:4D8D: A0 00 00     	ldy	#$0
 10851 00:4D90: A5 01        	lda	<R0
 10852 00:4D92: 10 01        	bpl	L722
 10853 00:4D94: 88           	dey
 10854                        L722:
 10855 00:4D95: 85 01        	sta	<R0
 10856 00:4D97: 84 03        	sty	<R0+2
 10857 00:4D99: A0 04 00     	ldy	#$4
 10858 00:4D9C: B7 0D        	lda	[<L713+dp_1],Y
 10859 00:4D9E: 29 FF 00     	and	#$ff
 10860 00:4DA1: 85 05        	sta	<R1
 10861 00:4DA3: 64 07        	stz	<R1+2
 10862 00:4DA5: 18           	clc
 10863 00:4DA6: A5 05        	lda	<R1
 10864 00:4DA8: 65 01        	adc	<R0
 10865 00:4DAA: 85 09        	sta	<R2
 10866 00:4DAC: A5 07        	lda	<R1+2
 10867 00:4DAE: 65 03        	adc	<R0+2
 10868 00:4DB0: 85 0B        	sta	<R2+2
 10869 00:4DB2: 18           	clc
 10870 00:4DB3: A5 0D        	lda	<L713+dp_1
 10871 00:4DB5: 65 09        	adc	<R2
 10872 00:4DB7: 85 01        	sta	<R0
 10873 00:4DB9: A5 0F        	lda	<L713+dp_1+2
 10874 00:4DBB: 65 0B        	adc	<R2+2
 10875 00:4DBD: 85 03        	sta	<R0+2
 10876 00:4DBF: E2 20        	sep	#$20
 10877                        	longa	off
 10878 00:4DC1: A7 01        	lda	[<R0]
 10879 00:4DC3: C9 99        	cmp	#<$99
 10880 00:4DC5: C2 20        	rep	#$20
 10881                        	longa	on
 10882 00:4DC7: D0 03        	bne	L723
 10883 00:4DC9: 82 3E 00     	brl	L10532
 10884                        L723:
 10885 00:4DCC: A0 02 00     	ldy	#$2
 10886 00:4DCF: B7 0D        	lda	[<L713+dp_1],Y
 10887 00:4DD1: 29 FF 00     	and	#$ff
 10888 00:4DD4: 85 01        	sta	<R0
  Sun Jan  9 2022 20:52                                                Page 189


 10889 00:4DD6: A0 03 00     	ldy	#$3
 10890 00:4DD9: B7 0D        	lda	[<L713+dp_1],Y
 10891 00:4DDB: 29 FF 00     	and	#$ff
 10892 00:4DDE: 85 09        	sta	<R2
 10893 00:4DE0: A5 09        	lda	<R2
 10894 00:4DE2: EB           	xba
 10895 00:4DE3: 29 00 FF     	and	#$ff00
 10896 00:4DE6: 85 05        	sta	<R1
 10897 00:4DE8: A5 05        	lda	<R1
 10898 00:4DEA: 05 01        	ora	<R0
 10899 00:4DEC: 85 09        	sta	<R2
 10900 00:4DEE: A0 00 00     	ldy	#$0
 10901 00:4DF1: A5 09        	lda	<R2
 10902 00:4DF3: 10 01        	bpl	L724
 10903 00:4DF5: 88           	dey
 10904                        L724:
 10905 00:4DF6: 85 01        	sta	<R0
 10906 00:4DF8: 84 03        	sty	<R0+2
 10907 00:4DFA: 18           	clc
 10908 00:4DFB: A5 0D        	lda	<L713+dp_1
 10909 00:4DFD: 65 01        	adc	<R0
 10910 00:4DFF: 85 0D        	sta	<L713+dp_1
 10911 00:4E01: A5 0F        	lda	<L713+dp_1+2
 10912 00:4E03: 65 03        	adc	<R0+2
 10913 00:4E05: 85 0F        	sta	<L713+dp_1+2
 10914 00:4E07: 82 61 FF     	brl	L10531
 10915                        L10532:
 10916 00:4E0A: E2 20        	sep	#$20
 10917                        	longa	off
 10918 00:4E0C: A0 01 00     	ldy	#$1
 10919 00:4E0F: B7 0D        	lda	[<L713+dp_1],Y
 10920 00:4E11: C9 FF        	cmp	#<$ff
 10921 00:4E13: C2 20        	rep	#$20
 10922                        	longa	on
 10923 00:4E15: F0 03        	beq	L725
 10924 00:4E17: 82 0A 00     	brl	L10533
 10925                        L725:
 10926 00:4E1A: F4 58 00     	pea	#<$58
 10927 00:4E1D: F4 04 00     	pea	#4
 10928 00:4E20: 22 xx xx xx  	jsl	~~error
 10929                        L10533:
 10930 00:4E24: A0 05 00     	ldy	#$5
 10931 00:4E27: B7 0D        	lda	[<L713+dp_1],Y
 10932 00:4E29: 29 FF 00     	and	#$ff
 10933 00:4E2C: 85 05        	sta	<R1
 10934 00:4E2E: A5 05        	lda	<R1
 10935 00:4E30: EB           	xba
 10936 00:4E31: 29 00 FF     	and	#$ff00
 10937 00:4E34: 85 01        	sta	<R0
 10938 00:4E36: A0 00 00     	ldy	#$0
 10939 00:4E39: A5 01        	lda	<R0
 10940 00:4E3B: 10 01        	bpl	L726
 10941 00:4E3D: 88           	dey
 10942                        L726:
 10943 00:4E3E: 85 01        	sta	<R0
 10944 00:4E40: 84 03        	sty	<R0+2
 10945 00:4E42: A0 04 00     	ldy	#$4
 10946 00:4E45: B7 0D        	lda	[<L713+dp_1],Y
  Sun Jan  9 2022 20:52                                                Page 190


 10947 00:4E47: 29 FF 00     	and	#$ff
 10948 00:4E4A: 85 05        	sta	<R1
 10949 00:4E4C: 64 07        	stz	<R1+2
 10950 00:4E4E: 18           	clc
 10951 00:4E4F: A5 05        	lda	<R1
 10952 00:4E51: 65 01        	adc	<R0
 10953 00:4E53: 85 09        	sta	<R2
 10954 00:4E55: A5 07        	lda	<R1+2
 10955 00:4E57: 65 03        	adc	<R0+2
 10956 00:4E59: 85 0B        	sta	<R2+2
 10957 00:4E5B: 18           	clc
 10958 00:4E5C: A5 0D        	lda	<L713+dp_1
 10959 00:4E5E: 65 09        	adc	<R2
 10960 00:4E60: 85 01        	sta	<R0
 10961 00:4E62: A5 0F        	lda	<L713+dp_1+2
 10962 00:4E64: 65 0B        	adc	<R2+2
 10963 00:4E66: 85 03        	sta	<R0+2
 10964 00:4E68: D4 03        	pei	<R0+2
 10965 00:4E6A: D4 01        	pei	<R0
 10966 00:4E6C: 22 xx xx xx  	jsl	~~get_srcaddr
 10967 00:4E70: 8D xx xx     	sta	|~~basicvars+407
 10968 00:4E73: 8E xx xx     	stx	|~~basicvars+407+2
 10969 00:4E76: 82 AA FE     	brl	L719
 10970             00000010   L712	equ	16
 10971             0000000D   L713	equ	13
 10972                        	ends
 10973                        	efunc
 10974                        	code
 10975                        	func
 10976                        ~~read_numeric:
 10977                        	longa	on
 10978                        	longi	on
 10979 00:4E79: 3B           	tsc
 10980 00:4E7A: 38           	sec
 10981 00:4E7B: E9 1C 00     	sbc	#L727
 10982 00:4E7E: 1B           	tcs
 10983 00:4E7F: 0B           	phd
 10984 00:4E80: 5B           	tcd
 10985             00000004   destination_0	set	4
 10986             00000000   dp_1	set	0
 10987             00000004   itemtype_1	set	4
 10988             00000006   n_1	set	6
 10989             00000008   text_1	set	8
 10990             0000000C   readexpr_1	set	12
 10991 00:4E81: F4 00 00     	pea	#^$400
 10992 00:4E84: F4 00 04     	pea	#<$400
 10993 00:4E87: 22 xx xx xx  	jsl	~~malloc
 10994 00:4E8B: 85 15        	sta	<L728+text_1
 10995 00:4E8D: 86 17        	stx	<L728+text_1+2
 10996 00:4E8F: F4 00 00     	pea	#^$400
 10997 00:4E92: F4 00 04     	pea	#<$400
 10998 00:4E95: 22 xx xx xx  	jsl	~~malloc
 10999 00:4E99: 85 19        	sta	<L728+readexpr_1
 11000 00:4E9B: 86 1B        	stx	<L728+readexpr_1+2
 11001 00:4E9D: 64 13        	stz	<L728+n_1
 11002 00:4E9F: AD xx xx     	lda	|~~basicvars+407+2
 11003 00:4EA2: 48           	pha
 11004 00:4EA3: AD xx xx     	lda	|~~basicvars+407
  Sun Jan  9 2022 20:52                                                Page 191


 11005 00:4EA6: 48           	pha
 11006 00:4EA7: 22 xx xx xx  	jsl	~~skip
 11007 00:4EAB: 85 0D        	sta	<L728+dp_1
 11008 00:4EAD: 86 0F        	stx	<L728+dp_1+2
 11009                        L10534:
 11010 00:4EAF: A7 0D        	lda	[<L728+dp_1]
 11011 00:4EB1: 29 FF 00     	and	#$ff
 11012 00:4EB4: D0 03        	bne	L729
 11013 00:4EB6: 82 22 00     	brl	L10535
 11014                        L729:
 11015 00:4EB9: E2 20        	sep	#$20
 11016                        	longa	off
 11017 00:4EBB: A7 0D        	lda	[<L728+dp_1]
 11018 00:4EBD: C9 2C        	cmp	#<$2c
 11019 00:4EBF: C2 20        	rep	#$20
 11020                        	longa	on
 11021 00:4EC1: D0 03        	bne	L730
 11022 00:4EC3: 82 15 00     	brl	L10535
 11023                        L730:
 11024 00:4EC6: E2 20        	sep	#$20
 11025                        	longa	off
 11026 00:4EC8: A7 0D        	lda	[<L728+dp_1]
 11027 00:4ECA: A4 13        	ldy	<L728+n_1
 11028 00:4ECC: 97 15        	sta	[<L728+text_1],Y
 11029 00:4ECE: C2 20        	rep	#$20
 11030                        	longa	on
 11031 00:4ED0: E6 0D        	inc	<L728+dp_1
 11032 00:4ED2: D0 02        	bne	L731
 11033 00:4ED4: E6 0F        	inc	<L728+dp_1+2
 11034                        L731:
 11035 00:4ED6: E6 13        	inc	<L728+n_1
 11036 00:4ED8: 82 D4 FF     	brl	L10534
 11037                        L10535:
 11038 00:4EDB: E2 20        	sep	#$20
 11039                        	longa	off
 11040 00:4EDD: A9 00        	lda	#$0
 11041 00:4EDF: A4 13        	ldy	<L728+n_1
 11042 00:4EE1: 97 15        	sta	[<L728+text_1],Y
 11043 00:4EE3: C2 20        	rep	#$20
 11044                        	longa	on
 11045 00:4EE5: A5 13        	lda	<L728+n_1
 11046 00:4EE7: F0 03        	beq	L732
 11047 00:4EE9: 82 0A 00     	brl	L10536
 11048                        L732:
 11049 00:4EEC: F4 51 00     	pea	#<$51
 11050 00:4EEF: F4 04 00     	pea	#4
 11051 00:4EF2: 22 xx xx xx  	jsl	~~error
 11052                        L10536:
 11053 00:4EF6: A5 0D        	lda	<L728+dp_1
 11054 00:4EF8: 8D xx xx     	sta	|~~basicvars+407
 11055 00:4EFB: A5 0F        	lda	<L728+dp_1+2
 11056 00:4EFD: 8D xx xx     	sta	|~~basicvars+407+2
 11057 00:4F00: F4 00 00     	pea	#<$0
 11058 00:4F03: D4 1B        	pei	<L728+readexpr_1+2
 11059 00:4F05: D4 19        	pei	<L728+readexpr_1
 11060 00:4F07: D4 17        	pei	<L728+text_1+2
 11061 00:4F09: D4 15        	pei	<L728+text_1
 11062 00:4F0B: 22 xx xx xx  	jsl	~~tokenize
  Sun Jan  9 2022 20:52                                                Page 192


 11063 00:4F0F: 22 xx xx xx  	jsl	~~save_current
 11064 00:4F13: A0 05 00     	ldy	#$5
 11065 00:4F16: B7 19        	lda	[<L728+readexpr_1],Y
 11066 00:4F18: 29 FF 00     	and	#$ff
 11067 00:4F1B: 85 05        	sta	<R1
 11068 00:4F1D: A5 05        	lda	<R1
 11069 00:4F1F: EB           	xba
 11070 00:4F20: 29 00 FF     	and	#$ff00
 11071 00:4F23: 85 01        	sta	<R0
 11072 00:4F25: A0 00 00     	ldy	#$0
 11073 00:4F28: A5 01        	lda	<R0
 11074 00:4F2A: 10 01        	bpl	L733
 11075 00:4F2C: 88           	dey
 11076                        L733:
 11077 00:4F2D: 85 01        	sta	<R0
 11078 00:4F2F: 84 03        	sty	<R0+2
 11079 00:4F31: A0 04 00     	ldy	#$4
 11080 00:4F34: B7 19        	lda	[<L728+readexpr_1],Y
 11081 00:4F36: 29 FF 00     	and	#$ff
 11082 00:4F39: 85 05        	sta	<R1
 11083 00:4F3B: 64 07        	stz	<R1+2
 11084 00:4F3D: 18           	clc
 11085 00:4F3E: A5 05        	lda	<R1
 11086 00:4F40: 65 01        	adc	<R0
 11087 00:4F42: 85 09        	sta	<R2
 11088 00:4F44: A5 07        	lda	<R1+2
 11089 00:4F46: 65 03        	adc	<R0+2
 11090 00:4F48: 85 0B        	sta	<R2+2
 11091 00:4F4A: 18           	clc
 11092 00:4F4B: A5 19        	lda	<L728+readexpr_1
 11093 00:4F4D: 65 09        	adc	<R2
 11094 00:4F4F: 8D xx xx     	sta	|~~basicvars+62
 11095 00:4F52: A5 1B        	lda	<L728+readexpr_1+2
 11096 00:4F54: 65 0B        	adc	<R2+2
 11097 00:4F56: 8D xx xx     	sta	|~~basicvars+62+2
 11098 00:4F59: 22 xx xx xx  	jsl	~~expression
 11099 00:4F5D: 22 xx xx xx  	jsl	~~restore_current
 11100 00:4F61: AD xx xx     	lda	|~~basicvars+42
 11101 00:4F64: 85 01        	sta	<R0
 11102 00:4F66: AD xx xx     	lda	|~~basicvars+42+2
 11103 00:4F69: 85 03        	sta	<R0+2
 11104 00:4F6B: A7 01        	lda	[<R0]
 11105 00:4F6D: 85 11        	sta	<L728+itemtype_1
 11106 00:4F6F: A5 20        	lda	<L727+destination_0
 11107 00:4F71: 82 B6 01     	brl	L10537
 11108                        L10539:
 11109 00:4F74: A5 11        	lda	<L728+itemtype_1
 11110 00:4F76: 82 2D 00     	brl	L10540
 11111                        L10542:
 11112 00:4F79: 22 xx xx xx  	jsl	~~pop_int
 11113 00:4F7D: 87 22        	sta	[<L727+destination_0+2]
 11114 00:4F7F: 82 34 00     	brl	L10541
 11115                        L10543:
 11116 00:4F82: 5A           	phy
 11117 00:4F83: 5A           	phy
 11118 00:4F84: 22 xx xx xx  	jsl	~~pop_float
 11119                        	xref	~~~ffix
 11120 00:4F88: 22 xx xx xx  	jsl	~~~ffix
  Sun Jan  9 2022 20:52                                                Page 193


 11121 00:4F8C: 68           	pla
 11122 00:4F8D: 85 01        	sta	<R0
 11123 00:4F8F: 68           	pla
 11124 00:4F90: 85 03        	sta	<R0+2
 11125 00:4F92: A5 01        	lda	<R0
 11126 00:4F94: 87 22        	sta	[<L727+destination_0+2]
 11127 00:4F96: 82 1D 00     	brl	L10541
 11128                        L10544:
 11129 00:4F99: F4 3F 00     	pea	#<$3f
 11130 00:4F9C: F4 04 00     	pea	#4
 11131 00:4F9F: 22 xx xx xx  	jsl	~~error
 11132 00:4FA3: 82 10 00     	brl	L10541
 11133                        L10540:
 11134                        	xref	~~~swt
 11135 00:4FA6: 22 xx xx xx  	jsl	~~~swt
 11136 00:4FAA: 02 00        	dw	2
 11137 00:4FAC: 02 00        	dw	2
 11138 00:4FAE: xx xx        	dw	L10542-1
 11139 00:4FB0: 03 00        	dw	3
 11140 00:4FB2: xx xx        	dw	L10543-1
 11141 00:4FB4: xx xx        	dw	L10544-1
 11142                        L10541:
 11143 00:4FB6: 82 8D 01     	brl	L10538
 11144                        L10545:
 11145 00:4FB9: A5 11        	lda	<L728+itemtype_1
 11146 00:4FBB: 82 3F 00     	brl	L10546
 11147                        L10548:
 11148 00:4FBE: 22 xx xx xx  	jsl	~~pop_int
 11149 00:4FC2: 85 01        	sta	<R0
 11150 00:4FC4: A0 00 00     	ldy	#$0
 11151 00:4FC7: A5 01        	lda	<R0
 11152 00:4FC9: 10 01        	bpl	L734
 11153 00:4FCB: 88           	dey
 11154                        L734:
 11155 00:4FCC: 5A           	phy
 11156 00:4FCD: 48           	pha
 11157                        	xref	~~~fflt
 11158 00:4FCE: 22 xx xx xx  	jsl	~~~fflt
 11159 00:4FD2: 68           	pla
 11160 00:4FD3: 87 22        	sta	[<L727+destination_0+2]
 11161 00:4FD5: 68           	pla
 11162 00:4FD6: A0 02 00     	ldy	#$2
 11163 00:4FD9: 97 22        	sta	[<L727+destination_0+2],Y
 11164 00:4FDB: 82 2F 00     	brl	L10547
 11165                        L10549:
 11166 00:4FDE: 5A           	phy
 11167 00:4FDF: 5A           	phy
 11168 00:4FE0: 22 xx xx xx  	jsl	~~pop_float
 11169 00:4FE4: 68           	pla
 11170 00:4FE5: 87 22        	sta	[<L727+destination_0+2]
 11171 00:4FE7: 68           	pla
 11172 00:4FE8: A0 02 00     	ldy	#$2
 11173 00:4FEB: 97 22        	sta	[<L727+destination_0+2],Y
 11174 00:4FED: 82 1D 00     	brl	L10547
 11175                        L10550:
 11176 00:4FF0: F4 3F 00     	pea	#<$3f
 11177 00:4FF3: F4 04 00     	pea	#4
 11178 00:4FF6: 22 xx xx xx  	jsl	~~error
  Sun Jan  9 2022 20:52                                                Page 194


 11179 00:4FFA: 82 10 00     	brl	L10547
 11180                        L10546:
 11181                        	xref	~~~swt
 11182 00:4FFD: 22 xx xx xx  	jsl	~~~swt
 11183 00:5001: 02 00        	dw	2
 11184 00:5003: 02 00        	dw	2
 11185 00:5005: xx xx        	dw	L10548-1
 11186 00:5007: 03 00        	dw	3
 11187 00:5009: xx xx        	dw	L10549-1
 11188 00:500B: xx xx        	dw	L10550-1
 11189                        L10547:
 11190 00:500D: 82 36 01     	brl	L10538
 11191                        L10551:
 11192 00:5010: F4 01 00     	pea	#<$1
 11193 00:5013: D4 22        	pei	<L727+destination_0+2
 11194 00:5015: 22 xx xx xx  	jsl	~~check_write
 11195 00:5019: A5 11        	lda	<L728+itemtype_1
 11196 00:501B: 82 4D 00     	brl	L10552
 11197                        L10554:
 11198 00:501E: AD xx xx     	lda	|~~basicvars+6
 11199 00:5021: 85 01        	sta	<R0
 11200 00:5023: AD xx xx     	lda	|~~basicvars+6+2
 11201 00:5026: 85 03        	sta	<R0+2
 11202 00:5028: 22 xx xx xx  	jsl	~~pop_int
 11203 00:502C: E2 20        	sep	#$20
 11204                        	longa	off
 11205 00:502E: A4 22        	ldy	<L727+destination_0+2
 11206 00:5030: 97 01        	sta	[<R0],Y
 11207 00:5032: C2 20        	rep	#$20
 11208                        	longa	on
 11209 00:5034: 82 44 00     	brl	L10553
 11210                        L10555:
 11211 00:5037: AD xx xx     	lda	|~~basicvars+6
 11212 00:503A: 85 01        	sta	<R0
 11213 00:503C: AD xx xx     	lda	|~~basicvars+6+2
 11214 00:503F: 85 03        	sta	<R0+2
 11215 00:5041: 5A           	phy
 11216 00:5042: 5A           	phy
 11217 00:5043: 22 xx xx xx  	jsl	~~pop_float
 11218                        	xref	~~~ffix
 11219 00:5047: 22 xx xx xx  	jsl	~~~ffix
 11220 00:504B: 68           	pla
 11221 00:504C: 85 05        	sta	<R1
 11222 00:504E: 68           	pla
 11223 00:504F: 85 07        	sta	<R1+2
 11224 00:5051: E2 20        	sep	#$20
 11225                        	longa	off
 11226 00:5053: A5 05        	lda	<R1
 11227 00:5055: A4 22        	ldy	<L727+destination_0+2
 11228 00:5057: 97 01        	sta	[<R0],Y
 11229 00:5059: C2 20        	rep	#$20
 11230                        	longa	on
 11231 00:505B: 82 1D 00     	brl	L10553
 11232                        L10556:
 11233 00:505E: F4 3F 00     	pea	#<$3f
 11234 00:5061: F4 04 00     	pea	#4
 11235 00:5064: 22 xx xx xx  	jsl	~~error
 11236 00:5068: 82 10 00     	brl	L10553
  Sun Jan  9 2022 20:52                                                Page 195


 11237                        L10552:
 11238                        	xref	~~~swt
 11239 00:506B: 22 xx xx xx  	jsl	~~~swt
 11240 00:506F: 02 00        	dw	2
 11241 00:5071: 02 00        	dw	2
 11242 00:5073: xx xx        	dw	L10554-1
 11243 00:5075: 03 00        	dw	3
 11244 00:5077: xx xx        	dw	L10555-1
 11245 00:5079: xx xx        	dw	L10556-1
 11246                        L10553:
 11247 00:507B: 82 C8 00     	brl	L10538
 11248                        L10557:
 11249 00:507E: A5 11        	lda	<L728+itemtype_1
 11250 00:5080: 82 36 00     	brl	L10558
 11251                        L10560:
 11252 00:5083: 22 xx xx xx  	jsl	~~pop_int
 11253 00:5087: 48           	pha
 11254 00:5088: D4 22        	pei	<L727+destination_0+2
 11255 00:508A: 22 xx xx xx  	jsl	~~store_integer
 11256 00:508E: 82 38 00     	brl	L10559
 11257                        L10561:
 11258 00:5091: 5A           	phy
 11259 00:5092: 5A           	phy
 11260 00:5093: 22 xx xx xx  	jsl	~~pop_float
 11261                        	xref	~~~ffix
 11262 00:5097: 22 xx xx xx  	jsl	~~~ffix
 11263 00:509B: 68           	pla
 11264 00:509C: 85 01        	sta	<R0
 11265 00:509E: 68           	pla
 11266 00:509F: 85 03        	sta	<R0+2
 11267 00:50A1: D4 01        	pei	<R0
 11268 00:50A3: D4 22        	pei	<L727+destination_0+2
 11269 00:50A5: 22 xx xx xx  	jsl	~~store_integer
 11270 00:50A9: 82 1D 00     	brl	L10559
 11271                        L10562:
 11272 00:50AC: F4 3F 00     	pea	#<$3f
 11273 00:50AF: F4 04 00     	pea	#4
 11274 00:50B2: 22 xx xx xx  	jsl	~~error
 11275 00:50B6: 82 10 00     	brl	L10559
 11276                        L10558:
 11277                        	xref	~~~swt
 11278 00:50B9: 22 xx xx xx  	jsl	~~~swt
 11279 00:50BD: 02 00        	dw	2
 11280 00:50BF: 02 00        	dw	2
 11281 00:50C1: xx xx        	dw	L10560-1
 11282 00:50C3: 03 00        	dw	3
 11283 00:50C5: xx xx        	dw	L10561-1
 11284 00:50C7: xx xx        	dw	L10562-1
 11285                        L10559:
 11286 00:50C9: 82 7A 00     	brl	L10538
 11287                        L10563:
 11288 00:50CC: A5 11        	lda	<L728+itemtype_1
 11289 00:50CE: 82 39 00     	brl	L10564
 11290                        L10566:
 11291 00:50D1: 22 xx xx xx  	jsl	~~pop_int
 11292 00:50D5: 85 01        	sta	<R0
 11293 00:50D7: A0 00 00     	ldy	#$0
 11294 00:50DA: A5 01        	lda	<R0
  Sun Jan  9 2022 20:52                                                Page 196


 11295 00:50DC: 10 01        	bpl	L735
 11296 00:50DE: 88           	dey
 11297                        L735:
 11298 00:50DF: 5A           	phy
 11299 00:50E0: 48           	pha
 11300                        	xref	~~~fflt
 11301 00:50E1: 22 xx xx xx  	jsl	~~~fflt
 11302 00:50E5: D4 22        	pei	<L727+destination_0+2
 11303 00:50E7: 22 xx xx xx  	jsl	~~store_float
 11304 00:50EB: 82 2C 00     	brl	L10565
 11305                        L10567:
 11306 00:50EE: 5A           	phy
 11307 00:50EF: 5A           	phy
 11308 00:50F0: 22 xx xx xx  	jsl	~~pop_float
 11309 00:50F4: D4 22        	pei	<L727+destination_0+2
 11310 00:50F6: 22 xx xx xx  	jsl	~~store_float
 11311 00:50FA: 82 1D 00     	brl	L10565
 11312                        L10568:
 11313 00:50FD: F4 3F 00     	pea	#<$3f
 11314 00:5100: F4 04 00     	pea	#4
 11315 00:5103: 22 xx xx xx  	jsl	~~error
 11316 00:5107: 82 10 00     	brl	L10565
 11317                        L10564:
 11318                        	xref	~~~swt
 11319 00:510A: 22 xx xx xx  	jsl	~~~swt
 11320 00:510E: 02 00        	dw	2
 11321 00:5110: 02 00        	dw	2
 11322 00:5112: xx xx        	dw	L10566-1
 11323 00:5114: 03 00        	dw	3
 11324 00:5116: xx xx        	dw	L10567-1
 11325 00:5118: xx xx        	dw	L10568-1
 11326                        L10565:
 11327 00:511A: 82 29 00     	brl	L10538
 11328                        L10569:
 11329 00:511D: F4 45 00     	pea	#<$45
 11330 00:5120: F4 04 00     	pea	#4
 11331 00:5123: 22 xx xx xx  	jsl	~~error
 11332 00:5127: 82 1C 00     	brl	L10538
 11333                        L10537:
 11334                        	xref	~~~swt
 11335 00:512A: 22 xx xx xx  	jsl	~~~swt
 11336 00:512E: 05 00        	dw	5
 11337 00:5130: 02 00        	dw	2
 11338 00:5132: xx xx        	dw	L10539-1
 11339 00:5134: 03 00        	dw	3
 11340 00:5136: xx xx        	dw	L10545-1
 11341 00:5138: 11 00        	dw	17
 11342 00:513A: xx xx        	dw	L10551-1
 11343 00:513C: 12 00        	dw	18
 11344 00:513E: xx xx        	dw	L10557-1
 11345 00:5140: 13 00        	dw	19
 11346 00:5142: xx xx        	dw	L10563-1
 11347 00:5144: xx xx        	dw	L10569-1
 11348                        L10538:
 11349                        L736:
 11350 00:5146: A5 1E        	lda	<L727+2
 11351 00:5148: 85 24        	sta	<L727+2+6
 11352 00:514A: A5 1D        	lda	<L727+1
  Sun Jan  9 2022 20:52                                                Page 197


 11353 00:514C: 85 23        	sta	<L727+1+6
 11354 00:514E: 2B           	pld
 11355 00:514F: 3B           	tsc
 11356 00:5150: 18           	clc
 11357 00:5151: 69 22 00     	adc	#L727+6
 11358 00:5154: 1B           	tcs
 11359 00:5155: 6B           	rtl
 11360             0000001C   L727	equ	28
 11361             0000000D   L728	equ	13
 11362                        	ends
 11363                        	efunc
 11364                        	code
 11365                        	func
 11366                        ~~read_string:
 11367                        	longa	on
 11368                        	longi	on
 11369 00:5156: 3B           	tsc
 11370 00:5157: 38           	sec
 11371 00:5158: E9 16 00     	sbc	#L737
 11372 00:515B: 1B           	tcs
 11373 00:515C: 0B           	phd
 11374 00:515D: 5B           	tcd
 11375             00000004   destination_0	set	4
 11376             00000000   length_1	set	0
 11377             00000002   start_1	set	2
 11378             00000006   cp_1	set	6
 11379 00:515E: AD xx xx     	lda	|~~basicvars+407+2
 11380 00:5161: 48           	pha
 11381 00:5162: AD xx xx     	lda	|~~basicvars+407
 11382 00:5165: 48           	pha
 11383 00:5166: 22 xx xx xx  	jsl	~~skip
 11384 00:516A: 85 13        	sta	<L738+cp_1
 11385 00:516C: 86 15        	stx	<L738+cp_1+2
 11386 00:516E: A5 13        	lda	<L738+cp_1
 11387 00:5170: 85 0F        	sta	<L738+start_1
 11388 00:5172: A5 15        	lda	<L738+cp_1+2
 11389 00:5174: 85 11        	sta	<L738+start_1+2
 11390 00:5176: E2 20        	sep	#$20
 11391                        	longa	off
 11392 00:5178: A7 13        	lda	[<L738+cp_1]
 11393 00:517A: C9 22        	cmp	#<$22
 11394 00:517C: C2 20        	rep	#$20
 11395                        	longa	on
 11396 00:517E: F0 03        	beq	L739
 11397 00:5180: 82 6B 00     	brl	L10570
 11398                        L739:
 11399 00:5183: E6 0F        	inc	<L738+start_1
 11400 00:5185: D0 02        	bne	L740
 11401 00:5187: E6 11        	inc	<L738+start_1+2
 11402                        L740:
 11403                        L10573:
 11404 00:5189: E6 13        	inc	<L738+cp_1
 11405 00:518B: D0 02        	bne	L741
 11406 00:518D: E6 15        	inc	<L738+cp_1+2
 11407                        L741:
 11408                        L10571:
 11409 00:518F: A7 13        	lda	[<L738+cp_1]
 11410 00:5191: 29 FF 00     	and	#$ff
  Sun Jan  9 2022 20:52                                                Page 198


 11411 00:5194: D0 03        	bne	L743
 11412 00:5196: 82 0D 00     	brl	L742
 11413                        L743:
 11414 00:5199: E2 20        	sep	#$20
 11415                        	longa	off
 11416 00:519B: A7 13        	lda	[<L738+cp_1]
 11417 00:519D: C9 22        	cmp	#<$22
 11418 00:519F: C2 20        	rep	#$20
 11419                        	longa	on
 11420 00:51A1: F0 03        	beq	L744
 11421 00:51A3: 82 E3 FF     	brl	L10573
 11422                        L744:
 11423                        L742:
 11424                        L10572:
 11425 00:51A6: E2 20        	sep	#$20
 11426                        	longa	off
 11427 00:51A8: A7 13        	lda	[<L738+cp_1]
 11428 00:51AA: C9 22        	cmp	#<$22
 11429 00:51AC: C2 20        	rep	#$20
 11430                        	longa	on
 11431 00:51AE: D0 03        	bne	L745
 11432 00:51B0: 82 0A 00     	brl	L10574
 11433                        L745:
 11434 00:51B3: F4 2B 00     	pea	#<$2b
 11435 00:51B6: F4 04 00     	pea	#4
 11436 00:51B9: 22 xx xx xx  	jsl	~~error
 11437                        L10574:
 11438 00:51BD: 38           	sec
 11439 00:51BE: A5 13        	lda	<L738+cp_1
 11440 00:51C0: E5 0F        	sbc	<L738+start_1
 11441 00:51C2: 85 01        	sta	<R0
 11442 00:51C4: A5 15        	lda	<L738+cp_1+2
 11443 00:51C6: E5 11        	sbc	<L738+start_1+2
 11444 00:51C8: 85 03        	sta	<R0+2
 11445 00:51CA: A5 01        	lda	<R0
 11446 00:51CC: 85 0D        	sta	<L738+length_1
 11447                        L10577:
 11448 00:51CE: E6 13        	inc	<L738+cp_1
 11449 00:51D0: D0 02        	bne	L746
 11450 00:51D2: E6 15        	inc	<L738+cp_1+2
 11451                        L746:
 11452                        L10575:
 11453 00:51D4: A7 13        	lda	[<L738+cp_1]
 11454 00:51D6: 29 FF 00     	and	#$ff
 11455 00:51D9: D0 03        	bne	L748
 11456 00:51DB: 82 0D 00     	brl	L747
 11457                        L748:
 11458 00:51DE: E2 20        	sep	#$20
 11459                        	longa	off
 11460 00:51E0: A7 13        	lda	[<L738+cp_1]
 11461 00:51E2: C9 2C        	cmp	#<$2c
 11462 00:51E4: C2 20        	rep	#$20
 11463                        	longa	on
 11464 00:51E6: F0 03        	beq	L749
 11465 00:51E8: 82 E3 FF     	brl	L10577
 11466                        L749:
 11467                        L747:
 11468                        L10576:
  Sun Jan  9 2022 20:52                                                Page 199


 11469 00:51EB: 82 31 00     	brl	L10578
 11470                        L10570:
 11471                        L10579:
 11472 00:51EE: A7 13        	lda	[<L738+cp_1]
 11473 00:51F0: 29 FF 00     	and	#$ff
 11474 00:51F3: D0 03        	bne	L750
 11475 00:51F5: 82 16 00     	brl	L10580
 11476                        L750:
 11477 00:51F8: E2 20        	sep	#$20
 11478                        	longa	off
 11479 00:51FA: A7 13        	lda	[<L738+cp_1]
 11480 00:51FC: C9 2C        	cmp	#<$2c
 11481 00:51FE: C2 20        	rep	#$20
 11482                        	longa	on
 11483 00:5200: D0 03        	bne	L751
 11484 00:5202: 82 09 00     	brl	L10580
 11485                        L751:
 11486 00:5205: E6 13        	inc	<L738+cp_1
 11487 00:5207: D0 02        	bne	L752
 11488 00:5209: E6 15        	inc	<L738+cp_1+2
 11489                        L752:
 11490 00:520B: 82 E0 FF     	brl	L10579
 11491                        L10580:
 11492 00:520E: 38           	sec
 11493 00:520F: A5 13        	lda	<L738+cp_1
 11494 00:5211: E5 0F        	sbc	<L738+start_1
 11495 00:5213: 85 01        	sta	<R0
 11496 00:5215: A5 15        	lda	<L738+cp_1+2
 11497 00:5217: E5 11        	sbc	<L738+start_1+2
 11498 00:5219: 85 03        	sta	<R0+2
 11499 00:521B: A5 01        	lda	<R0
 11500 00:521D: 85 0D        	sta	<L738+length_1
 11501                        L10578:
 11502 00:521F: A5 13        	lda	<L738+cp_1
 11503 00:5221: 8D xx xx     	sta	|~~basicvars+407
 11504 00:5224: A5 15        	lda	<L738+cp_1+2
 11505 00:5226: 8D xx xx     	sta	|~~basicvars+407+2
 11506 00:5229: A5 1A        	lda	<L737+destination_0
 11507 00:522B: 82 E4 00     	brl	L10581
 11508                        L10583:
 11509 00:522E: A7 1C        	lda	[<L737+destination_0+2]
 11510 00:5230: C5 0D        	cmp	<L738+length_1
 11511 00:5232: D0 03        	bne	L753
 11512 00:5234: 82 3A 00     	brl	L10584
 11513                        L753:
 11514 00:5237: 38           	sec
 11515 00:5238: 3B           	tsc
 11516 00:5239: E9 06 00     	sbc	#6
 11517 00:523C: 1B           	tcs
 11518 00:523D: 1A           	ina
 11519 00:523E: 85 01        	sta	<R0
 11520 00:5240: 64 03        	stz	<R0+2
 11521 00:5242: D4 1E        	pei	<L737+destination_0+4
 11522 00:5244: D4 1C        	pei	<L737+destination_0+2
 11523 00:5246: D4 03        	pei	<R0+2
 11524 00:5248: D4 01        	pei	<R0
 11525 00:524A: A9 06 00     	lda	#$6
 11526                        	xref	~~~fmov
  Sun Jan  9 2022 20:52                                                Page 200


 11527 00:524D: 22 xx xx xx  	jsl	~~~fmov
 11528 00:5251: 22 xx xx xx  	jsl	~~free_string
 11529 00:5255: A5 0D        	lda	<L738+length_1
 11530 00:5257: 87 1C        	sta	[<L737+destination_0+2]
 11531 00:5259: D4 0D        	pei	<L738+length_1
 11532 00:525B: 22 xx xx xx  	jsl	~~alloc_string
 11533 00:525F: 85 01        	sta	<R0
 11534 00:5261: 86 03        	stx	<R0+2
 11535 00:5263: A5 01        	lda	<R0
 11536 00:5265: A0 02 00     	ldy	#$2
 11537 00:5268: 97 1C        	sta	[<L737+destination_0+2],Y
 11538 00:526A: A5 03        	lda	<R0+2
 11539 00:526C: A0 04 00     	ldy	#$4
 11540 00:526F: 97 1C        	sta	[<L737+destination_0+2],Y
 11541                        L10584:
 11542 00:5271: A5 0D        	lda	<L738+length_1
 11543 00:5273: D0 03        	bne	L754
 11544 00:5275: 82 24 00     	brl	L10585
 11545                        L754:
 11546 00:5278: A0 00 00     	ldy	#$0
 11547 00:527B: A5 0D        	lda	<L738+length_1
 11548 00:527D: 10 01        	bpl	L755
 11549 00:527F: 88           	dey
 11550                        L755:
 11551 00:5280: 85 01        	sta	<R0
 11552 00:5282: 84 03        	sty	<R0+2
 11553 00:5284: D4 03        	pei	<R0+2
 11554 00:5286: D4 01        	pei	<R0
 11555 00:5288: D4 11        	pei	<L738+start_1+2
 11556 00:528A: D4 0F        	pei	<L738+start_1
 11557 00:528C: A0 04 00     	ldy	#$4
 11558 00:528F: B7 1C        	lda	[<L737+destination_0+2],Y
 11559 00:5291: 48           	pha
 11560 00:5292: A0 02 00     	ldy	#$2
 11561 00:5295: B7 1C        	lda	[<L737+destination_0+2],Y
 11562 00:5297: 48           	pha
 11563 00:5298: 22 xx xx xx  	jsl	~~memmove
 11564                        L10585:
 11565 00:529C: 82 83 00     	brl	L10582
 11566                        L10586:
 11567 00:529F: A5 0D        	lda	<L738+length_1
 11568 00:52A1: 1A           	ina
 11569 00:52A2: 48           	pha
 11570 00:52A3: D4 1C        	pei	<L737+destination_0+2
 11571 00:52A5: 22 xx xx xx  	jsl	~~check_write
 11572 00:52A9: A5 0D        	lda	<L738+length_1
 11573 00:52AB: D0 03        	bne	L756
 11574 00:52AD: 82 37 00     	brl	L10587
 11575                        L756:
 11576 00:52B0: A0 00 00     	ldy	#$0
 11577 00:52B3: A5 0D        	lda	<L738+length_1
 11578 00:52B5: 10 01        	bpl	L757
 11579 00:52B7: 88           	dey
 11580                        L757:
 11581 00:52B8: 85 01        	sta	<R0
 11582 00:52BA: 84 03        	sty	<R0+2
 11583 00:52BC: D4 03        	pei	<R0+2
 11584 00:52BE: D4 01        	pei	<R0
  Sun Jan  9 2022 20:52                                                Page 201


 11585 00:52C0: D4 11        	pei	<L738+start_1+2
 11586 00:52C2: D4 0F        	pei	<L738+start_1
 11587 00:52C4: A0 00 00     	ldy	#$0
 11588 00:52C7: A5 1C        	lda	<L737+destination_0+2
 11589 00:52C9: 10 01        	bpl	L758
 11590 00:52CB: 88           	dey
 11591                        L758:
 11592 00:52CC: 85 05        	sta	<R1
 11593 00:52CE: 84 07        	sty	<R1+2
 11594 00:52D0: 18           	clc
 11595 00:52D1: AD xx xx     	lda	|~~basicvars+6
 11596 00:52D4: 65 05        	adc	<R1
 11597 00:52D6: 85 09        	sta	<R2
 11598 00:52D8: AD xx xx     	lda	|~~basicvars+6+2
 11599 00:52DB: 65 07        	adc	<R1+2
 11600 00:52DD: 85 0B        	sta	<R2+2
 11601 00:52DF: D4 0B        	pei	<R2+2
 11602 00:52E1: D4 09        	pei	<R2
 11603 00:52E3: 22 xx xx xx  	jsl	~~memmove
 11604                        L10587:
 11605 00:52E7: 18           	clc
 11606 00:52E8: A5 1C        	lda	<L737+destination_0+2
 11607 00:52EA: 65 0D        	adc	<L738+length_1
 11608 00:52EC: 85 01        	sta	<R0
 11609 00:52EE: AD xx xx     	lda	|~~basicvars+6
 11610 00:52F1: 85 05        	sta	<R1
 11611 00:52F3: AD xx xx     	lda	|~~basicvars+6+2
 11612 00:52F6: 85 07        	sta	<R1+2
 11613 00:52F8: E2 20        	sep	#$20
 11614                        	longa	off
 11615 00:52FA: A9 0D        	lda	#$d
 11616 00:52FC: A4 01        	ldy	<R0
 11617 00:52FE: 97 05        	sta	[<R1],Y
 11618 00:5300: C2 20        	rep	#$20
 11619                        	longa	on
 11620 00:5302: 82 1D 00     	brl	L10582
 11621                        L10588:
 11622 00:5305: F4 45 00     	pea	#<$45
 11623 00:5308: F4 04 00     	pea	#4
 11624 00:530B: 22 xx xx xx  	jsl	~~error
 11625 00:530F: 82 10 00     	brl	L10582
 11626                        L10581:
 11627                        	xref	~~~swt
 11628 00:5312: 22 xx xx xx  	jsl	~~~swt
 11629 00:5316: 02 00        	dw	2
 11630 00:5318: 04 00        	dw	4
 11631 00:531A: xx xx        	dw	L10583-1
 11632 00:531C: 15 00        	dw	21
 11633 00:531E: xx xx        	dw	L10586-1
 11634 00:5320: xx xx        	dw	L10588-1
 11635                        L10582:
 11636                        L759:
 11637 00:5322: A5 18        	lda	<L737+2
 11638 00:5324: 85 1E        	sta	<L737+2+6
 11639 00:5326: A5 17        	lda	<L737+1
 11640 00:5328: 85 1D        	sta	<L737+1+6
 11641 00:532A: 2B           	pld
 11642 00:532B: 3B           	tsc
  Sun Jan  9 2022 20:52                                                Page 202


 11643 00:532C: 18           	clc
 11644 00:532D: 69 1C 00     	adc	#L737+6
 11645 00:5330: 1B           	tcs
 11646 00:5331: 6B           	rtl
 11647             00000016   L737	equ	22
 11648             0000000D   L738	equ	13
 11649                        	ends
 11650                        	efunc
 11651                        	code
 11652                        	xdef	~~exec_read
 11653                        	func
 11654                        ~~exec_read:
 11655                        	longa	on
 11656                        	longi	on
 11657 00:5332: 3B           	tsc
 11658 00:5333: 38           	sec
 11659 00:5334: E9 0E 00     	sbc	#L760
 11660 00:5337: 1B           	tcs
 11661 00:5338: 0B           	phd
 11662 00:5339: 5B           	tcd
 11663             00000000   destination_1	set	0
 11664 00:533A: EE xx xx     	inc	|~~basicvars+62
 11665 00:533D: D0 03        	bne	L762
 11666 00:533F: EE xx xx     	inc	|~~basicvars+62+2
 11667                        L762:
 11668 00:5342: AD xx xx     	lda	|~~basicvars+62
 11669 00:5345: 85 01        	sta	<R0
 11670 00:5347: AD xx xx     	lda	|~~basicvars+62+2
 11671 00:534A: 85 03        	sta	<R0+2
 11672 00:534C: A7 01        	lda	[<R0]
 11673 00:534E: 29 FF 00     	and	#$ff
 11674 00:5351: 85 01        	sta	<R0
 11675 00:5353: A6 01        	ldx	<R0
 11676 00:5355: BD xx xx     	lda	|~~ateol,X
 11677 00:5358: 29 FF 00     	and	#$ff
 11678 00:535B: D0 03        	bne	L763
 11679 00:535D: 82 08 00     	brl	L10589
 11680                        L763:
 11681                        L764:
 11682 00:5360: 2B           	pld
 11683 00:5361: 3B           	tsc
 11684 00:5362: 18           	clc
 11685 00:5363: 69 0E 00     	adc	#L760
 11686 00:5366: 1B           	tcs
 11687 00:5367: 6B           	rtl
 11688                        L10589:
 11689 00:5368: AD xx xx     	lda	|~~basicvars+423
 11690 00:536B: 89 10 00     	bit	#$10
 11691 00:536E: D0 03        	bne	L765
 11692 00:5370: 82 0A 00     	brl	L10590
 11693                        L765:
 11694 00:5373: F4 58 00     	pea	#<$58
 11695 00:5376: F4 04 00     	pea	#4
 11696 00:5379: 22 xx xx xx  	jsl	~~error
 11697                        L10590:
 11698                        L10591:
 11699 00:537D: F4 00 00     	pea	#0
 11700 00:5380: 18           	clc
  Sun Jan  9 2022 20:52                                                Page 203


 11701 00:5381: 7B           	tdc
 11702 00:5382: 69 09 00     	adc	#<L761+destination_1
 11703 00:5385: 48           	pha
 11704 00:5386: 22 xx xx xx  	jsl	~~get_lvalue
 11705 00:538A: 22 xx xx xx  	jsl	~~find_data
 11706 00:538E: A5 09        	lda	<L761+destination_1
 11707 00:5390: 29 07 00     	and	#<$7
 11708 00:5393: 85 01        	sta	<R0
 11709 00:5395: A5 01        	lda	<R0
 11710 00:5397: 30 09        	bmi	L766
 11711 00:5399: 3A           	dea
 11712 00:539A: 3A           	dea
 11713 00:539B: 3A           	dea
 11714 00:539C: 3A           	dea
 11715 00:539D: 30 03        	bmi	L766
 11716 00:539F: 82 2D 00     	brl	L10593
 11717                        L766:
 11718 00:53A2: 38           	sec
 11719 00:53A3: 3B           	tsc
 11720 00:53A4: E9 06 00     	sbc	#6
 11721 00:53A7: 1B           	tcs
 11722 00:53A8: 1A           	ina
 11723 00:53A9: 85 01        	sta	<R0
 11724 00:53AB: 64 03        	stz	<R0+2
 11725 00:53AD: 18           	clc
 11726 00:53AE: 7B           	tdc
 11727 00:53AF: 69 09 00     	adc	#<L761+destination_1
 11728 00:53B2: 85 05        	sta	<R1
 11729 00:53B4: A9 00 00     	lda	#$0
 11730 00:53B7: 85 07        	sta	<R1+2
 11731 00:53B9: D4 07        	pei	<R1+2
 11732 00:53BB: D4 05        	pei	<R1
 11733 00:53BD: D4 03        	pei	<R0+2
 11734 00:53BF: D4 01        	pei	<R0
 11735 00:53C1: A9 06 00     	lda	#$6
 11736                        	xref	~~~fmov
 11737 00:53C4: 22 xx xx xx  	jsl	~~~fmov
 11738 00:53C8: 22 xx xx xx  	jsl	~~read_numeric
 11739 00:53CC: 82 2A 00     	brl	L10594
 11740                        L10593:
 11741 00:53CF: 38           	sec
 11742 00:53D0: 3B           	tsc
 11743 00:53D1: E9 06 00     	sbc	#6
 11744 00:53D4: 1B           	tcs
 11745 00:53D5: 1A           	ina
 11746 00:53D6: 85 01        	sta	<R0
 11747 00:53D8: 64 03        	stz	<R0+2
 11748 00:53DA: 18           	clc
 11749 00:53DB: 7B           	tdc
 11750 00:53DC: 69 09 00     	adc	#<L761+destination_1
 11751 00:53DF: 85 05        	sta	<R1
 11752 00:53E1: A9 00 00     	lda	#$0
 11753 00:53E4: 85 07        	sta	<R1+2
 11754 00:53E6: D4 07        	pei	<R1+2
 11755 00:53E8: D4 05        	pei	<R1
 11756 00:53EA: D4 03        	pei	<R0+2
 11757 00:53EC: D4 01        	pei	<R0
 11758 00:53EE: A9 06 00     	lda	#$6
  Sun Jan  9 2022 20:52                                                Page 204


 11759                        	xref	~~~fmov
 11760 00:53F1: 22 xx xx xx  	jsl	~~~fmov
 11761 00:53F5: 22 xx xx xx  	jsl	~~read_string
 11762                        L10594:
 11763 00:53F9: AD xx xx     	lda	|~~basicvars+62
 11764 00:53FC: 85 01        	sta	<R0
 11765 00:53FE: AD xx xx     	lda	|~~basicvars+62+2
 11766 00:5401: 85 03        	sta	<R0+2
 11767 00:5403: E2 20        	sep	#$20
 11768                        	longa	off
 11769 00:5405: A7 01        	lda	[<R0]
 11770 00:5407: C9 2C        	cmp	#<$2c
 11771 00:5409: C2 20        	rep	#$20
 11772                        	longa	on
 11773 00:540B: F0 03        	beq	L767
 11774 00:540D: 82 0B 00     	brl	L10592
 11775                        L767:
 11776 00:5410: EE xx xx     	inc	|~~basicvars+62
 11777 00:5413: D0 03        	bne	L768
 11778 00:5415: EE xx xx     	inc	|~~basicvars+62+2
 11779                        L768:
 11780 00:5418: 82 62 FF     	brl	L10591
 11781                        L10592:
 11782 00:541B: 22 xx xx xx  	jsl	~~check_ateol
 11783 00:541F: 82 3E FF     	brl	L764
 11784             0000000E   L760	equ	14
 11785             00000009   L761	equ	9
 11786                        	ends
 11787                        	efunc
 11788                        	code
 11789                        	xdef	~~exec_repeat
 11790                        	func
 11791                        ~~exec_repeat:
 11792                        	longa	on
 11793                        	longi	on
 11794 00:5422: 3B           	tsc
 11795 00:5423: 38           	sec
 11796 00:5424: E9 0C 00     	sbc	#L769
 11797 00:5427: 1B           	tcs
 11798 00:5428: 0B           	phd
 11799 00:5429: 5B           	tcd
 11800 00:542A: EE xx xx     	inc	|~~basicvars+62
 11801 00:542D: D0 03        	bne	L771
 11802 00:542F: EE xx xx     	inc	|~~basicvars+62+2
 11803                        L771:
 11804 00:5432: AD xx xx     	lda	|~~basicvars+62
 11805 00:5435: 85 01        	sta	<R0
 11806 00:5437: AD xx xx     	lda	|~~basicvars+62+2
 11807 00:543A: 85 03        	sta	<R0+2
 11808 00:543C: E2 20        	sep	#$20
 11809                        	longa	off
 11810 00:543E: A7 01        	lda	[<R0]
 11811 00:5440: C9 3A        	cmp	#<$3a
 11812 00:5442: C2 20        	rep	#$20
 11813                        	longa	on
 11814 00:5444: F0 03        	beq	L772
 11815 00:5446: 82 08 00     	brl	L10595
 11816                        L772:
  Sun Jan  9 2022 20:52                                                Page 205


 11817 00:5449: EE xx xx     	inc	|~~basicvars+62
 11818 00:544C: D0 03        	bne	L773
 11819 00:544E: EE xx xx     	inc	|~~basicvars+62+2
 11820                        L773:
 11821                        L10595:
 11822 00:5451: AD xx xx     	lda	|~~basicvars+62
 11823 00:5454: 85 01        	sta	<R0
 11824 00:5456: AD xx xx     	lda	|~~basicvars+62+2
 11825 00:5459: 85 03        	sta	<R0+2
 11826 00:545B: A7 01        	lda	[<R0]
 11827 00:545D: 29 FF 00     	and	#$ff
 11828 00:5460: F0 03        	beq	L774
 11829 00:5462: 82 80 00     	brl	L10596
 11830                        L774:
 11831 00:5465: EE xx xx     	inc	|~~basicvars+62
 11832 00:5468: D0 03        	bne	L775
 11833 00:546A: EE xx xx     	inc	|~~basicvars+62+2
 11834                        L775:
 11835 00:546D: AD xx xx     	lda	|~~basicvars+425
 11836 00:5470: 89 02 00     	bit	#$2
 11837 00:5473: D0 03        	bne	L776
 11838 00:5475: 82 11 00     	brl	L10597
 11839                        L776:
 11840 00:5478: AD xx xx     	lda	|~~basicvars+62+2
 11841 00:547B: 48           	pha
 11842 00:547C: AD xx xx     	lda	|~~basicvars+62
 11843 00:547F: 48           	pha
 11844 00:5480: 22 xx xx xx  	jsl	~~get_lineno
 11845 00:5484: 48           	pha
 11846 00:5485: 22 xx xx xx  	jsl	~~trace_line
 11847                        L10597:
 11848 00:5489: AD xx xx     	lda	|~~basicvars+62
 11849 00:548C: 85 05        	sta	<R1
 11850 00:548E: AD xx xx     	lda	|~~basicvars+62+2
 11851 00:5491: 85 07        	sta	<R1+2
 11852 00:5493: A0 05 00     	ldy	#$5
 11853 00:5496: B7 05        	lda	[<R1],Y
 11854 00:5498: 29 FF 00     	and	#$ff
 11855 00:549B: 85 05        	sta	<R1
 11856 00:549D: A5 05        	lda	<R1
 11857 00:549F: EB           	xba
 11858 00:54A0: 29 00 FF     	and	#$ff00
 11859 00:54A3: 85 01        	sta	<R0
 11860 00:54A5: A0 00 00     	ldy	#$0
 11861 00:54A8: A5 01        	lda	<R0
 11862 00:54AA: 10 01        	bpl	L777
 11863 00:54AC: 88           	dey
 11864                        L777:
 11865 00:54AD: 85 01        	sta	<R0
 11866 00:54AF: 84 03        	sty	<R0+2
 11867 00:54B1: AD xx xx     	lda	|~~basicvars+62
 11868 00:54B4: 85 05        	sta	<R1
 11869 00:54B6: AD xx xx     	lda	|~~basicvars+62+2
 11870 00:54B9: 85 07        	sta	<R1+2
 11871 00:54BB: A0 04 00     	ldy	#$4
 11872 00:54BE: B7 05        	lda	[<R1],Y
 11873 00:54C0: 29 FF 00     	and	#$ff
 11874 00:54C3: 85 05        	sta	<R1
  Sun Jan  9 2022 20:52                                                Page 206


 11875 00:54C5: 64 07        	stz	<R1+2
 11876 00:54C7: 18           	clc
 11877 00:54C8: A5 05        	lda	<R1
 11878 00:54CA: 65 01        	adc	<R0
 11879 00:54CC: 85 09        	sta	<R2
 11880 00:54CE: A5 07        	lda	<R1+2
 11881 00:54D0: 65 03        	adc	<R0+2
 11882 00:54D2: 85 0B        	sta	<R2+2
 11883 00:54D4: 18           	clc
 11884 00:54D5: AD xx xx     	lda	|~~basicvars+62
 11885 00:54D8: 65 09        	adc	<R2
 11886 00:54DA: 8D xx xx     	sta	|~~basicvars+62
 11887 00:54DD: AD xx xx     	lda	|~~basicvars+62+2
 11888 00:54E0: 65 0B        	adc	<R2+2
 11889 00:54E2: 8D xx xx     	sta	|~~basicvars+62+2
 11890                        L10596:
 11891 00:54E5: 22 xx xx xx  	jsl	~~push_repeat
 11892                        L778:
 11893 00:54E9: 2B           	pld
 11894 00:54EA: 3B           	tsc
 11895 00:54EB: 18           	clc
 11896 00:54EC: 69 0C 00     	adc	#L769
 11897 00:54EF: 1B           	tcs
 11898 00:54F0: 6B           	rtl
 11899             0000000C   L769	equ	12
 11900             0000000D   L770	equ	13
 11901                        	ends
 11902                        	efunc
 11903                        	code
 11904                        	xdef	~~exec_report
 11905                        	func
 11906                        ~~exec_report:
 11907                        	longa	on
 11908                        	longi	on
 11909 00:54F1: 3B           	tsc
 11910 00:54F2: 38           	sec
 11911 00:54F3: E9 10 00     	sbc	#L779
 11912 00:54F6: 1B           	tcs
 11913 00:54F7: 0B           	phd
 11914 00:54F8: 5B           	tcd
 11915             00000000   p_1	set	0
 11916 00:54F9: EE xx xx     	inc	|~~basicvars+62
 11917 00:54FC: D0 03        	bne	L781
 11918 00:54FE: EE xx xx     	inc	|~~basicvars+62+2
 11919                        L781:
 11920 00:5501: 22 xx xx xx  	jsl	~~check_ateol
 11921 00:5505: 22 xx xx xx  	jsl	~~get_lasterror
 11922 00:5509: 85 0D        	sta	<L780+p_1
 11923 00:550B: 86 0F        	stx	<L780+p_1+2
 11924 00:550D: D4 0F        	pei	<L780+p_1+2
 11925 00:550F: D4 0D        	pei	<L780+p_1
 11926 00:5511: 22 xx xx xx  	jsl	~~strlen
 11927 00:5515: 85 01        	sta	<R0
 11928 00:5517: 86 03        	stx	<R0+2
 11929 00:5519: D4 01        	pei	<R0
 11930 00:551B: D4 0F        	pei	<L780+p_1+2
 11931 00:551D: D4 0D        	pei	<L780+p_1
 11932 00:551F: 22 xx xx xx  	jsl	~~emulate_vdustr
  Sun Jan  9 2022 20:52                                                Page 207


 11933 00:5523: A0 00 00     	ldy	#$0
 11934 00:5526: AD xx xx     	lda	|~~basicvars+494
 11935 00:5529: 10 01        	bpl	L782
 11936 00:552B: 88           	dey
 11937                        L782:
 11938 00:552C: 85 01        	sta	<R0
 11939 00:552E: 84 03        	sty	<R0+2
 11940 00:5530: D4 0F        	pei	<L780+p_1+2
 11941 00:5532: D4 0D        	pei	<L780+p_1
 11942 00:5534: 22 xx xx xx  	jsl	~~strlen
 11943 00:5538: 85 05        	sta	<R1
 11944 00:553A: 86 07        	stx	<R1+2
 11945 00:553C: 18           	clc
 11946 00:553D: A5 05        	lda	<R1
 11947 00:553F: 65 01        	adc	<R0
 11948 00:5541: 85 09        	sta	<R2
 11949 00:5543: A5 07        	lda	<R1+2
 11950 00:5545: 65 03        	adc	<R0+2
 11951 00:5547: 85 0B        	sta	<R2+2
 11952 00:5549: A5 09        	lda	<R2
 11953 00:554B: 8D xx xx     	sta	|~~basicvars+494
 11954                        L783:
 11955 00:554E: 2B           	pld
 11956 00:554F: 3B           	tsc
 11957 00:5550: 18           	clc
 11958 00:5551: 69 10 00     	adc	#L779
 11959 00:5554: 1B           	tcs
 11960 00:5555: 6B           	rtl
 11961             00000010   L779	equ	16
 11962             0000000D   L780	equ	13
 11963                        	ends
 11964                        	efunc
 11965                        	code
 11966                        	func
 11967                        ~~restore_dataptr:
 11968                        	longa	on
 11969                        	longi	on
 11970 00:5556: 3B           	tsc
 11971 00:5557: 38           	sec
 11972 00:5558: E9 16 00     	sbc	#L784
 11973 00:555B: 1B           	tcs
 11974 00:555C: 0B           	phd
 11975 00:555D: 5B           	tcd
 11976             00000000   dest_1	set	0
 11977             00000004   p_1	set	4
 11978             00000008   line_1	set	8
 11979 00:555E: A9 10 00     	lda	#$10
 11980 00:5561: 1C xx xx     	trb	~~basicvars+423
 11981 00:5564: AD xx xx     	lda	|~~basicvars+62
 11982 00:5567: 85 01        	sta	<R0
 11983 00:5569: AD xx xx     	lda	|~~basicvars+62+2
 11984 00:556C: 85 03        	sta	<R0+2
 11985 00:556E: A7 01        	lda	[<R0]
 11986 00:5570: 29 FF 00     	and	#$ff
 11987 00:5573: 82 12 02     	brl	L10598
 11988                        L10600:
 11989 00:5576: AD xx xx     	lda	|~~basicvars+62+2
 11990 00:5579: 48           	pha
  Sun Jan  9 2022 20:52                                                Page 208


 11991 00:557A: AD xx xx     	lda	|~~basicvars+62
 11992 00:557D: 48           	pha
 11993 00:557E: 22 xx xx xx  	jsl	~~set_linedest
 11994 00:5582: 85 01        	sta	<R0
 11995 00:5584: 86 03        	stx	<R0+2
 11996 00:5586: DA           	phx
 11997 00:5587: 48           	pha
 11998 00:5588: 22 xx xx xx  	jsl	~~find_linestart
 11999 00:558C: 85 0D        	sta	<L785+dest_1
 12000 00:558E: 86 0F        	stx	<L785+dest_1+2
 12001 00:5590: AD xx xx     	lda	|~~basicvars+62+2
 12002 00:5593: 48           	pha
 12003 00:5594: AD xx xx     	lda	|~~basicvars+62
 12004 00:5597: 48           	pha
 12005 00:5598: 22 xx xx xx  	jsl	~~skip_token
 12006 00:559C: 8D xx xx     	sta	|~~basicvars+62
 12007 00:559F: 8E xx xx     	stx	|~~basicvars+62+2
 12008 00:55A2: 22 xx xx xx  	jsl	~~check_ateol
 12009 00:55A6: 82 F3 01     	brl	L10599
 12010                        L10601:
 12011 00:55A9: AD xx xx     	lda	|~~basicvars+62
 12012 00:55AC: 85 01        	sta	<R0
 12013 00:55AE: AD xx xx     	lda	|~~basicvars+62+2
 12014 00:55B1: 85 03        	sta	<R0+2
 12015 00:55B3: A0 01 00     	ldy	#$1
 12016 00:55B6: B7 01        	lda	[<R0],Y
 12017 00:55B8: 29 FF 00     	and	#$ff
 12018 00:55BB: 85 01        	sta	<R0
 12019 00:55BD: AD xx xx     	lda	|~~basicvars+62
 12020 00:55C0: 85 09        	sta	<R2
 12021 00:55C2: AD xx xx     	lda	|~~basicvars+62+2
 12022 00:55C5: 85 0B        	sta	<R2+2
 12023 00:55C7: A0 02 00     	ldy	#$2
 12024 00:55CA: B7 09        	lda	[<R2],Y
 12025 00:55CC: 29 FF 00     	and	#$ff
 12026 00:55CF: 85 09        	sta	<R2
 12027 00:55D1: A5 09        	lda	<R2
 12028 00:55D3: EB           	xba
 12029 00:55D4: 29 00 FF     	and	#$ff00
 12030 00:55D7: 85 05        	sta	<R1
 12031 00:55D9: A5 05        	lda	<R1
 12032 00:55DB: 05 01        	ora	<R0
 12033 00:55DD: 85 09        	sta	<R2
 12034 00:55DF: AD xx xx     	lda	|~~basicvars+62
 12035 00:55E2: 85 05        	sta	<R1
 12036 00:55E4: AD xx xx     	lda	|~~basicvars+62+2
 12037 00:55E7: 85 07        	sta	<R1+2
 12038 00:55E9: A0 03 00     	ldy	#$3
 12039 00:55EC: B7 05        	lda	[<R1],Y
 12040 00:55EE: 29 FF 00     	and	#$ff
 12041 00:55F1: A2 10 00     	ldx	#<$10
 12042                        	xref	~~~asl
 12043 00:55F4: 22 xx xx xx  	jsl	~~~asl
 12044 00:55F8: 85 01        	sta	<R0
 12045 00:55FA: A5 01        	lda	<R0
 12046 00:55FC: 05 09        	ora	<R2
 12047 00:55FE: 85 05        	sta	<R1
 12048 00:5600: AD xx xx     	lda	|~~basicvars+62
  Sun Jan  9 2022 20:52                                                Page 209


 12049 00:5603: 85 09        	sta	<R2
 12050 00:5605: AD xx xx     	lda	|~~basicvars+62+2
 12051 00:5608: 85 0B        	sta	<R2+2
 12052 00:560A: A0 04 00     	ldy	#$4
 12053 00:560D: B7 09        	lda	[<R2],Y
 12054 00:560F: 29 FF 00     	and	#$ff
 12055 00:5612: A2 18 00     	ldx	#<$18
 12056                        	xref	~~~asl
 12057 00:5615: 22 xx xx xx  	jsl	~~~asl
 12058 00:5619: 85 01        	sta	<R0
 12059 00:561B: A5 01        	lda	<R0
 12060 00:561D: 05 05        	ora	<R1
 12061 00:561F: 85 09        	sta	<R2
 12062 00:5621: A0 00 00     	ldy	#$0
 12063 00:5624: A5 09        	lda	<R2
 12064 00:5626: 10 01        	bpl	L786
 12065 00:5628: 88           	dey
 12066                        L786:
 12067 00:5629: 85 01        	sta	<R0
 12068 00:562B: 84 03        	sty	<R0+2
 12069 00:562D: 18           	clc
 12070 00:562E: AD xx xx     	lda	|~~basicvars
 12071 00:5631: 65 01        	adc	<R0
 12072 00:5633: 85 0D        	sta	<L785+dest_1
 12073 00:5635: AD xx xx     	lda	|~~basicvars+2
 12074 00:5638: 65 03        	adc	<R0+2
 12075 00:563A: 85 0F        	sta	<L785+dest_1+2
 12076 00:563C: D4 0F        	pei	<L785+dest_1+2
 12077 00:563E: D4 0D        	pei	<L785+dest_1
 12078 00:5640: 22 xx xx xx  	jsl	~~find_linestart
 12079 00:5644: 85 0D        	sta	<L785+dest_1
 12080 00:5646: 86 0F        	stx	<L785+dest_1+2
 12081 00:5648: AD xx xx     	lda	|~~basicvars+62+2
 12082 00:564B: 48           	pha
 12083 00:564C: AD xx xx     	lda	|~~basicvars+62
 12084 00:564F: 48           	pha
 12085 00:5650: 22 xx xx xx  	jsl	~~skip_token
 12086 00:5654: 8D xx xx     	sta	|~~basicvars+62
 12087 00:5657: 8E xx xx     	stx	|~~basicvars+62+2
 12088 00:565A: 22 xx xx xx  	jsl	~~check_ateol
 12089 00:565E: 82 3B 01     	brl	L10599
 12090                        L10602:
 12091 00:5661: EE xx xx     	inc	|~~basicvars+62
 12092 00:5664: D0 03        	bne	L787
 12093 00:5666: EE xx xx     	inc	|~~basicvars+62+2
 12094                        L787:
 12095 00:5669: 22 xx xx xx  	jsl	~~eval_integer
 12096 00:566D: 85 15        	sta	<L785+line_1
 12097 00:566F: 22 xx xx xx  	jsl	~~check_ateol
 12098 00:5673: AD xx xx     	lda	|~~basicvars+62
 12099 00:5676: 85 11        	sta	<L785+p_1
 12100 00:5678: AD xx xx     	lda	|~~basicvars+62+2
 12101 00:567B: 85 13        	sta	<L785+p_1+2
 12102                        L10603:
 12103 00:567D: A7 11        	lda	[<L785+p_1]
 12104 00:567F: 29 FF 00     	and	#$ff
 12105 00:5682: D0 03        	bne	L788
 12106 00:5684: 82 0F 00     	brl	L10604
  Sun Jan  9 2022 20:52                                                Page 210


 12107                        L788:
 12108 00:5687: D4 13        	pei	<L785+p_1+2
 12109 00:5689: D4 11        	pei	<L785+p_1
 12110 00:568B: 22 xx xx xx  	jsl	~~skip_token
 12111 00:568F: 85 11        	sta	<L785+p_1
 12112 00:5691: 86 13        	stx	<L785+p_1+2
 12113 00:5693: 82 E7 FF     	brl	L10603
 12114                        L10604:
 12115 00:5696: E6 11        	inc	<L785+p_1
 12116 00:5698: D0 02        	bne	L789
 12117 00:569A: E6 13        	inc	<L785+p_1+2
 12118                        L789:
 12119 00:569C: C6 15        	dec	<L785+line_1
 12120                        L10605:
 12121 00:569E: E2 20        	sep	#$20
 12122                        	longa	off
 12123 00:56A0: A0 01 00     	ldy	#$1
 12124 00:56A3: B7 11        	lda	[<L785+p_1],Y
 12125 00:56A5: C9 FF        	cmp	#<$ff
 12126 00:56A7: C2 20        	rep	#$20
 12127                        	longa	on
 12128 00:56A9: D0 03        	bne	L790
 12129 00:56AB: 82 50 00     	brl	L10606
 12130                        L790:
 12131 00:56AE: 38           	sec
 12132 00:56AF: A9 00 00     	lda	#$0
 12133 00:56B2: E5 15        	sbc	<L785+line_1
 12134 00:56B4: 70 03        	bvs	L791
 12135 00:56B6: 49 00 80     	eor	#$8000
 12136                        L791:
 12137 00:56B9: 10 03        	bpl	L792
 12138 00:56BB: 82 40 00     	brl	L10606
 12139                        L792:
 12140 00:56BE: A0 02 00     	ldy	#$2
 12141 00:56C1: B7 11        	lda	[<L785+p_1],Y
 12142 00:56C3: 29 FF 00     	and	#$ff
 12143 00:56C6: 85 01        	sta	<R0
 12144 00:56C8: A0 03 00     	ldy	#$3
 12145 00:56CB: B7 11        	lda	[<L785+p_1],Y
 12146 00:56CD: 29 FF 00     	and	#$ff
 12147 00:56D0: 85 09        	sta	<R2
 12148 00:56D2: A5 09        	lda	<R2
 12149 00:56D4: EB           	xba
 12150 00:56D5: 29 00 FF     	and	#$ff00
 12151 00:56D8: 85 05        	sta	<R1
 12152 00:56DA: A5 05        	lda	<R1
 12153 00:56DC: 05 01        	ora	<R0
 12154 00:56DE: 85 09        	sta	<R2
 12155 00:56E0: A0 00 00     	ldy	#$0
 12156 00:56E3: A5 09        	lda	<R2
 12157 00:56E5: 10 01        	bpl	L793
 12158 00:56E7: 88           	dey
 12159                        L793:
 12160 00:56E8: 85 01        	sta	<R0
 12161 00:56EA: 84 03        	sty	<R0+2
 12162 00:56EC: 18           	clc
 12163 00:56ED: A5 11        	lda	<L785+p_1
 12164 00:56EF: 65 01        	adc	<R0
  Sun Jan  9 2022 20:52                                                Page 211


 12165 00:56F1: 85 11        	sta	<L785+p_1
 12166 00:56F3: A5 13        	lda	<L785+p_1+2
 12167 00:56F5: 65 03        	adc	<R0+2
 12168 00:56F7: 85 13        	sta	<L785+p_1+2
 12169 00:56F9: C6 15        	dec	<L785+line_1
 12170 00:56FB: 82 A0 FF     	brl	L10605
 12171                        L10606:
 12172 00:56FE: E2 20        	sep	#$20
 12173                        	longa	off
 12174 00:5700: A0 01 00     	ldy	#$1
 12175 00:5703: B7 11        	lda	[<L785+p_1],Y
 12176 00:5705: C9 FF        	cmp	#<$ff
 12177 00:5707: C2 20        	rep	#$20
 12178                        	longa	on
 12179 00:5709: F0 03        	beq	L794
 12180 00:570B: 82 0E 00     	brl	L10607
 12181                        L794:
 12182 00:570E: A9 10 00     	lda	#$10
 12183 00:5711: 0C xx xx     	tsb	~~basicvars+423
 12184                        L795:
 12185 00:5714: 2B           	pld
 12186 00:5715: 3B           	tsc
 12187 00:5716: 18           	clc
 12188 00:5717: 69 16 00     	adc	#L784
 12189 00:571A: 1B           	tcs
 12190 00:571B: 6B           	rtl
 12191                        L10607:
 12192 00:571C: A5 11        	lda	<L785+p_1
 12193 00:571E: 85 0D        	sta	<L785+dest_1
 12194 00:5720: A5 13        	lda	<L785+p_1+2
 12195 00:5722: 85 0F        	sta	<L785+dest_1+2
 12196 00:5724: 82 75 00     	brl	L10599
 12197                        L10608:
 12198 00:5727: AD xx xx     	lda	|~~basicvars+62
 12199 00:572A: 85 01        	sta	<R0
 12200 00:572C: AD xx xx     	lda	|~~basicvars+62+2
 12201 00:572F: 85 03        	sta	<R0+2
 12202 00:5731: A7 01        	lda	[<R0]
 12203 00:5733: 29 FF 00     	and	#$ff
 12204 00:5736: 85 01        	sta	<R0
 12205 00:5738: A6 01        	ldx	<R0
 12206 00:573A: BD xx xx     	lda	|~~ateol,X
 12207 00:573D: 29 FF 00     	and	#$ff
 12208 00:5740: D0 03        	bne	L796
 12209 00:5742: 82 0D 00     	brl	L10609
 12210                        L796:
 12211 00:5745: AD xx xx     	lda	|~~basicvars+22
 12212 00:5748: 85 0D        	sta	<L785+dest_1
 12213 00:574A: AD xx xx     	lda	|~~basicvars+22+2
 12214 00:574D: 85 0F        	sta	<L785+dest_1+2
 12215 00:574F: 82 33 00     	brl	L10610
 12216                        L10609:
 12217 00:5752: 22 xx xx xx  	jsl	~~eval_integer
 12218 00:5756: 85 15        	sta	<L785+line_1
 12219 00:5758: 22 xx xx xx  	jsl	~~check_ateol
 12220 00:575C: D4 15        	pei	<L785+line_1
 12221 00:575E: 22 xx xx xx  	jsl	~~find_line
 12222 00:5762: 85 0D        	sta	<L785+dest_1
  Sun Jan  9 2022 20:52                                                Page 212


 12223 00:5764: 86 0F        	stx	<L785+dest_1+2
 12224 00:5766: D4 0F        	pei	<L785+dest_1+2
 12225 00:5768: D4 0D        	pei	<L785+dest_1
 12226 00:576A: 22 xx xx xx  	jsl	~~get_lineno
 12227 00:576E: 85 01        	sta	<R0
 12228 00:5770: A5 01        	lda	<R0
 12229 00:5772: C5 15        	cmp	<L785+line_1
 12230 00:5774: D0 03        	bne	L797
 12231 00:5776: 82 0C 00     	brl	L10611
 12232                        L797:
 12233 00:5779: D4 15        	pei	<L785+line_1
 12234 00:577B: F4 0C 00     	pea	#<$c
 12235 00:577E: F4 06 00     	pea	#6
 12236 00:5781: 22 xx xx xx  	jsl	~~error
 12237                        L10611:
 12238                        L10610:
 12239 00:5785: 82 14 00     	brl	L10599
 12240                        L10598:
 12241                        	xref	~~~swt
 12242 00:5788: 22 xx xx xx  	jsl	~~~swt
 12243 00:578C: 03 00        	dw	3
 12244 00:578E: 1E 00        	dw	30
 12245 00:5790: xx xx        	dw	L10600-1
 12246 00:5792: 1F 00        	dw	31
 12247 00:5794: xx xx        	dw	L10601-1
 12248 00:5796: 2B 00        	dw	43
 12249 00:5798: xx xx        	dw	L10602-1
 12250 00:579A: xx xx        	dw	L10608-1
 12251                        L10599:
 12252                        L10612:
 12253 00:579C: E2 20        	sep	#$20
 12254                        	longa	off
 12255 00:579E: A0 01 00     	ldy	#$1
 12256 00:57A1: B7 0D        	lda	[<L785+dest_1],Y
 12257 00:57A3: C9 FF        	cmp	#<$ff
 12258 00:57A5: C2 20        	rep	#$20
 12259                        	longa	on
 12260 00:57A7: D0 03        	bne	L798
 12261 00:57A9: 82 8F 00     	brl	L10613
 12262                        L798:
 12263 00:57AC: A0 05 00     	ldy	#$5
 12264 00:57AF: B7 0D        	lda	[<L785+dest_1],Y
 12265 00:57B1: 29 FF 00     	and	#$ff
 12266 00:57B4: 85 05        	sta	<R1
 12267 00:57B6: A5 05        	lda	<R1
 12268 00:57B8: EB           	xba
 12269 00:57B9: 29 00 FF     	and	#$ff00
 12270 00:57BC: 85 01        	sta	<R0
 12271 00:57BE: A0 00 00     	ldy	#$0
 12272 00:57C1: A5 01        	lda	<R0
 12273 00:57C3: 10 01        	bpl	L799
 12274 00:57C5: 88           	dey
 12275                        L799:
 12276 00:57C6: 85 01        	sta	<R0
 12277 00:57C8: 84 03        	sty	<R0+2
 12278 00:57CA: A0 04 00     	ldy	#$4
 12279 00:57CD: B7 0D        	lda	[<L785+dest_1],Y
 12280 00:57CF: 29 FF 00     	and	#$ff
  Sun Jan  9 2022 20:52                                                Page 213


 12281 00:57D2: 85 05        	sta	<R1
 12282 00:57D4: 64 07        	stz	<R1+2
 12283 00:57D6: 18           	clc
 12284 00:57D7: A5 05        	lda	<R1
 12285 00:57D9: 65 01        	adc	<R0
 12286 00:57DB: 85 09        	sta	<R2
 12287 00:57DD: A5 07        	lda	<R1+2
 12288 00:57DF: 65 03        	adc	<R0+2
 12289 00:57E1: 85 0B        	sta	<R2+2
 12290 00:57E3: 18           	clc
 12291 00:57E4: A5 0D        	lda	<L785+dest_1
 12292 00:57E6: 65 09        	adc	<R2
 12293 00:57E8: 85 01        	sta	<R0
 12294 00:57EA: A5 0F        	lda	<L785+dest_1+2
 12295 00:57EC: 65 0B        	adc	<R2+2
 12296 00:57EE: 85 03        	sta	<R0+2
 12297 00:57F0: E2 20        	sep	#$20
 12298                        	longa	off
 12299 00:57F2: A7 01        	lda	[<R0]
 12300 00:57F4: C9 99        	cmp	#<$99
 12301 00:57F6: C2 20        	rep	#$20
 12302                        	longa	on
 12303 00:57F8: D0 03        	bne	L800
 12304 00:57FA: 82 3E 00     	brl	L10613
 12305                        L800:
 12306 00:57FD: A0 02 00     	ldy	#$2
 12307 00:5800: B7 0D        	lda	[<L785+dest_1],Y
 12308 00:5802: 29 FF 00     	and	#$ff
 12309 00:5805: 85 01        	sta	<R0
 12310 00:5807: A0 03 00     	ldy	#$3
 12311 00:580A: B7 0D        	lda	[<L785+dest_1],Y
 12312 00:580C: 29 FF 00     	and	#$ff
 12313 00:580F: 85 09        	sta	<R2
 12314 00:5811: A5 09        	lda	<R2
 12315 00:5813: EB           	xba
 12316 00:5814: 29 00 FF     	and	#$ff00
 12317 00:5817: 85 05        	sta	<R1
 12318 00:5819: A5 05        	lda	<R1
 12319 00:581B: 05 01        	ora	<R0
 12320 00:581D: 85 09        	sta	<R2
 12321 00:581F: A0 00 00     	ldy	#$0
 12322 00:5822: A5 09        	lda	<R2
 12323 00:5824: 10 01        	bpl	L801
 12324 00:5826: 88           	dey
 12325                        L801:
 12326 00:5827: 85 01        	sta	<R0
 12327 00:5829: 84 03        	sty	<R0+2
 12328 00:582B: 18           	clc
 12329 00:582C: A5 0D        	lda	<L785+dest_1
 12330 00:582E: 65 01        	adc	<R0
 12331 00:5830: 85 0D        	sta	<L785+dest_1
 12332 00:5832: A5 0F        	lda	<L785+dest_1+2
 12333 00:5834: 65 03        	adc	<R0+2
 12334 00:5836: 85 0F        	sta	<L785+dest_1+2
 12335 00:5838: 82 61 FF     	brl	L10612
 12336                        L10613:
 12337 00:583B: E2 20        	sep	#$20
 12338                        	longa	off
  Sun Jan  9 2022 20:52                                                Page 214


 12339 00:583D: A0 01 00     	ldy	#$1
 12340 00:5840: B7 0D        	lda	[<L785+dest_1],Y
 12341 00:5842: C9 FF        	cmp	#<$ff
 12342 00:5844: C2 20        	rep	#$20
 12343                        	longa	on
 12344 00:5846: F0 03        	beq	L802
 12345 00:5848: 82 09 00     	brl	L10614
 12346                        L802:
 12347 00:584B: A9 10 00     	lda	#$10
 12348 00:584E: 0C xx xx     	tsb	~~basicvars+423
 12349 00:5851: 82 61 00     	brl	L10615
 12350                        L10614:
 12351 00:5854: A0 05 00     	ldy	#$5
 12352 00:5857: B7 0D        	lda	[<L785+dest_1],Y
 12353 00:5859: 29 FF 00     	and	#$ff
 12354 00:585C: 85 05        	sta	<R1
 12355 00:585E: A5 05        	lda	<R1
 12356 00:5860: EB           	xba
 12357 00:5861: 29 00 FF     	and	#$ff00
 12358 00:5864: 85 01        	sta	<R0
 12359 00:5866: A0 00 00     	ldy	#$0
 12360 00:5869: A5 01        	lda	<R0
 12361 00:586B: 10 01        	bpl	L803
 12362 00:586D: 88           	dey
 12363                        L803:
 12364 00:586E: 85 01        	sta	<R0
 12365 00:5870: 84 03        	sty	<R0+2
 12366 00:5872: A0 04 00     	ldy	#$4
 12367 00:5875: B7 0D        	lda	[<L785+dest_1],Y
 12368 00:5877: 29 FF 00     	and	#$ff
 12369 00:587A: 85 05        	sta	<R1
 12370 00:587C: 64 07        	stz	<R1+2
 12371 00:587E: 18           	clc
 12372 00:587F: A5 05        	lda	<R1
 12373 00:5881: 65 01        	adc	<R0
 12374 00:5883: 85 09        	sta	<R2
 12375 00:5885: A5 07        	lda	<R1+2
 12376 00:5887: 65 03        	adc	<R0+2
 12377 00:5889: 85 0B        	sta	<R2+2
 12378 00:588B: 18           	clc
 12379 00:588C: A5 0D        	lda	<L785+dest_1
 12380 00:588E: 65 09        	adc	<R2
 12381 00:5890: 85 01        	sta	<R0
 12382 00:5892: A5 0F        	lda	<L785+dest_1+2
 12383 00:5894: 65 0B        	adc	<R2+2
 12384 00:5896: 85 03        	sta	<R0+2
 12385 00:5898: D4 03        	pei	<R0+2
 12386 00:589A: D4 01        	pei	<R0
 12387 00:589C: 22 xx xx xx  	jsl	~~get_srcaddr
 12388 00:58A0: 85 05        	sta	<R1
 12389 00:58A2: 86 07        	stx	<R1+2
 12390 00:58A4: 18           	clc
 12391 00:58A5: A9 FF FF     	lda	#$ffff
 12392 00:58A8: 65 05        	adc	<R1
 12393 00:58AA: 8D xx xx     	sta	|~~basicvars+407
 12394 00:58AD: A9 FF FF     	lda	#$ffff
 12395 00:58B0: 65 07        	adc	<R1+2
 12396 00:58B2: 8D xx xx     	sta	|~~basicvars+407+2
  Sun Jan  9 2022 20:52                                                Page 215


 12397                        L10615:
 12398 00:58B5: 82 5C FE     	brl	L795
 12399             00000016   L784	equ	22
 12400             0000000D   L785	equ	13
 12401                        	ends
 12402                        	efunc
 12403                        	code
 12404                        	xdef	~~exec_restore
 12405                        	func
 12406                        ~~exec_restore:
 12407                        	longa	on
 12408                        	longi	on
 12409 00:58B8: 3B           	tsc
 12410 00:58B9: 38           	sec
 12411 00:58BA: E9 04 00     	sbc	#L804
 12412 00:58BD: 1B           	tcs
 12413 00:58BE: 0B           	phd
 12414 00:58BF: 5B           	tcd
 12415 00:58C0: EE xx xx     	inc	|~~basicvars+62
 12416 00:58C3: D0 03        	bne	L806
 12417 00:58C5: EE xx xx     	inc	|~~basicvars+62+2
 12418                        L806:
 12419 00:58C8: AD xx xx     	lda	|~~basicvars+62
 12420 00:58CB: 85 01        	sta	<R0
 12421 00:58CD: AD xx xx     	lda	|~~basicvars+62+2
 12422 00:58D0: 85 03        	sta	<R0+2
 12423 00:58D2: A7 01        	lda	[<R0]
 12424 00:58D4: 29 FF 00     	and	#$ff
 12425 00:58D7: 82 95 00     	brl	L10616
 12426                        L10618:
 12427 00:58DA: AD xx xx     	lda	|~~basicvars+62+2
 12428 00:58DD: 48           	pha
 12429 00:58DE: AD xx xx     	lda	|~~basicvars+62
 12430 00:58E1: 48           	pha
 12431 00:58E2: 22 xx xx xx  	jsl	~~skip_token
 12432 00:58E6: 8D xx xx     	sta	|~~basicvars+62
 12433 00:58E9: 8E xx xx     	stx	|~~basicvars+62+2
 12434 00:58EC: 22 xx xx xx  	jsl	~~check_ateol
 12435 00:58F0: AD xx xx     	lda	|~~basicvars+42
 12436 00:58F3: 85 01        	sta	<R0
 12437 00:58F5: AD xx xx     	lda	|~~basicvars+42+2
 12438 00:58F8: 85 03        	sta	<R0+2
 12439 00:58FA: A7 01        	lda	[<R0]
 12440 00:58FC: C9 17 00     	cmp	#<$17
 12441 00:58FF: D0 03        	bne	L807
 12442 00:5901: 82 0A 00     	brl	L10619
 12443                        L807:
 12444 00:5904: F4 64 00     	pea	#<$64
 12445 00:5907: F4 04 00     	pea	#4
 12446 00:590A: 22 xx xx xx  	jsl	~~error
 12447                        L10619:
 12448 00:590E: 22 xx xx xx  	jsl	~~pop_error
 12449 00:5912: 85 01        	sta	<R0
 12450 00:5914: 86 03        	stx	<R0+2
 12451 00:5916: D4 03        	pei	<R0+2
 12452 00:5918: D4 01        	pei	<R0
 12453 00:591A: F4 xx xx     	pea	#<~~basicvars+232
 12454 00:591D: A9 09 00     	lda	#$9
  Sun Jan  9 2022 20:52                                                Page 216


 12455                        	xref	~~~fnmov
 12456 00:5920: 22 xx xx xx  	jsl	~~~fnmov
 12457 00:5924: 82 58 00     	brl	L10617
 12458                        L10620:
 12459 00:5927: AD xx xx     	lda	|~~basicvars+62+2
 12460 00:592A: 48           	pha
 12461 00:592B: AD xx xx     	lda	|~~basicvars+62
 12462 00:592E: 48           	pha
 12463 00:592F: 22 xx xx xx  	jsl	~~skip_token
 12464 00:5933: 8D xx xx     	sta	|~~basicvars+62
 12465 00:5936: 8E xx xx     	stx	|~~basicvars+62+2
 12466 00:5939: 22 xx xx xx  	jsl	~~check_ateol
 12467 00:593D: AD xx xx     	lda	|~~basicvars+42
 12468 00:5940: 85 01        	sta	<R0
 12469 00:5942: AD xx xx     	lda	|~~basicvars+42+2
 12470 00:5945: 85 03        	sta	<R0+2
 12471 00:5947: A7 01        	lda	[<R0]
 12472 00:5949: C9 18 00     	cmp	#<$18
 12473 00:594C: D0 03        	bne	L808
 12474 00:594E: 82 0A 00     	brl	L10621
 12475                        L808:
 12476 00:5951: F4 65 00     	pea	#<$65
 12477 00:5954: F4 04 00     	pea	#4
 12478 00:5957: 22 xx xx xx  	jsl	~~error
 12479                        L10621:
 12480 00:595B: 22 xx xx xx  	jsl	~~pop_data
 12481 00:595F: 8D xx xx     	sta	|~~basicvars+407
 12482 00:5962: 8E xx xx     	stx	|~~basicvars+407+2
 12483 00:5965: 82 17 00     	brl	L10617
 12484                        L10622:
 12485 00:5968: 22 xx xx xx  	jsl	~~restore_dataptr
 12486 00:596C: 82 10 00     	brl	L10617
 12487                        L10616:
 12488                        	xref	~~~swt
 12489 00:596F: 22 xx xx xx  	jsl	~~~swt
 12490 00:5973: 02 00        	dw	2
 12491 00:5975: 99 00        	dw	153
 12492 00:5977: xx xx        	dw	L10620-1
 12493 00:5979: A9 00        	dw	169
 12494 00:597B: xx xx        	dw	L10618-1
 12495 00:597D: xx xx        	dw	L10622-1
 12496                        L10617:
 12497                        L809:
 12498 00:597F: 2B           	pld
 12499 00:5980: 3B           	tsc
 12500 00:5981: 18           	clc
 12501 00:5982: 69 04 00     	adc	#L804
 12502 00:5985: 1B           	tcs
 12503 00:5986: 6B           	rtl
 12504             00000004   L804	equ	4
 12505             00000005   L805	equ	5
 12506                        	ends
 12507                        	efunc
 12508                        	code
 12509                        	xdef	~~exec_return
 12510                        	func
 12511                        ~~exec_return:
 12512                        	longa	on
  Sun Jan  9 2022 20:52                                                Page 217


 12513                        	longi	on
 12514 00:5987: 3B           	tsc
 12515 00:5988: 38           	sec
 12516 00:5989: E9 0C 00     	sbc	#L810
 12517 00:598C: 1B           	tcs
 12518 00:598D: 0B           	phd
 12519 00:598E: 5B           	tcd
 12520             00000000   returnblock_1	set	0
 12521 00:598F: EE xx xx     	inc	|~~basicvars+62
 12522 00:5992: D0 03        	bne	L812
 12523 00:5994: EE xx xx     	inc	|~~basicvars+62+2
 12524                        L812:
 12525 00:5997: 22 xx xx xx  	jsl	~~check_ateol
 12526 00:599B: AD xx xx     	lda	|~~basicvars+403
 12527 00:599E: 0D xx xx     	ora	|~~basicvars+403+2
 12528 00:59A1: F0 03        	beq	L813
 12529 00:59A3: 82 0A 00     	brl	L10623
 12530                        L813:
 12531 00:59A6: F4 52 00     	pea	#<$52
 12532 00:59A9: F4 04 00     	pea	#4
 12533 00:59AC: 22 xx xx xx  	jsl	~~error
 12534                        L10623:
 12535 00:59B0: AD xx xx     	lda	|~~basicvars+42
 12536 00:59B3: 85 01        	sta	<R0
 12537 00:59B5: AD xx xx     	lda	|~~basicvars+42+2
 12538 00:59B8: 85 03        	sta	<R0+2
 12539 00:59BA: A7 01        	lda	[<R0]
 12540 00:59BC: C9 0E 00     	cmp	#<$e
 12541 00:59BF: D0 03        	bne	L814
 12542 00:59C1: 82 07 00     	brl	L10624
 12543                        L814:
 12544 00:59C4: F4 0E 00     	pea	#<$e
 12545 00:59C7: 22 xx xx xx  	jsl	~~empty_stack
 12546                        L10624:
 12547 00:59CB: 22 xx xx xx  	jsl	~~pop_gosub
 12548 00:59CF: 85 01        	sta	<R0
 12549 00:59D1: 86 03        	stx	<R0+2
 12550 00:59D3: D4 03        	pei	<R0+2
 12551 00:59D5: D4 01        	pei	<R0
 12552 00:59D7: 18           	clc
 12553 00:59D8: 7B           	tdc
 12554 00:59D9: 69 05 00     	adc	#<L811+returnblock_1
 12555 00:59DC: 85 01        	sta	<R0
 12556 00:59DE: A9 00 00     	lda	#$0
 12557 00:59E1: 85 03        	sta	<R0+2
 12558 00:59E3: D4 03        	pei	<R0+2
 12559 00:59E5: D4 01        	pei	<R0
 12560 00:59E7: A9 08 00     	lda	#$8
 12561                        	xref	~~~fmov
 12562 00:59EA: 22 xx xx xx  	jsl	~~~fmov
 12563 00:59EE: AD xx xx     	lda	|~~basicvars+425
 12564 00:59F1: 89 10 00     	bit	#$10
 12565 00:59F4: D0 03        	bne	L815
 12566 00:59F6: 82 10 00     	brl	L10625
 12567                        L815:
 12568 00:59F9: D4 0B        	pei	<L811+returnblock_1+6
 12569 00:59FB: D4 09        	pei	<L811+returnblock_1+4
 12570 00:59FD: AD xx xx     	lda	|~~basicvars+62+2
  Sun Jan  9 2022 20:52                                                Page 218


 12571 00:5A00: 48           	pha
 12572 00:5A01: AD xx xx     	lda	|~~basicvars+62
 12573 00:5A04: 48           	pha
 12574 00:5A05: 22 xx xx xx  	jsl	~~trace_branch
 12575                        L10625:
 12576 00:5A09: A5 09        	lda	<L811+returnblock_1+4
 12577 00:5A0B: 8D xx xx     	sta	|~~basicvars+62
 12578 00:5A0E: A5 0B        	lda	<L811+returnblock_1+6
 12579 00:5A10: 8D xx xx     	sta	|~~basicvars+62+2
 12580                        L816:
 12581 00:5A13: 2B           	pld
 12582 00:5A14: 3B           	tsc
 12583 00:5A15: 18           	clc
 12584 00:5A16: 69 0C 00     	adc	#L810
 12585 00:5A19: 1B           	tcs
 12586 00:5A1A: 6B           	rtl
 12587             0000000C   L810	equ	12
 12588             00000005   L811	equ	5
 12589                        	ends
 12590                        	efunc
 12591                        	code
 12592                        	xdef	~~exec_run
 12593                        	func
 12594                        ~~exec_run:
 12595                        	longa	on
 12596                        	longi	on
 12597 00:5A1B: 3B           	tsc
 12598 00:5A1C: 38           	sec
 12599 00:5A1D: E9 1A 00     	sbc	#L817
 12600 00:5A20: 1B           	tcs
 12601 00:5A21: 0B           	phd
 12602 00:5A22: 5B           	tcd
 12603             00000000   string_1	set	0
 12604             00000006   topitem_1	set	6
 12605             00000008   bp_1	set	8
 12606             0000000C   line_1	set	12
 12607             0000000E   filename_1	set	14
 12608 00:5A23: EE xx xx     	inc	|~~basicvars+62
 12609 00:5A26: D0 03        	bne	L819
 12610 00:5A28: EE xx xx     	inc	|~~basicvars+62+2
 12611                        L819:
 12612 00:5A2B: 64 11        	stz	<L818+bp_1
 12613 00:5A2D: 64 13        	stz	<L818+bp_1+2
 12614 00:5A2F: AD xx xx     	lda	|~~basicvars+62
 12615 00:5A32: 85 01        	sta	<R0
 12616 00:5A34: AD xx xx     	lda	|~~basicvars+62+2
 12617 00:5A37: 85 03        	sta	<R0+2
 12618 00:5A39: A7 01        	lda	[<R0]
 12619 00:5A3B: 29 FF 00     	and	#$ff
 12620 00:5A3E: 85 01        	sta	<R0
 12621 00:5A40: A6 01        	ldx	<R0
 12622 00:5A42: BD xx xx     	lda	|~~ateol,X
 12623 00:5A45: 29 FF 00     	and	#$ff
 12624 00:5A48: F0 03        	beq	L820
 12625 00:5A4A: 82 3F 01     	brl	L10626
 12626                        L820:
 12627 00:5A4D: 22 xx xx xx  	jsl	~~expression
 12628 00:5A51: AD xx xx     	lda	|~~basicvars+42
  Sun Jan  9 2022 20:52                                                Page 219


 12629 00:5A54: 85 01        	sta	<R0
 12630 00:5A56: AD xx xx     	lda	|~~basicvars+42+2
 12631 00:5A59: 85 03        	sta	<R0+2
 12632 00:5A5B: A7 01        	lda	[<R0]
 12633 00:5A5D: 85 0F        	sta	<L818+topitem_1
 12634 00:5A5F: A5 0F        	lda	<L818+topitem_1
 12635 00:5A61: 82 16 01     	brl	L10627
 12636                        L10629:
 12637                        L10630:
 12638 00:5A64: A5 0F        	lda	<L818+topitem_1
 12639 00:5A66: C9 02 00     	cmp	#<$2
 12640 00:5A69: F0 03        	beq	L821
 12641 00:5A6B: 82 09 00     	brl	L10631
 12642                        L821:
 12643 00:5A6E: 22 xx xx xx  	jsl	~~pop_int
 12644 00:5A72: 85 15        	sta	<L818+line_1
 12645 00:5A74: 82 14 00     	brl	L10632
 12646                        L10631:
 12647 00:5A77: 5A           	phy
 12648 00:5A78: 5A           	phy
 12649 00:5A79: 22 xx xx xx  	jsl	~~pop_float
 12650                        	xref	~~~ffix
 12651 00:5A7D: 22 xx xx xx  	jsl	~~~ffix
 12652 00:5A81: 68           	pla
 12653 00:5A82: 85 01        	sta	<R0
 12654 00:5A84: 68           	pla
 12655 00:5A85: 85 03        	sta	<R0+2
 12656 00:5A87: A5 01        	lda	<R0
 12657 00:5A89: 85 15        	sta	<L818+line_1
 12658                        L10632:
 12659 00:5A8B: A5 15        	lda	<L818+line_1
 12660 00:5A8D: 10 03        	bpl	L823
 12661 00:5A8F: 82 21 00     	brl	L822
 12662                        L823:
 12663 00:5A92: A0 00 00     	ldy	#$0
 12664 00:5A95: A5 15        	lda	<L818+line_1
 12665 00:5A97: 10 01        	bpl	L824
 12666 00:5A99: 88           	dey
 12667                        L824:
 12668 00:5A9A: 85 01        	sta	<R0
 12669 00:5A9C: 84 03        	sty	<R0+2
 12670 00:5A9E: 38           	sec
 12671 00:5A9F: A9 FF FE     	lda	#$feff
 12672 00:5AA2: E5 01        	sbc	<R0
 12673 00:5AA4: A9 00 00     	lda	#$0
 12674 00:5AA7: E5 03        	sbc	<R0+2
 12675 00:5AA9: 70 03        	bvs	L825
 12676 00:5AAB: 49 00 80     	eor	#$8000
 12677                        L825:
 12678 00:5AAE: 10 03        	bpl	L826
 12679 00:5AB0: 82 0A 00     	brl	L10633
 12680                        L826:
 12681                        L822:
 12682 00:5AB3: F4 0B 00     	pea	#<$b
 12683 00:5AB6: F4 04 00     	pea	#4
 12684 00:5AB9: 22 xx xx xx  	jsl	~~error
 12685                        L10633:
 12686 00:5ABD: D4 15        	pei	<L818+line_1
  Sun Jan  9 2022 20:52                                                Page 220


 12687 00:5ABF: 22 xx xx xx  	jsl	~~find_line
 12688 00:5AC3: 85 11        	sta	<L818+bp_1
 12689 00:5AC5: 86 13        	stx	<L818+bp_1+2
 12690 00:5AC7: D4 13        	pei	<L818+bp_1+2
 12691 00:5AC9: D4 11        	pei	<L818+bp_1
 12692 00:5ACB: 22 xx xx xx  	jsl	~~get_lineno
 12693 00:5ACF: 85 01        	sta	<R0
 12694 00:5AD1: A5 01        	lda	<R0
 12695 00:5AD3: C5 15        	cmp	<L818+line_1
 12696 00:5AD5: D0 03        	bne	L827
 12697 00:5AD7: 82 0C 00     	brl	L10634
 12698                        L827:
 12699 00:5ADA: D4 15        	pei	<L818+line_1
 12700 00:5ADC: F4 0C 00     	pea	#<$c
 12701 00:5ADF: F4 06 00     	pea	#6
 12702 00:5AE2: 22 xx xx xx  	jsl	~~error
 12703                        L10634:
 12704 00:5AE6: 82 A3 00     	brl	L10628
 12705                        L10635:
 12706                        L10636:
 12707 00:5AE9: 22 xx xx xx  	jsl	~~pop_string
 12708 00:5AED: 85 01        	sta	<R0
 12709 00:5AEF: 86 03        	stx	<R0+2
 12710 00:5AF1: D4 03        	pei	<R0+2
 12711 00:5AF3: D4 01        	pei	<R0
 12712 00:5AF5: 18           	clc
 12713 00:5AF6: 7B           	tdc
 12714 00:5AF7: 69 09 00     	adc	#<L818+string_1
 12715 00:5AFA: 85 01        	sta	<R0
 12716 00:5AFC: A9 00 00     	lda	#$0
 12717 00:5AFF: 85 03        	sta	<R0+2
 12718 00:5B01: D4 03        	pei	<R0+2
 12719 00:5B03: D4 01        	pei	<R0
 12720 00:5B05: A9 06 00     	lda	#$6
 12721                        	xref	~~~fmov
 12722 00:5B08: 22 xx xx xx  	jsl	~~~fmov
 12723 00:5B0C: D4 09        	pei	<L818+string_1
 12724 00:5B0E: D4 0D        	pei	<L818+string_1+4
 12725 00:5B10: D4 0B        	pei	<L818+string_1+2
 12726 00:5B12: 22 xx xx xx  	jsl	~~tocstring
 12727 00:5B16: 85 17        	sta	<L818+filename_1
 12728 00:5B18: 86 19        	stx	<L818+filename_1+2
 12729 00:5B1A: A5 0F        	lda	<L818+topitem_1
 12730 00:5B1C: C9 05 00     	cmp	#<$5
 12731 00:5B1F: F0 03        	beq	L828
 12732 00:5B21: 82 2A 00     	brl	L10637
 12733                        L828:
 12734 00:5B24: 38           	sec
 12735 00:5B25: 3B           	tsc
 12736 00:5B26: E9 06 00     	sbc	#6
 12737 00:5B29: 1B           	tcs
 12738 00:5B2A: 1A           	ina
 12739 00:5B2B: 85 01        	sta	<R0
 12740 00:5B2D: 64 03        	stz	<R0+2
 12741 00:5B2F: 18           	clc
 12742 00:5B30: 7B           	tdc
 12743 00:5B31: 69 09 00     	adc	#<L818+string_1
 12744 00:5B34: 85 05        	sta	<R1
  Sun Jan  9 2022 20:52                                                Page 221


 12745 00:5B36: A9 00 00     	lda	#$0
 12746 00:5B39: 85 07        	sta	<R1+2
 12747 00:5B3B: D4 07        	pei	<R1+2
 12748 00:5B3D: D4 05        	pei	<R1
 12749 00:5B3F: D4 03        	pei	<R0+2
 12750 00:5B41: D4 01        	pei	<R0
 12751 00:5B43: A9 06 00     	lda	#$6
 12752                        	xref	~~~fmov
 12753 00:5B46: 22 xx xx xx  	jsl	~~~fmov
 12754 00:5B4A: 22 xx xx xx  	jsl	~~free_string
 12755                        L10637:
 12756 00:5B4E: 22 xx xx xx  	jsl	~~check_ateol
 12757 00:5B52: 22 xx xx xx  	jsl	~~clear_error
 12758 00:5B56: 22 xx xx xx  	jsl	~~clear_varlists
 12759 00:5B5A: 22 xx xx xx  	jsl	~~clear_strings
 12760 00:5B5E: 22 xx xx xx  	jsl	~~clear_heap
 12761 00:5B62: D4 19        	pei	<L818+filename_1+2
 12762 00:5B64: D4 17        	pei	<L818+filename_1
 12763 00:5B66: 22 xx xx xx  	jsl	~~read_basic
 12764 00:5B6A: 82 1F 00     	brl	L10628
 12765                        L10638:
 12766 00:5B6D: F4 3E 00     	pea	#<$3e
 12767 00:5B70: F4 04 00     	pea	#4
 12768 00:5B73: 22 xx xx xx  	jsl	~~error
 12769 00:5B77: 82 12 00     	brl	L10628
 12770                        L10627:
 12771                        	xref	~~~fsw
 12772 00:5B7A: 22 xx xx xx  	jsl	~~~fsw
 12773 00:5B7E: 02 00        	dw	2
 12774 00:5B80: 04 00        	dw	4
 12775 00:5B82: xx xx        	dw	L10638-1
 12776 00:5B84: xx xx        	dw	L10629-1
 12777 00:5B86: xx xx        	dw	L10630-1
 12778 00:5B88: xx xx        	dw	L10635-1
 12779 00:5B8A: xx xx        	dw	L10636-1
 12780                        L10628:
 12781                        L10626:
 12782 00:5B8C: D4 13        	pei	<L818+bp_1+2
 12783 00:5B8E: D4 11        	pei	<L818+bp_1
 12784 00:5B90: 22 xx xx xx  	jsl	~~run_program
 12785                        L829:
 12786 00:5B94: 2B           	pld
 12787 00:5B95: 3B           	tsc
 12788 00:5B96: 18           	clc
 12789 00:5B97: 69 1A 00     	adc	#L817
 12790 00:5B9A: 1B           	tcs
 12791 00:5B9B: 6B           	rtl
 12792             0000001A   L817	equ	26
 12793             00000009   L818	equ	9
 12794                        	ends
 12795                        	efunc
 12796                        	code
 12797                        	xdef	~~exec_stop
 12798                        	func
 12799                        ~~exec_stop:
 12800                        	longa	on
 12801                        	longi	on
 12802 00:5B9C: 3B           	tsc
  Sun Jan  9 2022 20:52                                                Page 222


 12803 00:5B9D: 38           	sec
 12804 00:5B9E: E9 00 00     	sbc	#L830
 12805 00:5BA1: 1B           	tcs
 12806 00:5BA2: 0B           	phd
 12807 00:5BA3: 5B           	tcd
 12808 00:5BA4: EE xx xx     	inc	|~~basicvars+62
 12809 00:5BA7: D0 03        	bne	L832
 12810 00:5BA9: EE xx xx     	inc	|~~basicvars+62+2
 12811                        L832:
 12812 00:5BAC: 22 xx xx xx  	jsl	~~check_ateol
 12813 00:5BB0: F4 09 00     	pea	#<$9
 12814 00:5BB3: F4 04 00     	pea	#4
 12815 00:5BB6: 22 xx xx xx  	jsl	~~error
 12816                        L833:
 12817 00:5BBA: 2B           	pld
 12818 00:5BBB: 3B           	tsc
 12819 00:5BBC: 18           	clc
 12820 00:5BBD: 69 00 00     	adc	#L830
 12821 00:5BC0: 1B           	tcs
 12822 00:5BC1: 6B           	rtl
 12823             00000000   L830	equ	0
 12824             00000001   L831	equ	1
 12825                        	ends
 12826                        	efunc
 12827                        	code
 12828                        	xdef	~~exec_swap
 12829                        	func
 12830                        ~~exec_swap:
 12831                        	longa	on
 12832                        	longi	on
 12833 00:5BC2: 3B           	tsc
 12834 00:5BC3: 38           	sec
 12835 00:5BC4: E9 2A 00     	sbc	#L834
 12836 00:5BC7: 1B           	tcs
 12837 00:5BC8: 0B           	phd
 12838 00:5BC9: 5B           	tcd
 12839             00000000   first_1	set	0
 12840             00000006   second_1	set	6
 12841 00:5BCA: EE xx xx     	inc	|~~basicvars+62
 12842 00:5BCD: D0 03        	bne	L836
 12843 00:5BCF: EE xx xx     	inc	|~~basicvars+62+2
 12844                        L836:
 12845 00:5BD2: F4 00 00     	pea	#0
 12846 00:5BD5: 18           	clc
 12847 00:5BD6: 7B           	tdc
 12848 00:5BD7: 69 11 00     	adc	#<L835+first_1
 12849 00:5BDA: 48           	pha
 12850 00:5BDB: 22 xx xx xx  	jsl	~~get_lvalue
 12851 00:5BDF: AD xx xx     	lda	|~~basicvars+62
 12852 00:5BE2: 85 01        	sta	<R0
 12853 00:5BE4: AD xx xx     	lda	|~~basicvars+62+2
 12854 00:5BE7: 85 03        	sta	<R0+2
 12855 00:5BE9: E2 20        	sep	#$20
 12856                        	longa	off
 12857 00:5BEB: A7 01        	lda	[<R0]
 12858 00:5BED: C9 2C        	cmp	#<$2c
 12859 00:5BEF: C2 20        	rep	#$20
 12860                        	longa	on
  Sun Jan  9 2022 20:52                                                Page 223


 12861 00:5BF1: D0 03        	bne	L837
 12862 00:5BF3: 82 0A 00     	brl	L10639
 12863                        L837:
 12864 00:5BF6: F4 27 00     	pea	#<$27
 12865 00:5BF9: F4 04 00     	pea	#4
 12866 00:5BFC: 22 xx xx xx  	jsl	~~error
 12867                        L10639:
 12868 00:5C00: EE xx xx     	inc	|~~basicvars+62
 12869 00:5C03: D0 03        	bne	L838
 12870 00:5C05: EE xx xx     	inc	|~~basicvars+62+2
 12871                        L838:
 12872 00:5C08: F4 00 00     	pea	#0
 12873 00:5C0B: 18           	clc
 12874 00:5C0C: 7B           	tdc
 12875 00:5C0D: 69 17 00     	adc	#<L835+second_1
 12876 00:5C10: 48           	pha
 12877 00:5C11: 22 xx xx xx  	jsl	~~get_lvalue
 12878 00:5C15: 22 xx xx xx  	jsl	~~check_ateol
 12879 00:5C19: A5 11        	lda	<L835+first_1
 12880 00:5C1B: 30 06        	bmi	L840
 12881 00:5C1D: 3A           	dea
 12882 00:5C1E: 3A           	dea
 12883 00:5C1F: 3A           	dea
 12884 00:5C20: 3A           	dea
 12885 00:5C21: 10 03        	bpl	L841
 12886                        L840:
 12887 00:5C23: 82 20 00     	brl	L839
 12888                        L841:
 12889 00:5C26: 38           	sec
 12890 00:5C27: A5 11        	lda	<L835+first_1
 12891 00:5C29: E9 11 00     	sbc	#<$11
 12892 00:5C2C: 70 03        	bvs	L842
 12893 00:5C2E: 49 00 80     	eor	#$8000
 12894                        L842:
 12895 00:5C31: 30 03        	bmi	L843
 12896 00:5C33: 82 8C 03     	brl	L10640
 12897                        L843:
 12898 00:5C36: 38           	sec
 12899 00:5C37: A9 13 00     	lda	#$13
 12900 00:5C3A: E5 11        	sbc	<L835+first_1
 12901 00:5C3C: 70 03        	bvs	L844
 12902 00:5C3E: 49 00 80     	eor	#$8000
 12903                        L844:
 12904 00:5C41: 30 03        	bmi	L845
 12905 00:5C43: 82 7C 03     	brl	L10640
 12906                        L845:
 12907                        L839:
 12908 00:5C46: A5 17        	lda	<L835+second_1
 12909 00:5C48: 30 06        	bmi	L847
 12910 00:5C4A: 3A           	dea
 12911 00:5C4B: 3A           	dea
 12912 00:5C4C: 3A           	dea
 12913 00:5C4D: 3A           	dea
 12914 00:5C4E: 10 03        	bpl	L848
 12915                        L847:
 12916 00:5C50: 82 20 00     	brl	L846
 12917                        L848:
 12918 00:5C53: 38           	sec
  Sun Jan  9 2022 20:52                                                Page 224


 12919 00:5C54: A5 17        	lda	<L835+second_1
 12920 00:5C56: E9 11 00     	sbc	#<$11
 12921 00:5C59: 70 03        	bvs	L849
 12922 00:5C5B: 49 00 80     	eor	#$8000
 12923                        L849:
 12924 00:5C5E: 30 03        	bmi	L850
 12925 00:5C60: 82 5F 03     	brl	L10640
 12926                        L850:
 12927 00:5C63: 38           	sec
 12928 00:5C64: A9 13 00     	lda	#$13
 12929 00:5C67: E5 17        	sbc	<L835+second_1
 12930 00:5C69: 70 03        	bvs	L851
 12931 00:5C6B: 49 00 80     	eor	#$8000
 12932                        L851:
 12933 00:5C6E: 30 03        	bmi	L852
 12934 00:5C70: 82 4F 03     	brl	L10640
 12935                        L852:
 12936                        L846:
 12937                        	udata
 12938                        L10641:
 12939 00:0014:              	ds	4
 12940 00:0018:              	ends
 12941                        	udata
 12942                        L10642:
 12943 00:0018:              	ds	4
 12944 00:001C:              	ends
 12945             0000000C   ival1_2	set	12
 12946             0000000E   ival2_2	set	14
 12947             00000010   isint_2	set	16
 12948 00:5C73: A5 11        	lda	<L835+first_1
 12949 00:5C75: 82 8E 00     	brl	L10643
 12950                        L10645:
 12951 00:5C78: A7 13        	lda	[<L835+first_1+2]
 12952 00:5C7A: 85 1D        	sta	<L835+ival1_2
 12953 00:5C7C: E2 20        	sep	#$20
 12954                        	longa	off
 12955 00:5C7E: A9 01        	lda	#$1
 12956 00:5C80: 85 21        	sta	<L835+isint_2
 12957 00:5C82: C2 20        	rep	#$20
 12958                        	longa	on
 12959 00:5C84: 82 9B 00     	brl	L10644
 12960                        L10646:
 12961 00:5C87: A7 13        	lda	[<L835+first_1+2]
 12962 00:5C89: 8D xx xx     	sta	|L10641
 12963 00:5C8C: A0 02 00     	ldy	#$2
 12964 00:5C8F: B7 13        	lda	[<L835+first_1+2],Y
 12965 00:5C91: 8D xx xx     	sta	|L10641+2
 12966 00:5C94: E2 20        	sep	#$20
 12967                        	longa	off
 12968 00:5C96: 64 21        	stz	<L835+isint_2
 12969 00:5C98: C2 20        	rep	#$20
 12970                        	longa	on
 12971 00:5C9A: 82 85 00     	brl	L10644
 12972                        L10647:
 12973 00:5C9D: F4 01 00     	pea	#<$1
 12974 00:5CA0: D4 13        	pei	<L835+first_1+2
 12975 00:5CA2: 22 xx xx xx  	jsl	~~check_write
 12976 00:5CA6: AD xx xx     	lda	|~~basicvars+6
  Sun Jan  9 2022 20:52                                                Page 225


 12977 00:5CA9: 85 01        	sta	<R0
 12978 00:5CAB: AD xx xx     	lda	|~~basicvars+6+2
 12979 00:5CAE: 85 03        	sta	<R0+2
 12980 00:5CB0: A4 13        	ldy	<L835+first_1+2
 12981 00:5CB2: B7 01        	lda	[<R0],Y
 12982 00:5CB4: 29 FF 00     	and	#$ff
 12983 00:5CB7: 85 1D        	sta	<L835+ival1_2
 12984 00:5CB9: E2 20        	sep	#$20
 12985                        	longa	off
 12986 00:5CBB: A9 01        	lda	#$1
 12987 00:5CBD: 85 21        	sta	<L835+isint_2
 12988 00:5CBF: C2 20        	rep	#$20
 12989                        	longa	on
 12990 00:5CC1: 82 5E 00     	brl	L10644
 12991                        L10648:
 12992 00:5CC4: D4 13        	pei	<L835+first_1+2
 12993 00:5CC6: 22 xx xx xx  	jsl	~~get_integer
 12994 00:5CCA: 85 1D        	sta	<L835+ival1_2
 12995 00:5CCC: E2 20        	sep	#$20
 12996                        	longa	off
 12997 00:5CCE: A9 01        	lda	#$1
 12998 00:5CD0: 85 21        	sta	<L835+isint_2
 12999 00:5CD2: C2 20        	rep	#$20
 13000                        	longa	on
 13001 00:5CD4: 82 4B 00     	brl	L10644
 13002                        L10649:
 13003 00:5CD7: 5A           	phy
 13004 00:5CD8: 5A           	phy
 13005 00:5CD9: D4 13        	pei	<L835+first_1+2
 13006 00:5CDB: 22 xx xx xx  	jsl	~~get_float
 13007 00:5CDF: 68           	pla
 13008 00:5CE0: 8D xx xx     	sta	|L10641
 13009 00:5CE3: 68           	pla
 13010 00:5CE4: 8D xx xx     	sta	|L10641+2
 13011 00:5CE7: E2 20        	sep	#$20
 13012                        	longa	off
 13013 00:5CE9: 64 21        	stz	<L835+isint_2
 13014 00:5CEB: C2 20        	rep	#$20
 13015                        	longa	on
 13016 00:5CED: 82 32 00     	brl	L10644
 13017                        L10650:
 13018 00:5CF0: F4 xx xx     	pea	#^L682
 13019 00:5CF3: F4 xx xx     	pea	#<L682
 13020 00:5CF6: F4 94 08     	pea	#<$894
 13021 00:5CF9: F4 82 00     	pea	#<$82
 13022 00:5CFC: F4 0A 00     	pea	#10
 13023 00:5CFF: 22 xx xx xx  	jsl	~~error
 13024 00:5D03: 82 1C 00     	brl	L10644
 13025                        L10643:
 13026                        	xref	~~~swt
 13027 00:5D06: 22 xx xx xx  	jsl	~~~swt
 13028 00:5D0A: 05 00        	dw	5
 13029 00:5D0C: 02 00        	dw	2
 13030 00:5D0E: xx xx        	dw	L10645-1
 13031 00:5D10: 03 00        	dw	3
 13032 00:5D12: xx xx        	dw	L10646-1
 13033 00:5D14: 11 00        	dw	17
 13034 00:5D16: xx xx        	dw	L10647-1
  Sun Jan  9 2022 20:52                                                Page 226


 13035 00:5D18: 12 00        	dw	18
 13036 00:5D1A: xx xx        	dw	L10648-1
 13037 00:5D1C: 13 00        	dw	19
 13038 00:5D1E: xx xx        	dw	L10649-1
 13039 00:5D20: xx xx        	dw	L10650-1
 13040                        L10644:
 13041 00:5D22: A5 17        	lda	<L835+second_1
 13042 00:5D24: 82 62 01     	brl	L10651
 13043                        L10653:
 13044 00:5D27: A7 19        	lda	[<L835+second_1+2]
 13045 00:5D29: 85 1F        	sta	<L835+ival2_2
 13046 00:5D2B: A5 21        	lda	<L835+isint_2
 13047 00:5D2D: 29 FF 00     	and	#$ff
 13048 00:5D30: D0 03        	bne	L854
 13049 00:5D32: 82 04 00     	brl	L853
 13050                        L854:
 13051 00:5D35: A5 1D        	lda	<L835+ival1_2
 13052 00:5D37: 80 14        	bra	L855
 13053                        L853:
 13054 00:5D39: AD xx xx     	lda	|L10641+2
 13055 00:5D3C: 48           	pha
 13056 00:5D3D: AD xx xx     	lda	|L10641
 13057 00:5D40: 48           	pha
 13058                        	xref	~~~ffix
 13059 00:5D41: 22 xx xx xx  	jsl	~~~ffix
 13060 00:5D45: 68           	pla
 13061 00:5D46: 85 01        	sta	<R0
 13062 00:5D48: 68           	pla
 13063 00:5D49: 85 03        	sta	<R0+2
 13064 00:5D4B: A5 01        	lda	<R0
 13065                        L855:
 13066 00:5D4D: 87 19        	sta	[<L835+second_1+2]
 13067 00:5D4F: E2 20        	sep	#$20
 13068                        	longa	off
 13069 00:5D51: A9 01        	lda	#$1
 13070 00:5D53: 85 21        	sta	<L835+isint_2
 13071 00:5D55: C2 20        	rep	#$20
 13072                        	longa	on
 13073 00:5D57: 82 4B 01     	brl	L10652
 13074                        L10654:
 13075 00:5D5A: A7 19        	lda	[<L835+second_1+2]
 13076 00:5D5C: 8D xx xx     	sta	|L10642
 13077 00:5D5F: A0 02 00     	ldy	#$2
 13078 00:5D62: B7 19        	lda	[<L835+second_1+2],Y
 13079 00:5D64: 8D xx xx     	sta	|L10642+2
 13080 00:5D67: A5 21        	lda	<L835+isint_2
 13081 00:5D69: 29 FF 00     	and	#$ff
 13082 00:5D6C: D0 03        	bne	L857
 13083 00:5D6E: 82 10 00     	brl	L856
 13084                        L857:
 13085 00:5D71: A0 00 00     	ldy	#$0
 13086 00:5D74: A5 1D        	lda	<L835+ival1_2
 13087 00:5D76: 10 01        	bpl	L858
 13088 00:5D78: 88           	dey
 13089                        L858:
 13090 00:5D79: 5A           	phy
 13091 00:5D7A: 48           	pha
 13092                        	xref	~~~fflt
  Sun Jan  9 2022 20:52                                                Page 227


 13093 00:5D7B: 22 xx xx xx  	jsl	~~~fflt
 13094 00:5D7F: 80 08        	bra	L859
 13095                        L856:
 13096 00:5D81: AD xx xx     	lda	|L10641+2
 13097 00:5D84: 48           	pha
 13098 00:5D85: AD xx xx     	lda	|L10641
 13099 00:5D88: 48           	pha
 13100                        L859:
 13101 00:5D89: 68           	pla
 13102 00:5D8A: 87 19        	sta	[<L835+second_1+2]
 13103 00:5D8C: 68           	pla
 13104 00:5D8D: A0 02 00     	ldy	#$2
 13105 00:5D90: 97 19        	sta	[<L835+second_1+2],Y
 13106 00:5D92: E2 20        	sep	#$20
 13107                        	longa	off
 13108 00:5D94: 64 21        	stz	<L835+isint_2
 13109 00:5D96: C2 20        	rep	#$20
 13110                        	longa	on
 13111 00:5D98: 82 0A 01     	brl	L10652
 13112                        L10655:
 13113 00:5D9B: F4 01 00     	pea	#<$1
 13114 00:5D9E: D4 19        	pei	<L835+second_1+2
 13115 00:5DA0: 22 xx xx xx  	jsl	~~check_write
 13116 00:5DA4: AD xx xx     	lda	|~~basicvars+6
 13117 00:5DA7: 85 01        	sta	<R0
 13118 00:5DA9: AD xx xx     	lda	|~~basicvars+6+2
 13119 00:5DAC: 85 03        	sta	<R0+2
 13120 00:5DAE: A4 19        	ldy	<L835+second_1+2
 13121 00:5DB0: B7 01        	lda	[<R0],Y
 13122 00:5DB2: 29 FF 00     	and	#$ff
 13123 00:5DB5: 85 1F        	sta	<L835+ival2_2
 13124 00:5DB7: AD xx xx     	lda	|~~basicvars+6
 13125 00:5DBA: 85 01        	sta	<R0
 13126 00:5DBC: AD xx xx     	lda	|~~basicvars+6+2
 13127 00:5DBF: 85 03        	sta	<R0+2
 13128 00:5DC1: A5 21        	lda	<L835+isint_2
 13129 00:5DC3: 29 FF 00     	and	#$ff
 13130 00:5DC6: D0 03        	bne	L861
 13131 00:5DC8: 82 04 00     	brl	L860
 13132                        L861:
 13133 00:5DCB: A5 1D        	lda	<L835+ival1_2
 13134 00:5DCD: 80 14        	bra	L862
 13135                        L860:
 13136 00:5DCF: AD xx xx     	lda	|L10641+2
 13137 00:5DD2: 48           	pha
 13138 00:5DD3: AD xx xx     	lda	|L10641
 13139 00:5DD6: 48           	pha
 13140                        	xref	~~~ffix
 13141 00:5DD7: 22 xx xx xx  	jsl	~~~ffix
 13142 00:5DDB: 68           	pla
 13143 00:5DDC: 85 05        	sta	<R1
 13144 00:5DDE: 68           	pla
 13145 00:5DDF: 85 07        	sta	<R1+2
 13146 00:5DE1: A5 05        	lda	<R1
 13147                        L862:
 13148 00:5DE3: E2 20        	sep	#$20
 13149                        	longa	off
 13150 00:5DE5: A4 19        	ldy	<L835+second_1+2
  Sun Jan  9 2022 20:52                                                Page 228


 13151 00:5DE7: 97 01        	sta	[<R0],Y
 13152 00:5DE9: C2 20        	rep	#$20
 13153                        	longa	on
 13154 00:5DEB: E2 20        	sep	#$20
 13155                        	longa	off
 13156 00:5DED: A9 01        	lda	#$1
 13157 00:5DEF: 85 21        	sta	<L835+isint_2
 13158 00:5DF1: C2 20        	rep	#$20
 13159                        	longa	on
 13160 00:5DF3: 82 AF 00     	brl	L10652
 13161                        L10656:
 13162 00:5DF6: D4 19        	pei	<L835+second_1+2
 13163 00:5DF8: 22 xx xx xx  	jsl	~~get_integer
 13164 00:5DFC: 85 1F        	sta	<L835+ival2_2
 13165 00:5DFE: A5 21        	lda	<L835+isint_2
 13166 00:5E00: 29 FF 00     	and	#$ff
 13167 00:5E03: D0 03        	bne	L864
 13168 00:5E05: 82 04 00     	brl	L863
 13169                        L864:
 13170 00:5E08: A5 1D        	lda	<L835+ival1_2
 13171 00:5E0A: 80 14        	bra	L865
 13172                        L863:
 13173 00:5E0C: AD xx xx     	lda	|L10641+2
 13174 00:5E0F: 48           	pha
 13175 00:5E10: AD xx xx     	lda	|L10641
 13176 00:5E13: 48           	pha
 13177                        	xref	~~~ffix
 13178 00:5E14: 22 xx xx xx  	jsl	~~~ffix
 13179 00:5E18: 68           	pla
 13180 00:5E19: 85 01        	sta	<R0
 13181 00:5E1B: 68           	pla
 13182 00:5E1C: 85 03        	sta	<R0+2
 13183 00:5E1E: A5 01        	lda	<R0
 13184                        L865:
 13185 00:5E20: 48           	pha
 13186 00:5E21: D4 19        	pei	<L835+second_1+2
 13187 00:5E23: 22 xx xx xx  	jsl	~~store_integer
 13188 00:5E27: E2 20        	sep	#$20
 13189                        	longa	off
 13190 00:5E29: A9 01        	lda	#$1
 13191 00:5E2B: 85 21        	sta	<L835+isint_2
 13192 00:5E2D: C2 20        	rep	#$20
 13193                        	longa	on
 13194 00:5E2F: 82 73 00     	brl	L10652
 13195                        L10657:
 13196 00:5E32: 5A           	phy
 13197 00:5E33: 5A           	phy
 13198 00:5E34: D4 19        	pei	<L835+second_1+2
 13199 00:5E36: 22 xx xx xx  	jsl	~~get_float
 13200 00:5E3A: 68           	pla
 13201 00:5E3B: 8D xx xx     	sta	|L10642
 13202 00:5E3E: 68           	pla
 13203 00:5E3F: 8D xx xx     	sta	|L10642+2
 13204 00:5E42: A5 21        	lda	<L835+isint_2
 13205 00:5E44: 29 FF 00     	and	#$ff
 13206 00:5E47: D0 03        	bne	L867
 13207 00:5E49: 82 10 00     	brl	L866
 13208                        L867:
  Sun Jan  9 2022 20:52                                                Page 229


 13209 00:5E4C: A0 00 00     	ldy	#$0
 13210 00:5E4F: A5 1D        	lda	<L835+ival1_2
 13211 00:5E51: 10 01        	bpl	L868
 13212 00:5E53: 88           	dey
 13213                        L868:
 13214 00:5E54: 5A           	phy
 13215 00:5E55: 48           	pha
 13216                        	xref	~~~fflt
 13217 00:5E56: 22 xx xx xx  	jsl	~~~fflt
 13218 00:5E5A: 80 08        	bra	L869
 13219                        L866:
 13220 00:5E5C: AD xx xx     	lda	|L10641+2
 13221 00:5E5F: 48           	pha
 13222 00:5E60: AD xx xx     	lda	|L10641
 13223 00:5E63: 48           	pha
 13224                        L869:
 13225 00:5E64: D4 19        	pei	<L835+second_1+2
 13226 00:5E66: 22 xx xx xx  	jsl	~~store_float
 13227 00:5E6A: E2 20        	sep	#$20
 13228                        	longa	off
 13229 00:5E6C: 64 21        	stz	<L835+isint_2
 13230 00:5E6E: C2 20        	rep	#$20
 13231                        	longa	on
 13232 00:5E70: 82 32 00     	brl	L10652
 13233                        L10658:
 13234 00:5E73: F4 xx xx     	pea	#^L682+10
 13235 00:5E76: F4 xx xx     	pea	#<L682+10
 13236 00:5E79: F4 B5 08     	pea	#<$8b5
 13237 00:5E7C: F4 82 00     	pea	#<$82
 13238 00:5E7F: F4 0A 00     	pea	#10
 13239 00:5E82: 22 xx xx xx  	jsl	~~error
 13240 00:5E86: 82 1C 00     	brl	L10652
 13241                        L10651:
 13242                        	xref	~~~swt
 13243 00:5E89: 22 xx xx xx  	jsl	~~~swt
 13244 00:5E8D: 05 00        	dw	5
 13245 00:5E8F: 02 00        	dw	2
 13246 00:5E91: xx xx        	dw	L10653-1
 13247 00:5E93: 03 00        	dw	3
 13248 00:5E95: xx xx        	dw	L10654-1
 13249 00:5E97: 11 00        	dw	17
 13250 00:5E99: xx xx        	dw	L10655-1
 13251 00:5E9B: 12 00        	dw	18
 13252 00:5E9D: xx xx        	dw	L10656-1
 13253 00:5E9F: 13 00        	dw	19
 13254 00:5EA1: xx xx        	dw	L10657-1
 13255 00:5EA3: xx xx        	dw	L10658-1
 13256                        L10652:
 13257 00:5EA5: A5 11        	lda	<L835+first_1
 13258 00:5EA7: 82 F9 00     	brl	L10659
 13259                        L10661:
 13260 00:5EAA: A5 21        	lda	<L835+isint_2
 13261 00:5EAC: 29 FF 00     	and	#$ff
 13262 00:5EAF: D0 03        	bne	L871
 13263 00:5EB1: 82 04 00     	brl	L870
 13264                        L871:
 13265 00:5EB4: A5 1F        	lda	<L835+ival2_2
 13266 00:5EB6: 80 14        	bra	L872
  Sun Jan  9 2022 20:52                                                Page 230


 13267                        L870:
 13268 00:5EB8: AD xx xx     	lda	|L10642+2
 13269 00:5EBB: 48           	pha
 13270 00:5EBC: AD xx xx     	lda	|L10642
 13271 00:5EBF: 48           	pha
 13272                        	xref	~~~ffix
 13273 00:5EC0: 22 xx xx xx  	jsl	~~~ffix
 13274 00:5EC4: 68           	pla
 13275 00:5EC5: 85 01        	sta	<R0
 13276 00:5EC7: 68           	pla
 13277 00:5EC8: 85 03        	sta	<R0+2
 13278 00:5ECA: A5 01        	lda	<R0
 13279                        L872:
 13280 00:5ECC: 87 13        	sta	[<L835+first_1+2]
 13281 00:5ECE: 82 EE 00     	brl	L10660
 13282                        L10662:
 13283 00:5ED1: A5 21        	lda	<L835+isint_2
 13284 00:5ED3: 29 FF 00     	and	#$ff
 13285 00:5ED6: D0 03        	bne	L874
 13286 00:5ED8: 82 10 00     	brl	L873
 13287                        L874:
 13288 00:5EDB: A0 00 00     	ldy	#$0
 13289 00:5EDE: A5 1F        	lda	<L835+ival2_2
 13290 00:5EE0: 10 01        	bpl	L875
 13291 00:5EE2: 88           	dey
 13292                        L875:
 13293 00:5EE3: 5A           	phy
 13294 00:5EE4: 48           	pha
 13295                        	xref	~~~fflt
 13296 00:5EE5: 22 xx xx xx  	jsl	~~~fflt
 13297 00:5EE9: 80 08        	bra	L876
 13298                        L873:
 13299 00:5EEB: AD xx xx     	lda	|L10642+2
 13300 00:5EEE: 48           	pha
 13301 00:5EEF: AD xx xx     	lda	|L10642
 13302 00:5EF2: 48           	pha
 13303                        L876:
 13304 00:5EF3: 68           	pla
 13305 00:5EF4: 87 13        	sta	[<L835+first_1+2]
 13306 00:5EF6: 68           	pla
 13307 00:5EF7: A0 02 00     	ldy	#$2
 13308 00:5EFA: 97 13        	sta	[<L835+first_1+2],Y
 13309 00:5EFC: 82 C0 00     	brl	L10660
 13310                        L10663:
 13311 00:5EFF: AD xx xx     	lda	|~~basicvars+6
 13312 00:5F02: 85 01        	sta	<R0
 13313 00:5F04: AD xx xx     	lda	|~~basicvars+6+2
 13314 00:5F07: 85 03        	sta	<R0+2
 13315 00:5F09: A5 21        	lda	<L835+isint_2
 13316 00:5F0B: 29 FF 00     	and	#$ff
 13317 00:5F0E: D0 03        	bne	L878
 13318 00:5F10: 82 04 00     	brl	L877
 13319                        L878:
 13320 00:5F13: A5 1F        	lda	<L835+ival2_2
 13321 00:5F15: 80 14        	bra	L879
 13322                        L877:
 13323 00:5F17: AD xx xx     	lda	|L10642+2
 13324 00:5F1A: 48           	pha
  Sun Jan  9 2022 20:52                                                Page 231


 13325 00:5F1B: AD xx xx     	lda	|L10642
 13326 00:5F1E: 48           	pha
 13327                        	xref	~~~ffix
 13328 00:5F1F: 22 xx xx xx  	jsl	~~~ffix
 13329 00:5F23: 68           	pla
 13330 00:5F24: 85 05        	sta	<R1
 13331 00:5F26: 68           	pla
 13332 00:5F27: 85 07        	sta	<R1+2
 13333 00:5F29: A5 05        	lda	<R1
 13334                        L879:
 13335 00:5F2B: E2 20        	sep	#$20
 13336                        	longa	off
 13337 00:5F2D: A4 13        	ldy	<L835+first_1+2
 13338 00:5F2F: 97 01        	sta	[<R0],Y
 13339 00:5F31: C2 20        	rep	#$20
 13340                        	longa	on
 13341 00:5F33: 82 89 00     	brl	L10660
 13342                        L10664:
 13343 00:5F36: A5 21        	lda	<L835+isint_2
 13344 00:5F38: 29 FF 00     	and	#$ff
 13345 00:5F3B: D0 03        	bne	L881
 13346 00:5F3D: 82 04 00     	brl	L880
 13347                        L881:
 13348 00:5F40: A5 1F        	lda	<L835+ival2_2
 13349 00:5F42: 80 14        	bra	L882
 13350                        L880:
 13351 00:5F44: AD xx xx     	lda	|L10642+2
 13352 00:5F47: 48           	pha
 13353 00:5F48: AD xx xx     	lda	|L10642
 13354 00:5F4B: 48           	pha
 13355                        	xref	~~~ffix
 13356 00:5F4C: 22 xx xx xx  	jsl	~~~ffix
 13357 00:5F50: 68           	pla
 13358 00:5F51: 85 01        	sta	<R0
 13359 00:5F53: 68           	pla
 13360 00:5F54: 85 03        	sta	<R0+2
 13361 00:5F56: A5 01        	lda	<R0
 13362                        L882:
 13363 00:5F58: 48           	pha
 13364 00:5F59: D4 13        	pei	<L835+first_1+2
 13365 00:5F5B: 22 xx xx xx  	jsl	~~store_integer
 13366 00:5F5F: 82 5D 00     	brl	L10660
 13367                        L10665:
 13368 00:5F62: A5 21        	lda	<L835+isint_2
 13369 00:5F64: 29 FF 00     	and	#$ff
 13370 00:5F67: D0 03        	bne	L884
 13371 00:5F69: 82 10 00     	brl	L883
 13372                        L884:
 13373 00:5F6C: A0 00 00     	ldy	#$0
 13374 00:5F6F: A5 1F        	lda	<L835+ival2_2
 13375 00:5F71: 10 01        	bpl	L885
 13376 00:5F73: 88           	dey
 13377                        L885:
 13378 00:5F74: 5A           	phy
 13379 00:5F75: 48           	pha
 13380                        	xref	~~~fflt
 13381 00:5F76: 22 xx xx xx  	jsl	~~~fflt
 13382 00:5F7A: 80 08        	bra	L886
  Sun Jan  9 2022 20:52                                                Page 232


 13383                        L883:
 13384 00:5F7C: AD xx xx     	lda	|L10642+2
 13385 00:5F7F: 48           	pha
 13386 00:5F80: AD xx xx     	lda	|L10642
 13387 00:5F83: 48           	pha
 13388                        L886:
 13389 00:5F84: D4 13        	pei	<L835+first_1+2
 13390 00:5F86: 22 xx xx xx  	jsl	~~store_float
 13391 00:5F8A: 82 32 00     	brl	L10660
 13392                        L10666:
 13393 00:5F8D: F4 xx xx     	pea	#^L682+20
 13394 00:5F90: F4 xx xx     	pea	#<L682+20
 13395 00:5F93: F4 CB 08     	pea	#<$8cb
 13396 00:5F96: F4 82 00     	pea	#<$82
 13397 00:5F99: F4 0A 00     	pea	#10
 13398 00:5F9C: 22 xx xx xx  	jsl	~~error
 13399 00:5FA0: 82 1C 00     	brl	L10660
 13400                        L10659:
 13401                        	xref	~~~swt
 13402 00:5FA3: 22 xx xx xx  	jsl	~~~swt
 13403 00:5FA7: 05 00        	dw	5
 13404 00:5FA9: 02 00        	dw	2
 13405 00:5FAB: xx xx        	dw	L10661-1
 13406 00:5FAD: 03 00        	dw	3
 13407 00:5FAF: xx xx        	dw	L10662-1
 13408 00:5FB1: 11 00        	dw	17
 13409 00:5FB3: xx xx        	dw	L10663-1
 13410 00:5FB5: 12 00        	dw	18
 13411 00:5FB7: xx xx        	dw	L10664-1
 13412 00:5FB9: 13 00        	dw	19
 13413 00:5FBB: xx xx        	dw	L10665-1
 13414 00:5FBD: xx xx        	dw	L10666-1
 13415                        L10660:
 13416 00:5FBF: 82 75 03     	brl	L10667
 13417                        L10640:
 13418 00:5FC2: A5 11        	lda	<L835+first_1
 13419 00:5FC4: C9 04 00     	cmp	#<$4
 13420 00:5FC7: D0 03        	bne	L888
 13421 00:5FC9: 82 0A 00     	brl	L887
 13422                        L888:
 13423 00:5FCC: A5 11        	lda	<L835+first_1
 13424 00:5FCE: C9 15 00     	cmp	#<$15
 13425 00:5FD1: F0 03        	beq	L889
 13426 00:5FD3: 82 13 03     	brl	L10668
 13427                        L889:
 13428                        L887:
 13429             0000000C   stringtemp_3	set	12
 13430 00:5FD6: A5 17        	lda	<L835+second_1
 13431 00:5FD8: C9 04 00     	cmp	#<$4
 13432 00:5FDB: D0 03        	bne	L890
 13433 00:5FDD: 82 14 00     	brl	L10669
 13434                        L890:
 13435 00:5FE0: A5 17        	lda	<L835+second_1
 13436 00:5FE2: C9 15 00     	cmp	#<$15
 13437 00:5FE5: D0 03        	bne	L891
 13438 00:5FE7: 82 0A 00     	brl	L10669
 13439                        L891:
 13440 00:5FEA: F4 4E 00     	pea	#<$4e
  Sun Jan  9 2022 20:52                                                Page 233


 13441 00:5FED: F4 04 00     	pea	#4
 13442 00:5FF0: 22 xx xx xx  	jsl	~~error
 13443                        L10669:
 13444 00:5FF4: A5 11        	lda	<L835+first_1
 13445 00:5FF6: C9 04 00     	cmp	#<$4
 13446 00:5FF9: F0 03        	beq	L892
 13447 00:5FFB: 82 52 00     	brl	L10670
 13448                        L892:
 13449 00:5FFE: A5 17        	lda	<L835+second_1
 13450 00:6000: C9 04 00     	cmp	#<$4
 13451 00:6003: F0 03        	beq	L893
 13452 00:6005: 82 48 00     	brl	L10670
 13453                        L893:
 13454 00:6008: D4 15        	pei	<L835+first_1+4
 13455 00:600A: D4 13        	pei	<L835+first_1+2
 13456 00:600C: 18           	clc
 13457 00:600D: 7B           	tdc
 13458 00:600E: 69 1D 00     	adc	#<L835+stringtemp_3
 13459 00:6011: 85 01        	sta	<R0
 13460 00:6013: A9 00 00     	lda	#$0
 13461 00:6016: 85 03        	sta	<R0+2
 13462 00:6018: D4 03        	pei	<R0+2
 13463 00:601A: D4 01        	pei	<R0
 13464 00:601C: A9 06 00     	lda	#$6
 13465                        	xref	~~~fmov
 13466 00:601F: 22 xx xx xx  	jsl	~~~fmov
 13467 00:6023: D4 1B        	pei	<L835+second_1+4
 13468 00:6025: D4 19        	pei	<L835+second_1+2
 13469 00:6027: D4 15        	pei	<L835+first_1+4
 13470 00:6029: D4 13        	pei	<L835+first_1+2
 13471 00:602B: A9 06 00     	lda	#$6
 13472                        	xref	~~~fmov
 13473 00:602E: 22 xx xx xx  	jsl	~~~fmov
 13474 00:6032: 18           	clc
 13475 00:6033: 7B           	tdc
 13476 00:6034: 69 1D 00     	adc	#<L835+stringtemp_3
 13477 00:6037: 85 01        	sta	<R0
 13478 00:6039: A9 00 00     	lda	#$0
 13479 00:603C: 85 03        	sta	<R0+2
 13480 00:603E: D4 03        	pei	<R0+2
 13481 00:6040: D4 01        	pei	<R0
 13482 00:6042: D4 1B        	pei	<L835+second_1+4
 13483 00:6044: D4 19        	pei	<L835+second_1+2
 13484 00:6046: A9 06 00     	lda	#$6
 13485                        	xref	~~~fmov
 13486 00:6049: 22 xx xx xx  	jsl	~~~fmov
 13487 00:604D: 82 96 02     	brl	L10671
 13488                        L10670:
 13489 00:6050: A5 11        	lda	<L835+first_1
 13490 00:6052: C9 15 00     	cmp	#<$15
 13491 00:6055: F0 03        	beq	L894
 13492 00:6057: 82 FF 00     	brl	L10672
 13493                        L894:
 13494 00:605A: A5 17        	lda	<L835+second_1
 13495 00:605C: C9 15 00     	cmp	#<$15
 13496 00:605F: F0 03        	beq	L895
 13497 00:6061: 82 F5 00     	brl	L10672
 13498                        L895:
  Sun Jan  9 2022 20:52                                                Page 234


 13499             00000012   len1_4	set	18
 13500             00000014   len2_4	set	20
 13501 00:6064: D4 13        	pei	<L835+first_1+2
 13502 00:6066: 22 xx xx xx  	jsl	~~get_stringlen
 13503 00:606A: 85 01        	sta	<R0
 13504 00:606C: A5 01        	lda	<R0
 13505 00:606E: 1A           	ina
 13506 00:606F: 85 23        	sta	<L835+len1_4
 13507 00:6071: D4 19        	pei	<L835+second_1+2
 13508 00:6073: 22 xx xx xx  	jsl	~~get_stringlen
 13509 00:6077: 85 01        	sta	<R0
 13510 00:6079: A5 01        	lda	<R0
 13511 00:607B: 1A           	ina
 13512 00:607C: 85 25        	sta	<L835+len2_4
 13513 00:607E: D4 25        	pei	<L835+len2_4
 13514 00:6080: D4 13        	pei	<L835+first_1+2
 13515 00:6082: 22 xx xx xx  	jsl	~~check_write
 13516 00:6086: D4 23        	pei	<L835+len1_4
 13517 00:6088: D4 19        	pei	<L835+second_1+2
 13518 00:608A: 22 xx xx xx  	jsl	~~check_write
 13519 00:608E: A0 00 00     	ldy	#$0
 13520 00:6091: A5 23        	lda	<L835+len1_4
 13521 00:6093: 10 01        	bpl	L896
 13522 00:6095: 88           	dey
 13523                        L896:
 13524 00:6096: 85 01        	sta	<R0
 13525 00:6098: 84 03        	sty	<R0+2
 13526 00:609A: D4 03        	pei	<R0+2
 13527 00:609C: D4 01        	pei	<R0
 13528 00:609E: A0 00 00     	ldy	#$0
 13529 00:60A1: A5 13        	lda	<L835+first_1+2
 13530 00:60A3: 10 01        	bpl	L897
 13531 00:60A5: 88           	dey
 13532                        L897:
 13533 00:60A6: 85 05        	sta	<R1
 13534 00:60A8: 84 07        	sty	<R1+2
 13535 00:60AA: 18           	clc
 13536 00:60AB: AD xx xx     	lda	|~~basicvars+6
 13537 00:60AE: 65 05        	adc	<R1
 13538 00:60B0: 85 09        	sta	<R2
 13539 00:60B2: AD xx xx     	lda	|~~basicvars+6+2
 13540 00:60B5: 65 07        	adc	<R1+2
 13541 00:60B7: 85 0B        	sta	<R2+2
 13542 00:60B9: D4 0B        	pei	<R2+2
 13543 00:60BB: D4 09        	pei	<R2
 13544 00:60BD: AD xx xx     	lda	|~~basicvars+70+2
 13545 00:60C0: 48           	pha
 13546 00:60C1: AD xx xx     	lda	|~~basicvars+70
 13547 00:60C4: 48           	pha
 13548 00:60C5: 22 xx xx xx  	jsl	~~memmove
 13549 00:60C9: A0 00 00     	ldy	#$0
 13550 00:60CC: A5 25        	lda	<L835+len2_4
 13551 00:60CE: 10 01        	bpl	L898
 13552 00:60D0: 88           	dey
 13553                        L898:
 13554 00:60D1: 85 01        	sta	<R0
 13555 00:60D3: 84 03        	sty	<R0+2
 13556 00:60D5: D4 03        	pei	<R0+2
  Sun Jan  9 2022 20:52                                                Page 235


 13557 00:60D7: D4 01        	pei	<R0
 13558 00:60D9: A0 00 00     	ldy	#$0
 13559 00:60DC: A5 19        	lda	<L835+second_1+2
 13560 00:60DE: 10 01        	bpl	L899
 13561 00:60E0: 88           	dey
 13562                        L899:
 13563 00:60E1: 85 05        	sta	<R1
 13564 00:60E3: 84 07        	sty	<R1+2
 13565 00:60E5: 18           	clc
 13566 00:60E6: AD xx xx     	lda	|~~basicvars+6
 13567 00:60E9: 65 05        	adc	<R1
 13568 00:60EB: 85 09        	sta	<R2
 13569 00:60ED: AD xx xx     	lda	|~~basicvars+6+2
 13570 00:60F0: 65 07        	adc	<R1+2
 13571 00:60F2: 85 0B        	sta	<R2+2
 13572 00:60F4: D4 0B        	pei	<R2+2
 13573 00:60F6: D4 09        	pei	<R2
 13574 00:60F8: A0 00 00     	ldy	#$0
 13575 00:60FB: A5 13        	lda	<L835+first_1+2
 13576 00:60FD: 10 01        	bpl	L900
 13577 00:60FF: 88           	dey
 13578                        L900:
 13579 00:6100: 85 05        	sta	<R1
 13580 00:6102: 84 07        	sty	<R1+2
 13581 00:6104: 18           	clc
 13582 00:6105: AD xx xx     	lda	|~~basicvars+6
 13583 00:6108: 65 05        	adc	<R1
 13584 00:610A: 85 0D        	sta	<R3
 13585 00:610C: AD xx xx     	lda	|~~basicvars+6+2
 13586 00:610F: 65 07        	adc	<R1+2
 13587 00:6111: 85 0F        	sta	<R3+2
 13588 00:6113: D4 0F        	pei	<R3+2
 13589 00:6115: D4 0D        	pei	<R3
 13590 00:6117: 22 xx xx xx  	jsl	~~memmove
 13591 00:611B: A0 00 00     	ldy	#$0
 13592 00:611E: A5 23        	lda	<L835+len1_4
 13593 00:6120: 10 01        	bpl	L901
 13594 00:6122: 88           	dey
 13595                        L901:
 13596 00:6123: 85 01        	sta	<R0
 13597 00:6125: 84 03        	sty	<R0+2
 13598 00:6127: D4 03        	pei	<R0+2
 13599 00:6129: D4 01        	pei	<R0
 13600 00:612B: AD xx xx     	lda	|~~basicvars+70+2
 13601 00:612E: 48           	pha
 13602 00:612F: AD xx xx     	lda	|~~basicvars+70
 13603 00:6132: 48           	pha
 13604 00:6133: A0 00 00     	ldy	#$0
 13605 00:6136: A5 19        	lda	<L835+second_1+2
 13606 00:6138: 10 01        	bpl	L902
 13607 00:613A: 88           	dey
 13608                        L902:
 13609 00:613B: 85 05        	sta	<R1
 13610 00:613D: 84 07        	sty	<R1+2
 13611 00:613F: 18           	clc
 13612 00:6140: AD xx xx     	lda	|~~basicvars+6
 13613 00:6143: 65 05        	adc	<R1
 13614 00:6145: 85 09        	sta	<R2
  Sun Jan  9 2022 20:52                                                Page 236


 13615 00:6147: AD xx xx     	lda	|~~basicvars+6+2
 13616 00:614A: 65 07        	adc	<R1+2
 13617 00:614C: 85 0B        	sta	<R2+2
 13618 00:614E: D4 0B        	pei	<R2+2
 13619 00:6150: D4 09        	pei	<R2
 13620 00:6152: 22 xx xx xx  	jsl	~~memmove
 13621 00:6156: 82 8D 01     	brl	L10673
 13622                        L10672:
 13623             00000012   len_5	set	18
 13624 00:6159: A5 11        	lda	<L835+first_1
 13625 00:615B: C9 15 00     	cmp	#<$15
 13626 00:615E: F0 03        	beq	L903
 13627 00:6160: 82 75 00     	brl	L10674
 13628                        L903:
 13629             00000014   temp_6	set	20
 13630 00:6163: 18           	clc
 13631 00:6164: 7B           	tdc
 13632 00:6165: 69 11 00     	adc	#<L835+first_1
 13633 00:6168: 85 01        	sta	<R0
 13634 00:616A: A9 00 00     	lda	#$0
 13635 00:616D: 85 03        	sta	<R0+2
 13636 00:616F: D4 03        	pei	<R0+2
 13637 00:6171: D4 01        	pei	<R0
 13638 00:6173: 18           	clc
 13639 00:6174: 7B           	tdc
 13640 00:6175: 69 25 00     	adc	#<L835+temp_6
 13641 00:6178: 85 01        	sta	<R0
 13642 00:617A: A9 00 00     	lda	#$0
 13643 00:617D: 85 03        	sta	<R0+2
 13644 00:617F: D4 03        	pei	<R0+2
 13645 00:6181: D4 01        	pei	<R0
 13646 00:6183: A9 06 00     	lda	#$6
 13647                        	xref	~~~fmov
 13648 00:6186: 22 xx xx xx  	jsl	~~~fmov
 13649 00:618A: 18           	clc
 13650 00:618B: 7B           	tdc
 13651 00:618C: 69 17 00     	adc	#<L835+second_1
 13652 00:618F: 85 01        	sta	<R0
 13653 00:6191: A9 00 00     	lda	#$0
 13654 00:6194: 85 03        	sta	<R0+2
 13655 00:6196: D4 03        	pei	<R0+2
 13656 00:6198: D4 01        	pei	<R0
 13657 00:619A: 18           	clc
 13658 00:619B: 7B           	tdc
 13659 00:619C: 69 11 00     	adc	#<L835+first_1
 13660 00:619F: 85 01        	sta	<R0
 13661 00:61A1: A9 00 00     	lda	#$0
 13662 00:61A4: 85 03        	sta	<R0+2
 13663 00:61A6: D4 03        	pei	<R0+2
 13664 00:61A8: D4 01        	pei	<R0
 13665 00:61AA: A9 06 00     	lda	#$6
 13666                        	xref	~~~fmov
 13667 00:61AD: 22 xx xx xx  	jsl	~~~fmov
 13668 00:61B1: 18           	clc
 13669 00:61B2: 7B           	tdc
 13670 00:61B3: 69 25 00     	adc	#<L835+temp_6
 13671 00:61B6: 85 01        	sta	<R0
 13672 00:61B8: A9 00 00     	lda	#$0
  Sun Jan  9 2022 20:52                                                Page 237


 13673 00:61BB: 85 03        	sta	<R0+2
 13674 00:61BD: D4 03        	pei	<R0+2
 13675 00:61BF: D4 01        	pei	<R0
 13676 00:61C1: 18           	clc
 13677 00:61C2: 7B           	tdc
 13678 00:61C3: 69 17 00     	adc	#<L835+second_1
 13679 00:61C6: 85 01        	sta	<R0
 13680 00:61C8: A9 00 00     	lda	#$0
 13681 00:61CB: 85 03        	sta	<R0+2
 13682 00:61CD: D4 03        	pei	<R0+2
 13683 00:61CF: D4 01        	pei	<R0
 13684 00:61D1: A9 06 00     	lda	#$6
 13685                        	xref	~~~fmov
 13686 00:61D4: 22 xx xx xx  	jsl	~~~fmov
 13687                        L10674:
 13688 00:61D8: A7 13        	lda	[<L835+first_1+2]
 13689 00:61DA: 1A           	ina
 13690 00:61DB: 48           	pha
 13691 00:61DC: D4 19        	pei	<L835+second_1+2
 13692 00:61DE: 22 xx xx xx  	jsl	~~check_write
 13693 00:61E2: D4 19        	pei	<L835+second_1+2
 13694 00:61E4: 22 xx xx xx  	jsl	~~get_stringlen
 13695 00:61E8: 85 23        	sta	<L835+len_5
 13696 00:61EA: A5 23        	lda	<L835+len_5
 13697 00:61EC: 85 1D        	sta	<L835+stringtemp_3
 13698 00:61EE: D4 23        	pei	<L835+len_5
 13699 00:61F0: 22 xx xx xx  	jsl	~~alloc_string
 13700 00:61F4: 85 1F        	sta	<L835+stringtemp_3+2
 13701 00:61F6: 86 21        	stx	<L835+stringtemp_3+4
 13702 00:61F8: 38           	sec
 13703 00:61F9: A9 00 00     	lda	#$0
 13704 00:61FC: E5 23        	sbc	<L835+len_5
 13705 00:61FE: 70 03        	bvs	L904
 13706 00:6200: 49 00 80     	eor	#$8000
 13707                        L904:
 13708 00:6203: 10 03        	bpl	L905
 13709 00:6205: 82 37 00     	brl	L10675
 13710                        L905:
 13711 00:6208: A0 00 00     	ldy	#$0
 13712 00:620B: A5 23        	lda	<L835+len_5
 13713 00:620D: 10 01        	bpl	L906
 13714 00:620F: 88           	dey
 13715                        L906:
 13716 00:6210: 85 01        	sta	<R0
 13717 00:6212: 84 03        	sty	<R0+2
 13718 00:6214: D4 03        	pei	<R0+2
 13719 00:6216: D4 01        	pei	<R0
 13720 00:6218: A0 00 00     	ldy	#$0
 13721 00:621B: A5 19        	lda	<L835+second_1+2
 13722 00:621D: 10 01        	bpl	L907
 13723 00:621F: 88           	dey
 13724                        L907:
 13725 00:6220: 85 05        	sta	<R1
 13726 00:6222: 84 07        	sty	<R1+2
 13727 00:6224: 18           	clc
 13728 00:6225: AD xx xx     	lda	|~~basicvars+6
 13729 00:6228: 65 05        	adc	<R1
 13730 00:622A: 85 09        	sta	<R2
  Sun Jan  9 2022 20:52                                                Page 238


 13731 00:622C: AD xx xx     	lda	|~~basicvars+6+2
 13732 00:622F: 65 07        	adc	<R1+2
 13733 00:6231: 85 0B        	sta	<R2+2
 13734 00:6233: D4 0B        	pei	<R2+2
 13735 00:6235: D4 09        	pei	<R2
 13736 00:6237: D4 21        	pei	<L835+stringtemp_3+4
 13737 00:6239: D4 1F        	pei	<L835+stringtemp_3+2
 13738 00:623B: 22 xx xx xx  	jsl	~~memmove
 13739                        L10675:
 13740 00:623F: A7 13        	lda	[<L835+first_1+2]
 13741 00:6241: 85 23        	sta	<L835+len_5
 13742 00:6243: 38           	sec
 13743 00:6244: A9 00 00     	lda	#$0
 13744 00:6247: E5 23        	sbc	<L835+len_5
 13745 00:6249: 70 03        	bvs	L908
 13746 00:624B: 49 00 80     	eor	#$8000
 13747                        L908:
 13748 00:624E: 10 03        	bpl	L909
 13749 00:6250: 82 3F 00     	brl	L10676
 13750                        L909:
 13751 00:6253: A0 00 00     	ldy	#$0
 13752 00:6256: A5 23        	lda	<L835+len_5
 13753 00:6258: 10 01        	bpl	L910
 13754 00:625A: 88           	dey
 13755                        L910:
 13756 00:625B: 85 01        	sta	<R0
 13757 00:625D: 84 03        	sty	<R0+2
 13758 00:625F: D4 03        	pei	<R0+2
 13759 00:6261: D4 01        	pei	<R0
 13760 00:6263: A0 04 00     	ldy	#$4
 13761 00:6266: B7 13        	lda	[<L835+first_1+2],Y
 13762 00:6268: 48           	pha
 13763 00:6269: A0 02 00     	ldy	#$2
 13764 00:626C: B7 13        	lda	[<L835+first_1+2],Y
 13765 00:626E: 48           	pha
 13766 00:626F: A0 00 00     	ldy	#$0
 13767 00:6272: A5 19        	lda	<L835+second_1+2
 13768 00:6274: 10 01        	bpl	L911
 13769 00:6276: 88           	dey
 13770                        L911:
 13771 00:6277: 85 05        	sta	<R1
 13772 00:6279: 84 07        	sty	<R1+2
 13773 00:627B: 18           	clc
 13774 00:627C: AD xx xx     	lda	|~~basicvars+6
 13775 00:627F: 65 05        	adc	<R1
 13776 00:6281: 85 09        	sta	<R2
 13777 00:6283: AD xx xx     	lda	|~~basicvars+6+2
 13778 00:6286: 65 07        	adc	<R1+2
 13779 00:6288: 85 0B        	sta	<R2+2
 13780 00:628A: D4 0B        	pei	<R2+2
 13781 00:628C: D4 09        	pei	<R2
 13782 00:628E: 22 xx xx xx  	jsl	~~memmove
 13783                        L10676:
 13784 00:6292: 18           	clc
 13785 00:6293: A5 19        	lda	<L835+second_1+2
 13786 00:6295: 65 23        	adc	<L835+len_5
 13787 00:6297: 85 01        	sta	<R0
 13788 00:6299: AD xx xx     	lda	|~~basicvars+6
  Sun Jan  9 2022 20:52                                                Page 239


 13789 00:629C: 85 05        	sta	<R1
 13790 00:629E: AD xx xx     	lda	|~~basicvars+6+2
 13791 00:62A1: 85 07        	sta	<R1+2
 13792 00:62A3: E2 20        	sep	#$20
 13793                        	longa	off
 13794 00:62A5: A9 0D        	lda	#$d
 13795 00:62A7: A4 01        	ldy	<R0
 13796 00:62A9: 97 05        	sta	[<R1],Y
 13797 00:62AB: C2 20        	rep	#$20
 13798                        	longa	on
 13799 00:62AD: 38           	sec
 13800 00:62AE: 3B           	tsc
 13801 00:62AF: E9 06 00     	sbc	#6
 13802 00:62B2: 1B           	tcs
 13803 00:62B3: 1A           	ina
 13804 00:62B4: 85 01        	sta	<R0
 13805 00:62B6: 64 03        	stz	<R0+2
 13806 00:62B8: D4 15        	pei	<L835+first_1+4
 13807 00:62BA: D4 13        	pei	<L835+first_1+2
 13808 00:62BC: D4 03        	pei	<R0+2
 13809 00:62BE: D4 01        	pei	<R0
 13810 00:62C0: A9 06 00     	lda	#$6
 13811                        	xref	~~~fmov
 13812 00:62C3: 22 xx xx xx  	jsl	~~~fmov
 13813 00:62C7: 22 xx xx xx  	jsl	~~free_string
 13814 00:62CB: 18           	clc
 13815 00:62CC: 7B           	tdc
 13816 00:62CD: 69 1D 00     	adc	#<L835+stringtemp_3
 13817 00:62D0: 85 01        	sta	<R0
 13818 00:62D2: A9 00 00     	lda	#$0
 13819 00:62D5: 85 03        	sta	<R0+2
 13820 00:62D7: D4 03        	pei	<R0+2
 13821 00:62D9: D4 01        	pei	<R0
 13822 00:62DB: D4 15        	pei	<L835+first_1+4
 13823 00:62DD: D4 13        	pei	<L835+first_1+2
 13824 00:62DF: A9 06 00     	lda	#$6
 13825                        	xref	~~~fmov
 13826 00:62E2: 22 xx xx xx  	jsl	~~~fmov
 13827                        L10673:
 13828                        L10671:
 13829 00:62E6: 82 4E 00     	brl	L10677
 13830                        L10668:
 13831 00:62E9: A5 11        	lda	<L835+first_1
 13832 00:62EB: 29 08 00     	and	#<$8
 13833 00:62EE: D0 03        	bne	L912
 13834 00:62F0: 82 3A 00     	brl	L10678
 13835                        L912:
 13836             0000000C   arraytemp_7	set	12
 13837 00:62F3: A5 17        	lda	<L835+second_1
 13838 00:62F5: C5 11        	cmp	<L835+first_1
 13839 00:62F7: D0 03        	bne	L913
 13840 00:62F9: 82 0A 00     	brl	L10679
 13841                        L913:
 13842 00:62FC: F4 4E 00     	pea	#<$4e
 13843 00:62FF: F4 04 00     	pea	#4
 13844 00:6302: 22 xx xx xx  	jsl	~~error
 13845                        L10679:
 13846 00:6306: A7 13        	lda	[<L835+first_1+2]
  Sun Jan  9 2022 20:52                                                Page 240


 13847 00:6308: 85 1D        	sta	<L835+arraytemp_7
 13848 00:630A: A0 02 00     	ldy	#$2
 13849 00:630D: B7 13        	lda	[<L835+first_1+2],Y
 13850 00:630F: 85 1F        	sta	<L835+arraytemp_7+2
 13851 00:6311: A7 19        	lda	[<L835+second_1+2]
 13852 00:6313: 87 13        	sta	[<L835+first_1+2]
 13853 00:6315: A0 02 00     	ldy	#$2
 13854 00:6318: B7 19        	lda	[<L835+second_1+2],Y
 13855 00:631A: A0 02 00     	ldy	#$2
 13856 00:631D: 97 13        	sta	[<L835+first_1+2],Y
 13857 00:631F: A5 1D        	lda	<L835+arraytemp_7
 13858 00:6321: 87 19        	sta	[<L835+second_1+2]
 13859 00:6323: A5 1F        	lda	<L835+arraytemp_7+2
 13860 00:6325: A0 02 00     	ldy	#$2
 13861 00:6328: 97 19        	sta	[<L835+second_1+2],Y
 13862 00:632A: 82 0A 00     	brl	L10680
 13863                        L10678:
 13864 00:632D: F4 4E 00     	pea	#<$4e
 13865 00:6330: F4 04 00     	pea	#4
 13866 00:6333: 22 xx xx xx  	jsl	~~error
 13867                        L10680:
 13868                        L10677:
 13869                        L10667:
 13870                        L914:
 13871 00:6337: 2B           	pld
 13872 00:6338: 3B           	tsc
 13873 00:6339: 18           	clc
 13874 00:633A: 69 2A 00     	adc	#L834
 13875 00:633D: 1B           	tcs
 13876 00:633E: 6B           	rtl
 13877             0000002A   L834	equ	42
 13878             00000011   L835	equ	17
 13879                        	ends
 13880                        	efunc
 13881                        	data
 13882                        L682:
 13883 00:002B: 6D 61 69 6E  	db	$6D,$61,$69,$6E,$73,$74,$61,$74,$65,$00,
                    $6D,$61,$69,$6E,$73
       00:002F: 73 74 61 74 
       00:0033: 65 00 6D 61 
       00:0037: 69 6E 73 
 13884 00:003A: 74 61 74 65  	db	$74,$61,$74,$65,$00,$6D,$61,$69,$6E,$73,
                    $74,$61,$74,$65,$00
       00:003E: 00 6D 61 69 
       00:0042: 6E 73 74 61 
       00:0046: 74 65 00 
 13885 00:0049:              	ends
 13886                        	code
 13887                        	xdef	~~exec_sys
 13888                        	func
 13889                        ~~exec_sys:
 13890                        	longa	on
 13891                        	longi	on
 13892 00:633F: 3B           	tsc
 13893 00:6340: 38           	sec
 13894 00:6341: E9 90 00     	sbc	#L916
 13895 00:6344: 1B           	tcs
 13896 00:6345: 0B           	phd
  Sun Jan  9 2022 20:52                                                Page 241


 13897 00:6346: 5B           	tcd
 13898             00000000   n_1	set	0
 13899             00000002   parmcount_1	set	2
 13900             00000004   flags_1	set	4
 13901             00000006   swino_1	set	6
 13902             00000008   inregs_1	set	8
 13903             0000001C   outregs_1	set	28
 13904             00000030   parmtype_1	set	48
 13905             00000032   descriptor_1	set	50
 13906             00000038   tempdesc_1	set	56
 13907             00000074   destination_1	set	116
 13908 00:6347: EE xx xx     	inc	|~~basicvars+62
 13909 00:634A: D0 03        	bne	L918
 13910 00:634C: EE xx xx     	inc	|~~basicvars+62+2
 13911                        L918:
 13912 00:634F: 22 xx xx xx  	jsl	~~expression
 13913 00:6353: AD xx xx     	lda	|~~basicvars+42
 13914 00:6356: 85 01        	sta	<R0
 13915 00:6358: AD xx xx     	lda	|~~basicvars+42+2
 13916 00:635B: 85 03        	sta	<R0+2
 13917 00:635D: A7 01        	lda	[<R0]
 13918 00:635F: 85 41        	sta	<L917+parmtype_1
 13919 00:6361: A5 41        	lda	<L917+parmtype_1
 13920 00:6363: 82 93 00     	brl	L10681
 13921                        L10683:
 13922 00:6366: 22 xx xx xx  	jsl	~~pop_int
 13923 00:636A: 85 17        	sta	<L917+swino_1
 13924 00:636C: 82 9C 00     	brl	L10682
 13925                        L10684:
 13926 00:636F: 5A           	phy
 13927 00:6370: 5A           	phy
 13928 00:6371: 22 xx xx xx  	jsl	~~pop_float
 13929                        	xref	~~~ffix
 13930 00:6375: 22 xx xx xx  	jsl	~~~ffix
 13931 00:6379: 68           	pla
 13932 00:637A: 85 01        	sta	<R0
 13933 00:637C: 68           	pla
 13934 00:637D: 85 03        	sta	<R0+2
 13935 00:637F: A5 01        	lda	<R0
 13936 00:6381: 85 17        	sta	<L917+swino_1
 13937 00:6383: 82 85 00     	brl	L10682
 13938                        L10685:
 13939                        L10686:
 13940 00:6386: 22 xx xx xx  	jsl	~~pop_string
 13941 00:638A: 85 01        	sta	<R0
 13942 00:638C: 86 03        	stx	<R0+2
 13943 00:638E: D4 03        	pei	<R0+2
 13944 00:6390: D4 01        	pei	<R0
 13945 00:6392: 18           	clc
 13946 00:6393: 7B           	tdc
 13947 00:6394: 69 43 00     	adc	#<L917+descriptor_1
 13948 00:6397: 85 01        	sta	<R0
 13949 00:6399: A9 00 00     	lda	#$0
 13950 00:639C: 85 03        	sta	<R0+2
 13951 00:639E: D4 03        	pei	<R0+2
 13952 00:63A0: D4 01        	pei	<R0
 13953 00:63A2: A9 06 00     	lda	#$6
 13954                        	xref	~~~fmov
  Sun Jan  9 2022 20:52                                                Page 242


 13955 00:63A5: 22 xx xx xx  	jsl	~~~fmov
 13956 00:63A9: D4 43        	pei	<L917+descriptor_1
 13957 00:63AB: D4 47        	pei	<L917+descriptor_1+4
 13958 00:63AD: D4 45        	pei	<L917+descriptor_1+2
 13959 00:63AF: 22 xx xx xx  	jsl	~~emulate_getswino
 13960 00:63B3: 85 17        	sta	<L917+swino_1
 13961 00:63B5: A5 41        	lda	<L917+parmtype_1
 13962 00:63B7: C9 05 00     	cmp	#<$5
 13963 00:63BA: F0 03        	beq	L919
 13964 00:63BC: 82 2A 00     	brl	L10687
 13965                        L919:
 13966 00:63BF: 38           	sec
 13967 00:63C0: 3B           	tsc
 13968 00:63C1: E9 06 00     	sbc	#6
 13969 00:63C4: 1B           	tcs
 13970 00:63C5: 1A           	ina
 13971 00:63C6: 85 01        	sta	<R0
 13972 00:63C8: 64 03        	stz	<R0+2
 13973 00:63CA: 18           	clc
 13974 00:63CB: 7B           	tdc
 13975 00:63CC: 69 43 00     	adc	#<L917+descriptor_1
 13976 00:63CF: 85 05        	sta	<R1
 13977 00:63D1: A9 00 00     	lda	#$0
 13978 00:63D4: 85 07        	sta	<R1+2
 13979 00:63D6: D4 07        	pei	<R1+2
 13980 00:63D8: D4 05        	pei	<R1
 13981 00:63DA: D4 03        	pei	<R0+2
 13982 00:63DC: D4 01        	pei	<R0
 13983 00:63DE: A9 06 00     	lda	#$6
 13984                        	xref	~~~fmov
 13985 00:63E1: 22 xx xx xx  	jsl	~~~fmov
 13986 00:63E5: 22 xx xx xx  	jsl	~~free_string
 13987                        L10687:
 13988 00:63E9: 82 1F 00     	brl	L10682
 13989                        L10688:
 13990 00:63EC: F4 3F 00     	pea	#<$3f
 13991 00:63EF: F4 04 00     	pea	#4
 13992 00:63F2: 22 xx xx xx  	jsl	~~error
 13993 00:63F6: 82 12 00     	brl	L10682
 13994                        L10681:
 13995                        	xref	~~~fsw
 13996 00:63F9: 22 xx xx xx  	jsl	~~~fsw
 13997 00:63FD: 02 00        	dw	2
 13998 00:63FF: 04 00        	dw	4
 13999 00:6401: xx xx        	dw	L10688-1
 14000 00:6403: xx xx        	dw	L10683-1
 14001 00:6405: xx xx        	dw	L10684-1
 14002 00:6407: xx xx        	dw	L10685-1
 14003 00:6409: xx xx        	dw	L10686-1
 14004                        L10682:
 14005 00:640B: 64 11        	stz	<L917+n_1
 14006                        L10691:
 14007 00:640D: A0 00 00     	ldy	#$0
 14008 00:6410: A5 11        	lda	<L917+n_1
 14009 00:6412: 10 01        	bpl	L920
 14010 00:6414: 88           	dey
 14011                        L920:
 14012 00:6415: 85 05        	sta	<R1
  Sun Jan  9 2022 20:52                                                Page 243


 14013 00:6417: 84 07        	sty	<R1+2
 14014 00:6419: D4 07        	pei	<R1+2
 14015 00:641B: D4 05        	pei	<R1
 14016 00:641D: A9 01 00     	lda	#$1
 14017                        	xref	~~~lasl
 14018 00:6420: 22 xx xx xx  	jsl	~~~lasl
 14019 00:6424: 85 01        	sta	<R0
 14020 00:6426: 86 03        	stx	<R0+2
 14021 00:6428: 18           	clc
 14022 00:6429: 7B           	tdc
 14023 00:642A: 69 19 00     	adc	#<L917+inregs_1
 14024 00:642D: 85 09        	sta	<R2
 14025 00:642F: A9 00 00     	lda	#$0
 14026 00:6432: 85 0B        	sta	<R2+2
 14027 00:6434: 18           	clc
 14028 00:6435: A5 09        	lda	<R2
 14029 00:6437: 65 01        	adc	<R0
 14030 00:6439: 85 0D        	sta	<R3
 14031 00:643B: A5 0B        	lda	<R2+2
 14032 00:643D: 65 03        	adc	<R0+2
 14033 00:643F: 85 0F        	sta	<R3+2
 14034 00:6441: A9 00 00     	lda	#$0
 14035 00:6444: 87 0D        	sta	[<R3]
 14036 00:6446: A0 00 00     	ldy	#$0
 14037 00:6449: A5 11        	lda	<L917+n_1
 14038 00:644B: 10 01        	bpl	L921
 14039 00:644D: 88           	dey
 14040                        L921:
 14041 00:644E: 85 01        	sta	<R0
 14042 00:6450: 84 03        	sty	<R0+2
 14043 00:6452: F4 00 00     	pea	#^$6
 14044 00:6455: F4 06 00     	pea	#<$6
 14045 00:6458: D4 03        	pei	<R0+2
 14046 00:645A: D4 01        	pei	<R0
 14047                        	xref	~~~lmul
 14048 00:645C: 22 xx xx xx  	jsl	~~~lmul
 14049 00:6460: 85 01        	sta	<R0
 14050 00:6462: 86 03        	stx	<R0+2
 14051 00:6464: 18           	clc
 14052 00:6465: 7B           	tdc
 14053 00:6466: 69 49 00     	adc	#<L917+tempdesc_1
 14054 00:6469: 85 05        	sta	<R1
 14055 00:646B: A9 00 00     	lda	#$0
 14056 00:646E: 85 07        	sta	<R1+2
 14057 00:6470: 18           	clc
 14058 00:6471: A9 02 00     	lda	#$2
 14059 00:6474: 65 05        	adc	<R1
 14060 00:6476: 85 09        	sta	<R2
 14061 00:6478: A9 00 00     	lda	#$0
 14062 00:647B: 65 07        	adc	<R1+2
 14063 00:647D: 85 0B        	sta	<R2+2
 14064 00:647F: 18           	clc
 14065 00:6480: A5 09        	lda	<R2
 14066 00:6482: 65 01        	adc	<R0
 14067 00:6484: 85 05        	sta	<R1
 14068 00:6486: A5 0B        	lda	<R2+2
 14069 00:6488: 65 03        	adc	<R0+2
 14070 00:648A: 85 07        	sta	<R1+2
  Sun Jan  9 2022 20:52                                                Page 244


 14071 00:648C: A9 00 00     	lda	#$0
 14072 00:648F: 87 05        	sta	[<R1]
 14073 00:6491: A9 00 00     	lda	#$0
 14074 00:6494: A0 02 00     	ldy	#$2
 14075 00:6497: 97 05        	sta	[<R1],Y
 14076                        L10689:
 14077 00:6499: E6 11        	inc	<L917+n_1
 14078 00:649B: 38           	sec
 14079 00:649C: A5 11        	lda	<L917+n_1
 14080 00:649E: E9 0A 00     	sbc	#<$a
 14081 00:64A1: 70 03        	bvs	L922
 14082 00:64A3: 49 00 80     	eor	#$8000
 14083                        L922:
 14084 00:64A6: 30 03        	bmi	L923
 14085 00:64A8: 82 62 FF     	brl	L10691
 14086                        L923:
 14087                        L10690:
 14088 00:64AB: 64 13        	stz	<L917+parmcount_1
 14089 00:64AD: AD xx xx     	lda	|~~basicvars+62
 14090 00:64B0: 85 01        	sta	<R0
 14091 00:64B2: AD xx xx     	lda	|~~basicvars+62+2
 14092 00:64B5: 85 03        	sta	<R0+2
 14093 00:64B7: E2 20        	sep	#$20
 14094                        	longa	off
 14095 00:64B9: A7 01        	lda	[<R0]
 14096 00:64BB: C9 2C        	cmp	#<$2c
 14097 00:64BD: C2 20        	rep	#$20
 14098                        	longa	on
 14099 00:64BF: F0 03        	beq	L924
 14100 00:64C1: 82 08 00     	brl	L10692
 14101                        L924:
 14102 00:64C4: EE xx xx     	inc	|~~basicvars+62
 14103 00:64C7: D0 03        	bne	L925
 14104 00:64C9: EE xx xx     	inc	|~~basicvars+62+2
 14105                        L925:
 14106                        L10692:
 14107                        L10693:
 14108 00:64CC: AD xx xx     	lda	|~~basicvars+62
 14109 00:64CF: 85 01        	sta	<R0
 14110 00:64D1: AD xx xx     	lda	|~~basicvars+62+2
 14111 00:64D4: 85 03        	sta	<R0+2
 14112 00:64D6: A7 01        	lda	[<R0]
 14113 00:64D8: 29 FF 00     	and	#$ff
 14114 00:64DB: 85 01        	sta	<R0
 14115 00:64DD: A6 01        	ldx	<R0
 14116 00:64DF: BD xx xx     	lda	|~~ateol,X
 14117 00:64E2: 29 FF 00     	and	#$ff
 14118 00:64E5: F0 03        	beq	L926
 14119 00:64E7: 82 E0 02     	brl	L10694
 14120                        L926:
 14121 00:64EA: AD xx xx     	lda	|~~basicvars+62
 14122 00:64ED: 85 05        	sta	<R1
 14123 00:64EF: AD xx xx     	lda	|~~basicvars+62+2
 14124 00:64F2: 85 07        	sta	<R1+2
 14125 00:64F4: E2 20        	sep	#$20
 14126                        	longa	off
 14127 00:64F6: A7 05        	lda	[<R1]
 14128 00:64F8: C9 E1        	cmp	#<$e1
  Sun Jan  9 2022 20:52                                                Page 245


 14129 00:64FA: C2 20        	rep	#$20
 14130                        	longa	on
 14131 00:64FC: D0 03        	bne	L927
 14132 00:64FE: 82 C9 02     	brl	L10694
 14133                        L927:
 14134 00:6501: AD xx xx     	lda	|~~basicvars+62
 14135 00:6504: 85 01        	sta	<R0
 14136 00:6506: AD xx xx     	lda	|~~basicvars+62+2
 14137 00:6509: 85 03        	sta	<R0+2
 14138 00:650B: E2 20        	sep	#$20
 14139                        	longa	off
 14140 00:650D: A7 01        	lda	[<R0]
 14141 00:650F: C9 2C        	cmp	#<$2c
 14142 00:6511: C2 20        	rep	#$20
 14143                        	longa	on
 14144 00:6513: D0 03        	bne	L928
 14145 00:6515: 82 32 02     	brl	L10695
 14146                        L928:
 14147 00:6518: 22 xx xx xx  	jsl	~~expression
 14148 00:651C: AD xx xx     	lda	|~~basicvars+42
 14149 00:651F: 85 01        	sta	<R0
 14150 00:6521: AD xx xx     	lda	|~~basicvars+42+2
 14151 00:6524: 85 03        	sta	<R0+2
 14152 00:6526: A7 01        	lda	[<R0]
 14153 00:6528: 85 41        	sta	<L917+parmtype_1
 14154 00:652A: A5 41        	lda	<L917+parmtype_1
 14155 00:652C: 82 09 02     	brl	L10696
 14156                        L10698:
 14157 00:652F: A0 00 00     	ldy	#$0
 14158 00:6532: A5 13        	lda	<L917+parmcount_1
 14159 00:6534: 10 01        	bpl	L929
 14160 00:6536: 88           	dey
 14161                        L929:
 14162 00:6537: 85 05        	sta	<R1
 14163 00:6539: 84 07        	sty	<R1+2
 14164 00:653B: D4 07        	pei	<R1+2
 14165 00:653D: D4 05        	pei	<R1
 14166 00:653F: A9 01 00     	lda	#$1
 14167                        	xref	~~~lasl
 14168 00:6542: 22 xx xx xx  	jsl	~~~lasl
 14169 00:6546: 85 01        	sta	<R0
 14170 00:6548: 86 03        	stx	<R0+2
 14171 00:654A: 18           	clc
 14172 00:654B: 7B           	tdc
 14173 00:654C: 69 19 00     	adc	#<L917+inregs_1
 14174 00:654F: 85 09        	sta	<R2
 14175 00:6551: A9 00 00     	lda	#$0
 14176 00:6554: 85 0B        	sta	<R2+2
 14177 00:6556: 18           	clc
 14178 00:6557: A5 09        	lda	<R2
 14179 00:6559: 65 01        	adc	<R0
 14180 00:655B: 85 0D        	sta	<R3
 14181 00:655D: A5 0B        	lda	<R2+2
 14182 00:655F: 65 03        	adc	<R0+2
 14183 00:6561: 85 0F        	sta	<R3+2
 14184 00:6563: 22 xx xx xx  	jsl	~~pop_int
 14185 00:6567: 87 0D        	sta	[<R3]
 14186 00:6569: 82 DE 01     	brl	L10697
  Sun Jan  9 2022 20:52                                                Page 246


 14187                        L10699:
 14188 00:656C: A0 00 00     	ldy	#$0
 14189 00:656F: A5 13        	lda	<L917+parmcount_1
 14190 00:6571: 10 01        	bpl	L930
 14191 00:6573: 88           	dey
 14192                        L930:
 14193 00:6574: 85 05        	sta	<R1
 14194 00:6576: 84 07        	sty	<R1+2
 14195 00:6578: D4 07        	pei	<R1+2
 14196 00:657A: D4 05        	pei	<R1
 14197 00:657C: A9 01 00     	lda	#$1
 14198                        	xref	~~~lasl
 14199 00:657F: 22 xx xx xx  	jsl	~~~lasl
 14200 00:6583: 85 01        	sta	<R0
 14201 00:6585: 86 03        	stx	<R0+2
 14202 00:6587: 18           	clc
 14203 00:6588: 7B           	tdc
 14204 00:6589: 69 19 00     	adc	#<L917+inregs_1
 14205 00:658C: 85 09        	sta	<R2
 14206 00:658E: A9 00 00     	lda	#$0
 14207 00:6591: 85 0B        	sta	<R2+2
 14208 00:6593: 18           	clc
 14209 00:6594: A5 09        	lda	<R2
 14210 00:6596: 65 01        	adc	<R0
 14211 00:6598: 85 0D        	sta	<R3
 14212 00:659A: A5 0B        	lda	<R2+2
 14213 00:659C: 65 03        	adc	<R0+2
 14214 00:659E: 85 0F        	sta	<R3+2
 14215 00:65A0: 5A           	phy
 14216 00:65A1: 5A           	phy
 14217 00:65A2: 22 xx xx xx  	jsl	~~pop_float
 14218                        	xref	~~~ffix
 14219 00:65A6: 22 xx xx xx  	jsl	~~~ffix
 14220 00:65AA: 68           	pla
 14221 00:65AB: 85 01        	sta	<R0
 14222 00:65AD: 68           	pla
 14223 00:65AE: 85 03        	sta	<R0+2
 14224 00:65B0: A5 01        	lda	<R0
 14225 00:65B2: 87 0D        	sta	[<R3]
 14226 00:65B4: 82 93 01     	brl	L10697
 14227                        L10700:
 14228                        L10701:
 14229             0000007A   length_2	set	122
 14230             0000007C   cp_2	set	124
 14231 00:65B7: 22 xx xx xx  	jsl	~~pop_string
 14232 00:65BB: 85 01        	sta	<R0
 14233 00:65BD: 86 03        	stx	<R0+2
 14234 00:65BF: D4 03        	pei	<R0+2
 14235 00:65C1: D4 01        	pei	<R0
 14236 00:65C3: 18           	clc
 14237 00:65C4: 7B           	tdc
 14238 00:65C5: 69 43 00     	adc	#<L917+descriptor_1
 14239 00:65C8: 85 01        	sta	<R0
 14240 00:65CA: A9 00 00     	lda	#$0
 14241 00:65CD: 85 03        	sta	<R0+2
 14242 00:65CF: D4 03        	pei	<R0+2
 14243 00:65D1: D4 01        	pei	<R0
 14244 00:65D3: A9 06 00     	lda	#$6
  Sun Jan  9 2022 20:52                                                Page 247


 14245                        	xref	~~~fmov
 14246 00:65D6: 22 xx xx xx  	jsl	~~~fmov
 14247 00:65DA: A5 43        	lda	<L917+descriptor_1
 14248 00:65DC: 85 8B        	sta	<L917+length_2
 14249 00:65DE: A0 00 00     	ldy	#$0
 14250 00:65E1: A5 13        	lda	<L917+parmcount_1
 14251 00:65E3: 10 01        	bpl	L931
 14252 00:65E5: 88           	dey
 14253                        L931:
 14254 00:65E6: 85 01        	sta	<R0
 14255 00:65E8: 84 03        	sty	<R0+2
 14256 00:65EA: F4 00 00     	pea	#^$6
 14257 00:65ED: F4 06 00     	pea	#<$6
 14258 00:65F0: D4 03        	pei	<R0+2
 14259 00:65F2: D4 01        	pei	<R0
 14260                        	xref	~~~lmul
 14261 00:65F4: 22 xx xx xx  	jsl	~~~lmul
 14262 00:65F8: 85 01        	sta	<R0
 14263 00:65FA: 86 03        	stx	<R0+2
 14264 00:65FC: 18           	clc
 14265 00:65FD: 7B           	tdc
 14266 00:65FE: 69 49 00     	adc	#<L917+tempdesc_1
 14267 00:6601: 85 05        	sta	<R1
 14268 00:6603: A9 00 00     	lda	#$0
 14269 00:6606: 85 07        	sta	<R1+2
 14270 00:6608: 18           	clc
 14271 00:6609: A5 05        	lda	<R1
 14272 00:660B: 65 01        	adc	<R0
 14273 00:660D: 85 09        	sta	<R2
 14274 00:660F: A5 07        	lda	<R1+2
 14275 00:6611: 65 03        	adc	<R0+2
 14276 00:6613: 85 0B        	sta	<R2+2
 14277 00:6615: A5 8B        	lda	<L917+length_2
 14278 00:6617: 1A           	ina
 14279 00:6618: 87 09        	sta	[<R2]
 14280 00:661A: A0 00 00     	ldy	#$0
 14281 00:661D: A5 13        	lda	<L917+parmcount_1
 14282 00:661F: 10 01        	bpl	L932
 14283 00:6621: 88           	dey
 14284                        L932:
 14285 00:6622: 85 01        	sta	<R0
 14286 00:6624: 84 03        	sty	<R0+2
 14287 00:6626: F4 00 00     	pea	#^$6
 14288 00:6629: F4 06 00     	pea	#<$6
 14289 00:662C: D4 03        	pei	<R0+2
 14290 00:662E: D4 01        	pei	<R0
 14291                        	xref	~~~lmul
 14292 00:6630: 22 xx xx xx  	jsl	~~~lmul
 14293 00:6634: 85 01        	sta	<R0
 14294 00:6636: 86 03        	stx	<R0+2
 14295 00:6638: 18           	clc
 14296 00:6639: 7B           	tdc
 14297 00:663A: 69 49 00     	adc	#<L917+tempdesc_1
 14298 00:663D: 85 05        	sta	<R1
 14299 00:663F: A9 00 00     	lda	#$0
 14300 00:6642: 85 07        	sta	<R1+2
 14301 00:6644: 18           	clc
 14302 00:6645: A9 02 00     	lda	#$2
  Sun Jan  9 2022 20:52                                                Page 248


 14303 00:6648: 65 05        	adc	<R1
 14304 00:664A: 85 09        	sta	<R2
 14305 00:664C: A9 00 00     	lda	#$0
 14306 00:664F: 65 07        	adc	<R1+2
 14307 00:6651: 85 0B        	sta	<R2+2
 14308 00:6653: 18           	clc
 14309 00:6654: A5 09        	lda	<R2
 14310 00:6656: 65 01        	adc	<R0
 14311 00:6658: 85 05        	sta	<R1
 14312 00:665A: A5 0B        	lda	<R2+2
 14313 00:665C: 65 03        	adc	<R0+2
 14314 00:665E: 85 07        	sta	<R1+2
 14315 00:6660: A5 8B        	lda	<L917+length_2
 14316 00:6662: 1A           	ina
 14317 00:6663: 48           	pha
 14318 00:6664: 22 xx xx xx  	jsl	~~alloc_string
 14319 00:6668: 85 8D        	sta	<L917+cp_2
 14320 00:666A: 86 8F        	stx	<L917+cp_2+2
 14321 00:666C: A5 8D        	lda	<L917+cp_2
 14322 00:666E: 87 05        	sta	[<R1]
 14323 00:6670: A5 8F        	lda	<L917+cp_2+2
 14324 00:6672: A0 02 00     	ldy	#$2
 14325 00:6675: 97 05        	sta	[<R1],Y
 14326 00:6677: 38           	sec
 14327 00:6678: A9 00 00     	lda	#$0
 14328 00:667B: E5 8B        	sbc	<L917+length_2
 14329 00:667D: 70 03        	bvs	L933
 14330 00:667F: 49 00 80     	eor	#$8000
 14331                        L933:
 14332 00:6682: 10 03        	bpl	L934
 14333 00:6684: 82 1C 00     	brl	L10702
 14334                        L934:
 14335 00:6687: A0 00 00     	ldy	#$0
 14336 00:668A: A5 8B        	lda	<L917+length_2
 14337 00:668C: 10 01        	bpl	L935
 14338 00:668E: 88           	dey
 14339                        L935:
 14340 00:668F: 85 01        	sta	<R0
 14341 00:6691: 84 03        	sty	<R0+2
 14342 00:6693: D4 03        	pei	<R0+2
 14343 00:6695: D4 01        	pei	<R0
 14344 00:6697: D4 47        	pei	<L917+descriptor_1+4
 14345 00:6699: D4 45        	pei	<L917+descriptor_1+2
 14346 00:669B: D4 8F        	pei	<L917+cp_2+2
 14347 00:669D: D4 8D        	pei	<L917+cp_2
 14348 00:669F: 22 xx xx xx  	jsl	~~memmove
 14349                        L10702:
 14350 00:66A3: E2 20        	sep	#$20
 14351                        	longa	off
 14352 00:66A5: A9 00        	lda	#$0
 14353 00:66A7: A4 8B        	ldy	<L917+length_2
 14354 00:66A9: 97 8D        	sta	[<L917+cp_2],Y
 14355 00:66AB: C2 20        	rep	#$20
 14356                        	longa	on
 14357 00:66AD: A5 41        	lda	<L917+parmtype_1
 14358 00:66AF: C9 05 00     	cmp	#<$5
 14359 00:66B2: F0 03        	beq	L936
 14360 00:66B4: 82 2A 00     	brl	L10703
  Sun Jan  9 2022 20:52                                                Page 249


 14361                        L936:
 14362 00:66B7: 38           	sec
 14363 00:66B8: 3B           	tsc
 14364 00:66B9: E9 06 00     	sbc	#6
 14365 00:66BC: 1B           	tcs
 14366 00:66BD: 1A           	ina
 14367 00:66BE: 85 01        	sta	<R0
 14368 00:66C0: 64 03        	stz	<R0+2
 14369 00:66C2: 18           	clc
 14370 00:66C3: 7B           	tdc
 14371 00:66C4: 69 43 00     	adc	#<L917+descriptor_1
 14372 00:66C7: 85 05        	sta	<R1
 14373 00:66C9: A9 00 00     	lda	#$0
 14374 00:66CC: 85 07        	sta	<R1+2
 14375 00:66CE: D4 07        	pei	<R1+2
 14376 00:66D0: D4 05        	pei	<R1
 14377 00:66D2: D4 03        	pei	<R0+2
 14378 00:66D4: D4 01        	pei	<R0
 14379 00:66D6: A9 06 00     	lda	#$6
 14380                        	xref	~~~fmov
 14381 00:66D9: 22 xx xx xx  	jsl	~~~fmov
 14382 00:66DD: 22 xx xx xx  	jsl	~~free_string
 14383                        L10703:
 14384 00:66E1: A0 00 00     	ldy	#$0
 14385 00:66E4: A5 13        	lda	<L917+parmcount_1
 14386 00:66E6: 10 01        	bpl	L937
 14387 00:66E8: 88           	dey
 14388                        L937:
 14389 00:66E9: 85 05        	sta	<R1
 14390 00:66EB: 84 07        	sty	<R1+2
 14391 00:66ED: D4 07        	pei	<R1+2
 14392 00:66EF: D4 05        	pei	<R1
 14393 00:66F1: A9 01 00     	lda	#$1
 14394                        	xref	~~~lasl
 14395 00:66F4: 22 xx xx xx  	jsl	~~~lasl
 14396 00:66F8: 85 01        	sta	<R0
 14397 00:66FA: 86 03        	stx	<R0+2
 14398 00:66FC: 18           	clc
 14399 00:66FD: 7B           	tdc
 14400 00:66FE: 69 19 00     	adc	#<L917+inregs_1
 14401 00:6701: 85 09        	sta	<R2
 14402 00:6703: A9 00 00     	lda	#$0
 14403 00:6706: 85 0B        	sta	<R2+2
 14404 00:6708: 18           	clc
 14405 00:6709: A5 09        	lda	<R2
 14406 00:670B: 65 01        	adc	<R0
 14407 00:670D: 85 0D        	sta	<R3
 14408 00:670F: A5 0B        	lda	<R2+2
 14409 00:6711: 65 03        	adc	<R0+2
 14410 00:6713: 85 0F        	sta	<R3+2
 14411 00:6715: 38           	sec
 14412 00:6716: A5 8D        	lda	<L917+cp_2
 14413 00:6718: ED xx xx     	sbc	|~~basicvars+6
 14414 00:671B: 85 01        	sta	<R0
 14415 00:671D: A5 8F        	lda	<L917+cp_2+2
 14416 00:671F: ED xx xx     	sbc	|~~basicvars+6+2
 14417 00:6722: 85 03        	sta	<R0+2
 14418 00:6724: A5 01        	lda	<R0
  Sun Jan  9 2022 20:52                                                Page 250


 14419 00:6726: 87 0D        	sta	[<R3]
 14420 00:6728: 82 1F 00     	brl	L10697
 14421                        L10704:
 14422 00:672B: F4 45 00     	pea	#<$45
 14423 00:672E: F4 04 00     	pea	#4
 14424 00:6731: 22 xx xx xx  	jsl	~~error
 14425 00:6735: 82 12 00     	brl	L10697
 14426                        L10696:
 14427                        	xref	~~~fsw
 14428 00:6738: 22 xx xx xx  	jsl	~~~fsw
 14429 00:673C: 02 00        	dw	2
 14430 00:673E: 04 00        	dw	4
 14431 00:6740: xx xx        	dw	L10704-1
 14432 00:6742: xx xx        	dw	L10698-1
 14433 00:6744: xx xx        	dw	L10699-1
 14434 00:6746: xx xx        	dw	L10700-1
 14435 00:6748: xx xx        	dw	L10701-1
 14436                        L10697:
 14437                        L10695:
 14438 00:674A: E6 13        	inc	<L917+parmcount_1
 14439 00:674C: 38           	sec
 14440 00:674D: A5 13        	lda	<L917+parmcount_1
 14441 00:674F: E9 0A 00     	sbc	#<$a
 14442 00:6752: 70 03        	bvs	L938
 14443 00:6754: 49 00 80     	eor	#$8000
 14444                        L938:
 14445 00:6757: 30 03        	bmi	L939
 14446 00:6759: 82 0A 00     	brl	L10705
 14447                        L939:
 14448 00:675C: F4 5B 00     	pea	#<$5b
 14449 00:675F: F4 04 00     	pea	#4
 14450 00:6762: 22 xx xx xx  	jsl	~~error
 14451                        L10705:
 14452 00:6766: AD xx xx     	lda	|~~basicvars+62
 14453 00:6769: 85 01        	sta	<R0
 14454 00:676B: AD xx xx     	lda	|~~basicvars+62+2
 14455 00:676E: 85 03        	sta	<R0+2
 14456 00:6770: E2 20        	sep	#$20
 14457                        	longa	off
 14458 00:6772: A7 01        	lda	[<R0]
 14459 00:6774: C9 2C        	cmp	#<$2c
 14460 00:6776: C2 20        	rep	#$20
 14461                        	longa	on
 14462 00:6778: F0 03        	beq	L940
 14463 00:677A: 82 0B 00     	brl	L10706
 14464                        L940:
 14465 00:677D: EE xx xx     	inc	|~~basicvars+62
 14466 00:6780: D0 03        	bne	L941
 14467 00:6782: EE xx xx     	inc	|~~basicvars+62+2
 14468                        L941:
 14469 00:6785: 82 3F 00     	brl	L10707
 14470                        L10706:
 14471 00:6788: AD xx xx     	lda	|~~basicvars+62
 14472 00:678B: 85 01        	sta	<R0
 14473 00:678D: AD xx xx     	lda	|~~basicvars+62+2
 14474 00:6790: 85 03        	sta	<R0+2
 14475 00:6792: A7 01        	lda	[<R0]
 14476 00:6794: 29 FF 00     	and	#$ff
  Sun Jan  9 2022 20:52                                                Page 251


 14477 00:6797: 85 01        	sta	<R0
 14478 00:6799: A6 01        	ldx	<R0
 14479 00:679B: BD xx xx     	lda	|~~ateol,X
 14480 00:679E: 29 FF 00     	and	#$ff
 14481 00:67A1: F0 03        	beq	L942
 14482 00:67A3: 82 21 00     	brl	L10708
 14483                        L942:
 14484 00:67A6: AD xx xx     	lda	|~~basicvars+62
 14485 00:67A9: 85 05        	sta	<R1
 14486 00:67AB: AD xx xx     	lda	|~~basicvars+62+2
 14487 00:67AE: 85 07        	sta	<R1+2
 14488 00:67B0: E2 20        	sep	#$20
 14489                        	longa	off
 14490 00:67B2: A7 05        	lda	[<R1]
 14491 00:67B4: C9 E1        	cmp	#<$e1
 14492 00:67B6: C2 20        	rep	#$20
 14493                        	longa	on
 14494 00:67B8: D0 03        	bne	L943
 14495 00:67BA: 82 0A 00     	brl	L10708
 14496                        L943:
 14497 00:67BD: F4 05 00     	pea	#<$5
 14498 00:67C0: F4 04 00     	pea	#4
 14499 00:67C3: 22 xx xx xx  	jsl	~~error
 14500                        L10708:
 14501                        L10707:
 14502 00:67C7: 82 02 FD     	brl	L10693
 14503                        L10694:
 14504 00:67CA: F4 00 00     	pea	#0
 14505 00:67CD: 18           	clc
 14506 00:67CE: 7B           	tdc
 14507 00:67CF: 69 15 00     	adc	#<L917+flags_1
 14508 00:67D2: 48           	pha
 14509 00:67D3: F4 00 00     	pea	#0
 14510 00:67D6: 18           	clc
 14511 00:67D7: 7B           	tdc
 14512 00:67D8: 69 2D 00     	adc	#<L917+outregs_1
 14513 00:67DB: 48           	pha
 14514 00:67DC: F4 00 00     	pea	#0
 14515 00:67DF: 18           	clc
 14516 00:67E0: 7B           	tdc
 14517 00:67E1: 69 19 00     	adc	#<L917+inregs_1
 14518 00:67E4: 48           	pha
 14519 00:67E5: D4 17        	pei	<L917+swino_1
 14520 00:67E7: 22 xx xx xx  	jsl	~~emulate_sys
 14521 00:67EB: 64 11        	stz	<L917+n_1
 14522                        L10711:
 14523 00:67ED: A0 00 00     	ldy	#$0
 14524 00:67F0: A5 11        	lda	<L917+n_1
 14525 00:67F2: 10 01        	bpl	L944
 14526 00:67F4: 88           	dey
 14527                        L944:
 14528 00:67F5: 85 01        	sta	<R0
 14529 00:67F7: 84 03        	sty	<R0+2
 14530 00:67F9: F4 00 00     	pea	#^$6
 14531 00:67FC: F4 06 00     	pea	#<$6
 14532 00:67FF: D4 03        	pei	<R0+2
 14533 00:6801: D4 01        	pei	<R0
 14534                        	xref	~~~lmul
  Sun Jan  9 2022 20:52                                                Page 252


 14535 00:6803: 22 xx xx xx  	jsl	~~~lmul
 14536 00:6807: 85 01        	sta	<R0
 14537 00:6809: 86 03        	stx	<R0+2
 14538 00:680B: 18           	clc
 14539 00:680C: 7B           	tdc
 14540 00:680D: 69 49 00     	adc	#<L917+tempdesc_1
 14541 00:6810: 85 05        	sta	<R1
 14542 00:6812: A9 00 00     	lda	#$0
 14543 00:6815: 85 07        	sta	<R1+2
 14544 00:6817: 18           	clc
 14545 00:6818: A9 02 00     	lda	#$2
 14546 00:681B: 65 05        	adc	<R1
 14547 00:681D: 85 09        	sta	<R2
 14548 00:681F: A9 00 00     	lda	#$0
 14549 00:6822: 65 07        	adc	<R1+2
 14550 00:6824: 85 0B        	sta	<R2+2
 14551 00:6826: 18           	clc
 14552 00:6827: A5 09        	lda	<R2
 14553 00:6829: 65 01        	adc	<R0
 14554 00:682B: 85 05        	sta	<R1
 14555 00:682D: A5 0B        	lda	<R2+2
 14556 00:682F: 65 03        	adc	<R0+2
 14557 00:6831: 85 07        	sta	<R1+2
 14558 00:6833: A7 05        	lda	[<R1]
 14559 00:6835: A0 02 00     	ldy	#$2
 14560 00:6838: 17 05        	ora	[<R1],Y
 14561 00:683A: D0 03        	bne	L945
 14562 00:683C: 82 55 00     	brl	L10712
 14563                        L945:
 14564 00:683F: 38           	sec
 14565 00:6840: 3B           	tsc
 14566 00:6841: E9 06 00     	sbc	#6
 14567 00:6844: 1B           	tcs
 14568 00:6845: 1A           	ina
 14569 00:6846: 85 01        	sta	<R0
 14570 00:6848: 64 03        	stz	<R0+2
 14571 00:684A: A0 00 00     	ldy	#$0
 14572 00:684D: A5 11        	lda	<L917+n_1
 14573 00:684F: 10 01        	bpl	L946
 14574 00:6851: 88           	dey
 14575                        L946:
 14576 00:6852: 85 05        	sta	<R1
 14577 00:6854: 84 07        	sty	<R1+2
 14578 00:6856: F4 00 00     	pea	#^$6
 14579 00:6859: F4 06 00     	pea	#<$6
 14580 00:685C: D4 07        	pei	<R1+2
 14581 00:685E: D4 05        	pei	<R1
 14582                        	xref	~~~lmul
 14583 00:6860: 22 xx xx xx  	jsl	~~~lmul
 14584 00:6864: 85 05        	sta	<R1
 14585 00:6866: 86 07        	stx	<R1+2
 14586 00:6868: 18           	clc
 14587 00:6869: 7B           	tdc
 14588 00:686A: 69 49 00     	adc	#<L917+tempdesc_1
 14589 00:686D: 85 09        	sta	<R2
 14590 00:686F: A9 00 00     	lda	#$0
 14591 00:6872: 85 0B        	sta	<R2+2
 14592 00:6874: 18           	clc
  Sun Jan  9 2022 20:52                                                Page 253


 14593 00:6875: A5 09        	lda	<R2
 14594 00:6877: 65 05        	adc	<R1
 14595 00:6879: 85 0D        	sta	<R3
 14596 00:687B: A5 0B        	lda	<R2+2
 14597 00:687D: 65 07        	adc	<R1+2
 14598 00:687F: 85 0F        	sta	<R3+2
 14599 00:6881: D4 0F        	pei	<R3+2
 14600 00:6883: D4 0D        	pei	<R3
 14601 00:6885: D4 03        	pei	<R0+2
 14602 00:6887: D4 01        	pei	<R0
 14603 00:6889: A9 06 00     	lda	#$6
 14604                        	xref	~~~fmov
 14605 00:688C: 22 xx xx xx  	jsl	~~~fmov
 14606 00:6890: 22 xx xx xx  	jsl	~~free_string
 14607                        L10712:
 14608                        L10709:
 14609 00:6894: E6 11        	inc	<L917+n_1
 14610 00:6896: 38           	sec
 14611 00:6897: A5 11        	lda	<L917+n_1
 14612 00:6899: E9 0A 00     	sbc	#<$a
 14613 00:689C: 70 03        	bvs	L947
 14614 00:689E: 49 00 80     	eor	#$8000
 14615                        L947:
 14616 00:68A1: 30 03        	bmi	L948
 14617 00:68A3: 82 47 FF     	brl	L10711
 14618                        L948:
 14619                        L10710:
 14620 00:68A6: AD xx xx     	lda	|~~basicvars+62
 14621 00:68A9: 85 01        	sta	<R0
 14622 00:68AB: AD xx xx     	lda	|~~basicvars+62+2
 14623 00:68AE: 85 03        	sta	<R0+2
 14624 00:68B0: A7 01        	lda	[<R0]
 14625 00:68B2: 29 FF 00     	and	#$ff
 14626 00:68B5: 85 01        	sta	<R0
 14627 00:68B7: A6 01        	ldx	<R0
 14628 00:68B9: BD xx xx     	lda	|~~ateol,X
 14629 00:68BC: 29 FF 00     	and	#$ff
 14630 00:68BF: D0 03        	bne	L949
 14631 00:68C1: 82 08 00     	brl	L10713
 14632                        L949:
 14633                        L950:
 14634 00:68C4: 2B           	pld
 14635 00:68C5: 3B           	tsc
 14636 00:68C6: 18           	clc
 14637 00:68C7: 69 90 00     	adc	#L916
 14638 00:68CA: 1B           	tcs
 14639 00:68CB: 6B           	rtl
 14640                        L10713:
 14641 00:68CC: EE xx xx     	inc	|~~basicvars+62
 14642 00:68CF: D0 03        	bne	L951
 14643 00:68D1: EE xx xx     	inc	|~~basicvars+62+2
 14644                        L951:
 14645 00:68D4: 64 13        	stz	<L917+parmcount_1
 14646                        L10714:
 14647 00:68D6: AD xx xx     	lda	|~~basicvars+62
 14648 00:68D9: 85 01        	sta	<R0
 14649 00:68DB: AD xx xx     	lda	|~~basicvars+62+2
 14650 00:68DE: 85 03        	sta	<R0+2
  Sun Jan  9 2022 20:52                                                Page 254


 14651 00:68E0: A7 01        	lda	[<R0]
 14652 00:68E2: 29 FF 00     	and	#$ff
 14653 00:68E5: 85 01        	sta	<R0
 14654 00:68E7: A6 01        	ldx	<R0
 14655 00:68E9: BD xx xx     	lda	|~~ateol,X
 14656 00:68EC: 29 FF 00     	and	#$ff
 14657 00:68EF: F0 03        	beq	L952
 14658 00:68F1: 82 1F 01     	brl	L10715
 14659                        L952:
 14660 00:68F4: AD xx xx     	lda	|~~basicvars+62
 14661 00:68F7: 85 05        	sta	<R1
 14662 00:68F9: AD xx xx     	lda	|~~basicvars+62+2
 14663 00:68FC: 85 07        	sta	<R1+2
 14664 00:68FE: E2 20        	sep	#$20
 14665                        	longa	off
 14666 00:6900: A7 05        	lda	[<R1]
 14667 00:6902: C9 3B        	cmp	#<$3b
 14668 00:6904: C2 20        	rep	#$20
 14669                        	longa	on
 14670 00:6906: D0 03        	bne	L953
 14671 00:6908: 82 08 01     	brl	L10715
 14672                        L953:
 14673 00:690B: AD xx xx     	lda	|~~basicvars+62
 14674 00:690E: 85 01        	sta	<R0
 14675 00:6910: AD xx xx     	lda	|~~basicvars+62+2
 14676 00:6913: 85 03        	sta	<R0+2
 14677 00:6915: E2 20        	sep	#$20
 14678                        	longa	off
 14679 00:6917: A7 01        	lda	[<R0]
 14680 00:6919: C9 2C        	cmp	#<$2c
 14681 00:691B: C2 20        	rep	#$20
 14682                        	longa	on
 14683 00:691D: D0 03        	bne	L954
 14684 00:691F: 82 71 00     	brl	L10716
 14685                        L954:
 14686 00:6922: F4 00 00     	pea	#0
 14687 00:6925: 18           	clc
 14688 00:6926: 7B           	tdc
 14689 00:6927: 69 85 00     	adc	#<L917+destination_1
 14690 00:692A: 48           	pha
 14691 00:692B: 22 xx xx xx  	jsl	~~get_lvalue
 14692 00:692F: F4 00 00     	pea	#<$0
 14693 00:6932: A0 00 00     	ldy	#$0
 14694 00:6935: A5 13        	lda	<L917+parmcount_1
 14695 00:6937: 10 01        	bpl	L955
 14696 00:6939: 88           	dey
 14697                        L955:
 14698 00:693A: 85 05        	sta	<R1
 14699 00:693C: 84 07        	sty	<R1+2
 14700 00:693E: D4 07        	pei	<R1+2
 14701 00:6940: D4 05        	pei	<R1
 14702 00:6942: A9 01 00     	lda	#$1
 14703                        	xref	~~~lasl
 14704 00:6945: 22 xx xx xx  	jsl	~~~lasl
 14705 00:6949: 85 01        	sta	<R0
 14706 00:694B: 86 03        	stx	<R0+2
 14707 00:694D: 18           	clc
 14708 00:694E: 7B           	tdc
  Sun Jan  9 2022 20:52                                                Page 255


 14709 00:694F: 69 2D 00     	adc	#<L917+outregs_1
 14710 00:6952: 85 09        	sta	<R2
 14711 00:6954: A9 00 00     	lda	#$0
 14712 00:6957: 85 0B        	sta	<R2+2
 14713 00:6959: 18           	clc
 14714 00:695A: A5 09        	lda	<R2
 14715 00:695C: 65 01        	adc	<R0
 14716 00:695E: 85 0D        	sta	<R3
 14717 00:6960: A5 0B        	lda	<R2+2
 14718 00:6962: 65 03        	adc	<R0+2
 14719 00:6964: 85 0F        	sta	<R3+2
 14720 00:6966: A7 0D        	lda	[<R3]
 14721 00:6968: 48           	pha
 14722 00:6969: 38           	sec
 14723 00:696A: 3B           	tsc
 14724 00:696B: E9 06 00     	sbc	#6
 14725 00:696E: 1B           	tcs
 14726 00:696F: 1A           	ina
 14727 00:6970: 85 01        	sta	<R0
 14728 00:6972: 64 03        	stz	<R0+2
 14729 00:6974: 18           	clc
 14730 00:6975: 7B           	tdc
 14731 00:6976: 69 85 00     	adc	#<L917+destination_1
 14732 00:6979: 85 09        	sta	<R2
 14733 00:697B: A9 00 00     	lda	#$0
 14734 00:697E: 85 0B        	sta	<R2+2
 14735 00:6980: D4 0B        	pei	<R2+2
 14736 00:6982: D4 09        	pei	<R2
 14737 00:6984: D4 03        	pei	<R0+2
 14738 00:6986: D4 01        	pei	<R0
 14739 00:6988: A9 06 00     	lda	#$6
 14740                        	xref	~~~fmov
 14741 00:698B: 22 xx xx xx  	jsl	~~~fmov
 14742 00:698F: 22 xx xx xx  	jsl	~~store_value
 14743                        L10716:
 14744 00:6993: E6 13        	inc	<L917+parmcount_1
 14745 00:6995: 38           	sec
 14746 00:6996: A5 13        	lda	<L917+parmcount_1
 14747 00:6998: E9 0A 00     	sbc	#<$a
 14748 00:699B: 70 03        	bvs	L956
 14749 00:699D: 49 00 80     	eor	#$8000
 14750                        L956:
 14751 00:69A0: 30 03        	bmi	L957
 14752 00:69A2: 82 0A 00     	brl	L10717
 14753                        L957:
 14754 00:69A5: F4 5B 00     	pea	#<$5b
 14755 00:69A8: F4 04 00     	pea	#4
 14756 00:69AB: 22 xx xx xx  	jsl	~~error
 14757                        L10717:
 14758 00:69AF: AD xx xx     	lda	|~~basicvars+62
 14759 00:69B2: 85 01        	sta	<R0
 14760 00:69B4: AD xx xx     	lda	|~~basicvars+62+2
 14761 00:69B7: 85 03        	sta	<R0+2
 14762 00:69B9: E2 20        	sep	#$20
 14763                        	longa	off
 14764 00:69BB: A7 01        	lda	[<R0]
 14765 00:69BD: C9 2C        	cmp	#<$2c
 14766 00:69BF: C2 20        	rep	#$20
  Sun Jan  9 2022 20:52                                                Page 256


 14767                        	longa	on
 14768 00:69C1: F0 03        	beq	L958
 14769 00:69C3: 82 0B 00     	brl	L10718
 14770                        L958:
 14771 00:69C6: EE xx xx     	inc	|~~basicvars+62
 14772 00:69C9: D0 03        	bne	L959
 14773 00:69CB: EE xx xx     	inc	|~~basicvars+62+2
 14774                        L959:
 14775 00:69CE: 82 3F 00     	brl	L10719
 14776                        L10718:
 14777 00:69D1: AD xx xx     	lda	|~~basicvars+62
 14778 00:69D4: 85 01        	sta	<R0
 14779 00:69D6: AD xx xx     	lda	|~~basicvars+62+2
 14780 00:69D9: 85 03        	sta	<R0+2
 14781 00:69DB: A7 01        	lda	[<R0]
 14782 00:69DD: 29 FF 00     	and	#$ff
 14783 00:69E0: 85 01        	sta	<R0
 14784 00:69E2: A6 01        	ldx	<R0
 14785 00:69E4: BD xx xx     	lda	|~~ateol,X
 14786 00:69E7: 29 FF 00     	and	#$ff
 14787 00:69EA: F0 03        	beq	L960
 14788 00:69EC: 82 21 00     	brl	L10720
 14789                        L960:
 14790 00:69EF: AD xx xx     	lda	|~~basicvars+62
 14791 00:69F2: 85 05        	sta	<R1
 14792 00:69F4: AD xx xx     	lda	|~~basicvars+62+2
 14793 00:69F7: 85 07        	sta	<R1+2
 14794 00:69F9: E2 20        	sep	#$20
 14795                        	longa	off
 14796 00:69FB: A7 05        	lda	[<R1]
 14797 00:69FD: C9 3B        	cmp	#<$3b
 14798 00:69FF: C2 20        	rep	#$20
 14799                        	longa	on
 14800 00:6A01: D0 03        	bne	L961
 14801 00:6A03: 82 0A 00     	brl	L10720
 14802                        L961:
 14803 00:6A06: F4 05 00     	pea	#<$5
 14804 00:6A09: F4 04 00     	pea	#4
 14805 00:6A0C: 22 xx xx xx  	jsl	~~error
 14806                        L10720:
 14807                        L10719:
 14808 00:6A10: 82 C3 FE     	brl	L10714
 14809                        L10715:
 14810 00:6A13: AD xx xx     	lda	|~~basicvars+62
 14811 00:6A16: 85 01        	sta	<R0
 14812 00:6A18: AD xx xx     	lda	|~~basicvars+62+2
 14813 00:6A1B: 85 03        	sta	<R0+2
 14814 00:6A1D: E2 20        	sep	#$20
 14815                        	longa	off
 14816 00:6A1F: A7 01        	lda	[<R0]
 14817 00:6A21: C9 3B        	cmp	#<$3b
 14818 00:6A23: C2 20        	rep	#$20
 14819                        	longa	on
 14820 00:6A25: F0 03        	beq	L962
 14821 00:6A27: 82 44 00     	brl	L10721
 14822                        L962:
 14823 00:6A2A: EE xx xx     	inc	|~~basicvars+62
 14824 00:6A2D: D0 03        	bne	L963
  Sun Jan  9 2022 20:52                                                Page 257


 14825 00:6A2F: EE xx xx     	inc	|~~basicvars+62+2
 14826                        L963:
 14827 00:6A32: F4 00 00     	pea	#0
 14828 00:6A35: 18           	clc
 14829 00:6A36: 7B           	tdc
 14830 00:6A37: 69 85 00     	adc	#<L917+destination_1
 14831 00:6A3A: 48           	pha
 14832 00:6A3B: 22 xx xx xx  	jsl	~~get_lvalue
 14833 00:6A3F: F4 01 00     	pea	#<$1
 14834 00:6A42: D4 15        	pei	<L917+flags_1
 14835 00:6A44: 38           	sec
 14836 00:6A45: 3B           	tsc
 14837 00:6A46: E9 06 00     	sbc	#6
 14838 00:6A49: 1B           	tcs
 14839 00:6A4A: 1A           	ina
 14840 00:6A4B: 85 01        	sta	<R0
 14841 00:6A4D: 64 03        	stz	<R0+2
 14842 00:6A4F: 18           	clc
 14843 00:6A50: 7B           	tdc
 14844 00:6A51: 69 85 00     	adc	#<L917+destination_1
 14845 00:6A54: 85 05        	sta	<R1
 14846 00:6A56: A9 00 00     	lda	#$0
 14847 00:6A59: 85 07        	sta	<R1+2
 14848 00:6A5B: D4 07        	pei	<R1+2
 14849 00:6A5D: D4 05        	pei	<R1
 14850 00:6A5F: D4 03        	pei	<R0+2
 14851 00:6A61: D4 01        	pei	<R0
 14852 00:6A63: A9 06 00     	lda	#$6
 14853                        	xref	~~~fmov
 14854 00:6A66: 22 xx xx xx  	jsl	~~~fmov
 14855 00:6A6A: 22 xx xx xx  	jsl	~~store_value
 14856                        L10721:
 14857 00:6A6E: 22 xx xx xx  	jsl	~~check_ateol
 14858 00:6A72: 82 4F FE     	brl	L950
 14859             00000090   L916	equ	144
 14860             00000011   L917	equ	17
 14861                        	ends
 14862                        	efunc
 14863                        	code
 14864                        	xdef	~~exec_trace
 14865                        	func
 14866                        ~~exec_trace:
 14867                        	longa	on
 14868                        	longi	on
 14869 00:6A75: 3B           	tsc
 14870 00:6A76: 38           	sec
 14871 00:6A77: E9 12 00     	sbc	#L964
 14872 00:6A7A: 1B           	tcs
 14873 00:6A7B: 0B           	phd
 14874 00:6A7C: 5B           	tcd
 14875             00000000   yes_1	set	0
 14876             00000001   option_1	set	1
 14877 00:6A7D: EE xx xx     	inc	|~~basicvars+62
 14878 00:6A80: D0 03        	bne	L966
 14879 00:6A82: EE xx xx     	inc	|~~basicvars+62+2
 14880                        L966:
 14881 00:6A85: AD xx xx     	lda	|~~basicvars+62
 14882 00:6A88: 85 01        	sta	<R0
  Sun Jan  9 2022 20:52                                                Page 258


 14883 00:6A8A: AD xx xx     	lda	|~~basicvars+62+2
 14884 00:6A8D: 85 03        	sta	<R0+2
 14885 00:6A8F: E2 20        	sep	#$20
 14886                        	longa	off
 14887 00:6A91: A7 01        	lda	[<R0]
 14888 00:6A93: C9 C2        	cmp	#<$c2
 14889 00:6A95: C2 20        	rep	#$20
 14890                        	longa	on
 14891 00:6A97: F0 03        	beq	L967
 14892 00:6A99: 82 0F 00     	brl	L10722
 14893                        L967:
 14894 00:6A9C: A9 01 00     	lda	#$1
 14895 00:6A9F: 0C xx xx     	tsb	~~basicvars+425
 14896 00:6AA2: A9 02 00     	lda	#$2
 14897 00:6AA5: 0C xx xx     	tsb	~~basicvars+425
 14898 00:6AA8: 82 C4 02     	brl	L10723
 14899                        L10722:
 14900 00:6AAB: AD xx xx     	lda	|~~basicvars+62
 14901 00:6AAE: 85 01        	sta	<R0
 14902 00:6AB0: AD xx xx     	lda	|~~basicvars+62+2
 14903 00:6AB3: 85 03        	sta	<R0+2
 14904 00:6AB5: E2 20        	sep	#$20
 14905                        	longa	off
 14906 00:6AB7: A7 01        	lda	[<R0]
 14907 00:6AB9: C9 C1        	cmp	#<$c1
 14908 00:6ABB: C2 20        	rep	#$20
 14909                        	longa	on
 14910 00:6ABD: F0 03        	beq	L968
 14911 00:6ABF: 82 21 00     	brl	L10724
 14912                        L968:
 14913 00:6AC2: A9 01 00     	lda	#$1
 14914 00:6AC5: 1C xx xx     	trb	~~basicvars+425
 14915 00:6AC8: A9 02 00     	lda	#$2
 14916 00:6ACB: 1C xx xx     	trb	~~basicvars+425
 14917 00:6ACE: A9 04 00     	lda	#$4
 14918 00:6AD1: 1C xx xx     	trb	~~basicvars+425
 14919 00:6AD4: A9 08 00     	lda	#$8
 14920 00:6AD7: 1C xx xx     	trb	~~basicvars+425
 14921 00:6ADA: A9 10 00     	lda	#$10
 14922 00:6ADD: 1C xx xx     	trb	~~basicvars+425
 14923 00:6AE0: 82 8C 02     	brl	L10725
 14924                        L10724:
 14925 00:6AE3: AD xx xx     	lda	|~~basicvars+62
 14926 00:6AE6: 85 01        	sta	<R0
 14927 00:6AE8: AD xx xx     	lda	|~~basicvars+62+2
 14928 00:6AEB: 85 03        	sta	<R0+2
 14929 00:6AED: E2 20        	sep	#$20
 14930                        	longa	off
 14931 00:6AEF: A7 01        	lda	[<R0]
 14932 00:6AF1: C9 E1        	cmp	#<$e1
 14933 00:6AF3: C2 20        	rep	#$20
 14934                        	longa	on
 14935 00:6AF5: F0 03        	beq	L969
 14936 00:6AF7: 82 A8 00     	brl	L10726
 14937                        L969:
 14938             00000002   stringtype_2	set	2
 14939             00000004   descriptor_2	set	4
 14940 00:6AFA: EE xx xx     	inc	|~~basicvars+62
  Sun Jan  9 2022 20:52                                                Page 259


 14941 00:6AFD: D0 03        	bne	L970
 14942 00:6AFF: EE xx xx     	inc	|~~basicvars+62+2
 14943                        L970:
 14944 00:6B02: 22 xx xx xx  	jsl	~~expression
 14945 00:6B06: 22 xx xx xx  	jsl	~~check_ateol
 14946 00:6B0A: AD xx xx     	lda	|~~basicvars+42
 14947 00:6B0D: 85 01        	sta	<R0
 14948 00:6B0F: AD xx xx     	lda	|~~basicvars+42+2
 14949 00:6B12: 85 03        	sta	<R0+2
 14950 00:6B14: A7 01        	lda	[<R0]
 14951 00:6B16: 85 0B        	sta	<L965+stringtype_2
 14952 00:6B18: A5 0B        	lda	<L965+stringtype_2
 14953 00:6B1A: C9 04 00     	cmp	#<$4
 14954 00:6B1D: D0 03        	bne	L971
 14955 00:6B1F: 82 14 00     	brl	L10727
 14956                        L971:
 14957 00:6B22: A5 0B        	lda	<L965+stringtype_2
 14958 00:6B24: C9 05 00     	cmp	#<$5
 14959 00:6B27: D0 03        	bne	L972
 14960 00:6B29: 82 0A 00     	brl	L10727
 14961                        L972:
 14962 00:6B2C: F4 40 00     	pea	#<$40
 14963 00:6B2F: F4 04 00     	pea	#4
 14964 00:6B32: 22 xx xx xx  	jsl	~~error
 14965                        L10727:
 14966 00:6B36: 22 xx xx xx  	jsl	~~pop_string
 14967 00:6B3A: 85 01        	sta	<R0
 14968 00:6B3C: 86 03        	stx	<R0+2
 14969 00:6B3E: D4 03        	pei	<R0+2
 14970 00:6B40: D4 01        	pei	<R0
 14971 00:6B42: 18           	clc
 14972 00:6B43: 7B           	tdc
 14973 00:6B44: 69 0D 00     	adc	#<L965+descriptor_2
 14974 00:6B47: 85 01        	sta	<R0
 14975 00:6B49: A9 00 00     	lda	#$0
 14976 00:6B4C: 85 03        	sta	<R0+2
 14977 00:6B4E: D4 03        	pei	<R0+2
 14978 00:6B50: D4 01        	pei	<R0
 14979 00:6B52: A9 06 00     	lda	#$6
 14980                        	xref	~~~fmov
 14981 00:6B55: 22 xx xx xx  	jsl	~~~fmov
 14982 00:6B59: D4 0D        	pei	<L965+descriptor_2
 14983 00:6B5B: D4 11        	pei	<L965+descriptor_2+4
 14984 00:6B5D: D4 0F        	pei	<L965+descriptor_2+2
 14985 00:6B5F: 22 xx xx xx  	jsl	~~fileio_openout
 14986 00:6B63: 8D xx xx     	sta	|~~basicvars+427
 14987 00:6B66: A5 0B        	lda	<L965+stringtype_2
 14988 00:6B68: C9 05 00     	cmp	#<$5
 14989 00:6B6B: F0 03        	beq	L973
 14990 00:6B6D: 82 2A 00     	brl	L10728
 14991                        L973:
 14992 00:6B70: 38           	sec
 14993 00:6B71: 3B           	tsc
 14994 00:6B72: E9 06 00     	sbc	#6
 14995 00:6B75: 1B           	tcs
 14996 00:6B76: 1A           	ina
 14997 00:6B77: 85 01        	sta	<R0
 14998 00:6B79: 64 03        	stz	<R0+2
  Sun Jan  9 2022 20:52                                                Page 260


 14999 00:6B7B: 18           	clc
 15000 00:6B7C: 7B           	tdc
 15001 00:6B7D: 69 0D 00     	adc	#<L965+descriptor_2
 15002 00:6B80: 85 05        	sta	<R1
 15003 00:6B82: A9 00 00     	lda	#$0
 15004 00:6B85: 85 07        	sta	<R1+2
 15005 00:6B87: D4 07        	pei	<R1+2
 15006 00:6B89: D4 05        	pei	<R1
 15007 00:6B8B: D4 03        	pei	<R0+2
 15008 00:6B8D: D4 01        	pei	<R0
 15009 00:6B8F: A9 06 00     	lda	#$6
 15010                        	xref	~~~fmov
 15011 00:6B92: 22 xx xx xx  	jsl	~~~fmov
 15012 00:6B96: 22 xx xx xx  	jsl	~~free_string
 15013                        L10728:
 15014                        L974:
 15015 00:6B9A: 2B           	pld
 15016 00:6B9B: 3B           	tsc
 15017 00:6B9C: 18           	clc
 15018 00:6B9D: 69 12 00     	adc	#L964
 15019 00:6BA0: 1B           	tcs
 15020 00:6BA1: 6B           	rtl
 15021                        L10726:
 15022 00:6BA2: AD xx xx     	lda	|~~basicvars+62
 15023 00:6BA5: 85 01        	sta	<R0
 15024 00:6BA7: AD xx xx     	lda	|~~basicvars+62+2
 15025 00:6BAA: 85 03        	sta	<R0+2
 15026 00:6BAC: E2 20        	sep	#$20
 15027                        	longa	off
 15028 00:6BAE: A7 01        	lda	[<R0]
 15029 00:6BB0: C9 96        	cmp	#<$96
 15030 00:6BB2: C2 20        	rep	#$20
 15031                        	longa	on
 15032 00:6BB4: F0 03        	beq	L975
 15033 00:6BB6: 82 16 00     	brl	L10729
 15034                        L975:
 15035 00:6BB9: AD xx xx     	lda	|~~basicvars+427
 15036 00:6BBC: D0 03        	bne	L976
 15037 00:6BBE: 82 0B 00     	brl	L10730
 15038                        L976:
 15039 00:6BC1: AD xx xx     	lda	|~~basicvars+427
 15040 00:6BC4: 48           	pha
 15041 00:6BC5: 22 xx xx xx  	jsl	~~fileio_close
 15042 00:6BC9: 9C xx xx     	stz	|~~basicvars+427
 15043                        L10730:
 15044 00:6BCC: 82 A0 01     	brl	L10731
 15045                        L10729:
 15046 00:6BCF: AD xx xx     	lda	|~~basicvars+62
 15047 00:6BD2: 85 01        	sta	<R0
 15048 00:6BD4: AD xx xx     	lda	|~~basicvars+62+2
 15049 00:6BD7: 85 03        	sta	<R0+2
 15050 00:6BD9: A7 01        	lda	[<R0]
 15051 00:6BDB: 29 FF 00     	and	#$ff
 15052 00:6BDE: 85 01        	sta	<R0
 15053 00:6BE0: A6 01        	ldx	<R0
 15054 00:6BE2: BD xx xx     	lda	|~~ateol,X
 15055 00:6BE5: 29 FF 00     	and	#$ff
 15056 00:6BE8: D0 03        	bne	L977
  Sun Jan  9 2022 20:52                                                Page 261


 15057 00:6BEA: 82 0D 00     	brl	L10732
 15058                        L977:
 15059 00:6BED: F4 63 00     	pea	#<$63
 15060 00:6BF0: F4 04 00     	pea	#4
 15061 00:6BF3: 22 xx xx xx  	jsl	~~error
 15062 00:6BF7: 82 75 01     	brl	L10733
 15063                        L10732:
 15064 00:6BFA: AD xx xx     	lda	|~~basicvars+62
 15065 00:6BFD: 85 01        	sta	<R0
 15066 00:6BFF: AD xx xx     	lda	|~~basicvars+62+2
 15067 00:6C02: 85 03        	sta	<R0+2
 15068 00:6C04: E2 20        	sep	#$20
 15069                        	longa	off
 15070 00:6C06: A0 01 00     	ldy	#$1
 15071 00:6C09: B7 01        	lda	[<R0],Y
 15072 00:6C0B: 85 0A        	sta	<L965+option_1
 15073 00:6C0D: C2 20        	rep	#$20
 15074                        	longa	on
 15075 00:6C0F: A5 0A        	lda	<L965+option_1
 15076 00:6C11: 29 FF 00     	and	#$ff
 15077 00:6C14: 85 01        	sta	<R0
 15078 00:6C16: A6 01        	ldx	<R0
 15079 00:6C18: BD xx xx     	lda	|~~ateol,X
 15080 00:6C1B: 29 FF 00     	and	#$ff
 15081 00:6C1E: F0 03        	beq	L978
 15082 00:6C20: 82 24 00     	brl	L10734
 15083                        L978:
 15084 00:6C23: E2 20        	sep	#$20
 15085                        	longa	off
 15086 00:6C25: A5 0A        	lda	<L965+option_1
 15087 00:6C27: C9 C2        	cmp	#<$c2
 15088 00:6C29: C2 20        	rep	#$20
 15089                        	longa	on
 15090 00:6C2B: D0 03        	bne	L979
 15091 00:6C2D: 82 17 00     	brl	L10734
 15092                        L979:
 15093 00:6C30: E2 20        	sep	#$20
 15094                        	longa	off
 15095 00:6C32: A5 0A        	lda	<L965+option_1
 15096 00:6C34: C9 C1        	cmp	#<$c1
 15097 00:6C36: C2 20        	rep	#$20
 15098                        	longa	on
 15099 00:6C38: D0 03        	bne	L980
 15100 00:6C3A: 82 0A 00     	brl	L10734
 15101                        L980:
 15102 00:6C3D: F4 63 00     	pea	#<$63
 15103 00:6C40: F4 04 00     	pea	#4
 15104 00:6C43: 22 xx xx xx  	jsl	~~error
 15105                        L10734:
 15106 00:6C47: 64 01        	stz	<R0
 15107 00:6C49: E2 20        	sep	#$20
 15108                        	longa	off
 15109 00:6C4B: A5 0A        	lda	<L965+option_1
 15110 00:6C4D: C9 C1        	cmp	#<$c1
 15111 00:6C4F: C2 20        	rep	#$20
 15112                        	longa	on
 15113 00:6C51: D0 03        	bne	L982
 15114 00:6C53: 82 02 00     	brl	L981
  Sun Jan  9 2022 20:52                                                Page 262


 15115                        L982:
 15116 00:6C56: E6 01        	inc	<R0
 15117                        L981:
 15118 00:6C58: E2 20        	sep	#$20
 15119                        	longa	off
 15120 00:6C5A: A5 01        	lda	<R0
 15121 00:6C5C: 85 09        	sta	<L965+yes_1
 15122 00:6C5E: C2 20        	rep	#$20
 15123                        	longa	on
 15124 00:6C60: AD xx xx     	lda	|~~basicvars+62
 15125 00:6C63: 85 01        	sta	<R0
 15126 00:6C65: AD xx xx     	lda	|~~basicvars+62+2
 15127 00:6C68: 85 03        	sta	<R0+2
 15128 00:6C6A: A7 01        	lda	[<R0]
 15129 00:6C6C: 29 FF 00     	and	#$ff
 15130 00:6C6F: 82 99 00     	brl	L10735
 15131                        L10737:
 15132                        L10738:
 15133 00:6C72: A5 09        	lda	<L965+yes_1
 15134 00:6C74: 29 FF 00     	and	#$ff
 15135 00:6C77: 85 01        	sta	<R0
 15136 00:6C79: 06 01        	asl	<R0
 15137 00:6C7B: 06 01        	asl	<R0
 15138 00:6C7D: A5 01        	lda	<R0
 15139 00:6C7F: 29 04 00     	and	#<$4
 15140 00:6C82: 85 01        	sta	<R0
 15141 00:6C84: A9 04 00     	lda	#$4
 15142 00:6C87: 1C xx xx     	trb	|~~basicvars+425
 15143 00:6C8A: A5 01        	lda	<R0
 15144 00:6C8C: 0C xx xx     	tsb	|~~basicvars+425
 15145 00:6C8F: 82 95 00     	brl	L10736
 15146                        L10739:
 15147 00:6C92: A5 09        	lda	<L965+yes_1
 15148 00:6C94: 29 FF 00     	and	#$ff
 15149 00:6C97: 85 01        	sta	<R0
 15150 00:6C99: 06 01        	asl	<R0
 15151 00:6C9B: 06 01        	asl	<R0
 15152 00:6C9D: 06 01        	asl	<R0
 15153 00:6C9F: 06 01        	asl	<R0
 15154 00:6CA1: A5 01        	lda	<R0
 15155 00:6CA3: 29 10 00     	and	#<$10
 15156 00:6CA6: 85 01        	sta	<R0
 15157 00:6CA8: A9 10 00     	lda	#$10
 15158 00:6CAB: 1C xx xx     	trb	|~~basicvars+425
 15159 00:6CAE: A5 01        	lda	<R0
 15160 00:6CB0: 0C xx xx     	tsb	|~~basicvars+425
 15161 00:6CB3: 82 71 00     	brl	L10736
 15162                        L10740:
 15163 00:6CB6: A5 09        	lda	<L965+yes_1
 15164 00:6CB8: 29 FF 00     	and	#$ff
 15165 00:6CBB: 85 01        	sta	<R0
 15166 00:6CBD: 06 01        	asl	<R0
 15167 00:6CBF: 06 01        	asl	<R0
 15168 00:6CC1: 06 01        	asl	<R0
 15169 00:6CC3: A5 01        	lda	<R0
 15170 00:6CC5: 29 08 00     	and	#<$8
 15171 00:6CC8: 85 01        	sta	<R0
 15172 00:6CCA: A9 08 00     	lda	#$8
  Sun Jan  9 2022 20:52                                                Page 263


 15173 00:6CCD: 1C xx xx     	trb	|~~basicvars+425
 15174 00:6CD0: A5 01        	lda	<R0
 15175 00:6CD2: 0C xx xx     	tsb	|~~basicvars+425
 15176 00:6CD5: 82 4F 00     	brl	L10736
 15177                        L10741:
 15178 00:6CD8: A5 09        	lda	<L965+yes_1
 15179 00:6CDA: 29 FF 00     	and	#$ff
 15180 00:6CDD: 85 01        	sta	<R0
 15181 00:6CDF: 06 01        	asl	<R0
 15182 00:6CE1: 06 01        	asl	<R0
 15183 00:6CE3: 06 01        	asl	<R0
 15184 00:6CE5: 06 01        	asl	<R0
 15185 00:6CE7: 06 01        	asl	<R0
 15186 00:6CE9: A5 01        	lda	<R0
 15187 00:6CEB: 29 20 00     	and	#<$20
 15188 00:6CEE: 85 01        	sta	<R0
 15189 00:6CF0: A9 20 00     	lda	#$20
 15190 00:6CF3: 1C xx xx     	trb	|~~basicvars+425
 15191 00:6CF6: A5 01        	lda	<R0
 15192 00:6CF8: 0C xx xx     	tsb	|~~basicvars+425
 15193 00:6CFB: 82 29 00     	brl	L10736
 15194                        L10742:
 15195 00:6CFE: F4 63 00     	pea	#<$63
 15196 00:6D01: F4 04 00     	pea	#4
 15197 00:6D04: 22 xx xx xx  	jsl	~~error
 15198 00:6D08: 82 1C 00     	brl	L10736
 15199                        L10735:
 15200                        	xref	~~~swt
 15201 00:6D0B: 22 xx xx xx  	jsl	~~~swt
 15202 00:6D0F: 05 00        	dw	5
 15203 00:6D11: AD 00        	dw	173
 15204 00:6D13: xx xx        	dw	L10738-1
 15205 00:6D15: B1 00        	dw	177
 15206 00:6D17: xx xx        	dw	L10739-1
 15207 00:6D19: CD 00        	dw	205
 15208 00:6D1B: xx xx        	dw	L10737-1
 15209 00:6D1D: D5 00        	dw	213
 15210 00:6D1F: xx xx        	dw	L10741-1
 15211 00:6D21: D9 00        	dw	217
 15212 00:6D23: xx xx        	dw	L10740-1
 15213 00:6D25: xx xx        	dw	L10742-1
 15214                        L10736:
 15215 00:6D27: 64 01        	stz	<R0
 15216 00:6D29: AD xx xx     	lda	|~~basicvars+425
 15217 00:6D2C: 89 04 00     	bit	#$4
 15218 00:6D2F: F0 03        	beq	L985
 15219 00:6D31: 82 0B 00     	brl	L984
 15220                        L985:
 15221 00:6D34: AD xx xx     	lda	|~~basicvars+425
 15222 00:6D37: 89 10 00     	bit	#$10
 15223 00:6D3A: D0 03        	bne	L986
 15224 00:6D3C: 82 02 00     	brl	L983
 15225                        L986:
 15226                        L984:
 15227 00:6D3F: E6 01        	inc	<R0
 15228                        L983:
 15229 00:6D41: A5 01        	lda	<R0
 15230 00:6D43: 29 01 00     	and	#<$1
  Sun Jan  9 2022 20:52                                                Page 264


 15231 00:6D46: 85 01        	sta	<R0
 15232 00:6D48: A9 01 00     	lda	#$1
 15233 00:6D4B: 1C xx xx     	trb	|~~basicvars+425
 15234 00:6D4E: A5 01        	lda	<R0
 15235 00:6D50: 0C xx xx     	tsb	|~~basicvars+425
 15236 00:6D53: A5 0A        	lda	<L965+option_1
 15237 00:6D55: 29 FF 00     	and	#$ff
 15238 00:6D58: 85 01        	sta	<R0
 15239 00:6D5A: A6 01        	ldx	<R0
 15240 00:6D5C: BD xx xx     	lda	|~~ateol,X
 15241 00:6D5F: 29 FF 00     	and	#$ff
 15242 00:6D62: F0 03        	beq	L987
 15243 00:6D64: 82 08 00     	brl	L10743
 15244                        L987:
 15245 00:6D67: EE xx xx     	inc	|~~basicvars+62
 15246 00:6D6A: D0 03        	bne	L988
 15247 00:6D6C: EE xx xx     	inc	|~~basicvars+62+2
 15248                        L988:
 15249                        L10743:
 15250                        L10733:
 15251                        L10731:
 15252                        L10725:
 15253                        L10723:
 15254 00:6D6F: EE xx xx     	inc	|~~basicvars+62
 15255 00:6D72: D0 03        	bne	L989
 15256 00:6D74: EE xx xx     	inc	|~~basicvars+62+2
 15257                        L989:
 15258 00:6D77: 22 xx xx xx  	jsl	~~check_ateol
 15259 00:6D7B: 82 1C FE     	brl	L974
 15260             00000012   L964	equ	18
 15261             00000009   L965	equ	9
 15262                        	ends
 15263                        	efunc
 15264                        	code
 15265                        	xdef	~~exec_until
 15266                        	func
 15267                        ~~exec_until:
 15268                        	longa	on
 15269                        	longi	on
 15270 00:6D7E: 3B           	tsc
 15271 00:6D7F: 38           	sec
 15272 00:6D80: E9 0E 00     	sbc	#L990
 15273 00:6D83: 1B           	tcs
 15274 00:6D84: 0B           	phd
 15275 00:6D85: 5B           	tcd
 15276             00000000   here_1	set	0
 15277             00000004   rp_1	set	4
 15278             00000008   result_1	set	8
 15279 00:6D86: AD xx xx     	lda	|~~basicvars+42
 15280 00:6D89: 85 01        	sta	<R0
 15281 00:6D8B: AD xx xx     	lda	|~~basicvars+42+2
 15282 00:6D8E: 85 03        	sta	<R0+2
 15283 00:6D90: A7 01        	lda	[<R0]
 15284 00:6D92: C9 14 00     	cmp	#<$14
 15285 00:6D95: F0 03        	beq	L992
 15286 00:6D97: 82 0D 00     	brl	L10744
 15287                        L992:
 15288 00:6D9A: AD xx xx     	lda	|~~basicvars+42
  Sun Jan  9 2022 20:52                                                Page 265


 15289 00:6D9D: 85 09        	sta	<L991+rp_1
 15290 00:6D9F: AD xx xx     	lda	|~~basicvars+42+2
 15291 00:6DA2: 85 0B        	sta	<L991+rp_1+2
 15292 00:6DA4: 82 08 00     	brl	L10745
 15293                        L10744:
 15294 00:6DA7: 22 xx xx xx  	jsl	~~get_repeat
 15295 00:6DAB: 85 09        	sta	<L991+rp_1
 15296 00:6DAD: 86 0B        	stx	<L991+rp_1+2
 15297                        L10745:
 15298 00:6DAF: A5 09        	lda	<L991+rp_1
 15299 00:6DB1: 05 0B        	ora	<L991+rp_1+2
 15300 00:6DB3: F0 03        	beq	L993
 15301 00:6DB5: 82 0A 00     	brl	L10746
 15302                        L993:
 15303 00:6DB8: F4 34 00     	pea	#<$34
 15304 00:6DBB: F4 04 00     	pea	#4
 15305 00:6DBE: 22 xx xx xx  	jsl	~~error
 15306                        L10746:
 15307 00:6DC2: AD xx xx     	lda	|~~basicvars+489
 15308 00:6DC5: 29 FF 00     	and	#$ff
 15309 00:6DC8: D0 03        	bne	L994
 15310 00:6DCA: 82 0A 00     	brl	L10747
 15311                        L994:
 15312 00:6DCD: F4 08 00     	pea	#<$8
 15313 00:6DD0: F4 04 00     	pea	#4
 15314 00:6DD3: 22 xx xx xx  	jsl	~~error
 15315                        L10747:
 15316 00:6DD7: AD xx xx     	lda	|~~basicvars+62
 15317 00:6DDA: 85 05        	sta	<L991+here_1
 15318 00:6DDC: AD xx xx     	lda	|~~basicvars+62+2
 15319 00:6DDF: 85 07        	sta	<L991+here_1+2
 15320 00:6DE1: EE xx xx     	inc	|~~basicvars+62
 15321 00:6DE4: D0 03        	bne	L995
 15322 00:6DE6: EE xx xx     	inc	|~~basicvars+62+2
 15323                        L995:
 15324 00:6DE9: 22 xx xx xx  	jsl	~~expression
 15325 00:6DED: AD xx xx     	lda	|~~basicvars+42
 15326 00:6DF0: 85 01        	sta	<R0
 15327 00:6DF2: AD xx xx     	lda	|~~basicvars+42+2
 15328 00:6DF5: 85 03        	sta	<R0+2
 15329 00:6DF7: A7 01        	lda	[<R0]
 15330 00:6DF9: C9 02 00     	cmp	#<$2
 15331 00:6DFC: F0 03        	beq	L996
 15332 00:6DFE: 82 09 00     	brl	L10748
 15333                        L996:
 15334 00:6E01: 22 xx xx xx  	jsl	~~pop_int
 15335 00:6E05: 85 0D        	sta	<L991+result_1
 15336 00:6E07: 82 35 00     	brl	L10749
 15337                        L10748:
 15338 00:6E0A: AD xx xx     	lda	|~~basicvars+42
 15339 00:6E0D: 85 01        	sta	<R0
 15340 00:6E0F: AD xx xx     	lda	|~~basicvars+42+2
 15341 00:6E12: 85 03        	sta	<R0+2
 15342 00:6E14: A7 01        	lda	[<R0]
 15343 00:6E16: C9 03 00     	cmp	#<$3
 15344 00:6E19: F0 03        	beq	L997
 15345 00:6E1B: 82 17 00     	brl	L10750
 15346                        L997:
  Sun Jan  9 2022 20:52                                                Page 266


 15347 00:6E1E: 5A           	phy
 15348 00:6E1F: 5A           	phy
 15349 00:6E20: 22 xx xx xx  	jsl	~~pop_float
 15350                        	xref	~~~ffix
 15351 00:6E24: 22 xx xx xx  	jsl	~~~ffix
 15352 00:6E28: 68           	pla
 15353 00:6E29: 85 01        	sta	<R0
 15354 00:6E2B: 68           	pla
 15355 00:6E2C: 85 03        	sta	<R0+2
 15356 00:6E2E: A5 01        	lda	<R0
 15357 00:6E30: 85 0D        	sta	<L991+result_1
 15358 00:6E32: 82 0A 00     	brl	L10751
 15359                        L10750:
 15360 00:6E35: F4 3F 00     	pea	#<$3f
 15361 00:6E38: F4 04 00     	pea	#4
 15362 00:6E3B: 22 xx xx xx  	jsl	~~error
 15363                        L10751:
 15364                        L10749:
 15365 00:6E3F: A5 0D        	lda	<L991+result_1
 15366 00:6E41: F0 03        	beq	L998
 15367 00:6E43: 82 32 00     	brl	L10752
 15368                        L998:
 15369 00:6E46: AD xx xx     	lda	|~~basicvars+425
 15370 00:6E49: 89 10 00     	bit	#$10
 15371 00:6E4C: D0 03        	bne	L999
 15372 00:6E4E: 82 14 00     	brl	L10753
 15373                        L999:
 15374 00:6E51: A0 04 00     	ldy	#$4
 15375 00:6E54: B7 09        	lda	[<L991+rp_1],Y
 15376 00:6E56: 48           	pha
 15377 00:6E57: A0 02 00     	ldy	#$2
 15378 00:6E5A: B7 09        	lda	[<L991+rp_1],Y
 15379 00:6E5C: 48           	pha
 15380 00:6E5D: D4 07        	pei	<L991+here_1+2
 15381 00:6E5F: D4 05        	pei	<L991+here_1
 15382 00:6E61: 22 xx xx xx  	jsl	~~trace_branch
 15383                        L10753:
 15384 00:6E65: A0 02 00     	ldy	#$2
 15385 00:6E68: B7 09        	lda	[<L991+rp_1],Y
 15386 00:6E6A: 8D xx xx     	sta	|~~basicvars+62
 15387 00:6E6D: A0 04 00     	ldy	#$4
 15388 00:6E70: B7 09        	lda	[<L991+rp_1],Y
 15389 00:6E72: 8D xx xx     	sta	|~~basicvars+62+2
 15390 00:6E75: 82 2C 00     	brl	L10754
 15391                        L10752:
 15392 00:6E78: 22 xx xx xx  	jsl	~~pop_repeat
 15393 00:6E7C: AD xx xx     	lda	|~~basicvars+62
 15394 00:6E7F: 85 01        	sta	<R0
 15395 00:6E81: AD xx xx     	lda	|~~basicvars+62+2
 15396 00:6E84: 85 03        	sta	<R0+2
 15397 00:6E86: A7 01        	lda	[<R0]
 15398 00:6E88: 29 FF 00     	and	#$ff
 15399 00:6E8B: 85 01        	sta	<R0
 15400 00:6E8D: A6 01        	ldx	<R0
 15401 00:6E8F: BD xx xx     	lda	|~~ateol,X
 15402 00:6E92: 29 FF 00     	and	#$ff
 15403 00:6E95: F0 03        	beq	L1000
 15404 00:6E97: 82 0A 00     	brl	L10755
  Sun Jan  9 2022 20:52                                                Page 267


 15405                        L1000:
 15406 00:6E9A: F4 05 00     	pea	#<$5
 15407 00:6E9D: F4 04 00     	pea	#4
 15408 00:6EA0: 22 xx xx xx  	jsl	~~error
 15409                        L10755:
 15410                        L10754:
 15411                        L1001:
 15412 00:6EA4: 2B           	pld
 15413 00:6EA5: 3B           	tsc
 15414 00:6EA6: 18           	clc
 15415 00:6EA7: 69 0E 00     	adc	#L990
 15416 00:6EAA: 1B           	tcs
 15417 00:6EAB: 6B           	rtl
 15418             0000000E   L990	equ	14
 15419             00000005   L991	equ	5
 15420                        	ends
 15421                        	efunc
 15422                        	code
 15423                        	xdef	~~exec_wait
 15424                        	func
 15425                        ~~exec_wait:
 15426                        	longa	on
 15427                        	longi	on
 15428 00:6EAC: 3B           	tsc
 15429 00:6EAD: 38           	sec
 15430 00:6EAE: E9 06 00     	sbc	#L1002
 15431 00:6EB1: 1B           	tcs
 15432 00:6EB2: 0B           	phd
 15433 00:6EB3: 5B           	tcd
 15434 00:6EB4: EE xx xx     	inc	|~~basicvars+62
 15435 00:6EB7: D0 03        	bne	L1004
 15436 00:6EB9: EE xx xx     	inc	|~~basicvars+62+2
 15437                        L1004:
 15438 00:6EBC: AD xx xx     	lda	|~~basicvars+62
 15439 00:6EBF: 85 01        	sta	<R0
 15440 00:6EC1: AD xx xx     	lda	|~~basicvars+62+2
 15441 00:6EC4: 85 03        	sta	<R0+2
 15442 00:6EC6: A7 01        	lda	[<R0]
 15443 00:6EC8: 29 FF 00     	and	#$ff
 15444 00:6ECB: 85 01        	sta	<R0
 15445 00:6ECD: A6 01        	ldx	<R0
 15446 00:6ECF: BD xx xx     	lda	|~~ateol,X
 15447 00:6ED2: 29 FF 00     	and	#$ff
 15448 00:6ED5: D0 03        	bne	L1005
 15449 00:6ED7: 82 07 00     	brl	L10756
 15450                        L1005:
 15451 00:6EDA: 22 xx xx xx  	jsl	~~emulate_wait
 15452 00:6EDE: 82 10 00     	brl	L10757
 15453                        L10756:
 15454             00000000   delay_2	set	0
 15455 00:6EE1: 22 xx xx xx  	jsl	~~eval_integer
 15456 00:6EE5: 85 05        	sta	<L1003+delay_2
 15457 00:6EE7: 22 xx xx xx  	jsl	~~check_ateol
 15458 00:6EEB: D4 05        	pei	<L1003+delay_2
 15459 00:6EED: 22 xx xx xx  	jsl	~~emulate_waitdelay
 15460                        L10757:
 15461                        L1006:
 15462 00:6EF1: 2B           	pld
  Sun Jan  9 2022 20:52                                                Page 268


 15463 00:6EF2: 3B           	tsc
 15464 00:6EF3: 18           	clc
 15465 00:6EF4: 69 06 00     	adc	#L1002
 15466 00:6EF7: 1B           	tcs
 15467 00:6EF8: 6B           	rtl
 15468             00000006   L1002	equ	6
 15469             00000005   L1003	equ	5
 15470                        	ends
 15471                        	efunc
 15472                        	code
 15473                        	xdef	~~exec_xwhen
 15474                        	func
 15475                        ~~exec_xwhen:
 15476                        	longa	on
 15477                        	longi	on
 15478 00:6EF9: 3B           	tsc
 15479 00:6EFA: 38           	sec
 15480 00:6EFB: E9 16 00     	sbc	#L1007
 15481 00:6EFE: 1B           	tcs
 15482 00:6EFF: 0B           	phd
 15483 00:6F00: 5B           	tcd
 15484             00000000   lp_1	set	0
 15485             00000004   lp2_1	set	4
 15486             00000008   depth_1	set	8
 15487 00:6F01: 18           	clc
 15488 00:6F02: A9 03 00     	lda	#$3
 15489 00:6F05: 6D xx xx     	adc	|~~basicvars+62
 15490 00:6F08: 85 0D        	sta	<L1008+lp_1
 15491 00:6F0A: A9 00 00     	lda	#$0
 15492 00:6F0D: 6D xx xx     	adc	|~~basicvars+62+2
 15493 00:6F10: 85 0F        	sta	<L1008+lp_1+2
 15494                        L10758:
 15495 00:6F12: A7 0D        	lda	[<L1008+lp_1]
 15496 00:6F14: 29 FF 00     	and	#$ff
 15497 00:6F17: D0 03        	bne	L1009
 15498 00:6F19: 82 0F 00     	brl	L10759
 15499                        L1009:
 15500 00:6F1C: D4 0F        	pei	<L1008+lp_1+2
 15501 00:6F1E: D4 0D        	pei	<L1008+lp_1
 15502 00:6F20: 22 xx xx xx  	jsl	~~skip_token
 15503 00:6F24: 85 0D        	sta	<L1008+lp_1
 15504 00:6F26: 86 0F        	stx	<L1008+lp_1+2
 15505 00:6F28: 82 E7 FF     	brl	L10758
 15506                        L10759:
 15507 00:6F2B: E6 0D        	inc	<L1008+lp_1
 15508 00:6F2D: D0 02        	bne	L1010
 15509 00:6F2F: E6 0F        	inc	<L1008+lp_1+2
 15510                        L1010:
 15511 00:6F31: A9 01 00     	lda	#$1
 15512 00:6F34: 85 15        	sta	<L1008+depth_1
 15513                        L10762:
 15514 00:6F36: E2 20        	sep	#$20
 15515                        	longa	off
 15516 00:6F38: A0 01 00     	ldy	#$1
 15517 00:6F3B: B7 0D        	lda	[<L1008+lp_1],Y
 15518 00:6F3D: C9 FF        	cmp	#<$ff
 15519 00:6F3F: C2 20        	rep	#$20
 15520                        	longa	on
  Sun Jan  9 2022 20:52                                                Page 269


 15521 00:6F41: F0 03        	beq	L1011
 15522 00:6F43: 82 0A 00     	brl	L10763
 15523                        L1011:
 15524 00:6F46: F4 2F 00     	pea	#<$2f
 15525 00:6F49: F4 04 00     	pea	#4
 15526 00:6F4C: 22 xx xx xx  	jsl	~~error
 15527                        L10763:
 15528 00:6F50: A0 05 00     	ldy	#$5
 15529 00:6F53: B7 0D        	lda	[<L1008+lp_1],Y
 15530 00:6F55: 29 FF 00     	and	#$ff
 15531 00:6F58: 85 05        	sta	<R1
 15532 00:6F5A: A5 05        	lda	<R1
 15533 00:6F5C: EB           	xba
 15534 00:6F5D: 29 00 FF     	and	#$ff00
 15535 00:6F60: 85 01        	sta	<R0
 15536 00:6F62: A0 00 00     	ldy	#$0
 15537 00:6F65: A5 01        	lda	<R0
 15538 00:6F67: 10 01        	bpl	L1012
 15539 00:6F69: 88           	dey
 15540                        L1012:
 15541 00:6F6A: 85 01        	sta	<R0
 15542 00:6F6C: 84 03        	sty	<R0+2
 15543 00:6F6E: A0 04 00     	ldy	#$4
 15544 00:6F71: B7 0D        	lda	[<L1008+lp_1],Y
 15545 00:6F73: 29 FF 00     	and	#$ff
 15546 00:6F76: 85 05        	sta	<R1
 15547 00:6F78: 64 07        	stz	<R1+2
 15548 00:6F7A: 18           	clc
 15549 00:6F7B: A5 05        	lda	<R1
 15550 00:6F7D: 65 01        	adc	<R0
 15551 00:6F7F: 85 09        	sta	<R2
 15552 00:6F81: A5 07        	lda	<R1+2
 15553 00:6F83: 65 03        	adc	<R0+2
 15554 00:6F85: 85 0B        	sta	<R2+2
 15555 00:6F87: 18           	clc
 15556 00:6F88: A5 0D        	lda	<L1008+lp_1
 15557 00:6F8A: 65 09        	adc	<R2
 15558 00:6F8C: 85 11        	sta	<L1008+lp2_1
 15559 00:6F8E: A5 0F        	lda	<L1008+lp_1+2
 15560 00:6F90: 65 0B        	adc	<R2+2
 15561 00:6F92: 85 13        	sta	<L1008+lp2_1+2
 15562 00:6F94: E2 20        	sep	#$20
 15563                        	longa	off
 15564 00:6F96: A7 11        	lda	[<L1008+lp2_1]
 15565 00:6F98: C9 A4        	cmp	#<$a4
 15566 00:6F9A: C2 20        	rep	#$20
 15567                        	longa	on
 15568 00:6F9C: F0 03        	beq	L1013
 15569 00:6F9E: 82 0C 00     	brl	L10764
 15570                        L1013:
 15571 00:6FA1: C6 15        	dec	<L1008+depth_1
 15572 00:6FA3: A5 15        	lda	<L1008+depth_1
 15573 00:6FA5: D0 03        	bne	L1014
 15574 00:6FA7: 82 80 00     	brl	L10761
 15575                        L1014:
 15576 00:6FAA: 82 3F 00     	brl	L10765
 15577                        L10764:
 15578                        L10766:
  Sun Jan  9 2022 20:52                                                Page 270


 15579 00:6FAD: A7 11        	lda	[<L1008+lp2_1]
 15580 00:6FAF: 29 FF 00     	and	#$ff
 15581 00:6FB2: D0 03        	bne	L1015
 15582 00:6FB4: 82 29 00     	brl	L10767
 15583                        L1015:
 15584 00:6FB7: E2 20        	sep	#$20
 15585                        	longa	off
 15586 00:6FB9: A7 11        	lda	[<L1008+lp2_1]
 15587 00:6FBB: C9 90        	cmp	#<$90
 15588 00:6FBD: C2 20        	rep	#$20
 15589                        	longa	on
 15590 00:6FBF: D0 03        	bne	L1016
 15591 00:6FC1: 82 1C 00     	brl	L10767
 15592                        L1016:
 15593 00:6FC4: E2 20        	sep	#$20
 15594                        	longa	off
 15595 00:6FC6: A7 11        	lda	[<L1008+lp2_1]
 15596 00:6FC8: C9 91        	cmp	#<$91
 15597 00:6FCA: C2 20        	rep	#$20
 15598                        	longa	on
 15599 00:6FCC: D0 03        	bne	L1017
 15600 00:6FCE: 82 0F 00     	brl	L10767
 15601                        L1017:
 15602 00:6FD1: D4 13        	pei	<L1008+lp2_1+2
 15603 00:6FD3: D4 11        	pei	<L1008+lp2_1
 15604 00:6FD5: 22 xx xx xx  	jsl	~~skip_token
 15605 00:6FD9: 85 11        	sta	<L1008+lp2_1
 15606 00:6FDB: 86 13        	stx	<L1008+lp2_1+2
 15607 00:6FDD: 82 CD FF     	brl	L10766
 15608                        L10767:
 15609 00:6FE0: A7 11        	lda	[<L1008+lp2_1]
 15610 00:6FE2: 29 FF 00     	and	#$ff
 15611 00:6FE5: D0 03        	bne	L1018
 15612 00:6FE7: 82 02 00     	brl	L10768
 15613                        L1018:
 15614 00:6FEA: E6 15        	inc	<L1008+depth_1
 15615                        L10768:
 15616                        L10765:
 15617 00:6FEC: A0 02 00     	ldy	#$2
 15618 00:6FEF: B7 0D        	lda	[<L1008+lp_1],Y
 15619 00:6FF1: 29 FF 00     	and	#$ff
 15620 00:6FF4: 85 01        	sta	<R0
 15621 00:6FF6: A0 03 00     	ldy	#$3
 15622 00:6FF9: B7 0D        	lda	[<L1008+lp_1],Y
 15623 00:6FFB: 29 FF 00     	and	#$ff
 15624 00:6FFE: 85 09        	sta	<R2
 15625 00:7000: A5 09        	lda	<R2
 15626 00:7002: EB           	xba
 15627 00:7003: 29 00 FF     	and	#$ff00
 15628 00:7006: 85 05        	sta	<R1
 15629 00:7008: A5 05        	lda	<R1
 15630 00:700A: 05 01        	ora	<R0
 15631 00:700C: 85 09        	sta	<R2
 15632 00:700E: A0 00 00     	ldy	#$0
 15633 00:7011: A5 09        	lda	<R2
 15634 00:7013: 10 01        	bpl	L1019
 15635 00:7015: 88           	dey
 15636                        L1019:
  Sun Jan  9 2022 20:52                                                Page 271


 15637 00:7016: 85 01        	sta	<R0
 15638 00:7018: 84 03        	sty	<R0+2
 15639 00:701A: 18           	clc
 15640 00:701B: A5 0D        	lda	<L1008+lp_1
 15641 00:701D: 65 01        	adc	<R0
 15642 00:701F: 85 0D        	sta	<L1008+lp_1
 15643 00:7021: A5 0F        	lda	<L1008+lp_1+2
 15644 00:7023: 65 03        	adc	<R0+2
 15645 00:7025: 85 0F        	sta	<L1008+lp_1+2
 15646                        L10760:
 15647 00:7027: 82 0C FF     	brl	L10762
 15648                        L10761:
 15649 00:702A: E6 11        	inc	<L1008+lp2_1
 15650 00:702C: D0 02        	bne	L1020
 15651 00:702E: E6 13        	inc	<L1008+lp2_1+2
 15652                        L1020:
 15653 00:7030: E2 20        	sep	#$20
 15654                        	longa	off
 15655 00:7032: A7 11        	lda	[<L1008+lp2_1]
 15656 00:7034: C9 3A        	cmp	#<$3a
 15657 00:7036: C2 20        	rep	#$20
 15658                        	longa	on
 15659 00:7038: F0 03        	beq	L1021
 15660 00:703A: 82 06 00     	brl	L10769
 15661                        L1021:
 15662 00:703D: E6 11        	inc	<L1008+lp2_1
 15663 00:703F: D0 02        	bne	L1022
 15664 00:7041: E6 13        	inc	<L1008+lp2_1+2
 15665                        L1022:
 15666                        L10769:
 15667 00:7043: A7 11        	lda	[<L1008+lp2_1]
 15668 00:7045: 29 FF 00     	and	#$ff
 15669 00:7048: F0 03        	beq	L1023
 15670 00:704A: 82 4A 00     	brl	L10770
 15671                        L1023:
 15672 00:704D: E6 11        	inc	<L1008+lp2_1
 15673 00:704F: D0 02        	bne	L1024
 15674 00:7051: E6 13        	inc	<L1008+lp2_1+2
 15675                        L1024:
 15676 00:7053: A0 05 00     	ldy	#$5
 15677 00:7056: B7 11        	lda	[<L1008+lp2_1],Y
 15678 00:7058: 29 FF 00     	and	#$ff
 15679 00:705B: 85 05        	sta	<R1
 15680 00:705D: A5 05        	lda	<R1
 15681 00:705F: EB           	xba
 15682 00:7060: 29 00 FF     	and	#$ff00
 15683 00:7063: 85 01        	sta	<R0
 15684 00:7065: A0 00 00     	ldy	#$0
 15685 00:7068: A5 01        	lda	<R0
 15686 00:706A: 10 01        	bpl	L1025
 15687 00:706C: 88           	dey
 15688                        L1025:
 15689 00:706D: 85 01        	sta	<R0
 15690 00:706F: 84 03        	sty	<R0+2
 15691 00:7071: A0 04 00     	ldy	#$4
 15692 00:7074: B7 11        	lda	[<L1008+lp2_1],Y
 15693 00:7076: 29 FF 00     	and	#$ff
 15694 00:7079: 85 05        	sta	<R1
  Sun Jan  9 2022 20:52                                                Page 272


 15695 00:707B: 64 07        	stz	<R1+2
 15696 00:707D: 18           	clc
 15697 00:707E: A5 05        	lda	<R1
 15698 00:7080: 65 01        	adc	<R0
 15699 00:7082: 85 09        	sta	<R2
 15700 00:7084: A5 07        	lda	<R1+2
 15701 00:7086: 65 03        	adc	<R0+2
 15702 00:7088: 85 0B        	sta	<R2+2
 15703 00:708A: 18           	clc
 15704 00:708B: A5 11        	lda	<L1008+lp2_1
 15705 00:708D: 65 09        	adc	<R2
 15706 00:708F: 85 11        	sta	<L1008+lp2_1
 15707 00:7091: A5 13        	lda	<L1008+lp2_1+2
 15708 00:7093: 65 0B        	adc	<R2+2
 15709 00:7095: 85 13        	sta	<L1008+lp2_1+2
 15710                        L10770:
 15711 00:7097: D4 13        	pei	<L1008+lp2_1+2
 15712 00:7099: D4 11        	pei	<L1008+lp2_1
 15713 00:709B: 18           	clc
 15714 00:709C: A9 01 00     	lda	#$1
 15715 00:709F: 6D xx xx     	adc	|~~basicvars+62
 15716 00:70A2: 85 01        	sta	<R0
 15717 00:70A4: A9 00 00     	lda	#$0
 15718 00:70A7: 6D xx xx     	adc	|~~basicvars+62+2
 15719 00:70AA: 85 03        	sta	<R0+2
 15720 00:70AC: D4 03        	pei	<R0+2
 15721 00:70AE: D4 01        	pei	<R0
 15722 00:70B0: 22 xx xx xx  	jsl	~~set_dest
 15723 00:70B4: 22 xx xx xx  	jsl	~~exec_elsewhen
 15724                        L1026:
 15725 00:70B8: 2B           	pld
 15726 00:70B9: 3B           	tsc
 15727 00:70BA: 18           	clc
 15728 00:70BB: 69 16 00     	adc	#L1007
 15729 00:70BE: 1B           	tcs
 15730 00:70BF: 6B           	rtl
 15731             00000016   L1007	equ	22
 15732             0000000D   L1008	equ	13
 15733                        	ends
 15734                        	efunc
 15735                        	code
 15736                        	xdef	~~exec_while
 15737                        	func
 15738                        ~~exec_while:
 15739                        	longa	on
 15740                        	longi	on
 15741 00:70C0: 3B           	tsc
 15742 00:70C1: 38           	sec
 15743 00:70C2: E9 18 00     	sbc	#L1027
 15744 00:70C5: 1B           	tcs
 15745 00:70C6: 0B           	phd
 15746 00:70C7: 5B           	tcd
 15747             00000000   expr_1	set	0
 15748             00000004   here_1	set	4
 15749             00000008   result_1	set	8
 15750 00:70C8: AD xx xx     	lda	|~~basicvars+62
 15751 00:70CB: 85 11        	sta	<L1028+here_1
 15752 00:70CD: AD xx xx     	lda	|~~basicvars+62+2
  Sun Jan  9 2022 20:52                                                Page 273


 15753 00:70D0: 85 13        	sta	<L1028+here_1+2
 15754 00:70D2: 18           	clc
 15755 00:70D3: A9 03 00     	lda	#$3
 15756 00:70D6: 6D xx xx     	adc	|~~basicvars+62
 15757 00:70D9: 8D xx xx     	sta	|~~basicvars+62
 15758 00:70DC: 90 03        	bcc	L1029
 15759 00:70DE: EE xx xx     	inc	|~~basicvars+62+2
 15760                        L1029:
 15761 00:70E1: AD xx xx     	lda	|~~basicvars+62
 15762 00:70E4: 85 0D        	sta	<L1028+expr_1
 15763 00:70E6: AD xx xx     	lda	|~~basicvars+62+2
 15764 00:70E9: 85 0F        	sta	<L1028+expr_1+2
 15765 00:70EB: 22 xx xx xx  	jsl	~~expression
 15766 00:70EF: AD xx xx     	lda	|~~basicvars+42
 15767 00:70F2: 85 01        	sta	<R0
 15768 00:70F4: AD xx xx     	lda	|~~basicvars+42+2
 15769 00:70F7: 85 03        	sta	<R0+2
 15770 00:70F9: A7 01        	lda	[<R0]
 15771 00:70FB: C9 02 00     	cmp	#<$2
 15772 00:70FE: F0 03        	beq	L1030
 15773 00:7100: 82 09 00     	brl	L10771
 15774                        L1030:
 15775 00:7103: 22 xx xx xx  	jsl	~~pop_int
 15776 00:7107: 85 15        	sta	<L1028+result_1
 15777 00:7109: 82 35 00     	brl	L10772
 15778                        L10771:
 15779 00:710C: AD xx xx     	lda	|~~basicvars+42
 15780 00:710F: 85 01        	sta	<R0
 15781 00:7111: AD xx xx     	lda	|~~basicvars+42+2
 15782 00:7114: 85 03        	sta	<R0+2
 15783 00:7116: A7 01        	lda	[<R0]
 15784 00:7118: C9 03 00     	cmp	#<$3
 15785 00:711B: F0 03        	beq	L1031
 15786 00:711D: 82 17 00     	brl	L10773
 15787                        L1031:
 15788 00:7120: 5A           	phy
 15789 00:7121: 5A           	phy
 15790 00:7122: 22 xx xx xx  	jsl	~~pop_float
 15791                        	xref	~~~ffix
 15792 00:7126: 22 xx xx xx  	jsl	~~~ffix
 15793 00:712A: 68           	pla
 15794 00:712B: 85 01        	sta	<R0
 15795 00:712D: 68           	pla
 15796 00:712E: 85 03        	sta	<R0+2
 15797 00:7130: A5 01        	lda	<R0
 15798 00:7132: 85 15        	sta	<L1028+result_1
 15799 00:7134: 82 0A 00     	brl	L10774
 15800                        L10773:
 15801 00:7137: F4 3F 00     	pea	#<$3f
 15802 00:713A: F4 04 00     	pea	#4
 15803 00:713D: 22 xx xx xx  	jsl	~~error
 15804                        L10774:
 15805                        L10772:
 15806 00:7141: A5 15        	lda	<L1028+result_1
 15807 00:7143: D0 03        	bne	L1032
 15808 00:7145: 82 BE 00     	brl	L10775
 15809                        L1032:
 15810 00:7148: AD xx xx     	lda	|~~basicvars+62
  Sun Jan  9 2022 20:52                                                Page 274


 15811 00:714B: 85 01        	sta	<R0
 15812 00:714D: AD xx xx     	lda	|~~basicvars+62+2
 15813 00:7150: 85 03        	sta	<R0+2
 15814 00:7152: E2 20        	sep	#$20
 15815                        	longa	off
 15816 00:7154: A7 01        	lda	[<R0]
 15817 00:7156: C9 3A        	cmp	#<$3a
 15818 00:7158: C2 20        	rep	#$20
 15819                        	longa	on
 15820 00:715A: F0 03        	beq	L1033
 15821 00:715C: 82 08 00     	brl	L10776
 15822                        L1033:
 15823 00:715F: EE xx xx     	inc	|~~basicvars+62
 15824 00:7162: D0 03        	bne	L1034
 15825 00:7164: EE xx xx     	inc	|~~basicvars+62+2
 15826                        L1034:
 15827                        L10776:
 15828 00:7167: AD xx xx     	lda	|~~basicvars+62
 15829 00:716A: 85 01        	sta	<R0
 15830 00:716C: AD xx xx     	lda	|~~basicvars+62+2
 15831 00:716F: 85 03        	sta	<R0+2
 15832 00:7171: A7 01        	lda	[<R0]
 15833 00:7173: 29 FF 00     	and	#$ff
 15834 00:7176: F0 03        	beq	L1035
 15835 00:7178: 82 80 00     	brl	L10777
 15836                        L1035:
 15837 00:717B: EE xx xx     	inc	|~~basicvars+62
 15838 00:717E: D0 03        	bne	L1036
 15839 00:7180: EE xx xx     	inc	|~~basicvars+62+2
 15840                        L1036:
 15841 00:7183: AD xx xx     	lda	|~~basicvars+425
 15842 00:7186: 89 02 00     	bit	#$2
 15843 00:7189: D0 03        	bne	L1037
 15844 00:718B: 82 11 00     	brl	L10778
 15845                        L1037:
 15846 00:718E: AD xx xx     	lda	|~~basicvars+62+2
 15847 00:7191: 48           	pha
 15848 00:7192: AD xx xx     	lda	|~~basicvars+62
 15849 00:7195: 48           	pha
 15850 00:7196: 22 xx xx xx  	jsl	~~get_lineno
 15851 00:719A: 48           	pha
 15852 00:719B: 22 xx xx xx  	jsl	~~trace_line
 15853                        L10778:
 15854 00:719F: AD xx xx     	lda	|~~basicvars+62
 15855 00:71A2: 85 05        	sta	<R1
 15856 00:71A4: AD xx xx     	lda	|~~basicvars+62+2
 15857 00:71A7: 85 07        	sta	<R1+2
 15858 00:71A9: A0 05 00     	ldy	#$5
 15859 00:71AC: B7 05        	lda	[<R1],Y
 15860 00:71AE: 29 FF 00     	and	#$ff
 15861 00:71B1: 85 05        	sta	<R1
 15862 00:71B3: A5 05        	lda	<R1
 15863 00:71B5: EB           	xba
 15864 00:71B6: 29 00 FF     	and	#$ff00
 15865 00:71B9: 85 01        	sta	<R0
 15866 00:71BB: A0 00 00     	ldy	#$0
 15867 00:71BE: A5 01        	lda	<R0
 15868 00:71C0: 10 01        	bpl	L1038
  Sun Jan  9 2022 20:52                                                Page 275


 15869 00:71C2: 88           	dey
 15870                        L1038:
 15871 00:71C3: 85 01        	sta	<R0
 15872 00:71C5: 84 03        	sty	<R0+2
 15873 00:71C7: AD xx xx     	lda	|~~basicvars+62
 15874 00:71CA: 85 05        	sta	<R1
 15875 00:71CC: AD xx xx     	lda	|~~basicvars+62+2
 15876 00:71CF: 85 07        	sta	<R1+2
 15877 00:71D1: A0 04 00     	ldy	#$4
 15878 00:71D4: B7 05        	lda	[<R1],Y
 15879 00:71D6: 29 FF 00     	and	#$ff
 15880 00:71D9: 85 05        	sta	<R1
 15881 00:71DB: 64 07        	stz	<R1+2
 15882 00:71DD: 18           	clc
 15883 00:71DE: A5 05        	lda	<R1
 15884 00:71E0: 65 01        	adc	<R0
 15885 00:71E2: 85 09        	sta	<R2
 15886 00:71E4: A5 07        	lda	<R1+2
 15887 00:71E6: 65 03        	adc	<R0+2
 15888 00:71E8: 85 0B        	sta	<R2+2
 15889 00:71EA: 18           	clc
 15890 00:71EB: AD xx xx     	lda	|~~basicvars+62
 15891 00:71EE: 65 09        	adc	<R2
 15892 00:71F0: 8D xx xx     	sta	|~~basicvars+62
 15893 00:71F3: AD xx xx     	lda	|~~basicvars+62+2
 15894 00:71F6: 65 0B        	adc	<R2+2
 15895 00:71F8: 8D xx xx     	sta	|~~basicvars+62+2
 15896                        L10777:
 15897 00:71FB: D4 0F        	pei	<L1028+expr_1+2
 15898 00:71FD: D4 0D        	pei	<L1028+expr_1
 15899 00:71FF: 22 xx xx xx  	jsl	~~push_while
 15900 00:7203: 82 8A 02     	brl	L10779
 15901                        L10775:
 15902 00:7206: E2 20        	sep	#$20
 15903                        	longa	off
 15904 00:7208: A7 11        	lda	[<L1028+here_1]
 15905 00:720A: C9 EC        	cmp	#<$ec
 15906 00:720C: C2 20        	rep	#$20
 15907                        	longa	on
 15908 00:720E: F0 03        	beq	L1039
 15909 00:7210: 82 5E 00     	brl	L10780
 15910                        L1039:
 15911 00:7213: E6 11        	inc	<L1028+here_1
 15912 00:7215: D0 02        	bne	L1040
 15913 00:7217: E6 13        	inc	<L1028+here_1+2
 15914                        L1040:
 15915 00:7219: A7 11        	lda	[<L1028+here_1]
 15916 00:721B: 29 FF 00     	and	#$ff
 15917 00:721E: 85 01        	sta	<R0
 15918 00:7220: A0 01 00     	ldy	#$1
 15919 00:7223: B7 11        	lda	[<L1028+here_1],Y
 15920 00:7225: 29 FF 00     	and	#$ff
 15921 00:7228: 85 09        	sta	<R2
 15922 00:722A: A5 09        	lda	<R2
 15923 00:722C: EB           	xba
 15924 00:722D: 29 00 FF     	and	#$ff00
 15925 00:7230: 85 05        	sta	<R1
 15926 00:7232: A5 05        	lda	<R1
  Sun Jan  9 2022 20:52                                                Page 276


 15927 00:7234: 05 01        	ora	<R0
 15928 00:7236: 85 09        	sta	<R2
 15929 00:7238: A0 00 00     	ldy	#$0
 15930 00:723B: A5 09        	lda	<R2
 15931 00:723D: 10 01        	bpl	L1041
 15932 00:723F: 88           	dey
 15933                        L1041:
 15934 00:7240: 85 01        	sta	<R0
 15935 00:7242: 84 03        	sty	<R0+2
 15936 00:7244: 18           	clc
 15937 00:7245: A5 11        	lda	<L1028+here_1
 15938 00:7247: 65 01        	adc	<R0
 15939 00:7249: 8D xx xx     	sta	|~~basicvars+62
 15940 00:724C: A5 13        	lda	<L1028+here_1+2
 15941 00:724E: 65 03        	adc	<R0+2
 15942 00:7250: 8D xx xx     	sta	|~~basicvars+62+2
 15943 00:7253: AD xx xx     	lda	|~~basicvars+425
 15944 00:7256: 89 10 00     	bit	#$10
 15945 00:7259: D0 03        	bne	L1042
 15946 00:725B: 82 10 00     	brl	L10781
 15947                        L1042:
 15948 00:725E: AD xx xx     	lda	|~~basicvars+62+2
 15949 00:7261: 48           	pha
 15950 00:7262: AD xx xx     	lda	|~~basicvars+62
 15951 00:7265: 48           	pha
 15952 00:7266: D4 13        	pei	<L1028+here_1+2
 15953 00:7268: D4 11        	pei	<L1028+here_1
 15954 00:726A: 22 xx xx xx  	jsl	~~trace_branch
 15955                        L10781:
 15956 00:726E: 82 1F 02     	brl	L10782
 15957                        L10780:
 15958             0000000A   depth_2	set	10
 15959 00:7271: A9 01 00     	lda	#$1
 15960 00:7274: 85 17        	sta	<L1028+depth_2
 15961                        L10783:
 15962 00:7276: 38           	sec
 15963 00:7277: A9 00 00     	lda	#$0
 15964 00:727A: E5 17        	sbc	<L1028+depth_2
 15965 00:727C: 70 03        	bvs	L1043
 15966 00:727E: 49 00 80     	eor	#$8000
 15967                        L1043:
 15968 00:7281: 10 03        	bpl	L1044
 15969 00:7283: 82 0D 01     	brl	L10784
 15970                        L1044:
 15971 00:7286: AD xx xx     	lda	|~~basicvars+62
 15972 00:7289: 85 01        	sta	<R0
 15973 00:728B: AD xx xx     	lda	|~~basicvars+62+2
 15974 00:728E: 85 03        	sta	<R0+2
 15975 00:7290: A7 01        	lda	[<R0]
 15976 00:7292: 29 FF 00     	and	#$ff
 15977 00:7295: F0 03        	beq	L1045
 15978 00:7297: 82 88 00     	brl	L10785
 15979                        L1045:
 15980 00:729A: EE xx xx     	inc	|~~basicvars+62
 15981 00:729D: D0 03        	bne	L1046
 15982 00:729F: EE xx xx     	inc	|~~basicvars+62+2
 15983                        L1046:
 15984 00:72A2: AD xx xx     	lda	|~~basicvars+62
  Sun Jan  9 2022 20:52                                                Page 277


 15985 00:72A5: 85 01        	sta	<R0
 15986 00:72A7: AD xx xx     	lda	|~~basicvars+62+2
 15987 00:72AA: 85 03        	sta	<R0+2
 15988 00:72AC: E2 20        	sep	#$20
 15989                        	longa	off
 15990 00:72AE: A0 01 00     	ldy	#$1
 15991 00:72B1: B7 01        	lda	[<R0],Y
 15992 00:72B3: C9 FF        	cmp	#<$ff
 15993 00:72B5: C2 20        	rep	#$20
 15994                        	longa	on
 15995 00:72B7: F0 03        	beq	L1047
 15996 00:72B9: 82 0A 00     	brl	L10786
 15997                        L1047:
 15998 00:72BC: F4 2E 00     	pea	#<$2e
 15999 00:72BF: F4 04 00     	pea	#4
 16000 00:72C2: 22 xx xx xx  	jsl	~~error
 16001                        L10786:
 16002 00:72C6: AD xx xx     	lda	|~~basicvars+62
 16003 00:72C9: 85 05        	sta	<R1
 16004 00:72CB: AD xx xx     	lda	|~~basicvars+62+2
 16005 00:72CE: 85 07        	sta	<R1+2
 16006 00:72D0: A0 05 00     	ldy	#$5
 16007 00:72D3: B7 05        	lda	[<R1],Y
 16008 00:72D5: 29 FF 00     	and	#$ff
 16009 00:72D8: 85 05        	sta	<R1
 16010 00:72DA: A5 05        	lda	<R1
 16011 00:72DC: EB           	xba
 16012 00:72DD: 29 00 FF     	and	#$ff00
 16013 00:72E0: 85 01        	sta	<R0
 16014 00:72E2: A0 00 00     	ldy	#$0
 16015 00:72E5: A5 01        	lda	<R0
 16016 00:72E7: 10 01        	bpl	L1048
 16017 00:72E9: 88           	dey
 16018                        L1048:
 16019 00:72EA: 85 01        	sta	<R0
 16020 00:72EC: 84 03        	sty	<R0+2
 16021 00:72EE: AD xx xx     	lda	|~~basicvars+62
 16022 00:72F1: 85 05        	sta	<R1
 16023 00:72F3: AD xx xx     	lda	|~~basicvars+62+2
 16024 00:72F6: 85 07        	sta	<R1+2
 16025 00:72F8: A0 04 00     	ldy	#$4
 16026 00:72FB: B7 05        	lda	[<R1],Y
 16027 00:72FD: 29 FF 00     	and	#$ff
 16028 00:7300: 85 05        	sta	<R1
 16029 00:7302: 64 07        	stz	<R1+2
 16030 00:7304: 18           	clc
 16031 00:7305: A5 05        	lda	<R1
 16032 00:7307: 65 01        	adc	<R0
 16033 00:7309: 85 09        	sta	<R2
 16034 00:730B: A5 07        	lda	<R1+2
 16035 00:730D: 65 03        	adc	<R0+2
 16036 00:730F: 85 0B        	sta	<R2+2
 16037 00:7311: 18           	clc
 16038 00:7312: AD xx xx     	lda	|~~basicvars+62
 16039 00:7315: 65 09        	adc	<R2
 16040 00:7317: 8D xx xx     	sta	|~~basicvars+62
 16041 00:731A: AD xx xx     	lda	|~~basicvars+62+2
 16042 00:731D: 65 0B        	adc	<R2+2
  Sun Jan  9 2022 20:52                                                Page 278


 16043 00:731F: 8D xx xx     	sta	|~~basicvars+62+2
 16044                        L10785:
 16045 00:7322: AD xx xx     	lda	|~~basicvars+62
 16046 00:7325: 85 01        	sta	<R0
 16047 00:7327: AD xx xx     	lda	|~~basicvars+62+2
 16048 00:732A: 85 03        	sta	<R0+2
 16049 00:732C: E2 20        	sep	#$20
 16050                        	longa	off
 16051 00:732E: A7 01        	lda	[<R0]
 16052 00:7330: C9 A7        	cmp	#<$a7
 16053 00:7332: C2 20        	rep	#$20
 16054                        	longa	on
 16055 00:7334: F0 03        	beq	L1049
 16056 00:7336: 82 05 00     	brl	L10787
 16057                        L1049:
 16058 00:7339: C6 17        	dec	<L1028+depth_2
 16059 00:733B: 82 30 00     	brl	L10788
 16060                        L10787:
 16061 00:733E: AD xx xx     	lda	|~~basicvars+62
 16062 00:7341: 85 01        	sta	<R0
 16063 00:7343: AD xx xx     	lda	|~~basicvars+62+2
 16064 00:7346: 85 03        	sta	<R0+2
 16065 00:7348: E2 20        	sep	#$20
 16066                        	longa	off
 16067 00:734A: A7 01        	lda	[<R0]
 16068 00:734C: C9 EC        	cmp	#<$ec
 16069 00:734E: C2 20        	rep	#$20
 16070                        	longa	on
 16071 00:7350: D0 03        	bne	L1051
 16072 00:7352: 82 17 00     	brl	L1050
 16073                        L1051:
 16074 00:7355: AD xx xx     	lda	|~~basicvars+62
 16075 00:7358: 85 01        	sta	<R0
 16076 00:735A: AD xx xx     	lda	|~~basicvars+62+2
 16077 00:735D: 85 03        	sta	<R0+2
 16078 00:735F: E2 20        	sep	#$20
 16079                        	longa	off
 16080 00:7361: A7 01        	lda	[<R0]
 16081 00:7363: C9 EB        	cmp	#<$eb
 16082 00:7365: C2 20        	rep	#$20
 16083                        	longa	on
 16084 00:7367: F0 03        	beq	L1052
 16085 00:7369: 82 02 00     	brl	L10789
 16086                        L1052:
 16087                        L1050:
 16088 00:736C: E6 17        	inc	<L1028+depth_2
 16089                        L10789:
 16090                        L10788:
 16091 00:736E: 38           	sec
 16092 00:736F: A9 00 00     	lda	#$0
 16093 00:7372: E5 17        	sbc	<L1028+depth_2
 16094 00:7374: 70 03        	bvs	L1053
 16095 00:7376: 49 00 80     	eor	#$8000
 16096                        L1053:
 16097 00:7379: 10 03        	bpl	L1054
 16098 00:737B: 82 12 00     	brl	L10790
 16099                        L1054:
 16100 00:737E: AD xx xx     	lda	|~~basicvars+62+2
  Sun Jan  9 2022 20:52                                                Page 279


 16101 00:7381: 48           	pha
 16102 00:7382: AD xx xx     	lda	|~~basicvars+62
 16103 00:7385: 48           	pha
 16104 00:7386: 22 xx xx xx  	jsl	~~skip_token
 16105 00:738A: 8D xx xx     	sta	|~~basicvars+62
 16106 00:738D: 8E xx xx     	stx	|~~basicvars+62+2
 16107                        L10790:
 16108 00:7390: 82 E3 FE     	brl	L10783
 16109                        L10784:
 16110 00:7393: EE xx xx     	inc	|~~basicvars+62
 16111 00:7396: D0 03        	bne	L1055
 16112 00:7398: EE xx xx     	inc	|~~basicvars+62+2
 16113                        L1055:
 16114 00:739B: AD xx xx     	lda	|~~basicvars+62
 16115 00:739E: 85 01        	sta	<R0
 16116 00:73A0: AD xx xx     	lda	|~~basicvars+62+2
 16117 00:73A3: 85 03        	sta	<R0+2
 16118 00:73A5: E2 20        	sep	#$20
 16119                        	longa	off
 16120 00:73A7: A7 01        	lda	[<R0]
 16121 00:73A9: C9 3A        	cmp	#<$3a
 16122 00:73AB: C2 20        	rep	#$20
 16123                        	longa	on
 16124 00:73AD: F0 03        	beq	L1056
 16125 00:73AF: 82 08 00     	brl	L10791
 16126                        L1056:
 16127 00:73B2: EE xx xx     	inc	|~~basicvars+62
 16128 00:73B5: D0 03        	bne	L1057
 16129 00:73B7: EE xx xx     	inc	|~~basicvars+62+2
 16130                        L1057:
 16131                        L10791:
 16132 00:73BA: AD xx xx     	lda	|~~basicvars+62
 16133 00:73BD: 85 01        	sta	<R0
 16134 00:73BF: AD xx xx     	lda	|~~basicvars+62+2
 16135 00:73C2: 85 03        	sta	<R0+2
 16136 00:73C4: A7 01        	lda	[<R0]
 16137 00:73C6: 29 FF 00     	and	#$ff
 16138 00:73C9: F0 03        	beq	L1058
 16139 00:73CB: 82 80 00     	brl	L10792
 16140                        L1058:
 16141 00:73CE: EE xx xx     	inc	|~~basicvars+62
 16142 00:73D1: D0 03        	bne	L1059
 16143 00:73D3: EE xx xx     	inc	|~~basicvars+62+2
 16144                        L1059:
 16145 00:73D6: AD xx xx     	lda	|~~basicvars+425
 16146 00:73D9: 89 02 00     	bit	#$2
 16147 00:73DC: D0 03        	bne	L1060
 16148 00:73DE: 82 11 00     	brl	L10793
 16149                        L1060:
 16150 00:73E1: AD xx xx     	lda	|~~basicvars+62+2
 16151 00:73E4: 48           	pha
 16152 00:73E5: AD xx xx     	lda	|~~basicvars+62
 16153 00:73E8: 48           	pha
 16154 00:73E9: 22 xx xx xx  	jsl	~~get_lineno
 16155 00:73ED: 48           	pha
 16156 00:73EE: 22 xx xx xx  	jsl	~~trace_line
 16157                        L10793:
 16158 00:73F2: AD xx xx     	lda	|~~basicvars+62
  Sun Jan  9 2022 20:52                                                Page 280


 16159 00:73F5: 85 05        	sta	<R1
 16160 00:73F7: AD xx xx     	lda	|~~basicvars+62+2
 16161 00:73FA: 85 07        	sta	<R1+2
 16162 00:73FC: A0 05 00     	ldy	#$5
 16163 00:73FF: B7 05        	lda	[<R1],Y
 16164 00:7401: 29 FF 00     	and	#$ff
 16165 00:7404: 85 05        	sta	<R1
 16166 00:7406: A5 05        	lda	<R1
 16167 00:7408: EB           	xba
 16168 00:7409: 29 00 FF     	and	#$ff00
 16169 00:740C: 85 01        	sta	<R0
 16170 00:740E: A0 00 00     	ldy	#$0
 16171 00:7411: A5 01        	lda	<R0
 16172 00:7413: 10 01        	bpl	L1061
 16173 00:7415: 88           	dey
 16174                        L1061:
 16175 00:7416: 85 01        	sta	<R0
 16176 00:7418: 84 03        	sty	<R0+2
 16177 00:741A: AD xx xx     	lda	|~~basicvars+62
 16178 00:741D: 85 05        	sta	<R1
 16179 00:741F: AD xx xx     	lda	|~~basicvars+62+2
 16180 00:7422: 85 07        	sta	<R1+2
 16181 00:7424: A0 04 00     	ldy	#$4
 16182 00:7427: B7 05        	lda	[<R1],Y
 16183 00:7429: 29 FF 00     	and	#$ff
 16184 00:742C: 85 05        	sta	<R1
 16185 00:742E: 64 07        	stz	<R1+2
 16186 00:7430: 18           	clc
 16187 00:7431: A5 05        	lda	<R1
 16188 00:7433: 65 01        	adc	<R0
 16189 00:7435: 85 09        	sta	<R2
 16190 00:7437: A5 07        	lda	<R1+2
 16191 00:7439: 65 03        	adc	<R0+2
 16192 00:743B: 85 0B        	sta	<R2+2
 16193 00:743D: 18           	clc
 16194 00:743E: AD xx xx     	lda	|~~basicvars+62
 16195 00:7441: 65 09        	adc	<R2
 16196 00:7443: 8D xx xx     	sta	|~~basicvars+62
 16197 00:7446: AD xx xx     	lda	|~~basicvars+62+2
 16198 00:7449: 65 0B        	adc	<R2+2
 16199 00:744B: 8D xx xx     	sta	|~~basicvars+62+2
 16200                        L10792:
 16201 00:744E: AD xx xx     	lda	|~~basicvars+62+2
 16202 00:7451: 48           	pha
 16203 00:7452: AD xx xx     	lda	|~~basicvars+62
 16204 00:7455: 48           	pha
 16205 00:7456: 18           	clc
 16206 00:7457: A9 01 00     	lda	#$1
 16207 00:745A: 65 11        	adc	<L1028+here_1
 16208 00:745C: 85 01        	sta	<R0
 16209 00:745E: A9 00 00     	lda	#$0
 16210 00:7461: 65 13        	adc	<L1028+here_1+2
 16211 00:7463: 85 03        	sta	<R0+2
 16212 00:7465: D4 03        	pei	<R0+2
 16213 00:7467: D4 01        	pei	<R0
 16214 00:7469: 22 xx xx xx  	jsl	~~set_dest
 16215 00:746D: E2 20        	sep	#$20
 16216                        	longa	off
  Sun Jan  9 2022 20:52                                                Page 281


 16217 00:746F: A9 EC        	lda	#$ec
 16218 00:7471: 87 11        	sta	[<L1028+here_1]
 16219 00:7473: C2 20        	rep	#$20
 16220                        	longa	on
 16221 00:7475: AD xx xx     	lda	|~~basicvars+425
 16222 00:7478: 89 10 00     	bit	#$10
 16223 00:747B: D0 03        	bne	L1062
 16224 00:747D: 82 10 00     	brl	L10794
 16225                        L1062:
 16226 00:7480: AD xx xx     	lda	|~~basicvars+62+2
 16227 00:7483: 48           	pha
 16228 00:7484: AD xx xx     	lda	|~~basicvars+62
 16229 00:7487: 48           	pha
 16230 00:7488: D4 13        	pei	<L1028+here_1+2
 16231 00:748A: D4 11        	pei	<L1028+here_1
 16232 00:748C: 22 xx xx xx  	jsl	~~trace_branch
 16233                        L10794:
 16234                        L10782:
 16235                        L10779:
 16236                        L1063:
 16237 00:7490: 2B           	pld
 16238 00:7491: 3B           	tsc
 16239 00:7492: 18           	clc
 16240 00:7493: 69 18 00     	adc	#L1027
 16241 00:7496: 1B           	tcs
 16242 00:7497: 6B           	rtl
 16243             00000018   L1027	equ	24
 16244             0000000D   L1028	equ	13
 16245                        	ends
 16246                        	efunc
 16247                        	xref	~~fileio_close
 16248                        	xref	~~fileio_openout
 16249                        	xref	~~get_lvalue
 16250                        	xref	~~emulate_wait
 16251                        	xref	~~emulate_on
 16252                        	xref	~~emulate_vdustr
 16253                        	xref	~~emulate_call
 16254                        	xref	~~emulate_sys
 16255                        	xref	~~emulate_getswino
 16256                        	xref	~~emulate_waitdelay
 16257                        	xref	~~emulate_endeq
 16258                        	xref	~~emulate_oscli
 16259                        	xref	~~read_library
 16260                        	xref	~~read_basic
 16261                        	xref	~~secure_tmpnam
 16262                        	xref	~~restore_current
 16263                        	xref	~~save_current
 16264                        	xref	~~find_linestart
 16265                        	xref	~~find_line
 16266                        	xref	~~tocstring
 16267                        	xref	~~skip
 16268                        	xref	~~store_float
 16269                        	xref	~~store_integer
 16270                        	xref	~~check_write
 16271                        	xref	~~init_expressions
 16272                        	xref	~~push_parameters
 16273                        	xref	~~eval_intfactor
 16274                        	xref	~~eval_integer
  Sun Jan  9 2022 20:52                                                Page 282


 16275                        	xref	~~expression
 16276                        	xref	~~get_float
 16277                        	xref	~~get_integer
 16278                        	xref	~~end_run
 16279                        	xref	~~store_value
 16280                        	xref	~~check_ateol
 16281                        	xref	~~isateol
 16282                        	xref	~~trace_branch
 16283                        	xref	~~trace_proc
 16284                        	xref	~~trace_line
 16285                        	xref	~~run_program
 16286                        	xref	~~clear_error
 16287                        	xref	~~set_local_error
 16288                        	xref	~~set_error
 16289                        	xref	~~show_error
 16290                        	xref	~~get_lasterror
 16291                        	xref	~~error
 16292                        	xref	~~get_stringlen
 16293                        	xref	~~clear_strings
 16294                        	xref	~~free_string
 16295                        	xref	~~alloc_string
 16296                        	xref	~~clear_heap
 16297                        	xref	~~condalloc
 16298                        	xref	~~allocmem
 16299                        	xref	~~clear_stack
 16300                        	xref	~~empty_stack
 16301                        	xref	~~restore_parameters
 16302                        	xref	~~save_array
 16303                        	xref	~~save_string
 16304                        	xref	~~save_float
 16305                        	xref	~~save_int
 16306                        	xref	~~pop_error
 16307                        	xref	~~pop_data
 16308                        	xref	~~pop_for
 16309                        	xref	~~pop_repeat
 16310                        	xref	~~pop_while
 16311                        	xref	~~get_for
 16312                        	xref	~~get_repeat
 16313                        	xref	~~get_while
 16314                        	xref	~~pop_gosub
 16315                        	xref	~~pop_fn
 16316                        	xref	~~pop_proc
 16317                        	xref	~~pop_string
 16318                        	xref	~~pop_float
 16319                        	xref	~~pop_int
 16320                        	xref	~~push_error
 16321                        	xref	~~push_data
 16322                        	xref	~~push_floatfor
 16323                        	xref	~~push_intfor
 16324                        	xref	~~push_repeat
 16325                        	xref	~~push_while
 16326                        	xref	~~push_gosub
 16327                        	xref	~~push_proc
 16328                        	xref	~~push_strtemp
 16329                        	xref	~~alloc_stackmem
 16330                        	xref	~~define_array
 16331                        	xref	~~create_variable
 16332                        	xref	~~find_fnproc
  Sun Jan  9 2022 20:52                                                Page 283


 16333                        	xref	~~find_variable
 16334                        	xref	~~clear_varlists
 16335                        	xref	~~clear_varptrs
 16336                        	xref	~~get_linenum
 16337                        	xref	~~get_lineno
 16338                        	xref	~~get_srcaddr
 16339                        	xref	~~set_address
 16340                        	xref	~~set_dest
 16341                        	xref	~~skip_name
 16342                        	xref	~~skip_token
 16343                        	xref	~~tokenize
 16344                        	xref	~~exit_interpreter
 16345                        	xref	~~__errno_location
 16346                        	xref	~~strerror
 16347                        	xref	~~strlen
 16348                        	xref	~~memcmp
 16349                        	xref	~~memmove
 16350                        	xref	~~malloc
 16351                        	xref	~~remove
 16352                        	xref	~~ferror
 16353                        	xref	~~feof
 16354                        	xref	~~fclose
 16355                        	xref	~~fgets
 16356                        	xref	~~fopen
 16357                        	xref	~~ateol
 16358                        	xref	~~nullstring
 16359                        	xref	~~basicvars
 16360                        	end


      Lines assembled: 16360
      Errors: 0
