  Sun Jan  9 2022 20:52                                                Page 1


                     ***************************************
                     **      WDC 65C816 Macro Assembler   **
                     **                                   **
                     **     Version 3.49.1- Feb  6 2006    **
                     ***************************************

     1                        ;:ts=8
     2             00000001   R0	equ	1
     3             00000005   R1	equ	5
     4             00000009   R2	equ	9
     5             0000000D   R3	equ	13
     6                        	data
     7                        ~~entrysize:
     8 00:0000: 00 00 00 00  	dw	$0,$0,$4,$6,$8,$8,$6,$1E,$6,$1E
       00:0004: 04 00 06 00 
       00:0008: 08 00 08 00 
       00:000C: 06 00 1E 00 
       00:0010: 06 00 1E 00 
     9 00:0014: 06 00 1E 00  	dw	$6,$1E,$4,$4,$A,$10,$1C,$E,$14,$A
       00:0018: 04 00 04 00 
       00:001C: 0A 00 10 00 
       00:0020: 1C 00 0E 00 
       00:0024: 14 00 0A 00 
    10 00:0028: 06 00 16 00  	dw	$6,$16,$16,$C,$6,$2A,$9C
       00:002C: 16 00 0C 00 
       00:0030: 06 00 2A 00 
       00:0034: 9C 00 
    11 00:0036:              	ends
    12                        	data
    13                        ~~disposible:
    14 00:0036: 00 01 01 01  	db	$0,$1,$1,$1,$1,$1,$1,$1,$1,$1
       00:003A: 01 01 01 01 
       00:003E: 01 01 
    15 00:0040: 01 01 01 01  	db	$1,$1,$1,$1,$1,$1,$1,$1,$1,$0
       00:0044: 01 01 01 01 
       00:0048: 01 00 
    16 00:004A: 00 00 00 01  	db	$0,$0,$0,$1,$1,$1,$1,$1,$1
       00:004E: 01 01 01 01 
       00:0052: 01 
    17 00:0053:              	ends
    18                        	code
    19                        	xdef	~~check_stack
    20                        	func
    21                        ~~check_stack:
    22                        	longa	on
    23                        	longi	on
    24 00:0000: 3B           	tsc
    25 00:0001: 38           	sec
    26 00:0002: E9 08 00     	sbc	#L2
    27 00:0005: 1B           	tcs
    28 00:0006: 0B           	phd
    29 00:0007: 5B           	tcd
    30             00000004   count_0	set	4
    31 00:0008: A0 00 00     	ldy	#$0
    32 00:000B: A5 0C        	lda	<L2+count_0
    33 00:000D: 10 01        	bpl	L4
    34 00:000F: 88           	dey
    35                        L4:
  Sun Jan  9 2022 20:52                                                Page 2


    36 00:0010: 85 01        	sta	<R0
    37 00:0012: 84 03        	sty	<R0+2
    38 00:0014: F4 00 00     	pea	#^$6
    39 00:0017: F4 06 00     	pea	#<$6
    40 00:001A: D4 03        	pei	<R0+2
    41 00:001C: D4 01        	pei	<R0
    42                        	xref	~~~lmul
    43 00:001E: 22 xx xx xx  	jsl	~~~lmul
    44 00:0022: 85 01        	sta	<R0
    45 00:0024: 86 03        	stx	<R0+2
    46 00:0026: 38           	sec
    47 00:0027: AD xx xx     	lda	|~~basicvars+42
    48 00:002A: E5 01        	sbc	<R0
    49 00:002C: 85 05        	sta	<R1
    50 00:002E: AD xx xx     	lda	|~~basicvars+42+2
    51 00:0031: E5 03        	sbc	<R0+2
    52 00:0033: 85 07        	sta	<R1+2
    53 00:0035: A5 05        	lda	<R1
    54 00:0037: CD xx xx     	cmp	|~~basicvars+38
    55 00:003A: A5 07        	lda	<R1+2
    56 00:003C: ED xx xx     	sbc	|~~basicvars+38+2
    57 00:003F: 90 03        	bcc	L5
    58 00:0041: 82 0A 00     	brl	L10001
    59                        L5:
    60 00:0044: F4 5C 00     	pea	#<$5c
    61 00:0047: F4 04 00     	pea	#4
    62 00:004A: 22 xx xx xx  	jsl	~~error
    63                        L10001:
    64                        L6:
    65 00:004E: A5 0A        	lda	<L2+2
    66 00:0050: 85 0C        	sta	<L2+2+2
    67 00:0052: A5 09        	lda	<L2+1
    68 00:0054: 85 0B        	sta	<L2+1+2
    69 00:0056: 2B           	pld
    70 00:0057: 3B           	tsc
    71 00:0058: 18           	clc
    72 00:0059: 69 0A 00     	adc	#L2+2
    73 00:005C: 1B           	tcs
    74 00:005D: 6B           	rtl
    75             00000008   L2	equ	8
    76             00000009   L3	equ	9
    77                        	ends
    78                        	efunc
    79                        	code
    80                        	xdef	~~safestack
    81                        	func
    82                        ~~safestack:
    83                        	longa	on
    84                        	longi	on
    85 00:005E: 3B           	tsc
    86 00:005F: 38           	sec
    87 00:0060: E9 08 00     	sbc	#L7
    88 00:0063: 1B           	tcs
    89 00:0064: 0B           	phd
    90 00:0065: 5B           	tcd
    91 00:0066: 64 01        	stz	<R0
    92 00:0068: AD xx xx     	lda	|~~basicvars+399
    93 00:006B: 0D xx xx     	ora	|~~basicvars+399+2
  Sun Jan  9 2022 20:52                                                Page 3


    94 00:006E: F0 03        	beq	L10
    95 00:0070: 82 16 00     	brl	L9
    96                        L10:
    97 00:0073: AD xx xx     	lda	|~~basicvars+42
    98 00:0076: 85 05        	sta	<R1
    99 00:0078: AD xx xx     	lda	|~~basicvars+42+2
   100 00:007B: 85 07        	sta	<R1+2
   101 00:007D: A7 05        	lda	[<R1]
   102 00:007F: C9 19 00     	cmp	#<$19
   103 00:0082: F0 03        	beq	L11
   104 00:0084: 82 02 00     	brl	L9
   105                        L11:
   106 00:0087: E6 01        	inc	<R0
   107                        L9:
   108 00:0089: A5 01        	lda	<R0
   109 00:008B: 29 FF 00     	and	#$ff
   110                        L12:
   111 00:008E: A8           	tay
   112 00:008F: 2B           	pld
   113 00:0090: 3B           	tsc
   114 00:0091: 18           	clc
   115 00:0092: 69 08 00     	adc	#L7
   116 00:0095: 1B           	tcs
   117 00:0096: 98           	tya
   118 00:0097: 6B           	rtl
   119             00000008   L7	equ	8
   120             00000009   L8	equ	9
   121                        	ends
   122                        	efunc
   123                        	code
   124                        	xdef	~~make_opstack
   125                        	func
   126                        ~~make_opstack:
   127                        	longa	on
   128                        	longi	on
   129 00:0098: 3B           	tsc
   130 00:0099: 38           	sec
   131 00:009A: E9 04 00     	sbc	#L13
   132 00:009D: 1B           	tcs
   133 00:009E: 0B           	phd
   134 00:009F: 5B           	tcd
   135 00:00A0: 18           	clc
   136 00:00A1: A9 D6 FF     	lda	#$ffd6
   137 00:00A4: 6D xx xx     	adc	|~~basicvars+42
   138 00:00A7: 8D xx xx     	sta	|~~basicvars+42
   139 00:00AA: A9 FF FF     	lda	#$ffff
   140 00:00AD: 6D xx xx     	adc	|~~basicvars+42+2
   141 00:00B0: 8D xx xx     	sta	|~~basicvars+42+2
   142 00:00B3: 18           	clc
   143 00:00B4: A9 88 FF     	lda	#$ff88
   144 00:00B7: 6D xx xx     	adc	|~~basicvars+42
   145 00:00BA: 85 01        	sta	<R0
   146 00:00BC: A9 FF FF     	lda	#$ffff
   147 00:00BF: 6D xx xx     	adc	|~~basicvars+42+2
   148 00:00C2: 85 03        	sta	<R0+2
   149 00:00C4: A5 01        	lda	<R0
   150 00:00C6: CD xx xx     	cmp	|~~basicvars+38
   151 00:00C9: A5 03        	lda	<R0+2
  Sun Jan  9 2022 20:52                                                Page 4


   152 00:00CB: ED xx xx     	sbc	|~~basicvars+38+2
   153 00:00CE: 90 03        	bcc	L15
   154 00:00D0: 82 0A 00     	brl	L10002
   155                        L15:
   156 00:00D3: F4 5C 00     	pea	#<$5c
   157 00:00D6: F4 04 00     	pea	#4
   158 00:00D9: 22 xx xx xx  	jsl	~~error
   159                        L10002:
   160 00:00DD: AD xx xx     	lda	|~~basicvars+42
   161 00:00E0: 85 01        	sta	<R0
   162 00:00E2: AD xx xx     	lda	|~~basicvars+42+2
   163 00:00E5: 85 03        	sta	<R0+2
   164 00:00E7: A9 19 00     	lda	#$19
   165 00:00EA: 87 01        	sta	[<R0]
   166 00:00EC: 18           	clc
   167 00:00ED: A9 02 00     	lda	#$2
   168 00:00F0: 6D xx xx     	adc	|~~basicvars+42
   169 00:00F3: 85 01        	sta	<R0
   170 00:00F5: A9 00 00     	lda	#$0
   171 00:00F8: 6D xx xx     	adc	|~~basicvars+42+2
   172 00:00FB: 85 03        	sta	<R0+2
   173 00:00FD: A6 03        	ldx	<R0+2
   174 00:00FF: A5 01        	lda	<R0
   175                        L16:
   176 00:0101: A8           	tay
   177 00:0102: 2B           	pld
   178 00:0103: 3B           	tsc
   179 00:0104: 18           	clc
   180 00:0105: 69 04 00     	adc	#L13
   181 00:0108: 1B           	tcs
   182 00:0109: 98           	tya
   183 00:010A: 6B           	rtl
   184             00000004   L13	equ	4
   185             00000005   L14	equ	5
   186                        	ends
   187                        	efunc
   188                        	code
   189                        	xdef	~~make_restart
   190                        	func
   191                        ~~make_restart:
   192                        	longa	on
   193                        	longi	on
   194 00:010B: 3B           	tsc
   195 00:010C: 38           	sec
   196 00:010D: E9 04 00     	sbc	#L17
   197 00:0110: 1B           	tcs
   198 00:0111: 0B           	phd
   199 00:0112: 5B           	tcd
   200 00:0113: 18           	clc
   201 00:0114: A9 64 FF     	lda	#$ff64
   202 00:0117: 6D xx xx     	adc	|~~basicvars+42
   203 00:011A: 8D xx xx     	sta	|~~basicvars+42
   204 00:011D: A9 FF FF     	lda	#$ffff
   205 00:0120: 6D xx xx     	adc	|~~basicvars+42+2
   206 00:0123: 8D xx xx     	sta	|~~basicvars+42+2
   207 00:0126: AD xx xx     	lda	|~~basicvars+42
   208 00:0129: CD xx xx     	cmp	|~~basicvars+38
   209 00:012C: AD xx xx     	lda	|~~basicvars+42+2
  Sun Jan  9 2022 20:52                                                Page 5


   210 00:012F: ED xx xx     	sbc	|~~basicvars+38+2
   211 00:0132: 90 03        	bcc	L19
   212 00:0134: 82 0A 00     	brl	L10003
   213                        L19:
   214 00:0137: F4 5C 00     	pea	#<$5c
   215 00:013A: F4 04 00     	pea	#4
   216 00:013D: 22 xx xx xx  	jsl	~~error
   217                        L10003:
   218 00:0141: AD xx xx     	lda	|~~basicvars+42
   219 00:0144: 85 01        	sta	<R0
   220 00:0146: AD xx xx     	lda	|~~basicvars+42+2
   221 00:0149: 85 03        	sta	<R0+2
   222 00:014B: A9 1A 00     	lda	#$1a
   223 00:014E: 87 01        	sta	[<R0]
   224 00:0150: 18           	clc
   225 00:0151: A9 02 00     	lda	#$2
   226 00:0154: 6D xx xx     	adc	|~~basicvars+42
   227 00:0157: 85 01        	sta	<R0
   228 00:0159: A9 00 00     	lda	#$0
   229 00:015C: 6D xx xx     	adc	|~~basicvars+42+2
   230 00:015F: 85 03        	sta	<R0+2
   231 00:0161: A6 03        	ldx	<R0+2
   232 00:0163: A5 01        	lda	<R0
   233                        L20:
   234 00:0165: A8           	tay
   235 00:0166: 2B           	pld
   236 00:0167: 3B           	tsc
   237 00:0168: 18           	clc
   238 00:0169: 69 04 00     	adc	#L17
   239 00:016C: 1B           	tcs
   240 00:016D: 98           	tya
   241 00:016E: 6B           	rtl
   242             00000004   L17	equ	4
   243             00000005   L18	equ	5
   244                        	ends
   245                        	efunc
   246                        	code
   247                        	xdef	~~get_topitem
   248                        	func
   249                        ~~get_topitem:
   250                        	longa	on
   251                        	longi	on
   252 00:016F: 3B           	tsc
   253 00:0170: 38           	sec
   254 00:0171: E9 04 00     	sbc	#L21
   255 00:0174: 1B           	tcs
   256 00:0175: 0B           	phd
   257 00:0176: 5B           	tcd
   258 00:0177: AD xx xx     	lda	|~~basicvars+42
   259 00:017A: 85 01        	sta	<R0
   260 00:017C: AD xx xx     	lda	|~~basicvars+42+2
   261 00:017F: 85 03        	sta	<R0+2
   262 00:0181: A7 01        	lda	[<R0]
   263                        L23:
   264 00:0183: A8           	tay
   265 00:0184: 2B           	pld
   266 00:0185: 3B           	tsc
   267 00:0186: 18           	clc
  Sun Jan  9 2022 20:52                                                Page 6


   268 00:0187: 69 04 00     	adc	#L21
   269 00:018A: 1B           	tcs
   270 00:018B: 98           	tya
   271 00:018C: 6B           	rtl
   272             00000004   L21	equ	4
   273             00000005   L22	equ	5
   274                        	ends
   275                        	efunc
   276                        	code
   277                        	xdef	~~get_stacktop
   278                        	func
   279                        ~~get_stacktop:
   280                        	longa	on
   281                        	longi	on
   282 00:018D: 3B           	tsc
   283 00:018E: 38           	sec
   284 00:018F: E9 00 00     	sbc	#L24
   285 00:0192: 1B           	tcs
   286 00:0193: 0B           	phd
   287 00:0194: 5B           	tcd
   288 00:0195: AE xx xx     	ldx	|~~basicvars+42+2
   289 00:0198: AD xx xx     	lda	|~~basicvars+42
   290                        L26:
   291 00:019B: A8           	tay
   292 00:019C: 2B           	pld
   293 00:019D: 3B           	tsc
   294 00:019E: 18           	clc
   295 00:019F: 69 00 00     	adc	#L24
   296 00:01A2: 1B           	tcs
   297 00:01A3: 98           	tya
   298 00:01A4: 6B           	rtl
   299             00000000   L24	equ	0
   300             00000001   L25	equ	1
   301                        	ends
   302                        	efunc
   303                        	code
   304                        	xdef	~~get_safestack
   305                        	func
   306                        ~~get_safestack:
   307                        	longa	on
   308                        	longi	on
   309 00:01A5: 3B           	tsc
   310 00:01A6: 38           	sec
   311 00:01A7: E9 00 00     	sbc	#L27
   312 00:01AA: 1B           	tcs
   313 00:01AB: 0B           	phd
   314 00:01AC: 5B           	tcd
   315 00:01AD: AE xx xx     	ldx	|~~basicvars+46+2
   316 00:01B0: AD xx xx     	lda	|~~basicvars+46
   317                        L29:
   318 00:01B3: A8           	tay
   319 00:01B4: 2B           	pld
   320 00:01B5: 3B           	tsc
   321 00:01B6: 18           	clc
   322 00:01B7: 69 00 00     	adc	#L27
   323 00:01BA: 1B           	tcs
   324 00:01BB: 98           	tya
   325 00:01BC: 6B           	rtl
  Sun Jan  9 2022 20:52                                                Page 7


   326             00000000   L27	equ	0
   327             00000001   L28	equ	1
   328                        	ends
   329                        	efunc
   330                        	code
   331                        	xdef	~~push_int
   332                        	func
   333                        ~~push_int:
   334                        	longa	on
   335                        	longi	on
   336 00:01BD: 3B           	tsc
   337 00:01BE: 38           	sec
   338 00:01BF: E9 04 00     	sbc	#L30
   339 00:01C2: 1B           	tcs
   340 00:01C3: 0B           	phd
   341 00:01C4: 5B           	tcd
   342             00000004   x_0	set	4
   343 00:01C5: 18           	clc
   344 00:01C6: A9 FC FF     	lda	#$fffc
   345 00:01C9: 6D xx xx     	adc	|~~basicvars+42
   346 00:01CC: 8D xx xx     	sta	|~~basicvars+42
   347 00:01CF: A9 FF FF     	lda	#$ffff
   348 00:01D2: 6D xx xx     	adc	|~~basicvars+42+2
   349 00:01D5: 8D xx xx     	sta	|~~basicvars+42+2
   350 00:01D8: AD xx xx     	lda	|~~basicvars+42
   351 00:01DB: 85 01        	sta	<R0
   352 00:01DD: AD xx xx     	lda	|~~basicvars+42+2
   353 00:01E0: 85 03        	sta	<R0+2
   354 00:01E2: A9 02 00     	lda	#$2
   355 00:01E5: 87 01        	sta	[<R0]
   356 00:01E7: AD xx xx     	lda	|~~basicvars+42
   357 00:01EA: 85 01        	sta	<R0
   358 00:01EC: AD xx xx     	lda	|~~basicvars+42+2
   359 00:01EF: 85 03        	sta	<R0+2
   360 00:01F1: A5 08        	lda	<L30+x_0
   361 00:01F3: A0 02 00     	ldy	#$2
   362 00:01F6: 97 01        	sta	[<R0],Y
   363                        L32:
   364 00:01F8: A5 06        	lda	<L30+2
   365 00:01FA: 85 08        	sta	<L30+2+2
   366 00:01FC: A5 05        	lda	<L30+1
   367 00:01FE: 85 07        	sta	<L30+1+2
   368 00:0200: 2B           	pld
   369 00:0201: 3B           	tsc
   370 00:0202: 18           	clc
   371 00:0203: 69 06 00     	adc	#L30+2
   372 00:0206: 1B           	tcs
   373 00:0207: 6B           	rtl
   374             00000004   L30	equ	4
   375             00000005   L31	equ	5
   376                        	ends
   377                        	efunc
   378                        	code
   379                        	xdef	~~push_float
   380                        	func
   381                        ~~push_float:
   382                        	longa	on
   383                        	longi	on
  Sun Jan  9 2022 20:52                                                Page 8


   384 00:0208: 3B           	tsc
   385 00:0209: 38           	sec
   386 00:020A: E9 04 00     	sbc	#L33
   387 00:020D: 1B           	tcs
   388 00:020E: 0B           	phd
   389 00:020F: 5B           	tcd
   390             00000004   x_0	set	4
   391 00:0210: 18           	clc
   392 00:0211: A9 FA FF     	lda	#$fffa
   393 00:0214: 6D xx xx     	adc	|~~basicvars+42
   394 00:0217: 8D xx xx     	sta	|~~basicvars+42
   395 00:021A: A9 FF FF     	lda	#$ffff
   396 00:021D: 6D xx xx     	adc	|~~basicvars+42+2
   397 00:0220: 8D xx xx     	sta	|~~basicvars+42+2
   398 00:0223: AD xx xx     	lda	|~~basicvars+42
   399 00:0226: 85 01        	sta	<R0
   400 00:0228: AD xx xx     	lda	|~~basicvars+42+2
   401 00:022B: 85 03        	sta	<R0+2
   402 00:022D: A9 03 00     	lda	#$3
   403 00:0230: 87 01        	sta	[<R0]
   404 00:0232: AD xx xx     	lda	|~~basicvars+42
   405 00:0235: 85 01        	sta	<R0
   406 00:0237: AD xx xx     	lda	|~~basicvars+42+2
   407 00:023A: 85 03        	sta	<R0+2
   408 00:023C: A5 08        	lda	<L33+x_0
   409 00:023E: A0 02 00     	ldy	#$2
   410 00:0241: 97 01        	sta	[<R0],Y
   411 00:0243: A5 0A        	lda	<L33+x_0+2
   412 00:0245: A0 04 00     	ldy	#$4
   413 00:0248: 97 01        	sta	[<R0],Y
   414                        L35:
   415 00:024A: A5 06        	lda	<L33+2
   416 00:024C: 85 0A        	sta	<L33+2+4
   417 00:024E: A5 05        	lda	<L33+1
   418 00:0250: 85 09        	sta	<L33+1+4
   419 00:0252: 2B           	pld
   420 00:0253: 3B           	tsc
   421 00:0254: 18           	clc
   422 00:0255: 69 08 00     	adc	#L33+4
   423 00:0258: 1B           	tcs
   424 00:0259: 6B           	rtl
   425             00000004   L33	equ	4
   426             00000005   L34	equ	5
   427                        	ends
   428                        	efunc
   429                        	code
   430                        	xdef	~~push_string
   431                        	func
   432                        ~~push_string:
   433                        	longa	on
   434                        	longi	on
   435 00:025A: 3B           	tsc
   436 00:025B: 38           	sec
   437 00:025C: E9 04 00     	sbc	#L36
   438 00:025F: 1B           	tcs
   439 00:0260: 0B           	phd
   440 00:0261: 5B           	tcd
   441             00000004   x_0	set	4
  Sun Jan  9 2022 20:52                                                Page 9


   442 00:0262: 18           	clc
   443 00:0263: A9 F8 FF     	lda	#$fff8
   444 00:0266: 6D xx xx     	adc	|~~basicvars+42
   445 00:0269: 8D xx xx     	sta	|~~basicvars+42
   446 00:026C: A9 FF FF     	lda	#$ffff
   447 00:026F: 6D xx xx     	adc	|~~basicvars+42+2
   448 00:0272: 8D xx xx     	sta	|~~basicvars+42+2
   449 00:0275: AD xx xx     	lda	|~~basicvars+42
   450 00:0278: 85 01        	sta	<R0
   451 00:027A: AD xx xx     	lda	|~~basicvars+42+2
   452 00:027D: 85 03        	sta	<R0+2
   453 00:027F: A9 04 00     	lda	#$4
   454 00:0282: 87 01        	sta	[<R0]
   455 00:0284: 18           	clc
   456 00:0285: 7B           	tdc
   457 00:0286: 69 08 00     	adc	#<L36+x_0
   458 00:0289: 85 01        	sta	<R0
   459 00:028B: A9 00 00     	lda	#$0
   460 00:028E: 85 03        	sta	<R0+2
   461 00:0290: D4 03        	pei	<R0+2
   462 00:0292: D4 01        	pei	<R0
   463 00:0294: 18           	clc
   464 00:0295: A9 02 00     	lda	#$2
   465 00:0298: 6D xx xx     	adc	|~~basicvars+42
   466 00:029B: 85 01        	sta	<R0
   467 00:029D: A9 00 00     	lda	#$0
   468 00:02A0: 6D xx xx     	adc	|~~basicvars+42+2
   469 00:02A3: 85 03        	sta	<R0+2
   470 00:02A5: D4 03        	pei	<R0+2
   471 00:02A7: D4 01        	pei	<R0
   472 00:02A9: A9 06 00     	lda	#$6
   473                        	xref	~~~fmov
   474 00:02AC: 22 xx xx xx  	jsl	~~~fmov
   475                        L38:
   476 00:02B0: A5 06        	lda	<L36+2
   477 00:02B2: 85 0C        	sta	<L36+2+6
   478 00:02B4: A5 05        	lda	<L36+1
   479 00:02B6: 85 0B        	sta	<L36+1+6
   480 00:02B8: 2B           	pld
   481 00:02B9: 3B           	tsc
   482 00:02BA: 18           	clc
   483 00:02BB: 69 0A 00     	adc	#L36+6
   484 00:02BE: 1B           	tcs
   485 00:02BF: 6B           	rtl
   486             00000004   L36	equ	4
   487             00000005   L37	equ	5
   488                        	ends
   489                        	efunc
   490                        	code
   491                        	xdef	~~push_strtemp
   492                        	func
   493                        ~~push_strtemp:
   494                        	longa	on
   495                        	longi	on
   496 00:02C0: 3B           	tsc
   497 00:02C1: 38           	sec
   498 00:02C2: E9 04 00     	sbc	#L39
   499 00:02C5: 1B           	tcs
  Sun Jan  9 2022 20:52                                                Page 10


   500 00:02C6: 0B           	phd
   501 00:02C7: 5B           	tcd
   502             00000004   stringlen_0	set	4
   503             00000006   stringaddr_0	set	6
   504 00:02C8: 18           	clc
   505 00:02C9: A9 F8 FF     	lda	#$fff8
   506 00:02CC: 6D xx xx     	adc	|~~basicvars+42
   507 00:02CF: 8D xx xx     	sta	|~~basicvars+42
   508 00:02D2: A9 FF FF     	lda	#$ffff
   509 00:02D5: 6D xx xx     	adc	|~~basicvars+42+2
   510 00:02D8: 8D xx xx     	sta	|~~basicvars+42+2
   511 00:02DB: AD xx xx     	lda	|~~basicvars+42
   512 00:02DE: 85 01        	sta	<R0
   513 00:02E0: AD xx xx     	lda	|~~basicvars+42+2
   514 00:02E3: 85 03        	sta	<R0+2
   515 00:02E5: A9 05 00     	lda	#$5
   516 00:02E8: 87 01        	sta	[<R0]
   517 00:02EA: AD xx xx     	lda	|~~basicvars+42
   518 00:02ED: 85 01        	sta	<R0
   519 00:02EF: AD xx xx     	lda	|~~basicvars+42+2
   520 00:02F2: 85 03        	sta	<R0+2
   521 00:02F4: A5 08        	lda	<L39+stringlen_0
   522 00:02F6: A0 02 00     	ldy	#$2
   523 00:02F9: 97 01        	sta	[<R0],Y
   524 00:02FB: AD xx xx     	lda	|~~basicvars+42
   525 00:02FE: 85 01        	sta	<R0
   526 00:0300: AD xx xx     	lda	|~~basicvars+42+2
   527 00:0303: 85 03        	sta	<R0+2
   528 00:0305: A5 0A        	lda	<L39+stringaddr_0
   529 00:0307: A0 04 00     	ldy	#$4
   530 00:030A: 97 01        	sta	[<R0],Y
   531 00:030C: A5 0C        	lda	<L39+stringaddr_0+2
   532 00:030E: A0 06 00     	ldy	#$6
   533 00:0311: 97 01        	sta	[<R0],Y
   534                        L41:
   535 00:0313: A5 06        	lda	<L39+2
   536 00:0315: 85 0C        	sta	<L39+2+6
   537 00:0317: A5 05        	lda	<L39+1
   538 00:0319: 85 0B        	sta	<L39+1+6
   539 00:031B: 2B           	pld
   540 00:031C: 3B           	tsc
   541 00:031D: 18           	clc
   542 00:031E: 69 0A 00     	adc	#L39+6
   543 00:0321: 1B           	tcs
   544 00:0322: 6B           	rtl
   545             00000004   L39	equ	4
   546             00000005   L40	equ	5
   547                        	ends
   548                        	efunc
   549                        	code
   550                        	xdef	~~push_dolstring
   551                        	func
   552                        ~~push_dolstring:
   553                        	longa	on
   554                        	longi	on
   555 00:0323: 3B           	tsc
   556 00:0324: 38           	sec
   557 00:0325: E9 04 00     	sbc	#L42
  Sun Jan  9 2022 20:52                                                Page 11


   558 00:0328: 1B           	tcs
   559 00:0329: 0B           	phd
   560 00:032A: 5B           	tcd
   561             00000004   strlength_0	set	4
   562             00000006   strtext_0	set	6
   563 00:032B: 18           	clc
   564 00:032C: A9 F8 FF     	lda	#$fff8
   565 00:032F: 6D xx xx     	adc	|~~basicvars+42
   566 00:0332: 8D xx xx     	sta	|~~basicvars+42
   567 00:0335: A9 FF FF     	lda	#$ffff
   568 00:0338: 6D xx xx     	adc	|~~basicvars+42+2
   569 00:033B: 8D xx xx     	sta	|~~basicvars+42+2
   570 00:033E: AD xx xx     	lda	|~~basicvars+42
   571 00:0341: 85 01        	sta	<R0
   572 00:0343: AD xx xx     	lda	|~~basicvars+42+2
   573 00:0346: 85 03        	sta	<R0+2
   574 00:0348: A9 04 00     	lda	#$4
   575 00:034B: 87 01        	sta	[<R0]
   576 00:034D: AD xx xx     	lda	|~~basicvars+42
   577 00:0350: 85 01        	sta	<R0
   578 00:0352: AD xx xx     	lda	|~~basicvars+42+2
   579 00:0355: 85 03        	sta	<R0+2
   580 00:0357: A5 08        	lda	<L42+strlength_0
   581 00:0359: A0 02 00     	ldy	#$2
   582 00:035C: 97 01        	sta	[<R0],Y
   583 00:035E: AD xx xx     	lda	|~~basicvars+42
   584 00:0361: 85 01        	sta	<R0
   585 00:0363: AD xx xx     	lda	|~~basicvars+42+2
   586 00:0366: 85 03        	sta	<R0+2
   587 00:0368: A5 0A        	lda	<L42+strtext_0
   588 00:036A: A0 04 00     	ldy	#$4
   589 00:036D: 97 01        	sta	[<R0],Y
   590 00:036F: A5 0C        	lda	<L42+strtext_0+2
   591 00:0371: A0 06 00     	ldy	#$6
   592 00:0374: 97 01        	sta	[<R0],Y
   593                        L44:
   594 00:0376: A5 06        	lda	<L42+2
   595 00:0378: 85 0C        	sta	<L42+2+6
   596 00:037A: A5 05        	lda	<L42+1
   597 00:037C: 85 0B        	sta	<L42+1+6
   598 00:037E: 2B           	pld
   599 00:037F: 3B           	tsc
   600 00:0380: 18           	clc
   601 00:0381: 69 0A 00     	adc	#L42+6
   602 00:0384: 1B           	tcs
   603 00:0385: 6B           	rtl
   604             00000004   L42	equ	4
   605             00000005   L43	equ	5
   606                        	ends
   607                        	efunc
   608                        	data
   609                        ~~arraytype:
   610 00:0053: 00 00 00 00  	dw	$0,$0,$6,$8,$A,$0,$0,$0
       00:0057: 06 00 08 00 
       00:005B: 0A 00 00 00 
       00:005F: 00 00 00 00 
   611 00:0063:              	ends
   612                        	data
  Sun Jan  9 2022 20:52                                                Page 12


   613                        ~~arraytemptype:
   614 00:0063: 00 00 00 00  	dw	$0,$0,$7,$9,$B,$0,$0,$0
       00:0067: 07 00 09 00 
       00:006B: 0B 00 00 00 
       00:006F: 00 00 00 00 
   615 00:0073:              	ends
   616                        	code
   617                        	xdef	~~push_array
   618                        	func
   619                        ~~push_array:
   620                        	longa	on
   621                        	longi	on
   622 00:0386: 3B           	tsc
   623 00:0387: 38           	sec
   624 00:0388: E9 0C 00     	sbc	#L45
   625 00:038B: 1B           	tcs
   626 00:038C: 0B           	phd
   627 00:038D: 5B           	tcd
   628             00000004   descriptor_0	set	4
   629             00000008   type_0	set	8
   630 00:038E: 18           	clc
   631 00:038F: A9 FA FF     	lda	#$fffa
   632 00:0392: 6D xx xx     	adc	|~~basicvars+42
   633 00:0395: 8D xx xx     	sta	|~~basicvars+42
   634 00:0398: A9 FF FF     	lda	#$ffff
   635 00:039B: 6D xx xx     	adc	|~~basicvars+42+2
   636 00:039E: 8D xx xx     	sta	|~~basicvars+42+2
   637 00:03A1: AD xx xx     	lda	|~~basicvars+42
   638 00:03A4: 85 01        	sta	<R0
   639 00:03A6: AD xx xx     	lda	|~~basicvars+42+2
   640 00:03A9: 85 03        	sta	<R0+2
   641 00:03AB: A5 14        	lda	<L45+type_0
   642 00:03AD: 29 07 00     	and	#<$7
   643 00:03B0: 85 09        	sta	<R2
   644 00:03B2: A5 09        	lda	<R2
   645 00:03B4: 0A           	asl	A
   646 00:03B5: 85 05        	sta	<R1
   647 00:03B7: A6 05        	ldx	<R1
   648 00:03B9: BD xx xx     	lda	|~~arraytype,X
   649 00:03BC: 87 01        	sta	[<R0]
   650 00:03BE: AD xx xx     	lda	|~~basicvars+42
   651 00:03C1: 85 01        	sta	<R0
   652 00:03C3: AD xx xx     	lda	|~~basicvars+42+2
   653 00:03C6: 85 03        	sta	<R0+2
   654 00:03C8: A5 10        	lda	<L45+descriptor_0
   655 00:03CA: A0 02 00     	ldy	#$2
   656 00:03CD: 97 01        	sta	[<R0],Y
   657 00:03CF: A5 12        	lda	<L45+descriptor_0+2
   658 00:03D1: A0 04 00     	ldy	#$4
   659 00:03D4: 97 01        	sta	[<R0],Y
   660                        L47:
   661 00:03D6: A5 0E        	lda	<L45+2
   662 00:03D8: 85 14        	sta	<L45+2+6
   663 00:03DA: A5 0D        	lda	<L45+1
   664 00:03DC: 85 13        	sta	<L45+1+6
   665 00:03DE: 2B           	pld
   666 00:03DF: 3B           	tsc
   667 00:03E0: 18           	clc
  Sun Jan  9 2022 20:52                                                Page 13


   668 00:03E1: 69 12 00     	adc	#L45+6
   669 00:03E4: 1B           	tcs
   670 00:03E5: 6B           	rtl
   671             0000000C   L45	equ	12
   672             0000000D   L46	equ	13
   673                        	ends
   674                        	efunc
   675                        	code
   676                        	xdef	~~push_arraytemp
   677                        	func
   678                        ~~push_arraytemp:
   679                        	longa	on
   680                        	longi	on
   681 00:03E6: 3B           	tsc
   682 00:03E7: 38           	sec
   683 00:03E8: E9 0C 00     	sbc	#L48
   684 00:03EB: 1B           	tcs
   685 00:03EC: 0B           	phd
   686 00:03ED: 5B           	tcd
   687             00000004   descriptor_0	set	4
   688             00000008   type_0	set	8
   689 00:03EE: 18           	clc
   690 00:03EF: A9 E2 FF     	lda	#$ffe2
   691 00:03F2: 6D xx xx     	adc	|~~basicvars+42
   692 00:03F5: 8D xx xx     	sta	|~~basicvars+42
   693 00:03F8: A9 FF FF     	lda	#$ffff
   694 00:03FB: 6D xx xx     	adc	|~~basicvars+42+2
   695 00:03FE: 8D xx xx     	sta	|~~basicvars+42+2
   696 00:0401: AD xx xx     	lda	|~~basicvars+42
   697 00:0404: 85 01        	sta	<R0
   698 00:0406: AD xx xx     	lda	|~~basicvars+42+2
   699 00:0409: 85 03        	sta	<R0+2
   700 00:040B: A5 14        	lda	<L48+type_0
   701 00:040D: 29 07 00     	and	#<$7
   702 00:0410: 85 09        	sta	<R2
   703 00:0412: A5 09        	lda	<R2
   704 00:0414: 0A           	asl	A
   705 00:0415: 85 05        	sta	<R1
   706 00:0417: A6 05        	ldx	<R1
   707 00:0419: BD xx xx     	lda	|~~arraytemptype,X
   708 00:041C: 87 01        	sta	[<R0]
   709 00:041E: D4 12        	pei	<L48+descriptor_0+2
   710 00:0420: D4 10        	pei	<L48+descriptor_0
   711 00:0422: 18           	clc
   712 00:0423: A9 02 00     	lda	#$2
   713 00:0426: 6D xx xx     	adc	|~~basicvars+42
   714 00:0429: 85 01        	sta	<R0
   715 00:042B: A9 00 00     	lda	#$0
   716 00:042E: 6D xx xx     	adc	|~~basicvars+42+2
   717 00:0431: 85 03        	sta	<R0+2
   718 00:0433: D4 03        	pei	<R0+2
   719 00:0435: D4 01        	pei	<R0
   720 00:0437: A9 1C 00     	lda	#$1c
   721                        	xref	~~~fmov
   722 00:043A: 22 xx xx xx  	jsl	~~~fmov
   723                        L50:
   724 00:043E: A5 0E        	lda	<L48+2
   725 00:0440: 85 14        	sta	<L48+2+6
  Sun Jan  9 2022 20:52                                                Page 14


   726 00:0442: A5 0D        	lda	<L48+1
   727 00:0444: 85 13        	sta	<L48+1+6
   728 00:0446: 2B           	pld
   729 00:0447: 3B           	tsc
   730 00:0448: 18           	clc
   731 00:0449: 69 12 00     	adc	#L48+6
   732 00:044C: 1B           	tcs
   733 00:044D: 6B           	rtl
   734             0000000C   L48	equ	12
   735             0000000D   L49	equ	13
   736                        	ends
   737                        	efunc
   738                        	code
   739                        	xdef	~~push_proc
   740                        	func
   741                        ~~push_proc:
   742                        	longa	on
   743                        	longi	on
   744 00:044E: 3B           	tsc
   745 00:044F: 38           	sec
   746 00:0450: E9 04 00     	sbc	#L51
   747 00:0453: 1B           	tcs
   748 00:0454: 0B           	phd
   749 00:0455: 5B           	tcd
   750             00000004   name_0	set	4
   751             00000008   count_0	set	8
   752 00:0456: 18           	clc
   753 00:0457: A9 F0 FF     	lda	#$fff0
   754 00:045A: 6D xx xx     	adc	|~~basicvars+42
   755 00:045D: 8D xx xx     	sta	|~~basicvars+42
   756 00:0460: A9 FF FF     	lda	#$ffff
   757 00:0463: 6D xx xx     	adc	|~~basicvars+42+2
   758 00:0466: 8D xx xx     	sta	|~~basicvars+42+2
   759 00:0469: AD xx xx     	lda	|~~basicvars+42
   760 00:046C: CD xx xx     	cmp	|~~basicvars+38
   761 00:046F: AD xx xx     	lda	|~~basicvars+42+2
   762 00:0472: ED xx xx     	sbc	|~~basicvars+38+2
   763 00:0475: 90 03        	bcc	L53
   764 00:0477: 82 0A 00     	brl	L10004
   765                        L53:
   766 00:047A: F4 5C 00     	pea	#<$5c
   767 00:047D: F4 04 00     	pea	#4
   768 00:0480: 22 xx xx xx  	jsl	~~error
   769                        L10004:
   770 00:0484: AD xx xx     	lda	|~~basicvars+42
   771 00:0487: 85 01        	sta	<R0
   772 00:0489: AD xx xx     	lda	|~~basicvars+42+2
   773 00:048C: 85 03        	sta	<R0+2
   774 00:048E: A9 0F 00     	lda	#$f
   775 00:0491: 87 01        	sta	[<R0]
   776 00:0493: AD xx xx     	lda	|~~basicvars+42
   777 00:0496: 85 01        	sta	<R0
   778 00:0498: AD xx xx     	lda	|~~basicvars+42+2
   779 00:049B: 85 03        	sta	<R0+2
   780 00:049D: AD xx xx     	lda	|~~basicvars+399
   781 00:04A0: A0 02 00     	ldy	#$2
   782 00:04A3: 97 01        	sta	[<R0],Y
   783 00:04A5: AD xx xx     	lda	|~~basicvars+399+2
  Sun Jan  9 2022 20:52                                                Page 15


   784 00:04A8: A0 04 00     	ldy	#$4
   785 00:04AB: 97 01        	sta	[<R0],Y
   786 00:04AD: AD xx xx     	lda	|~~basicvars+42
   787 00:04B0: 85 01        	sta	<R0
   788 00:04B2: AD xx xx     	lda	|~~basicvars+42+2
   789 00:04B5: 85 03        	sta	<R0+2
   790 00:04B7: AD xx xx     	lda	|~~basicvars+62
   791 00:04BA: A0 06 00     	ldy	#$6
   792 00:04BD: 97 01        	sta	[<R0],Y
   793 00:04BF: AD xx xx     	lda	|~~basicvars+62+2
   794 00:04C2: A0 08 00     	ldy	#$8
   795 00:04C5: 97 01        	sta	[<R0],Y
   796 00:04C7: AD xx xx     	lda	|~~basicvars+42
   797 00:04CA: 85 01        	sta	<R0
   798 00:04CC: AD xx xx     	lda	|~~basicvars+42+2
   799 00:04CF: 85 03        	sta	<R0+2
   800 00:04D1: A5 0C        	lda	<L51+count_0
   801 00:04D3: A0 0A 00     	ldy	#$a
   802 00:04D6: 97 01        	sta	[<R0],Y
   803 00:04D8: AD xx xx     	lda	|~~basicvars+42
   804 00:04DB: 85 01        	sta	<R0
   805 00:04DD: AD xx xx     	lda	|~~basicvars+42+2
   806 00:04E0: 85 03        	sta	<R0+2
   807 00:04E2: A5 08        	lda	<L51+name_0
   808 00:04E4: A0 0C 00     	ldy	#$c
   809 00:04E7: 97 01        	sta	[<R0],Y
   810 00:04E9: A5 0A        	lda	<L51+name_0+2
   811 00:04EB: A0 0E 00     	ldy	#$e
   812 00:04EE: 97 01        	sta	[<R0],Y
   813 00:04F0: 18           	clc
   814 00:04F1: A9 02 00     	lda	#$2
   815 00:04F4: 6D xx xx     	adc	|~~basicvars+42
   816 00:04F7: 8D xx xx     	sta	|~~basicvars+399
   817 00:04FA: A9 00 00     	lda	#$0
   818 00:04FD: 6D xx xx     	adc	|~~basicvars+42+2
   819 00:0500: 8D xx xx     	sta	|~~basicvars+399+2
   820                        L54:
   821 00:0503: A5 06        	lda	<L51+2
   822 00:0505: 85 0C        	sta	<L51+2+6
   823 00:0507: A5 05        	lda	<L51+1
   824 00:0509: 85 0B        	sta	<L51+1+6
   825 00:050B: 2B           	pld
   826 00:050C: 3B           	tsc
   827 00:050D: 18           	clc
   828 00:050E: 69 0A 00     	adc	#L51+6
   829 00:0511: 1B           	tcs
   830 00:0512: 6B           	rtl
   831             00000004   L51	equ	4
   832             00000005   L52	equ	5
   833                        	ends
   834                        	efunc
   835                        	code
   836                        	xdef	~~push_fn
   837                        	func
   838                        ~~push_fn:
   839                        	longa	on
   840                        	longi	on
   841 00:0513: 3B           	tsc
  Sun Jan  9 2022 20:52                                                Page 16


   842 00:0514: 38           	sec
   843 00:0515: E9 04 00     	sbc	#L55
   844 00:0518: 1B           	tcs
   845 00:0519: 0B           	phd
   846 00:051A: 5B           	tcd
   847             00000004   name_0	set	4
   848             00000008   count_0	set	8
   849 00:051B: 18           	clc
   850 00:051C: A9 E4 FF     	lda	#$ffe4
   851 00:051F: 6D xx xx     	adc	|~~basicvars+42
   852 00:0522: 8D xx xx     	sta	|~~basicvars+42
   853 00:0525: A9 FF FF     	lda	#$ffff
   854 00:0528: 6D xx xx     	adc	|~~basicvars+42+2
   855 00:052B: 8D xx xx     	sta	|~~basicvars+42+2
   856 00:052E: AD xx xx     	lda	|~~basicvars+42
   857 00:0531: CD xx xx     	cmp	|~~basicvars+38
   858 00:0534: AD xx xx     	lda	|~~basicvars+42+2
   859 00:0537: ED xx xx     	sbc	|~~basicvars+38+2
   860 00:053A: 90 03        	bcc	L57
   861 00:053C: 82 0A 00     	brl	L10005
   862                        L57:
   863 00:053F: F4 5C 00     	pea	#<$5c
   864 00:0542: F4 04 00     	pea	#4
   865 00:0545: 22 xx xx xx  	jsl	~~error
   866                        L10005:
   867 00:0549: AD xx xx     	lda	|~~basicvars+42
   868 00:054C: 85 01        	sta	<R0
   869 00:054E: AD xx xx     	lda	|~~basicvars+42+2
   870 00:0551: 85 03        	sta	<R0+2
   871 00:0553: A9 10 00     	lda	#$10
   872 00:0556: 87 01        	sta	[<R0]
   873 00:0558: AD xx xx     	lda	|~~basicvars+42
   874 00:055B: 85 01        	sta	<R0
   875 00:055D: AD xx xx     	lda	|~~basicvars+42+2
   876 00:0560: 85 03        	sta	<R0+2
   877 00:0562: AD xx xx     	lda	|~~basicvars+10
   878 00:0565: A0 10 00     	ldy	#$10
   879 00:0568: 97 01        	sta	[<R0],Y
   880 00:056A: AD xx xx     	lda	|~~basicvars+10+2
   881 00:056D: A0 12 00     	ldy	#$12
   882 00:0570: 97 01        	sta	[<R0],Y
   883 00:0572: AD xx xx     	lda	|~~basicvars+42
   884 00:0575: 85 01        	sta	<R0
   885 00:0577: AD xx xx     	lda	|~~basicvars+42+2
   886 00:057A: 85 03        	sta	<R0+2
   887 00:057C: AD xx xx     	lda	|~~basicvars+14
   888 00:057F: A0 14 00     	ldy	#$14
   889 00:0582: 97 01        	sta	[<R0],Y
   890 00:0584: AD xx xx     	lda	|~~basicvars+14+2
   891 00:0587: A0 16 00     	ldy	#$16
   892 00:058A: 97 01        	sta	[<R0],Y
   893 00:058C: AD xx xx     	lda	|~~basicvars+42
   894 00:058F: 85 01        	sta	<R0
   895 00:0591: AD xx xx     	lda	|~~basicvars+42+2
   896 00:0594: 85 03        	sta	<R0+2
   897 00:0596: AD xx xx     	lda	|~~basicvars+395
   898 00:0599: A0 18 00     	ldy	#$18
   899 00:059C: 97 01        	sta	[<R0],Y
  Sun Jan  9 2022 20:52                                                Page 17


   900 00:059E: AD xx xx     	lda	|~~basicvars+395+2
   901 00:05A1: A0 1A 00     	ldy	#$1a
   902 00:05A4: 97 01        	sta	[<R0],Y
   903 00:05A6: AD xx xx     	lda	|~~basicvars+42
   904 00:05A9: 85 01        	sta	<R0
   905 00:05AB: AD xx xx     	lda	|~~basicvars+42+2
   906 00:05AE: 85 03        	sta	<R0+2
   907 00:05B0: AD xx xx     	lda	|~~basicvars+399
   908 00:05B3: A0 02 00     	ldy	#$2
   909 00:05B6: 97 01        	sta	[<R0],Y
   910 00:05B8: AD xx xx     	lda	|~~basicvars+399+2
   911 00:05BB: A0 04 00     	ldy	#$4
   912 00:05BE: 97 01        	sta	[<R0],Y
   913 00:05C0: AD xx xx     	lda	|~~basicvars+42
   914 00:05C3: 85 01        	sta	<R0
   915 00:05C5: AD xx xx     	lda	|~~basicvars+42+2
   916 00:05C8: 85 03        	sta	<R0+2
   917 00:05CA: AD xx xx     	lda	|~~basicvars+62
   918 00:05CD: A0 06 00     	ldy	#$6
   919 00:05D0: 97 01        	sta	[<R0],Y
   920 00:05D2: AD xx xx     	lda	|~~basicvars+62+2
   921 00:05D5: A0 08 00     	ldy	#$8
   922 00:05D8: 97 01        	sta	[<R0],Y
   923 00:05DA: AD xx xx     	lda	|~~basicvars+42
   924 00:05DD: 85 01        	sta	<R0
   925 00:05DF: AD xx xx     	lda	|~~basicvars+42+2
   926 00:05E2: 85 03        	sta	<R0+2
   927 00:05E4: A5 0C        	lda	<L55+count_0
   928 00:05E6: A0 0A 00     	ldy	#$a
   929 00:05E9: 97 01        	sta	[<R0],Y
   930 00:05EB: AD xx xx     	lda	|~~basicvars+42
   931 00:05EE: 85 01        	sta	<R0
   932 00:05F0: AD xx xx     	lda	|~~basicvars+42+2
   933 00:05F3: 85 03        	sta	<R0+2
   934 00:05F5: A5 08        	lda	<L55+name_0
   935 00:05F7: A0 0C 00     	ldy	#$c
   936 00:05FA: 97 01        	sta	[<R0],Y
   937 00:05FC: A5 0A        	lda	<L55+name_0+2
   938 00:05FE: A0 0E 00     	ldy	#$e
   939 00:0601: 97 01        	sta	[<R0],Y
   940 00:0603: 18           	clc
   941 00:0604: A9 02 00     	lda	#$2
   942 00:0607: 6D xx xx     	adc	|~~basicvars+42
   943 00:060A: 8D xx xx     	sta	|~~basicvars+399
   944 00:060D: A9 00 00     	lda	#$0
   945 00:0610: 6D xx xx     	adc	|~~basicvars+42+2
   946 00:0613: 8D xx xx     	sta	|~~basicvars+399+2
   947                        L58:
   948 00:0616: A5 06        	lda	<L55+2
   949 00:0618: 85 0C        	sta	<L55+2+6
   950 00:061A: A5 05        	lda	<L55+1
   951 00:061C: 85 0B        	sta	<L55+1+6
   952 00:061E: 2B           	pld
   953 00:061F: 3B           	tsc
   954 00:0620: 18           	clc
   955 00:0621: 69 0A 00     	adc	#L55+6
   956 00:0624: 1B           	tcs
   957 00:0625: 6B           	rtl
  Sun Jan  9 2022 20:52                                                Page 18


   958             00000004   L55	equ	4
   959             00000005   L56	equ	5
   960                        	ends
   961                        	efunc
   962                        	code
   963                        	xdef	~~push_gosub
   964                        	func
   965                        ~~push_gosub:
   966                        	longa	on
   967                        	longi	on
   968 00:0626: 3B           	tsc
   969 00:0627: 38           	sec
   970 00:0628: E9 04 00     	sbc	#L59
   971 00:062B: 1B           	tcs
   972 00:062C: 0B           	phd
   973 00:062D: 5B           	tcd
   974 00:062E: 18           	clc
   975 00:062F: A9 F6 FF     	lda	#$fff6
   976 00:0632: 6D xx xx     	adc	|~~basicvars+42
   977 00:0635: 8D xx xx     	sta	|~~basicvars+42
   978 00:0638: A9 FF FF     	lda	#$ffff
   979 00:063B: 6D xx xx     	adc	|~~basicvars+42+2
   980 00:063E: 8D xx xx     	sta	|~~basicvars+42+2
   981 00:0641: AD xx xx     	lda	|~~basicvars+42
   982 00:0644: CD xx xx     	cmp	|~~basicvars+38
   983 00:0647: AD xx xx     	lda	|~~basicvars+42+2
   984 00:064A: ED xx xx     	sbc	|~~basicvars+38+2
   985 00:064D: 90 03        	bcc	L61
   986 00:064F: 82 0A 00     	brl	L10006
   987                        L61:
   988 00:0652: F4 5C 00     	pea	#<$5c
   989 00:0655: F4 04 00     	pea	#4
   990 00:0658: 22 xx xx xx  	jsl	~~error
   991                        L10006:
   992 00:065C: AD xx xx     	lda	|~~basicvars+42
   993 00:065F: 85 01        	sta	<R0
   994 00:0661: AD xx xx     	lda	|~~basicvars+42+2
   995 00:0664: 85 03        	sta	<R0+2
   996 00:0666: A9 0E 00     	lda	#$e
   997 00:0669: 87 01        	sta	[<R0]
   998 00:066B: AD xx xx     	lda	|~~basicvars+42
   999 00:066E: 85 01        	sta	<R0
  1000 00:0670: AD xx xx     	lda	|~~basicvars+42+2
  1001 00:0673: 85 03        	sta	<R0+2
  1002 00:0675: AD xx xx     	lda	|~~basicvars+403
  1003 00:0678: A0 02 00     	ldy	#$2
  1004 00:067B: 97 01        	sta	[<R0],Y
  1005 00:067D: AD xx xx     	lda	|~~basicvars+403+2
  1006 00:0680: A0 04 00     	ldy	#$4
  1007 00:0683: 97 01        	sta	[<R0],Y
  1008 00:0685: AD xx xx     	lda	|~~basicvars+42
  1009 00:0688: 85 01        	sta	<R0
  1010 00:068A: AD xx xx     	lda	|~~basicvars+42+2
  1011 00:068D: 85 03        	sta	<R0+2
  1012 00:068F: AD xx xx     	lda	|~~basicvars+62
  1013 00:0692: A0 06 00     	ldy	#$6
  1014 00:0695: 97 01        	sta	[<R0],Y
  1015 00:0697: AD xx xx     	lda	|~~basicvars+62+2
  Sun Jan  9 2022 20:52                                                Page 19


  1016 00:069A: A0 08 00     	ldy	#$8
  1017 00:069D: 97 01        	sta	[<R0],Y
  1018 00:069F: 18           	clc
  1019 00:06A0: A9 02 00     	lda	#$2
  1020 00:06A3: 6D xx xx     	adc	|~~basicvars+42
  1021 00:06A6: 8D xx xx     	sta	|~~basicvars+403
  1022 00:06A9: A9 00 00     	lda	#$0
  1023 00:06AC: 6D xx xx     	adc	|~~basicvars+42+2
  1024 00:06AF: 8D xx xx     	sta	|~~basicvars+403+2
  1025                        L62:
  1026 00:06B2: 2B           	pld
  1027 00:06B3: 3B           	tsc
  1028 00:06B4: 18           	clc
  1029 00:06B5: 69 04 00     	adc	#L59
  1030 00:06B8: 1B           	tcs
  1031 00:06B9: 6B           	rtl
  1032             00000004   L59	equ	4
  1033             00000005   L60	equ	5
  1034                        	ends
  1035                        	efunc
  1036                        	code
  1037                        	xdef	~~alloc_stackmem
  1038                        	func
  1039                        ~~alloc_stackmem:
  1040                        	longa	on
  1041                        	longi	on
  1042 00:06BA: 3B           	tsc
  1043 00:06BB: 38           	sec
  1044 00:06BC: E9 0C 00     	sbc	#L63
  1045 00:06BF: 1B           	tcs
  1046 00:06C0: 0B           	phd
  1047 00:06C1: 5B           	tcd
  1048             00000004   size_0	set	4
  1049             00000000   p_1	set	0
  1050             00000004   base_1	set	4
  1051 00:06C2: A5 10        	lda	<L63+size_0
  1052 00:06C4: 1A           	ina
  1053 00:06C5: 29 FE FF     	and	#<$fffffffe
  1054 00:06C8: 85 10        	sta	<L63+size_0
  1055 00:06CA: A0 00 00     	ldy	#$0
  1056 00:06CD: A5 10        	lda	<L63+size_0
  1057 00:06CF: 10 01        	bpl	L65
  1058 00:06D1: 88           	dey
  1059                        L65:
  1060 00:06D2: 85 01        	sta	<R0
  1061 00:06D4: 84 03        	sty	<R0+2
  1062 00:06D6: 38           	sec
  1063 00:06D7: AD xx xx     	lda	|~~basicvars+42
  1064 00:06DA: E5 01        	sbc	<R0
  1065 00:06DC: 85 09        	sta	<L64+base_1
  1066 00:06DE: AD xx xx     	lda	|~~basicvars+42+2
  1067 00:06E1: E5 03        	sbc	<R0+2
  1068 00:06E3: 85 0B        	sta	<L64+base_1+2
  1069 00:06E5: 18           	clc
  1070 00:06E6: A9 FC FF     	lda	#$fffc
  1071 00:06E9: 65 09        	adc	<L64+base_1
  1072 00:06EB: 85 05        	sta	<L64+p_1
  1073 00:06ED: A9 FF FF     	lda	#$ffff
  Sun Jan  9 2022 20:52                                                Page 20


  1074 00:06F0: 65 0B        	adc	<L64+base_1+2
  1075 00:06F2: 85 07        	sta	<L64+p_1+2
  1076 00:06F4: A5 05        	lda	<L64+p_1
  1077 00:06F6: CD xx xx     	cmp	|~~basicvars+38
  1078 00:06F9: A5 07        	lda	<L64+p_1+2
  1079 00:06FB: ED xx xx     	sbc	|~~basicvars+38+2
  1080 00:06FE: 90 03        	bcc	L66
  1081 00:0700: 82 19 00     	brl	L10007
  1082                        L66:
  1083 00:0703: A9 00 00     	lda	#$0
  1084 00:0706: AA           	tax
  1085 00:0707: A9 00 00     	lda	#$0
  1086                        L67:
  1087 00:070A: A8           	tay
  1088 00:070B: A5 0E        	lda	<L63+2
  1089 00:070D: 85 10        	sta	<L63+2+2
  1090 00:070F: A5 0D        	lda	<L63+1
  1091 00:0711: 85 0F        	sta	<L63+1+2
  1092 00:0713: 2B           	pld
  1093 00:0714: 3B           	tsc
  1094 00:0715: 18           	clc
  1095 00:0716: 69 0E 00     	adc	#L63+2
  1096 00:0719: 1B           	tcs
  1097 00:071A: 98           	tya
  1098 00:071B: 6B           	rtl
  1099                        L10007:
  1100 00:071C: A5 05        	lda	<L64+p_1
  1101 00:071E: 8D xx xx     	sta	|~~basicvars+42
  1102 00:0721: A5 07        	lda	<L64+p_1+2
  1103 00:0723: 8D xx xx     	sta	|~~basicvars+42+2
  1104 00:0726: AD xx xx     	lda	|~~basicvars+42
  1105 00:0729: 85 01        	sta	<R0
  1106 00:072B: AD xx xx     	lda	|~~basicvars+42+2
  1107 00:072E: 85 03        	sta	<R0+2
  1108 00:0730: A9 0C 00     	lda	#$c
  1109 00:0733: 87 01        	sta	[<R0]
  1110 00:0735: AD xx xx     	lda	|~~basicvars+42
  1111 00:0738: 85 01        	sta	<R0
  1112 00:073A: AD xx xx     	lda	|~~basicvars+42+2
  1113 00:073D: 85 03        	sta	<R0+2
  1114 00:073F: A5 10        	lda	<L63+size_0
  1115 00:0741: A0 02 00     	ldy	#$2
  1116 00:0744: 97 01        	sta	[<R0],Y
  1117 00:0746: A6 0B        	ldx	<L64+base_1+2
  1118 00:0748: A5 09        	lda	<L64+base_1
  1119 00:074A: 82 BD FF     	brl	L67
  1120             0000000C   L63	equ	12
  1121             00000005   L64	equ	5
  1122                        	ends
  1123                        	efunc
  1124                        	code
  1125                        	xdef	~~alloc_stackstrmem
  1126                        	func
  1127                        ~~alloc_stackstrmem:
  1128                        	longa	on
  1129                        	longi	on
  1130 00:074D: 3B           	tsc
  1131 00:074E: 38           	sec
  Sun Jan  9 2022 20:52                                                Page 21


  1132 00:074F: E9 08 00     	sbc	#L68
  1133 00:0752: 1B           	tcs
  1134 00:0753: 0B           	phd
  1135 00:0754: 5B           	tcd
  1136             00000004   size_0	set	4
  1137             00000000   p_1	set	0
  1138 00:0755: D4 0C        	pei	<L68+size_0
  1139 00:0757: 22 xx xx xx  	jsl	~~alloc_stackmem
  1140 00:075B: 85 05        	sta	<L69+p_1
  1141 00:075D: 86 07        	stx	<L69+p_1+2
  1142 00:075F: A5 05        	lda	<L69+p_1
  1143 00:0761: 05 07        	ora	<L69+p_1+2
  1144 00:0763: F0 03        	beq	L70
  1145 00:0765: 82 19 00     	brl	L10008
  1146                        L70:
  1147 00:0768: A9 00 00     	lda	#$0
  1148 00:076B: AA           	tax
  1149 00:076C: A9 00 00     	lda	#$0
  1150                        L71:
  1151 00:076F: A8           	tay
  1152 00:0770: A5 0A        	lda	<L68+2
  1153 00:0772: 85 0C        	sta	<L68+2+2
  1154 00:0774: A5 09        	lda	<L68+1
  1155 00:0776: 85 0B        	sta	<L68+1+2
  1156 00:0778: 2B           	pld
  1157 00:0779: 3B           	tsc
  1158 00:077A: 18           	clc
  1159 00:077B: 69 0A 00     	adc	#L68+2
  1160 00:077E: 1B           	tcs
  1161 00:077F: 98           	tya
  1162 00:0780: 6B           	rtl
  1163                        L10008:
  1164 00:0781: AD xx xx     	lda	|~~basicvars+42
  1165 00:0784: 85 01        	sta	<R0
  1166 00:0786: AD xx xx     	lda	|~~basicvars+42+2
  1167 00:0789: 85 03        	sta	<R0+2
  1168 00:078B: A9 0D 00     	lda	#$d
  1169 00:078E: 87 01        	sta	[<R0]
  1170 00:0790: A6 07        	ldx	<L69+p_1+2
  1171 00:0792: A5 05        	lda	<L69+p_1
  1172 00:0794: 82 D8 FF     	brl	L71
  1173             00000008   L68	equ	8
  1174             00000005   L69	equ	5
  1175                        	ends
  1176                        	efunc
  1177                        	code
  1178                        	xdef	~~free_stackmem
  1179                        	func
  1180                        ~~free_stackmem:
  1181                        	longa	on
  1182                        	longi	on
  1183 00:0797: 3B           	tsc
  1184 00:0798: 38           	sec
  1185 00:0799: E9 08 00     	sbc	#L72
  1186 00:079C: 1B           	tcs
  1187 00:079D: 0B           	phd
  1188 00:079E: 5B           	tcd
  1189 00:079F: AD xx xx     	lda	|~~basicvars+42
  Sun Jan  9 2022 20:52                                                Page 22


  1190 00:07A2: 85 01        	sta	<R0
  1191 00:07A4: AD xx xx     	lda	|~~basicvars+42+2
  1192 00:07A7: 85 03        	sta	<R0+2
  1193 00:07A9: A0 00 00     	ldy	#$0
  1194 00:07AC: 5A           	phy
  1195 00:07AD: A0 02 00     	ldy	#$2
  1196 00:07B0: B7 01        	lda	[<R0],Y
  1197 00:07B2: 7A           	ply
  1198 00:07B3: 2A           	rol	A
  1199 00:07B4: 6A           	ror	A
  1200 00:07B5: 10 01        	bpl	L74
  1201 00:07B7: 88           	dey
  1202                        L74:
  1203 00:07B8: 85 01        	sta	<R0
  1204 00:07BA: 84 03        	sty	<R0+2
  1205 00:07BC: 18           	clc
  1206 00:07BD: A9 04 00     	lda	#$4
  1207 00:07C0: 65 01        	adc	<R0
  1208 00:07C2: 85 05        	sta	<R1
  1209 00:07C4: A9 00 00     	lda	#$0
  1210 00:07C7: 65 03        	adc	<R0+2
  1211 00:07C9: 85 07        	sta	<R1+2
  1212 00:07CB: 18           	clc
  1213 00:07CC: AD xx xx     	lda	|~~basicvars+42
  1214 00:07CF: 65 05        	adc	<R1
  1215 00:07D1: 8D xx xx     	sta	|~~basicvars+42
  1216 00:07D4: AD xx xx     	lda	|~~basicvars+42+2
  1217 00:07D7: 65 07        	adc	<R1+2
  1218 00:07D9: 8D xx xx     	sta	|~~basicvars+42+2
  1219                        L75:
  1220 00:07DC: 2B           	pld
  1221 00:07DD: 3B           	tsc
  1222 00:07DE: 18           	clc
  1223 00:07DF: 69 08 00     	adc	#L72
  1224 00:07E2: 1B           	tcs
  1225 00:07E3: 6B           	rtl
  1226             00000008   L72	equ	8
  1227             00000009   L73	equ	9
  1228                        	ends
  1229                        	efunc
  1230                        	code
  1231                        	xdef	~~free_stackstrmem
  1232                        	func
  1233                        ~~free_stackstrmem:
  1234                        	longa	on
  1235                        	longi	on
  1236 00:07E4: 3B           	tsc
  1237 00:07E5: 38           	sec
  1238 00:07E6: E9 08 00     	sbc	#L76
  1239 00:07E9: 1B           	tcs
  1240 00:07EA: 0B           	phd
  1241 00:07EB: 5B           	tcd
  1242 00:07EC: AD xx xx     	lda	|~~basicvars+42
  1243 00:07EF: 85 01        	sta	<R0
  1244 00:07F1: AD xx xx     	lda	|~~basicvars+42+2
  1245 00:07F4: 85 03        	sta	<R0+2
  1246 00:07F6: A0 02 00     	ldy	#$2
  1247 00:07F9: B7 01        	lda	[<R0],Y
  Sun Jan  9 2022 20:52                                                Page 23


  1248 00:07FB: 48           	pha
  1249 00:07FC: 18           	clc
  1250 00:07FD: A9 04 00     	lda	#$4
  1251 00:0800: 6D xx xx     	adc	|~~basicvars+42
  1252 00:0803: 85 01        	sta	<R0
  1253 00:0805: A9 00 00     	lda	#$0
  1254 00:0808: 6D xx xx     	adc	|~~basicvars+42+2
  1255 00:080B: 85 03        	sta	<R0+2
  1256 00:080D: D4 03        	pei	<R0+2
  1257 00:080F: D4 01        	pei	<R0
  1258 00:0811: 22 xx xx xx  	jsl	~~discard_strings
  1259 00:0815: AD xx xx     	lda	|~~basicvars+42
  1260 00:0818: 85 01        	sta	<R0
  1261 00:081A: AD xx xx     	lda	|~~basicvars+42+2
  1262 00:081D: 85 03        	sta	<R0+2
  1263 00:081F: A0 00 00     	ldy	#$0
  1264 00:0822: 5A           	phy
  1265 00:0823: A0 02 00     	ldy	#$2
  1266 00:0826: B7 01        	lda	[<R0],Y
  1267 00:0828: 7A           	ply
  1268 00:0829: 2A           	rol	A
  1269 00:082A: 6A           	ror	A
  1270 00:082B: 10 01        	bpl	L78
  1271 00:082D: 88           	dey
  1272                        L78:
  1273 00:082E: 85 01        	sta	<R0
  1274 00:0830: 84 03        	sty	<R0+2
  1275 00:0832: 18           	clc
  1276 00:0833: A9 04 00     	lda	#$4
  1277 00:0836: 65 01        	adc	<R0
  1278 00:0838: 85 05        	sta	<R1
  1279 00:083A: A9 00 00     	lda	#$0
  1280 00:083D: 65 03        	adc	<R0+2
  1281 00:083F: 85 07        	sta	<R1+2
  1282 00:0841: 18           	clc
  1283 00:0842: AD xx xx     	lda	|~~basicvars+42
  1284 00:0845: 65 05        	adc	<R1
  1285 00:0847: 8D xx xx     	sta	|~~basicvars+42
  1286 00:084A: AD xx xx     	lda	|~~basicvars+42+2
  1287 00:084D: 65 07        	adc	<R1+2
  1288 00:084F: 8D xx xx     	sta	|~~basicvars+42+2
  1289                        L79:
  1290 00:0852: 2B           	pld
  1291 00:0853: 3B           	tsc
  1292 00:0854: 18           	clc
  1293 00:0855: 69 08 00     	adc	#L76
  1294 00:0858: 1B           	tcs
  1295 00:0859: 6B           	rtl
  1296             00000008   L76	equ	8
  1297             00000009   L77	equ	9
  1298                        	ends
  1299                        	efunc
  1300                        	code
  1301                        	xdef	~~push_while
  1302                        	func
  1303                        ~~push_while:
  1304                        	longa	on
  1305                        	longi	on
  Sun Jan  9 2022 20:52                                                Page 24


  1306 00:085A: 3B           	tsc
  1307 00:085B: 38           	sec
  1308 00:085C: E9 04 00     	sbc	#L80
  1309 00:085F: 1B           	tcs
  1310 00:0860: 0B           	phd
  1311 00:0861: 5B           	tcd
  1312             00000004   expr_0	set	4
  1313 00:0862: 18           	clc
  1314 00:0863: A9 F6 FF     	lda	#$fff6
  1315 00:0866: 6D xx xx     	adc	|~~basicvars+42
  1316 00:0869: 8D xx xx     	sta	|~~basicvars+42
  1317 00:086C: A9 FF FF     	lda	#$ffff
  1318 00:086F: 6D xx xx     	adc	|~~basicvars+42+2
  1319 00:0872: 8D xx xx     	sta	|~~basicvars+42+2
  1320 00:0875: AD xx xx     	lda	|~~basicvars+42
  1321 00:0878: CD xx xx     	cmp	|~~basicvars+38
  1322 00:087B: AD xx xx     	lda	|~~basicvars+42+2
  1323 00:087E: ED xx xx     	sbc	|~~basicvars+38+2
  1324 00:0881: 90 03        	bcc	L82
  1325 00:0883: 82 0A 00     	brl	L10009
  1326                        L82:
  1327 00:0886: F4 5C 00     	pea	#<$5c
  1328 00:0889: F4 04 00     	pea	#4
  1329 00:088C: 22 xx xx xx  	jsl	~~error
  1330                        L10009:
  1331 00:0890: AD xx xx     	lda	|~~basicvars+42
  1332 00:0893: 85 01        	sta	<R0
  1333 00:0895: AD xx xx     	lda	|~~basicvars+42+2
  1334 00:0898: 85 03        	sta	<R0+2
  1335 00:089A: A9 13 00     	lda	#$13
  1336 00:089D: 87 01        	sta	[<R0]
  1337 00:089F: AD xx xx     	lda	|~~basicvars+42
  1338 00:08A2: 85 01        	sta	<R0
  1339 00:08A4: AD xx xx     	lda	|~~basicvars+42+2
  1340 00:08A7: 85 03        	sta	<R0+2
  1341 00:08A9: A5 08        	lda	<L80+expr_0
  1342 00:08AB: A0 02 00     	ldy	#$2
  1343 00:08AE: 97 01        	sta	[<R0],Y
  1344 00:08B0: A5 0A        	lda	<L80+expr_0+2
  1345 00:08B2: A0 04 00     	ldy	#$4
  1346 00:08B5: 97 01        	sta	[<R0],Y
  1347 00:08B7: AD xx xx     	lda	|~~basicvars+42
  1348 00:08BA: 85 01        	sta	<R0
  1349 00:08BC: AD xx xx     	lda	|~~basicvars+42+2
  1350 00:08BF: 85 03        	sta	<R0+2
  1351 00:08C1: AD xx xx     	lda	|~~basicvars+62
  1352 00:08C4: A0 06 00     	ldy	#$6
  1353 00:08C7: 97 01        	sta	[<R0],Y
  1354 00:08C9: AD xx xx     	lda	|~~basicvars+62+2
  1355 00:08CC: A0 08 00     	ldy	#$8
  1356 00:08CF: 97 01        	sta	[<R0],Y
  1357                        L83:
  1358 00:08D1: A5 06        	lda	<L80+2
  1359 00:08D3: 85 0A        	sta	<L80+2+4
  1360 00:08D5: A5 05        	lda	<L80+1
  1361 00:08D7: 85 09        	sta	<L80+1+4
  1362 00:08D9: 2B           	pld
  1363 00:08DA: 3B           	tsc
  Sun Jan  9 2022 20:52                                                Page 25


  1364 00:08DB: 18           	clc
  1365 00:08DC: 69 08 00     	adc	#L80+4
  1366 00:08DF: 1B           	tcs
  1367 00:08E0: 6B           	rtl
  1368             00000004   L80	equ	4
  1369             00000005   L81	equ	5
  1370                        	ends
  1371                        	efunc
  1372                        	code
  1373                        	xdef	~~push_repeat
  1374                        	func
  1375                        ~~push_repeat:
  1376                        	longa	on
  1377                        	longi	on
  1378 00:08E1: 3B           	tsc
  1379 00:08E2: 38           	sec
  1380 00:08E3: E9 04 00     	sbc	#L84
  1381 00:08E6: 1B           	tcs
  1382 00:08E7: 0B           	phd
  1383 00:08E8: 5B           	tcd
  1384 00:08E9: 18           	clc
  1385 00:08EA: A9 FA FF     	lda	#$fffa
  1386 00:08ED: 6D xx xx     	adc	|~~basicvars+42
  1387 00:08F0: 8D xx xx     	sta	|~~basicvars+42
  1388 00:08F3: A9 FF FF     	lda	#$ffff
  1389 00:08F6: 6D xx xx     	adc	|~~basicvars+42+2
  1390 00:08F9: 8D xx xx     	sta	|~~basicvars+42+2
  1391 00:08FC: AD xx xx     	lda	|~~basicvars+42
  1392 00:08FF: CD xx xx     	cmp	|~~basicvars+38
  1393 00:0902: AD xx xx     	lda	|~~basicvars+42+2
  1394 00:0905: ED xx xx     	sbc	|~~basicvars+38+2
  1395 00:0908: 90 03        	bcc	L86
  1396 00:090A: 82 0A 00     	brl	L10010
  1397                        L86:
  1398 00:090D: F4 5C 00     	pea	#<$5c
  1399 00:0910: F4 04 00     	pea	#4
  1400 00:0913: 22 xx xx xx  	jsl	~~error
  1401                        L10010:
  1402 00:0917: AD xx xx     	lda	|~~basicvars+42
  1403 00:091A: 85 01        	sta	<R0
  1404 00:091C: AD xx xx     	lda	|~~basicvars+42+2
  1405 00:091F: 85 03        	sta	<R0+2
  1406 00:0921: A9 14 00     	lda	#$14
  1407 00:0924: 87 01        	sta	[<R0]
  1408 00:0926: AD xx xx     	lda	|~~basicvars+42
  1409 00:0929: 85 01        	sta	<R0
  1410 00:092B: AD xx xx     	lda	|~~basicvars+42+2
  1411 00:092E: 85 03        	sta	<R0+2
  1412 00:0930: AD xx xx     	lda	|~~basicvars+62
  1413 00:0933: A0 02 00     	ldy	#$2
  1414 00:0936: 97 01        	sta	[<R0],Y
  1415 00:0938: AD xx xx     	lda	|~~basicvars+62+2
  1416 00:093B: A0 04 00     	ldy	#$4
  1417 00:093E: 97 01        	sta	[<R0],Y
  1418                        L87:
  1419 00:0940: 2B           	pld
  1420 00:0941: 3B           	tsc
  1421 00:0942: 18           	clc
  Sun Jan  9 2022 20:52                                                Page 26


  1422 00:0943: 69 04 00     	adc	#L84
  1423 00:0946: 1B           	tcs
  1424 00:0947: 6B           	rtl
  1425             00000004   L84	equ	4
  1426             00000005   L85	equ	5
  1427                        	ends
  1428                        	efunc
  1429                        	code
  1430                        	xdef	~~push_intfor
  1431                        	func
  1432                        ~~push_intfor:
  1433                        	longa	on
  1434                        	longi	on
  1435 00:0948: 3B           	tsc
  1436 00:0949: 38           	sec
  1437 00:094A: E9 04 00     	sbc	#L88
  1438 00:094D: 1B           	tcs
  1439 00:094E: 0B           	phd
  1440 00:094F: 5B           	tcd
  1441             00000004   forvar_0	set	4
  1442             0000000A   foraddr_0	set	10
  1443             0000000E   limit_0	set	14
  1444             00000010   step_0	set	16
  1445             00000012   simple_0	set	18
  1446 00:0950: 18           	clc
  1447 00:0951: A9 EA FF     	lda	#$ffea
  1448 00:0954: 6D xx xx     	adc	|~~basicvars+42
  1449 00:0957: 8D xx xx     	sta	|~~basicvars+42
  1450 00:095A: A9 FF FF     	lda	#$ffff
  1451 00:095D: 6D xx xx     	adc	|~~basicvars+42+2
  1452 00:0960: 8D xx xx     	sta	|~~basicvars+42+2
  1453 00:0963: AD xx xx     	lda	|~~basicvars+42
  1454 00:0966: CD xx xx     	cmp	|~~basicvars+38
  1455 00:0969: AD xx xx     	lda	|~~basicvars+42+2
  1456 00:096C: ED xx xx     	sbc	|~~basicvars+38+2
  1457 00:096F: 90 03        	bcc	L90
  1458 00:0971: 82 0A 00     	brl	L10011
  1459                        L90:
  1460 00:0974: F4 5C 00     	pea	#<$5c
  1461 00:0977: F4 04 00     	pea	#4
  1462 00:097A: 22 xx xx xx  	jsl	~~error
  1463                        L10011:
  1464 00:097E: AD xx xx     	lda	|~~basicvars+42
  1465 00:0981: 85 01        	sta	<R0
  1466 00:0983: AD xx xx     	lda	|~~basicvars+42+2
  1467 00:0986: 85 03        	sta	<R0+2
  1468 00:0988: A9 15 00     	lda	#$15
  1469 00:098B: 87 01        	sta	[<R0]
  1470 00:098D: AD xx xx     	lda	|~~basicvars+42
  1471 00:0990: 85 01        	sta	<R0
  1472 00:0992: AD xx xx     	lda	|~~basicvars+42+2
  1473 00:0995: 85 03        	sta	<R0+2
  1474 00:0997: E2 20        	sep	#$20
  1475                        	longa	off
  1476 00:0999: A5 16        	lda	<L88+simple_0
  1477 00:099B: A0 02 00     	ldy	#$2
  1478 00:099E: 97 01        	sta	[<R0],Y
  1479 00:09A0: C2 20        	rep	#$20
  Sun Jan  9 2022 20:52                                                Page 27


  1480                        	longa	on
  1481 00:09A2: 18           	clc
  1482 00:09A3: 7B           	tdc
  1483 00:09A4: 69 08 00     	adc	#<L88+forvar_0
  1484 00:09A7: 85 01        	sta	<R0
  1485 00:09A9: A9 00 00     	lda	#$0
  1486 00:09AC: 85 03        	sta	<R0+2
  1487 00:09AE: D4 03        	pei	<R0+2
  1488 00:09B0: D4 01        	pei	<R0
  1489 00:09B2: 18           	clc
  1490 00:09B3: A9 03 00     	lda	#$3
  1491 00:09B6: 6D xx xx     	adc	|~~basicvars+42
  1492 00:09B9: 85 01        	sta	<R0
  1493 00:09BB: A9 00 00     	lda	#$0
  1494 00:09BE: 6D xx xx     	adc	|~~basicvars+42+2
  1495 00:09C1: 85 03        	sta	<R0+2
  1496 00:09C3: D4 03        	pei	<R0+2
  1497 00:09C5: D4 01        	pei	<R0
  1498 00:09C7: A9 06 00     	lda	#$6
  1499                        	xref	~~~fmov
  1500 00:09CA: 22 xx xx xx  	jsl	~~~fmov
  1501 00:09CE: AD xx xx     	lda	|~~basicvars+42
  1502 00:09D1: 85 01        	sta	<R0
  1503 00:09D3: AD xx xx     	lda	|~~basicvars+42+2
  1504 00:09D6: 85 03        	sta	<R0+2
  1505 00:09D8: A5 0E        	lda	<L88+foraddr_0
  1506 00:09DA: A0 09 00     	ldy	#$9
  1507 00:09DD: 97 01        	sta	[<R0],Y
  1508 00:09DF: A5 10        	lda	<L88+foraddr_0+2
  1509 00:09E1: A0 0B 00     	ldy	#$b
  1510 00:09E4: 97 01        	sta	[<R0],Y
  1511 00:09E6: AD xx xx     	lda	|~~basicvars+42
  1512 00:09E9: 85 01        	sta	<R0
  1513 00:09EB: AD xx xx     	lda	|~~basicvars+42+2
  1514 00:09EE: 85 03        	sta	<R0+2
  1515 00:09F0: A5 12        	lda	<L88+limit_0
  1516 00:09F2: A0 0D 00     	ldy	#$d
  1517 00:09F5: 97 01        	sta	[<R0],Y
  1518 00:09F7: AD xx xx     	lda	|~~basicvars+42
  1519 00:09FA: 85 01        	sta	<R0
  1520 00:09FC: AD xx xx     	lda	|~~basicvars+42+2
  1521 00:09FF: 85 03        	sta	<R0+2
  1522 00:0A01: A5 14        	lda	<L88+step_0
  1523 00:0A03: A0 0F 00     	ldy	#$f
  1524 00:0A06: 97 01        	sta	[<R0],Y
  1525                        L91:
  1526 00:0A08: A5 06        	lda	<L88+2
  1527 00:0A0A: 85 16        	sta	<L88+2+16
  1528 00:0A0C: A5 05        	lda	<L88+1
  1529 00:0A0E: 85 15        	sta	<L88+1+16
  1530 00:0A10: 2B           	pld
  1531 00:0A11: 3B           	tsc
  1532 00:0A12: 18           	clc
  1533 00:0A13: 69 14 00     	adc	#L88+16
  1534 00:0A16: 1B           	tcs
  1535 00:0A17: 6B           	rtl
  1536             00000004   L88	equ	4
  1537             00000005   L89	equ	5
  Sun Jan  9 2022 20:52                                                Page 28


  1538                        	ends
  1539                        	efunc
  1540                        	code
  1541                        	xdef	~~push_floatfor
  1542                        	func
  1543                        ~~push_floatfor:
  1544                        	longa	on
  1545                        	longi	on
  1546 00:0A18: 3B           	tsc
  1547 00:0A19: 38           	sec
  1548 00:0A1A: E9 04 00     	sbc	#L92
  1549 00:0A1D: 1B           	tcs
  1550 00:0A1E: 0B           	phd
  1551 00:0A1F: 5B           	tcd
  1552             00000004   forvar_0	set	4
  1553             0000000A   foraddr_0	set	10
  1554             0000000E   limit_0	set	14
  1555             00000012   step_0	set	18
  1556             00000016   simple_0	set	22
  1557 00:0A20: 18           	clc
  1558 00:0A21: A9 EA FF     	lda	#$ffea
  1559 00:0A24: 6D xx xx     	adc	|~~basicvars+42
  1560 00:0A27: 8D xx xx     	sta	|~~basicvars+42
  1561 00:0A2A: A9 FF FF     	lda	#$ffff
  1562 00:0A2D: 6D xx xx     	adc	|~~basicvars+42+2
  1563 00:0A30: 8D xx xx     	sta	|~~basicvars+42+2
  1564 00:0A33: AD xx xx     	lda	|~~basicvars+42
  1565 00:0A36: CD xx xx     	cmp	|~~basicvars+38
  1566 00:0A39: AD xx xx     	lda	|~~basicvars+42+2
  1567 00:0A3C: ED xx xx     	sbc	|~~basicvars+38+2
  1568 00:0A3F: 90 03        	bcc	L94
  1569 00:0A41: 82 0A 00     	brl	L10012
  1570                        L94:
  1571 00:0A44: F4 5C 00     	pea	#<$5c
  1572 00:0A47: F4 04 00     	pea	#4
  1573 00:0A4A: 22 xx xx xx  	jsl	~~error
  1574                        L10012:
  1575 00:0A4E: AD xx xx     	lda	|~~basicvars+42
  1576 00:0A51: 85 01        	sta	<R0
  1577 00:0A53: AD xx xx     	lda	|~~basicvars+42+2
  1578 00:0A56: 85 03        	sta	<R0+2
  1579 00:0A58: A9 16 00     	lda	#$16
  1580 00:0A5B: 87 01        	sta	[<R0]
  1581 00:0A5D: AD xx xx     	lda	|~~basicvars+42
  1582 00:0A60: 85 01        	sta	<R0
  1583 00:0A62: AD xx xx     	lda	|~~basicvars+42+2
  1584 00:0A65: 85 03        	sta	<R0+2
  1585 00:0A67: E2 20        	sep	#$20
  1586                        	longa	off
  1587 00:0A69: A5 1A        	lda	<L92+simple_0
  1588 00:0A6B: A0 02 00     	ldy	#$2
  1589 00:0A6E: 97 01        	sta	[<R0],Y
  1590 00:0A70: C2 20        	rep	#$20
  1591                        	longa	on
  1592 00:0A72: 18           	clc
  1593 00:0A73: 7B           	tdc
  1594 00:0A74: 69 08 00     	adc	#<L92+forvar_0
  1595 00:0A77: 85 01        	sta	<R0
  Sun Jan  9 2022 20:52                                                Page 29


  1596 00:0A79: A9 00 00     	lda	#$0
  1597 00:0A7C: 85 03        	sta	<R0+2
  1598 00:0A7E: D4 03        	pei	<R0+2
  1599 00:0A80: D4 01        	pei	<R0
  1600 00:0A82: 18           	clc
  1601 00:0A83: A9 03 00     	lda	#$3
  1602 00:0A86: 6D xx xx     	adc	|~~basicvars+42
  1603 00:0A89: 85 01        	sta	<R0
  1604 00:0A8B: A9 00 00     	lda	#$0
  1605 00:0A8E: 6D xx xx     	adc	|~~basicvars+42+2
  1606 00:0A91: 85 03        	sta	<R0+2
  1607 00:0A93: D4 03        	pei	<R0+2
  1608 00:0A95: D4 01        	pei	<R0
  1609 00:0A97: A9 06 00     	lda	#$6
  1610                        	xref	~~~fmov
  1611 00:0A9A: 22 xx xx xx  	jsl	~~~fmov
  1612 00:0A9E: AD xx xx     	lda	|~~basicvars+42
  1613 00:0AA1: 85 01        	sta	<R0
  1614 00:0AA3: AD xx xx     	lda	|~~basicvars+42+2
  1615 00:0AA6: 85 03        	sta	<R0+2
  1616 00:0AA8: A5 0E        	lda	<L92+foraddr_0
  1617 00:0AAA: A0 09 00     	ldy	#$9
  1618 00:0AAD: 97 01        	sta	[<R0],Y
  1619 00:0AAF: A5 10        	lda	<L92+foraddr_0+2
  1620 00:0AB1: A0 0B 00     	ldy	#$b
  1621 00:0AB4: 97 01        	sta	[<R0],Y
  1622 00:0AB6: AD xx xx     	lda	|~~basicvars+42
  1623 00:0AB9: 85 01        	sta	<R0
  1624 00:0ABB: AD xx xx     	lda	|~~basicvars+42+2
  1625 00:0ABE: 85 03        	sta	<R0+2
  1626 00:0AC0: A5 12        	lda	<L92+limit_0
  1627 00:0AC2: A0 0D 00     	ldy	#$d
  1628 00:0AC5: 97 01        	sta	[<R0],Y
  1629 00:0AC7: A5 14        	lda	<L92+limit_0+2
  1630 00:0AC9: A0 0F 00     	ldy	#$f
  1631 00:0ACC: 97 01        	sta	[<R0],Y
  1632 00:0ACE: AD xx xx     	lda	|~~basicvars+42
  1633 00:0AD1: 85 01        	sta	<R0
  1634 00:0AD3: AD xx xx     	lda	|~~basicvars+42+2
  1635 00:0AD6: 85 03        	sta	<R0+2
  1636 00:0AD8: A5 16        	lda	<L92+step_0
  1637 00:0ADA: A0 11 00     	ldy	#$11
  1638 00:0ADD: 97 01        	sta	[<R0],Y
  1639 00:0ADF: A5 18        	lda	<L92+step_0+2
  1640 00:0AE1: A0 13 00     	ldy	#$13
  1641 00:0AE4: 97 01        	sta	[<R0],Y
  1642                        L95:
  1643 00:0AE6: A5 06        	lda	<L92+2
  1644 00:0AE8: 85 1A        	sta	<L92+2+20
  1645 00:0AEA: A5 05        	lda	<L92+1
  1646 00:0AEC: 85 19        	sta	<L92+1+20
  1647 00:0AEE: 2B           	pld
  1648 00:0AEF: 3B           	tsc
  1649 00:0AF0: 18           	clc
  1650 00:0AF1: 69 18 00     	adc	#L92+20
  1651 00:0AF4: 1B           	tcs
  1652 00:0AF5: 6B           	rtl
  1653             00000004   L92	equ	4
  Sun Jan  9 2022 20:52                                                Page 30


  1654             00000005   L93	equ	5
  1655                        	ends
  1656                        	efunc
  1657                        	code
  1658                        	xdef	~~push_data
  1659                        	func
  1660                        ~~push_data:
  1661                        	longa	on
  1662                        	longi	on
  1663 00:0AF6: 3B           	tsc
  1664 00:0AF7: 38           	sec
  1665 00:0AF8: E9 04 00     	sbc	#L96
  1666 00:0AFB: 1B           	tcs
  1667 00:0AFC: 0B           	phd
  1668 00:0AFD: 5B           	tcd
  1669             00000004   address_0	set	4
  1670 00:0AFE: 18           	clc
  1671 00:0AFF: A9 FA FF     	lda	#$fffa
  1672 00:0B02: 6D xx xx     	adc	|~~basicvars+42
  1673 00:0B05: 8D xx xx     	sta	|~~basicvars+42
  1674 00:0B08: A9 FF FF     	lda	#$ffff
  1675 00:0B0B: 6D xx xx     	adc	|~~basicvars+42+2
  1676 00:0B0E: 8D xx xx     	sta	|~~basicvars+42+2
  1677 00:0B11: AD xx xx     	lda	|~~basicvars+42
  1678 00:0B14: CD xx xx     	cmp	|~~basicvars+38
  1679 00:0B17: AD xx xx     	lda	|~~basicvars+42+2
  1680 00:0B1A: ED xx xx     	sbc	|~~basicvars+38+2
  1681 00:0B1D: 90 03        	bcc	L98
  1682 00:0B1F: 82 0A 00     	brl	L10013
  1683                        L98:
  1684 00:0B22: F4 5C 00     	pea	#<$5c
  1685 00:0B25: F4 04 00     	pea	#4
  1686 00:0B28: 22 xx xx xx  	jsl	~~error
  1687                        L10013:
  1688 00:0B2C: AD xx xx     	lda	|~~basicvars+42
  1689 00:0B2F: 85 01        	sta	<R0
  1690 00:0B31: AD xx xx     	lda	|~~basicvars+42+2
  1691 00:0B34: 85 03        	sta	<R0+2
  1692 00:0B36: A9 18 00     	lda	#$18
  1693 00:0B39: 87 01        	sta	[<R0]
  1694 00:0B3B: AD xx xx     	lda	|~~basicvars+42
  1695 00:0B3E: 85 01        	sta	<R0
  1696 00:0B40: AD xx xx     	lda	|~~basicvars+42+2
  1697 00:0B43: 85 03        	sta	<R0+2
  1698 00:0B45: A5 08        	lda	<L96+address_0
  1699 00:0B47: A0 02 00     	ldy	#$2
  1700 00:0B4A: 97 01        	sta	[<R0],Y
  1701 00:0B4C: A5 0A        	lda	<L96+address_0+2
  1702 00:0B4E: A0 04 00     	ldy	#$4
  1703 00:0B51: 97 01        	sta	[<R0],Y
  1704                        L99:
  1705 00:0B53: A5 06        	lda	<L96+2
  1706 00:0B55: 85 0A        	sta	<L96+2+4
  1707 00:0B57: A5 05        	lda	<L96+1
  1708 00:0B59: 85 09        	sta	<L96+1+4
  1709 00:0B5B: 2B           	pld
  1710 00:0B5C: 3B           	tsc
  1711 00:0B5D: 18           	clc
  Sun Jan  9 2022 20:52                                                Page 31


  1712 00:0B5E: 69 08 00     	adc	#L96+4
  1713 00:0B61: 1B           	tcs
  1714 00:0B62: 6B           	rtl
  1715             00000004   L96	equ	4
  1716             00000005   L97	equ	5
  1717                        	ends
  1718                        	efunc
  1719                        	code
  1720                        	xdef	~~push_error
  1721                        	func
  1722                        ~~push_error:
  1723                        	longa	on
  1724                        	longi	on
  1725 00:0B63: 3B           	tsc
  1726 00:0B64: 38           	sec
  1727 00:0B65: E9 04 00     	sbc	#L100
  1728 00:0B68: 1B           	tcs
  1729 00:0B69: 0B           	phd
  1730 00:0B6A: 5B           	tcd
  1731             00000004   handler_0	set	4
  1732 00:0B6B: 18           	clc
  1733 00:0B6C: A9 F4 FF     	lda	#$fff4
  1734 00:0B6F: 6D xx xx     	adc	|~~basicvars+42
  1735 00:0B72: 8D xx xx     	sta	|~~basicvars+42
  1736 00:0B75: A9 FF FF     	lda	#$ffff
  1737 00:0B78: 6D xx xx     	adc	|~~basicvars+42+2
  1738 00:0B7B: 8D xx xx     	sta	|~~basicvars+42+2
  1739 00:0B7E: AD xx xx     	lda	|~~basicvars+42
  1740 00:0B81: CD xx xx     	cmp	|~~basicvars+38
  1741 00:0B84: AD xx xx     	lda	|~~basicvars+42+2
  1742 00:0B87: ED xx xx     	sbc	|~~basicvars+38+2
  1743 00:0B8A: 90 03        	bcc	L102
  1744 00:0B8C: 82 0A 00     	brl	L10014
  1745                        L102:
  1746 00:0B8F: F4 5C 00     	pea	#<$5c
  1747 00:0B92: F4 04 00     	pea	#4
  1748 00:0B95: 22 xx xx xx  	jsl	~~error
  1749                        L10014:
  1750 00:0B99: AD xx xx     	lda	|~~basicvars+42
  1751 00:0B9C: 85 01        	sta	<R0
  1752 00:0B9E: AD xx xx     	lda	|~~basicvars+42+2
  1753 00:0BA1: 85 03        	sta	<R0+2
  1754 00:0BA3: A9 17 00     	lda	#$17
  1755 00:0BA6: 87 01        	sta	[<R0]
  1756 00:0BA8: 18           	clc
  1757 00:0BA9: 7B           	tdc
  1758 00:0BAA: 69 08 00     	adc	#<L100+handler_0
  1759 00:0BAD: 85 01        	sta	<R0
  1760 00:0BAF: A9 00 00     	lda	#$0
  1761 00:0BB2: 85 03        	sta	<R0+2
  1762 00:0BB4: D4 03        	pei	<R0+2
  1763 00:0BB6: D4 01        	pei	<R0
  1764 00:0BB8: 18           	clc
  1765 00:0BB9: A9 02 00     	lda	#$2
  1766 00:0BBC: 6D xx xx     	adc	|~~basicvars+42
  1767 00:0BBF: 85 01        	sta	<R0
  1768 00:0BC1: A9 00 00     	lda	#$0
  1769 00:0BC4: 6D xx xx     	adc	|~~basicvars+42+2
  Sun Jan  9 2022 20:52                                                Page 32


  1770 00:0BC7: 85 03        	sta	<R0+2
  1771 00:0BC9: D4 03        	pei	<R0+2
  1772 00:0BCB: D4 01        	pei	<R0
  1773 00:0BCD: A9 09 00     	lda	#$9
  1774                        	xref	~~~fmov
  1775 00:0BD0: 22 xx xx xx  	jsl	~~~fmov
  1776                        L103:
  1777 00:0BD4: A5 06        	lda	<L100+2
  1778 00:0BD6: 85 0F        	sta	<L100+2+9
  1779 00:0BD8: A5 05        	lda	<L100+1
  1780 00:0BDA: 85 0E        	sta	<L100+1+9
  1781 00:0BDC: 2B           	pld
  1782 00:0BDD: 3B           	tsc
  1783 00:0BDE: 18           	clc
  1784 00:0BDF: 69 0D 00     	adc	#L100+9
  1785 00:0BE2: 1B           	tcs
  1786 00:0BE3: 6B           	rtl
  1787             00000004   L100	equ	4
  1788             00000005   L101	equ	5
  1789                        	ends
  1790                        	efunc
  1791                        	code
  1792                        	xdef	~~save_int
  1793                        	func
  1794                        ~~save_int:
  1795                        	longa	on
  1796                        	longi	on
  1797 00:0BE4: 3B           	tsc
  1798 00:0BE5: 38           	sec
  1799 00:0BE6: E9 04 00     	sbc	#L104
  1800 00:0BE9: 1B           	tcs
  1801 00:0BEA: 0B           	phd
  1802 00:0BEB: 5B           	tcd
  1803             00000004   details_0	set	4
  1804             0000000A   value_0	set	10
  1805 00:0BEC: 18           	clc
  1806 00:0BED: A9 F2 FF     	lda	#$fff2
  1807 00:0BF0: 6D xx xx     	adc	|~~basicvars+42
  1808 00:0BF3: 8D xx xx     	sta	|~~basicvars+42
  1809 00:0BF6: A9 FF FF     	lda	#$ffff
  1810 00:0BF9: 6D xx xx     	adc	|~~basicvars+42+2
  1811 00:0BFC: 8D xx xx     	sta	|~~basicvars+42+2
  1812 00:0BFF: AD xx xx     	lda	|~~basicvars+42
  1813 00:0C02: CD xx xx     	cmp	|~~basicvars+38
  1814 00:0C05: AD xx xx     	lda	|~~basicvars+42+2
  1815 00:0C08: ED xx xx     	sbc	|~~basicvars+38+2
  1816 00:0C0B: 90 03        	bcc	L106
  1817 00:0C0D: 82 0A 00     	brl	L10015
  1818                        L106:
  1819 00:0C10: F4 5C 00     	pea	#<$5c
  1820 00:0C13: F4 04 00     	pea	#4
  1821 00:0C16: 22 xx xx xx  	jsl	~~error
  1822                        L10015:
  1823 00:0C1A: AD xx xx     	lda	|~~basicvars+42
  1824 00:0C1D: 85 01        	sta	<R0
  1825 00:0C1F: AD xx xx     	lda	|~~basicvars+42+2
  1826 00:0C22: 85 03        	sta	<R0+2
  1827 00:0C24: A9 11 00     	lda	#$11
  Sun Jan  9 2022 20:52                                                Page 33


  1828 00:0C27: 87 01        	sta	[<R0]
  1829 00:0C29: 18           	clc
  1830 00:0C2A: 7B           	tdc
  1831 00:0C2B: 69 08 00     	adc	#<L104+details_0
  1832 00:0C2E: 85 01        	sta	<R0
  1833 00:0C30: A9 00 00     	lda	#$0
  1834 00:0C33: 85 03        	sta	<R0+2
  1835 00:0C35: D4 03        	pei	<R0+2
  1836 00:0C37: D4 01        	pei	<R0
  1837 00:0C39: 18           	clc
  1838 00:0C3A: A9 02 00     	lda	#$2
  1839 00:0C3D: 6D xx xx     	adc	|~~basicvars+42
  1840 00:0C40: 85 01        	sta	<R0
  1841 00:0C42: A9 00 00     	lda	#$0
  1842 00:0C45: 6D xx xx     	adc	|~~basicvars+42+2
  1843 00:0C48: 85 03        	sta	<R0+2
  1844 00:0C4A: D4 03        	pei	<R0+2
  1845 00:0C4C: D4 01        	pei	<R0
  1846 00:0C4E: A9 06 00     	lda	#$6
  1847                        	xref	~~~fmov
  1848 00:0C51: 22 xx xx xx  	jsl	~~~fmov
  1849 00:0C55: AD xx xx     	lda	|~~basicvars+42
  1850 00:0C58: 85 01        	sta	<R0
  1851 00:0C5A: AD xx xx     	lda	|~~basicvars+42+2
  1852 00:0C5D: 85 03        	sta	<R0+2
  1853 00:0C5F: A5 0E        	lda	<L104+value_0
  1854 00:0C61: A0 08 00     	ldy	#$8
  1855 00:0C64: 97 01        	sta	[<R0],Y
  1856                        L107:
  1857 00:0C66: A5 06        	lda	<L104+2
  1858 00:0C68: 85 0E        	sta	<L104+2+8
  1859 00:0C6A: A5 05        	lda	<L104+1
  1860 00:0C6C: 85 0D        	sta	<L104+1+8
  1861 00:0C6E: 2B           	pld
  1862 00:0C6F: 3B           	tsc
  1863 00:0C70: 18           	clc
  1864 00:0C71: 69 0C 00     	adc	#L104+8
  1865 00:0C74: 1B           	tcs
  1866 00:0C75: 6B           	rtl
  1867             00000004   L104	equ	4
  1868             00000005   L105	equ	5
  1869                        	ends
  1870                        	efunc
  1871                        	code
  1872                        	xdef	~~save_float
  1873                        	func
  1874                        ~~save_float:
  1875                        	longa	on
  1876                        	longi	on
  1877 00:0C76: 3B           	tsc
  1878 00:0C77: 38           	sec
  1879 00:0C78: E9 04 00     	sbc	#L108
  1880 00:0C7B: 1B           	tcs
  1881 00:0C7C: 0B           	phd
  1882 00:0C7D: 5B           	tcd
  1883             00000004   details_0	set	4
  1884             0000000A   floatvalue_0	set	10
  1885 00:0C7E: 18           	clc
  Sun Jan  9 2022 20:52                                                Page 34


  1886 00:0C7F: A9 F2 FF     	lda	#$fff2
  1887 00:0C82: 6D xx xx     	adc	|~~basicvars+42
  1888 00:0C85: 8D xx xx     	sta	|~~basicvars+42
  1889 00:0C88: A9 FF FF     	lda	#$ffff
  1890 00:0C8B: 6D xx xx     	adc	|~~basicvars+42+2
  1891 00:0C8E: 8D xx xx     	sta	|~~basicvars+42+2
  1892 00:0C91: AD xx xx     	lda	|~~basicvars+42
  1893 00:0C94: CD xx xx     	cmp	|~~basicvars+38
  1894 00:0C97: AD xx xx     	lda	|~~basicvars+42+2
  1895 00:0C9A: ED xx xx     	sbc	|~~basicvars+38+2
  1896 00:0C9D: 90 03        	bcc	L110
  1897 00:0C9F: 82 0A 00     	brl	L10016
  1898                        L110:
  1899 00:0CA2: F4 5C 00     	pea	#<$5c
  1900 00:0CA5: F4 04 00     	pea	#4
  1901 00:0CA8: 22 xx xx xx  	jsl	~~error
  1902                        L10016:
  1903 00:0CAC: AD xx xx     	lda	|~~basicvars+42
  1904 00:0CAF: 85 01        	sta	<R0
  1905 00:0CB1: AD xx xx     	lda	|~~basicvars+42+2
  1906 00:0CB4: 85 03        	sta	<R0+2
  1907 00:0CB6: A9 11 00     	lda	#$11
  1908 00:0CB9: 87 01        	sta	[<R0]
  1909 00:0CBB: 18           	clc
  1910 00:0CBC: 7B           	tdc
  1911 00:0CBD: 69 08 00     	adc	#<L108+details_0
  1912 00:0CC0: 85 01        	sta	<R0
  1913 00:0CC2: A9 00 00     	lda	#$0
  1914 00:0CC5: 85 03        	sta	<R0+2
  1915 00:0CC7: D4 03        	pei	<R0+2
  1916 00:0CC9: D4 01        	pei	<R0
  1917 00:0CCB: 18           	clc
  1918 00:0CCC: A9 02 00     	lda	#$2
  1919 00:0CCF: 6D xx xx     	adc	|~~basicvars+42
  1920 00:0CD2: 85 01        	sta	<R0
  1921 00:0CD4: A9 00 00     	lda	#$0
  1922 00:0CD7: 6D xx xx     	adc	|~~basicvars+42+2
  1923 00:0CDA: 85 03        	sta	<R0+2
  1924 00:0CDC: D4 03        	pei	<R0+2
  1925 00:0CDE: D4 01        	pei	<R0
  1926 00:0CE0: A9 06 00     	lda	#$6
  1927                        	xref	~~~fmov
  1928 00:0CE3: 22 xx xx xx  	jsl	~~~fmov
  1929 00:0CE7: AD xx xx     	lda	|~~basicvars+42
  1930 00:0CEA: 85 01        	sta	<R0
  1931 00:0CEC: AD xx xx     	lda	|~~basicvars+42+2
  1932 00:0CEF: 85 03        	sta	<R0+2
  1933 00:0CF1: A5 0E        	lda	<L108+floatvalue_0
  1934 00:0CF3: A0 08 00     	ldy	#$8
  1935 00:0CF6: 97 01        	sta	[<R0],Y
  1936 00:0CF8: A5 10        	lda	<L108+floatvalue_0+2
  1937 00:0CFA: A0 0A 00     	ldy	#$a
  1938 00:0CFD: 97 01        	sta	[<R0],Y
  1939                        L111:
  1940 00:0CFF: A5 06        	lda	<L108+2
  1941 00:0D01: 85 10        	sta	<L108+2+10
  1942 00:0D03: A5 05        	lda	<L108+1
  1943 00:0D05: 85 0F        	sta	<L108+1+10
  Sun Jan  9 2022 20:52                                                Page 35


  1944 00:0D07: 2B           	pld
  1945 00:0D08: 3B           	tsc
  1946 00:0D09: 18           	clc
  1947 00:0D0A: 69 0E 00     	adc	#L108+10
  1948 00:0D0D: 1B           	tcs
  1949 00:0D0E: 6B           	rtl
  1950             00000004   L108	equ	4
  1951             00000005   L109	equ	5
  1952                        	ends
  1953                        	efunc
  1954                        	code
  1955                        	xdef	~~save_string
  1956                        	func
  1957                        ~~save_string:
  1958                        	longa	on
  1959                        	longi	on
  1960 00:0D0F: 3B           	tsc
  1961 00:0D10: 38           	sec
  1962 00:0D11: E9 04 00     	sbc	#L112
  1963 00:0D14: 1B           	tcs
  1964 00:0D15: 0B           	phd
  1965 00:0D16: 5B           	tcd
  1966             00000004   details_0	set	4
  1967             0000000A   thestring_0	set	10
  1968 00:0D17: 18           	clc
  1969 00:0D18: A9 F2 FF     	lda	#$fff2
  1970 00:0D1B: 6D xx xx     	adc	|~~basicvars+42
  1971 00:0D1E: 8D xx xx     	sta	|~~basicvars+42
  1972 00:0D21: A9 FF FF     	lda	#$ffff
  1973 00:0D24: 6D xx xx     	adc	|~~basicvars+42+2
  1974 00:0D27: 8D xx xx     	sta	|~~basicvars+42+2
  1975 00:0D2A: AD xx xx     	lda	|~~basicvars+42
  1976 00:0D2D: CD xx xx     	cmp	|~~basicvars+38
  1977 00:0D30: AD xx xx     	lda	|~~basicvars+42+2
  1978 00:0D33: ED xx xx     	sbc	|~~basicvars+38+2
  1979 00:0D36: 90 03        	bcc	L114
  1980 00:0D38: 82 0A 00     	brl	L10017
  1981                        L114:
  1982 00:0D3B: F4 5C 00     	pea	#<$5c
  1983 00:0D3E: F4 04 00     	pea	#4
  1984 00:0D41: 22 xx xx xx  	jsl	~~error
  1985                        L10017:
  1986 00:0D45: AD xx xx     	lda	|~~basicvars+42
  1987 00:0D48: 85 01        	sta	<R0
  1988 00:0D4A: AD xx xx     	lda	|~~basicvars+42+2
  1989 00:0D4D: 85 03        	sta	<R0+2
  1990 00:0D4F: A9 11 00     	lda	#$11
  1991 00:0D52: 87 01        	sta	[<R0]
  1992 00:0D54: 18           	clc
  1993 00:0D55: 7B           	tdc
  1994 00:0D56: 69 08 00     	adc	#<L112+details_0
  1995 00:0D59: 85 01        	sta	<R0
  1996 00:0D5B: A9 00 00     	lda	#$0
  1997 00:0D5E: 85 03        	sta	<R0+2
  1998 00:0D60: D4 03        	pei	<R0+2
  1999 00:0D62: D4 01        	pei	<R0
  2000 00:0D64: 18           	clc
  2001 00:0D65: A9 02 00     	lda	#$2
  Sun Jan  9 2022 20:52                                                Page 36


  2002 00:0D68: 6D xx xx     	adc	|~~basicvars+42
  2003 00:0D6B: 85 01        	sta	<R0
  2004 00:0D6D: A9 00 00     	lda	#$0
  2005 00:0D70: 6D xx xx     	adc	|~~basicvars+42+2
  2006 00:0D73: 85 03        	sta	<R0+2
  2007 00:0D75: D4 03        	pei	<R0+2
  2008 00:0D77: D4 01        	pei	<R0
  2009 00:0D79: A9 06 00     	lda	#$6
  2010                        	xref	~~~fmov
  2011 00:0D7C: 22 xx xx xx  	jsl	~~~fmov
  2012 00:0D80: 18           	clc
  2013 00:0D81: 7B           	tdc
  2014 00:0D82: 69 0E 00     	adc	#<L112+thestring_0
  2015 00:0D85: 85 01        	sta	<R0
  2016 00:0D87: A9 00 00     	lda	#$0
  2017 00:0D8A: 85 03        	sta	<R0+2
  2018 00:0D8C: D4 03        	pei	<R0+2
  2019 00:0D8E: D4 01        	pei	<R0
  2020 00:0D90: 18           	clc
  2021 00:0D91: A9 08 00     	lda	#$8
  2022 00:0D94: 6D xx xx     	adc	|~~basicvars+42
  2023 00:0D97: 85 01        	sta	<R0
  2024 00:0D99: A9 00 00     	lda	#$0
  2025 00:0D9C: 6D xx xx     	adc	|~~basicvars+42+2
  2026 00:0D9F: 85 03        	sta	<R0+2
  2027 00:0DA1: D4 03        	pei	<R0+2
  2028 00:0DA3: D4 01        	pei	<R0
  2029 00:0DA5: A9 06 00     	lda	#$6
  2030                        	xref	~~~fmov
  2031 00:0DA8: 22 xx xx xx  	jsl	~~~fmov
  2032                        L115:
  2033 00:0DAC: A5 06        	lda	<L112+2
  2034 00:0DAE: 85 12        	sta	<L112+2+12
  2035 00:0DB0: A5 05        	lda	<L112+1
  2036 00:0DB2: 85 11        	sta	<L112+1+12
  2037 00:0DB4: 2B           	pld
  2038 00:0DB5: 3B           	tsc
  2039 00:0DB6: 18           	clc
  2040 00:0DB7: 69 10 00     	adc	#L112+12
  2041 00:0DBA: 1B           	tcs
  2042 00:0DBB: 6B           	rtl
  2043             00000004   L112	equ	4
  2044             00000005   L113	equ	5
  2045                        	ends
  2046                        	efunc
  2047                        	code
  2048                        	xdef	~~save_array
  2049                        	func
  2050                        ~~save_array:
  2051                        	longa	on
  2052                        	longi	on
  2053 00:0DBC: 3B           	tsc
  2054 00:0DBD: 38           	sec
  2055 00:0DBE: E9 04 00     	sbc	#L116
  2056 00:0DC1: 1B           	tcs
  2057 00:0DC2: 0B           	phd
  2058 00:0DC3: 5B           	tcd
  2059             00000004   details_0	set	4
  Sun Jan  9 2022 20:52                                                Page 37


  2060 00:0DC4: 18           	clc
  2061 00:0DC5: A9 F2 FF     	lda	#$fff2
  2062 00:0DC8: 6D xx xx     	adc	|~~basicvars+42
  2063 00:0DCB: 8D xx xx     	sta	|~~basicvars+42
  2064 00:0DCE: A9 FF FF     	lda	#$ffff
  2065 00:0DD1: 6D xx xx     	adc	|~~basicvars+42+2
  2066 00:0DD4: 8D xx xx     	sta	|~~basicvars+42+2
  2067 00:0DD7: AD xx xx     	lda	|~~basicvars+42
  2068 00:0DDA: CD xx xx     	cmp	|~~basicvars+38
  2069 00:0DDD: AD xx xx     	lda	|~~basicvars+42+2
  2070 00:0DE0: ED xx xx     	sbc	|~~basicvars+38+2
  2071 00:0DE3: 90 03        	bcc	L118
  2072 00:0DE5: 82 0A 00     	brl	L10018
  2073                        L118:
  2074 00:0DE8: F4 5C 00     	pea	#<$5c
  2075 00:0DEB: F4 04 00     	pea	#4
  2076 00:0DEE: 22 xx xx xx  	jsl	~~error
  2077                        L10018:
  2078 00:0DF2: AD xx xx     	lda	|~~basicvars+42
  2079 00:0DF5: 85 01        	sta	<R0
  2080 00:0DF7: AD xx xx     	lda	|~~basicvars+42+2
  2081 00:0DFA: 85 03        	sta	<R0+2
  2082 00:0DFC: A9 11 00     	lda	#$11
  2083 00:0DFF: 87 01        	sta	[<R0]
  2084 00:0E01: 18           	clc
  2085 00:0E02: 7B           	tdc
  2086 00:0E03: 69 08 00     	adc	#<L116+details_0
  2087 00:0E06: 85 01        	sta	<R0
  2088 00:0E08: A9 00 00     	lda	#$0
  2089 00:0E0B: 85 03        	sta	<R0+2
  2090 00:0E0D: D4 03        	pei	<R0+2
  2091 00:0E0F: D4 01        	pei	<R0
  2092 00:0E11: 18           	clc
  2093 00:0E12: A9 02 00     	lda	#$2
  2094 00:0E15: 6D xx xx     	adc	|~~basicvars+42
  2095 00:0E18: 85 01        	sta	<R0
  2096 00:0E1A: A9 00 00     	lda	#$0
  2097 00:0E1D: 6D xx xx     	adc	|~~basicvars+42+2
  2098 00:0E20: 85 03        	sta	<R0+2
  2099 00:0E22: D4 03        	pei	<R0+2
  2100 00:0E24: D4 01        	pei	<R0
  2101 00:0E26: A9 06 00     	lda	#$6
  2102                        	xref	~~~fmov
  2103 00:0E29: 22 xx xx xx  	jsl	~~~fmov
  2104 00:0E2D: AD xx xx     	lda	|~~basicvars+42
  2105 00:0E30: 85 01        	sta	<R0
  2106 00:0E32: AD xx xx     	lda	|~~basicvars+42+2
  2107 00:0E35: 85 03        	sta	<R0+2
  2108 00:0E37: A7 0A        	lda	[<L116+details_0+2]
  2109 00:0E39: A0 08 00     	ldy	#$8
  2110 00:0E3C: 97 01        	sta	[<R0],Y
  2111 00:0E3E: A0 02 00     	ldy	#$2
  2112 00:0E41: B7 0A        	lda	[<L116+details_0+2],Y
  2113 00:0E43: A0 0A 00     	ldy	#$a
  2114 00:0E46: 97 01        	sta	[<R0],Y
  2115                        L119:
  2116 00:0E48: A5 06        	lda	<L116+2
  2117 00:0E4A: 85 0C        	sta	<L116+2+6
  Sun Jan  9 2022 20:52                                                Page 38


  2118 00:0E4C: A5 05        	lda	<L116+1
  2119 00:0E4E: 85 0B        	sta	<L116+1+6
  2120 00:0E50: 2B           	pld
  2121 00:0E51: 3B           	tsc
  2122 00:0E52: 18           	clc
  2123 00:0E53: 69 0A 00     	adc	#L116+6
  2124 00:0E56: 1B           	tcs
  2125 00:0E57: 6B           	rtl
  2126             00000004   L116	equ	4
  2127             00000005   L117	equ	5
  2128                        	ends
  2129                        	efunc
  2130                        	code
  2131                        	xdef	~~save_retint
  2132                        	func
  2133                        ~~save_retint:
  2134                        	longa	on
  2135                        	longi	on
  2136 00:0E58: 3B           	tsc
  2137 00:0E59: 38           	sec
  2138 00:0E5A: E9 04 00     	sbc	#L120
  2139 00:0E5D: 1B           	tcs
  2140 00:0E5E: 0B           	phd
  2141 00:0E5F: 5B           	tcd
  2142             00000004   retdetails_0	set	4
  2143             0000000A   details_0	set	10
  2144             00000010   value_0	set	16
  2145 00:0E60: 18           	clc
  2146 00:0E61: A9 EC FF     	lda	#$ffec
  2147 00:0E64: 6D xx xx     	adc	|~~basicvars+42
  2148 00:0E67: 8D xx xx     	sta	|~~basicvars+42
  2149 00:0E6A: A9 FF FF     	lda	#$ffff
  2150 00:0E6D: 6D xx xx     	adc	|~~basicvars+42+2
  2151 00:0E70: 8D xx xx     	sta	|~~basicvars+42+2
  2152 00:0E73: AD xx xx     	lda	|~~basicvars+42
  2153 00:0E76: CD xx xx     	cmp	|~~basicvars+38
  2154 00:0E79: AD xx xx     	lda	|~~basicvars+42+2
  2155 00:0E7C: ED xx xx     	sbc	|~~basicvars+38+2
  2156 00:0E7F: 90 03        	bcc	L122
  2157 00:0E81: 82 0A 00     	brl	L10019
  2158                        L122:
  2159 00:0E84: F4 5C 00     	pea	#<$5c
  2160 00:0E87: F4 04 00     	pea	#4
  2161 00:0E8A: 22 xx xx xx  	jsl	~~error
  2162                        L10019:
  2163 00:0E8E: AD xx xx     	lda	|~~basicvars+42
  2164 00:0E91: 85 01        	sta	<R0
  2165 00:0E93: AD xx xx     	lda	|~~basicvars+42+2
  2166 00:0E96: 85 03        	sta	<R0+2
  2167 00:0E98: A9 12 00     	lda	#$12
  2168 00:0E9B: 87 01        	sta	[<R0]
  2169 00:0E9D: 18           	clc
  2170 00:0E9E: 7B           	tdc
  2171 00:0E9F: 69 08 00     	adc	#<L120+retdetails_0
  2172 00:0EA2: 85 01        	sta	<R0
  2173 00:0EA4: A9 00 00     	lda	#$0
  2174 00:0EA7: 85 03        	sta	<R0+2
  2175 00:0EA9: D4 03        	pei	<R0+2
  Sun Jan  9 2022 20:52                                                Page 39


  2176 00:0EAB: D4 01        	pei	<R0
  2177 00:0EAD: 18           	clc
  2178 00:0EAE: A9 08 00     	lda	#$8
  2179 00:0EB1: 6D xx xx     	adc	|~~basicvars+42
  2180 00:0EB4: 85 01        	sta	<R0
  2181 00:0EB6: A9 00 00     	lda	#$0
  2182 00:0EB9: 6D xx xx     	adc	|~~basicvars+42+2
  2183 00:0EBC: 85 03        	sta	<R0+2
  2184 00:0EBE: D4 03        	pei	<R0+2
  2185 00:0EC0: D4 01        	pei	<R0
  2186 00:0EC2: A9 06 00     	lda	#$6
  2187                        	xref	~~~fmov
  2188 00:0EC5: 22 xx xx xx  	jsl	~~~fmov
  2189 00:0EC9: 18           	clc
  2190 00:0ECA: 7B           	tdc
  2191 00:0ECB: 69 0E 00     	adc	#<L120+details_0
  2192 00:0ECE: 85 01        	sta	<R0
  2193 00:0ED0: A9 00 00     	lda	#$0
  2194 00:0ED3: 85 03        	sta	<R0+2
  2195 00:0ED5: D4 03        	pei	<R0+2
  2196 00:0ED7: D4 01        	pei	<R0
  2197 00:0ED9: 18           	clc
  2198 00:0EDA: A9 02 00     	lda	#$2
  2199 00:0EDD: 6D xx xx     	adc	|~~basicvars+42
  2200 00:0EE0: 85 01        	sta	<R0
  2201 00:0EE2: A9 00 00     	lda	#$0
  2202 00:0EE5: 6D xx xx     	adc	|~~basicvars+42+2
  2203 00:0EE8: 85 03        	sta	<R0+2
  2204 00:0EEA: D4 03        	pei	<R0+2
  2205 00:0EEC: D4 01        	pei	<R0
  2206 00:0EEE: A9 06 00     	lda	#$6
  2207                        	xref	~~~fmov
  2208 00:0EF1: 22 xx xx xx  	jsl	~~~fmov
  2209 00:0EF5: AD xx xx     	lda	|~~basicvars+42
  2210 00:0EF8: 85 01        	sta	<R0
  2211 00:0EFA: AD xx xx     	lda	|~~basicvars+42+2
  2212 00:0EFD: 85 03        	sta	<R0+2
  2213 00:0EFF: A5 14        	lda	<L120+value_0
  2214 00:0F01: A0 0E 00     	ldy	#$e
  2215 00:0F04: 97 01        	sta	[<R0],Y
  2216                        L123:
  2217 00:0F06: A5 06        	lda	<L120+2
  2218 00:0F08: 85 14        	sta	<L120+2+14
  2219 00:0F0A: A5 05        	lda	<L120+1
  2220 00:0F0C: 85 13        	sta	<L120+1+14
  2221 00:0F0E: 2B           	pld
  2222 00:0F0F: 3B           	tsc
  2223 00:0F10: 18           	clc
  2224 00:0F11: 69 12 00     	adc	#L120+14
  2225 00:0F14: 1B           	tcs
  2226 00:0F15: 6B           	rtl
  2227             00000004   L120	equ	4
  2228             00000005   L121	equ	5
  2229                        	ends
  2230                        	efunc
  2231                        	code
  2232                        	xdef	~~save_retfloat
  2233                        	func
  Sun Jan  9 2022 20:52                                                Page 40


  2234                        ~~save_retfloat:
  2235                        	longa	on
  2236                        	longi	on
  2237 00:0F16: 3B           	tsc
  2238 00:0F17: 38           	sec
  2239 00:0F18: E9 04 00     	sbc	#L124
  2240 00:0F1B: 1B           	tcs
  2241 00:0F1C: 0B           	phd
  2242 00:0F1D: 5B           	tcd
  2243             00000004   retdetails_0	set	4
  2244             0000000A   details_0	set	10
  2245             00000010   floatvalue_0	set	16
  2246 00:0F1E: 18           	clc
  2247 00:0F1F: A9 EC FF     	lda	#$ffec
  2248 00:0F22: 6D xx xx     	adc	|~~basicvars+42
  2249 00:0F25: 8D xx xx     	sta	|~~basicvars+42
  2250 00:0F28: A9 FF FF     	lda	#$ffff
  2251 00:0F2B: 6D xx xx     	adc	|~~basicvars+42+2
  2252 00:0F2E: 8D xx xx     	sta	|~~basicvars+42+2
  2253 00:0F31: AD xx xx     	lda	|~~basicvars+42
  2254 00:0F34: CD xx xx     	cmp	|~~basicvars+38
  2255 00:0F37: AD xx xx     	lda	|~~basicvars+42+2
  2256 00:0F3A: ED xx xx     	sbc	|~~basicvars+38+2
  2257 00:0F3D: 90 03        	bcc	L126
  2258 00:0F3F: 82 0A 00     	brl	L10020
  2259                        L126:
  2260 00:0F42: F4 5C 00     	pea	#<$5c
  2261 00:0F45: F4 04 00     	pea	#4
  2262 00:0F48: 22 xx xx xx  	jsl	~~error
  2263                        L10020:
  2264 00:0F4C: AD xx xx     	lda	|~~basicvars+42
  2265 00:0F4F: 85 01        	sta	<R0
  2266 00:0F51: AD xx xx     	lda	|~~basicvars+42+2
  2267 00:0F54: 85 03        	sta	<R0+2
  2268 00:0F56: A9 12 00     	lda	#$12
  2269 00:0F59: 87 01        	sta	[<R0]
  2270 00:0F5B: 18           	clc
  2271 00:0F5C: 7B           	tdc
  2272 00:0F5D: 69 08 00     	adc	#<L124+retdetails_0
  2273 00:0F60: 85 01        	sta	<R0
  2274 00:0F62: A9 00 00     	lda	#$0
  2275 00:0F65: 85 03        	sta	<R0+2
  2276 00:0F67: D4 03        	pei	<R0+2
  2277 00:0F69: D4 01        	pei	<R0
  2278 00:0F6B: 18           	clc
  2279 00:0F6C: A9 08 00     	lda	#$8
  2280 00:0F6F: 6D xx xx     	adc	|~~basicvars+42
  2281 00:0F72: 85 01        	sta	<R0
  2282 00:0F74: A9 00 00     	lda	#$0
  2283 00:0F77: 6D xx xx     	adc	|~~basicvars+42+2
  2284 00:0F7A: 85 03        	sta	<R0+2
  2285 00:0F7C: D4 03        	pei	<R0+2
  2286 00:0F7E: D4 01        	pei	<R0
  2287 00:0F80: A9 06 00     	lda	#$6
  2288                        	xref	~~~fmov
  2289 00:0F83: 22 xx xx xx  	jsl	~~~fmov
  2290 00:0F87: 18           	clc
  2291 00:0F88: 7B           	tdc
  Sun Jan  9 2022 20:52                                                Page 41


  2292 00:0F89: 69 0E 00     	adc	#<L124+details_0
  2293 00:0F8C: 85 01        	sta	<R0
  2294 00:0F8E: A9 00 00     	lda	#$0
  2295 00:0F91: 85 03        	sta	<R0+2
  2296 00:0F93: D4 03        	pei	<R0+2
  2297 00:0F95: D4 01        	pei	<R0
  2298 00:0F97: 18           	clc
  2299 00:0F98: A9 02 00     	lda	#$2
  2300 00:0F9B: 6D xx xx     	adc	|~~basicvars+42
  2301 00:0F9E: 85 01        	sta	<R0
  2302 00:0FA0: A9 00 00     	lda	#$0
  2303 00:0FA3: 6D xx xx     	adc	|~~basicvars+42+2
  2304 00:0FA6: 85 03        	sta	<R0+2
  2305 00:0FA8: D4 03        	pei	<R0+2
  2306 00:0FAA: D4 01        	pei	<R0
  2307 00:0FAC: A9 06 00     	lda	#$6
  2308                        	xref	~~~fmov
  2309 00:0FAF: 22 xx xx xx  	jsl	~~~fmov
  2310 00:0FB3: AD xx xx     	lda	|~~basicvars+42
  2311 00:0FB6: 85 01        	sta	<R0
  2312 00:0FB8: AD xx xx     	lda	|~~basicvars+42+2
  2313 00:0FBB: 85 03        	sta	<R0+2
  2314 00:0FBD: A5 14        	lda	<L124+floatvalue_0
  2315 00:0FBF: A0 0E 00     	ldy	#$e
  2316 00:0FC2: 97 01        	sta	[<R0],Y
  2317 00:0FC4: A5 16        	lda	<L124+floatvalue_0+2
  2318 00:0FC6: A0 10 00     	ldy	#$10
  2319 00:0FC9: 97 01        	sta	[<R0],Y
  2320                        L127:
  2321 00:0FCB: A5 06        	lda	<L124+2
  2322 00:0FCD: 85 16        	sta	<L124+2+16
  2323 00:0FCF: A5 05        	lda	<L124+1
  2324 00:0FD1: 85 15        	sta	<L124+1+16
  2325 00:0FD3: 2B           	pld
  2326 00:0FD4: 3B           	tsc
  2327 00:0FD5: 18           	clc
  2328 00:0FD6: 69 14 00     	adc	#L124+16
  2329 00:0FD9: 1B           	tcs
  2330 00:0FDA: 6B           	rtl
  2331             00000004   L124	equ	4
  2332             00000005   L125	equ	5
  2333                        	ends
  2334                        	efunc
  2335                        	code
  2336                        	xdef	~~save_retstring
  2337                        	func
  2338                        ~~save_retstring:
  2339                        	longa	on
  2340                        	longi	on
  2341 00:0FDB: 3B           	tsc
  2342 00:0FDC: 38           	sec
  2343 00:0FDD: E9 04 00     	sbc	#L128
  2344 00:0FE0: 1B           	tcs
  2345 00:0FE1: 0B           	phd
  2346 00:0FE2: 5B           	tcd
  2347             00000004   retdetails_0	set	4
  2348             0000000A   details_0	set	10
  2349             00000010   thestring_0	set	16
  Sun Jan  9 2022 20:52                                                Page 42


  2350 00:0FE3: 18           	clc
  2351 00:0FE4: A9 EC FF     	lda	#$ffec
  2352 00:0FE7: 6D xx xx     	adc	|~~basicvars+42
  2353 00:0FEA: 8D xx xx     	sta	|~~basicvars+42
  2354 00:0FED: A9 FF FF     	lda	#$ffff
  2355 00:0FF0: 6D xx xx     	adc	|~~basicvars+42+2
  2356 00:0FF3: 8D xx xx     	sta	|~~basicvars+42+2
  2357 00:0FF6: AD xx xx     	lda	|~~basicvars+42
  2358 00:0FF9: CD xx xx     	cmp	|~~basicvars+38
  2359 00:0FFC: AD xx xx     	lda	|~~basicvars+42+2
  2360 00:0FFF: ED xx xx     	sbc	|~~basicvars+38+2
  2361 00:1002: 90 03        	bcc	L130
  2362 00:1004: 82 0A 00     	brl	L10021
  2363                        L130:
  2364 00:1007: F4 5C 00     	pea	#<$5c
  2365 00:100A: F4 04 00     	pea	#4
  2366 00:100D: 22 xx xx xx  	jsl	~~error
  2367                        L10021:
  2368 00:1011: AD xx xx     	lda	|~~basicvars+42
  2369 00:1014: 85 01        	sta	<R0
  2370 00:1016: AD xx xx     	lda	|~~basicvars+42+2
  2371 00:1019: 85 03        	sta	<R0+2
  2372 00:101B: A9 12 00     	lda	#$12
  2373 00:101E: 87 01        	sta	[<R0]
  2374 00:1020: 18           	clc
  2375 00:1021: 7B           	tdc
  2376 00:1022: 69 08 00     	adc	#<L128+retdetails_0
  2377 00:1025: 85 01        	sta	<R0
  2378 00:1027: A9 00 00     	lda	#$0
  2379 00:102A: 85 03        	sta	<R0+2
  2380 00:102C: D4 03        	pei	<R0+2
  2381 00:102E: D4 01        	pei	<R0
  2382 00:1030: 18           	clc
  2383 00:1031: A9 08 00     	lda	#$8
  2384 00:1034: 6D xx xx     	adc	|~~basicvars+42
  2385 00:1037: 85 01        	sta	<R0
  2386 00:1039: A9 00 00     	lda	#$0
  2387 00:103C: 6D xx xx     	adc	|~~basicvars+42+2
  2388 00:103F: 85 03        	sta	<R0+2
  2389 00:1041: D4 03        	pei	<R0+2
  2390 00:1043: D4 01        	pei	<R0
  2391 00:1045: A9 06 00     	lda	#$6
  2392                        	xref	~~~fmov
  2393 00:1048: 22 xx xx xx  	jsl	~~~fmov
  2394 00:104C: 18           	clc
  2395 00:104D: 7B           	tdc
  2396 00:104E: 69 0E 00     	adc	#<L128+details_0
  2397 00:1051: 85 01        	sta	<R0
  2398 00:1053: A9 00 00     	lda	#$0
  2399 00:1056: 85 03        	sta	<R0+2
  2400 00:1058: D4 03        	pei	<R0+2
  2401 00:105A: D4 01        	pei	<R0
  2402 00:105C: 18           	clc
  2403 00:105D: A9 02 00     	lda	#$2
  2404 00:1060: 6D xx xx     	adc	|~~basicvars+42
  2405 00:1063: 85 01        	sta	<R0
  2406 00:1065: A9 00 00     	lda	#$0
  2407 00:1068: 6D xx xx     	adc	|~~basicvars+42+2
  Sun Jan  9 2022 20:52                                                Page 43


  2408 00:106B: 85 03        	sta	<R0+2
  2409 00:106D: D4 03        	pei	<R0+2
  2410 00:106F: D4 01        	pei	<R0
  2411 00:1071: A9 06 00     	lda	#$6
  2412                        	xref	~~~fmov
  2413 00:1074: 22 xx xx xx  	jsl	~~~fmov
  2414 00:1078: 18           	clc
  2415 00:1079: 7B           	tdc
  2416 00:107A: 69 14 00     	adc	#<L128+thestring_0
  2417 00:107D: 85 01        	sta	<R0
  2418 00:107F: A9 00 00     	lda	#$0
  2419 00:1082: 85 03        	sta	<R0+2
  2420 00:1084: D4 03        	pei	<R0+2
  2421 00:1086: D4 01        	pei	<R0
  2422 00:1088: 18           	clc
  2423 00:1089: A9 0E 00     	lda	#$e
  2424 00:108C: 6D xx xx     	adc	|~~basicvars+42
  2425 00:108F: 85 01        	sta	<R0
  2426 00:1091: A9 00 00     	lda	#$0
  2427 00:1094: 6D xx xx     	adc	|~~basicvars+42+2
  2428 00:1097: 85 03        	sta	<R0+2
  2429 00:1099: D4 03        	pei	<R0+2
  2430 00:109B: D4 01        	pei	<R0
  2431 00:109D: A9 06 00     	lda	#$6
  2432                        	xref	~~~fmov
  2433 00:10A0: 22 xx xx xx  	jsl	~~~fmov
  2434                        L131:
  2435 00:10A4: A5 06        	lda	<L128+2
  2436 00:10A6: 85 18        	sta	<L128+2+18
  2437 00:10A8: A5 05        	lda	<L128+1
  2438 00:10AA: 85 17        	sta	<L128+1+18
  2439 00:10AC: 2B           	pld
  2440 00:10AD: 3B           	tsc
  2441 00:10AE: 18           	clc
  2442 00:10AF: 69 16 00     	adc	#L128+18
  2443 00:10B2: 1B           	tcs
  2444 00:10B3: 6B           	rtl
  2445             00000004   L128	equ	4
  2446             00000005   L129	equ	5
  2447                        	ends
  2448                        	efunc
  2449                        	code
  2450                        	xdef	~~save_retarray
  2451                        	func
  2452                        ~~save_retarray:
  2453                        	longa	on
  2454                        	longi	on
  2455 00:10B4: 3B           	tsc
  2456 00:10B5: 38           	sec
  2457 00:10B6: E9 04 00     	sbc	#L132
  2458 00:10B9: 1B           	tcs
  2459 00:10BA: 0B           	phd
  2460 00:10BB: 5B           	tcd
  2461             00000004   retdetails_0	set	4
  2462             0000000A   details_0	set	10
  2463 00:10BC: 18           	clc
  2464 00:10BD: A9 EC FF     	lda	#$ffec
  2465 00:10C0: 6D xx xx     	adc	|~~basicvars+42
  Sun Jan  9 2022 20:52                                                Page 44


  2466 00:10C3: 8D xx xx     	sta	|~~basicvars+42
  2467 00:10C6: A9 FF FF     	lda	#$ffff
  2468 00:10C9: 6D xx xx     	adc	|~~basicvars+42+2
  2469 00:10CC: 8D xx xx     	sta	|~~basicvars+42+2
  2470 00:10CF: AD xx xx     	lda	|~~basicvars+42
  2471 00:10D2: CD xx xx     	cmp	|~~basicvars+38
  2472 00:10D5: AD xx xx     	lda	|~~basicvars+42+2
  2473 00:10D8: ED xx xx     	sbc	|~~basicvars+38+2
  2474 00:10DB: 90 03        	bcc	L134
  2475 00:10DD: 82 0A 00     	brl	L10022
  2476                        L134:
  2477 00:10E0: F4 5C 00     	pea	#<$5c
  2478 00:10E3: F4 04 00     	pea	#4
  2479 00:10E6: 22 xx xx xx  	jsl	~~error
  2480                        L10022:
  2481 00:10EA: AD xx xx     	lda	|~~basicvars+42
  2482 00:10ED: 85 01        	sta	<R0
  2483 00:10EF: AD xx xx     	lda	|~~basicvars+42+2
  2484 00:10F2: 85 03        	sta	<R0+2
  2485 00:10F4: A9 12 00     	lda	#$12
  2486 00:10F7: 87 01        	sta	[<R0]
  2487 00:10F9: 18           	clc
  2488 00:10FA: 7B           	tdc
  2489 00:10FB: 69 08 00     	adc	#<L132+retdetails_0
  2490 00:10FE: 85 01        	sta	<R0
  2491 00:1100: A9 00 00     	lda	#$0
  2492 00:1103: 85 03        	sta	<R0+2
  2493 00:1105: D4 03        	pei	<R0+2
  2494 00:1107: D4 01        	pei	<R0
  2495 00:1109: 18           	clc
  2496 00:110A: A9 08 00     	lda	#$8
  2497 00:110D: 6D xx xx     	adc	|~~basicvars+42
  2498 00:1110: 85 01        	sta	<R0
  2499 00:1112: A9 00 00     	lda	#$0
  2500 00:1115: 6D xx xx     	adc	|~~basicvars+42+2
  2501 00:1118: 85 03        	sta	<R0+2
  2502 00:111A: D4 03        	pei	<R0+2
  2503 00:111C: D4 01        	pei	<R0
  2504 00:111E: A9 06 00     	lda	#$6
  2505                        	xref	~~~fmov
  2506 00:1121: 22 xx xx xx  	jsl	~~~fmov
  2507 00:1125: 18           	clc
  2508 00:1126: 7B           	tdc
  2509 00:1127: 69 0E 00     	adc	#<L132+details_0
  2510 00:112A: 85 01        	sta	<R0
  2511 00:112C: A9 00 00     	lda	#$0
  2512 00:112F: 85 03        	sta	<R0+2
  2513 00:1131: D4 03        	pei	<R0+2
  2514 00:1133: D4 01        	pei	<R0
  2515 00:1135: 18           	clc
  2516 00:1136: A9 02 00     	lda	#$2
  2517 00:1139: 6D xx xx     	adc	|~~basicvars+42
  2518 00:113C: 85 01        	sta	<R0
  2519 00:113E: A9 00 00     	lda	#$0
  2520 00:1141: 6D xx xx     	adc	|~~basicvars+42+2
  2521 00:1144: 85 03        	sta	<R0+2
  2522 00:1146: D4 03        	pei	<R0+2
  2523 00:1148: D4 01        	pei	<R0
  Sun Jan  9 2022 20:52                                                Page 45


  2524 00:114A: A9 06 00     	lda	#$6
  2525                        	xref	~~~fmov
  2526 00:114D: 22 xx xx xx  	jsl	~~~fmov
  2527 00:1151: AD xx xx     	lda	|~~basicvars+42
  2528 00:1154: 85 01        	sta	<R0
  2529 00:1156: AD xx xx     	lda	|~~basicvars+42+2
  2530 00:1159: 85 03        	sta	<R0+2
  2531 00:115B: A7 10        	lda	[<L132+details_0+2]
  2532 00:115D: A0 0E 00     	ldy	#$e
  2533 00:1160: 97 01        	sta	[<R0],Y
  2534 00:1162: A0 02 00     	ldy	#$2
  2535 00:1165: B7 10        	lda	[<L132+details_0+2],Y
  2536 00:1167: A0 10 00     	ldy	#$10
  2537 00:116A: 97 01        	sta	[<R0],Y
  2538                        L135:
  2539 00:116C: A5 06        	lda	<L132+2
  2540 00:116E: 85 12        	sta	<L132+2+12
  2541 00:1170: A5 05        	lda	<L132+1
  2542 00:1172: 85 11        	sta	<L132+1+12
  2543 00:1174: 2B           	pld
  2544 00:1175: 3B           	tsc
  2545 00:1176: 18           	clc
  2546 00:1177: 69 10 00     	adc	#L132+12
  2547 00:117A: 1B           	tcs
  2548 00:117B: 6B           	rtl
  2549             00000004   L132	equ	4
  2550             00000005   L133	equ	5
  2551                        	ends
  2552                        	efunc
  2553                        	code
  2554                        	xdef	~~restore_retparm
  2555                        	func
  2556                        ~~restore_retparm:
  2557                        	longa	on
  2558                        	longi	on
  2559 00:117C: 3B           	tsc
  2560 00:117D: 38           	sec
  2561 00:117E: E9 1E 00     	sbc	#L136
  2562 00:1181: 1B           	tcs
  2563 00:1182: 0B           	phd
  2564 00:1183: 5B           	tcd
  2565             00000004   parmcount_0	set	4
  2566             00000000   p_1	set	0
  2567             00000004   vartype_1	set	4
  2568             00000006   intvalue_1	set	6
  2569             00000008   floatvalue_1	set	8
  2570             0000000C   stringvalue_1	set	12
  2571 00:1184: AD xx xx     	lda	|~~basicvars+42
  2572 00:1187: 85 0D        	sta	<L137+p_1
  2573 00:1189: AD xx xx     	lda	|~~basicvars+42+2
  2574 00:118C: 85 0F        	sta	<L137+p_1+2
  2575 00:118E: 18           	clc
  2576 00:118F: A9 14 00     	lda	#$14
  2577 00:1192: 6D xx xx     	adc	|~~basicvars+42
  2578 00:1195: 8D xx xx     	sta	|~~basicvars+42
  2579 00:1198: 90 03        	bcc	L138
  2580 00:119A: EE xx xx     	inc	|~~basicvars+42+2
  2581                        L138:
  Sun Jan  9 2022 20:52                                                Page 46


  2582 00:119D: A0 02 00     	ldy	#$2
  2583 00:11A0: B7 0D        	lda	[<L137+p_1],Y
  2584 00:11A2: 29 1F 00     	and	#<$1f
  2585 00:11A5: 82 57 02     	brl	L10023
  2586                        L10025:
  2587 00:11A8: A0 04 00     	ldy	#$4
  2588 00:11AB: B7 0D        	lda	[<L137+p_1],Y
  2589 00:11AD: 85 01        	sta	<R0
  2590 00:11AF: A0 06 00     	ldy	#$6
  2591 00:11B2: B7 0D        	lda	[<L137+p_1],Y
  2592 00:11B4: 85 03        	sta	<R0+2
  2593 00:11B6: A7 01        	lda	[<R0]
  2594 00:11B8: 85 13        	sta	<L137+intvalue_1
  2595 00:11BA: A0 04 00     	ldy	#$4
  2596 00:11BD: B7 0D        	lda	[<L137+p_1],Y
  2597 00:11BF: 85 01        	sta	<R0
  2598 00:11C1: A0 06 00     	ldy	#$6
  2599 00:11C4: B7 0D        	lda	[<L137+p_1],Y
  2600 00:11C6: 85 03        	sta	<R0+2
  2601 00:11C8: A0 0E 00     	ldy	#$e
  2602 00:11CB: B7 0D        	lda	[<L137+p_1],Y
  2603 00:11CD: 87 01        	sta	[<R0]
  2604 00:11CF: A9 02 00     	lda	#$2
  2605 00:11D2: 85 11        	sta	<L137+vartype_1
  2606 00:11D4: 82 5A 02     	brl	L10024
  2607                        L10026:
  2608 00:11D7: A0 04 00     	ldy	#$4
  2609 00:11DA: B7 0D        	lda	[<L137+p_1],Y
  2610 00:11DC: 85 01        	sta	<R0
  2611 00:11DE: A0 06 00     	ldy	#$6
  2612 00:11E1: B7 0D        	lda	[<L137+p_1],Y
  2613 00:11E3: 85 03        	sta	<R0+2
  2614 00:11E5: A7 01        	lda	[<R0]
  2615 00:11E7: 85 15        	sta	<L137+floatvalue_1
  2616 00:11E9: A0 02 00     	ldy	#$2
  2617 00:11EC: B7 01        	lda	[<R0],Y
  2618 00:11EE: 85 17        	sta	<L137+floatvalue_1+2
  2619 00:11F0: A0 04 00     	ldy	#$4
  2620 00:11F3: B7 0D        	lda	[<L137+p_1],Y
  2621 00:11F5: 85 01        	sta	<R0
  2622 00:11F7: A0 06 00     	ldy	#$6
  2623 00:11FA: B7 0D        	lda	[<L137+p_1],Y
  2624 00:11FC: 85 03        	sta	<R0+2
  2625 00:11FE: A0 0E 00     	ldy	#$e
  2626 00:1201: B7 0D        	lda	[<L137+p_1],Y
  2627 00:1203: 87 01        	sta	[<R0]
  2628 00:1205: A0 10 00     	ldy	#$10
  2629 00:1208: B7 0D        	lda	[<L137+p_1],Y
  2630 00:120A: A0 02 00     	ldy	#$2
  2631 00:120D: 97 01        	sta	[<R0],Y
  2632 00:120F: A9 03 00     	lda	#$3
  2633 00:1212: 85 11        	sta	<L137+vartype_1
  2634 00:1214: 82 1A 02     	brl	L10024
  2635                        L10027:
  2636 00:1217: A0 06 00     	ldy	#$6
  2637 00:121A: B7 0D        	lda	[<L137+p_1],Y
  2638 00:121C: 48           	pha
  2639 00:121D: A0 04 00     	ldy	#$4
  Sun Jan  9 2022 20:52                                                Page 47


  2640 00:1220: B7 0D        	lda	[<L137+p_1],Y
  2641 00:1222: 48           	pha
  2642 00:1223: 18           	clc
  2643 00:1224: 7B           	tdc
  2644 00:1225: 69 19 00     	adc	#<L137+stringvalue_1
  2645 00:1228: 85 01        	sta	<R0
  2646 00:122A: A9 00 00     	lda	#$0
  2647 00:122D: 85 03        	sta	<R0+2
  2648 00:122F: D4 03        	pei	<R0+2
  2649 00:1231: D4 01        	pei	<R0
  2650 00:1233: A9 06 00     	lda	#$6
  2651                        	xref	~~~fmov
  2652 00:1236: 22 xx xx xx  	jsl	~~~fmov
  2653 00:123A: 18           	clc
  2654 00:123B: A9 0E 00     	lda	#$e
  2655 00:123E: 65 0D        	adc	<L137+p_1
  2656 00:1240: 85 01        	sta	<R0
  2657 00:1242: A9 00 00     	lda	#$0
  2658 00:1245: 65 0F        	adc	<L137+p_1+2
  2659 00:1247: 85 03        	sta	<R0+2
  2660 00:1249: D4 03        	pei	<R0+2
  2661 00:124B: D4 01        	pei	<R0
  2662 00:124D: A0 06 00     	ldy	#$6
  2663 00:1250: B7 0D        	lda	[<L137+p_1],Y
  2664 00:1252: 48           	pha
  2665 00:1253: A0 04 00     	ldy	#$4
  2666 00:1256: B7 0D        	lda	[<L137+p_1],Y
  2667 00:1258: 48           	pha
  2668 00:1259: A9 06 00     	lda	#$6
  2669                        	xref	~~~fmov
  2670 00:125C: 22 xx xx xx  	jsl	~~~fmov
  2671 00:1260: A9 04 00     	lda	#$4
  2672 00:1263: 85 11        	sta	<L137+vartype_1
  2673 00:1265: 82 C9 01     	brl	L10024
  2674                        L10028:
  2675 00:1268: A0 04 00     	ldy	#$4
  2676 00:126B: B7 0D        	lda	[<L137+p_1],Y
  2677 00:126D: 85 01        	sta	<R0
  2678 00:126F: AD xx xx     	lda	|~~basicvars+6
  2679 00:1272: 85 05        	sta	<R1
  2680 00:1274: AD xx xx     	lda	|~~basicvars+6+2
  2681 00:1277: 85 07        	sta	<R1+2
  2682 00:1279: A4 01        	ldy	<R0
  2683 00:127B: B7 05        	lda	[<R1],Y
  2684 00:127D: 29 FF 00     	and	#$ff
  2685 00:1280: 85 13        	sta	<L137+intvalue_1
  2686 00:1282: A0 04 00     	ldy	#$4
  2687 00:1285: B7 0D        	lda	[<L137+p_1],Y
  2688 00:1287: 85 01        	sta	<R0
  2689 00:1289: AD xx xx     	lda	|~~basicvars+6
  2690 00:128C: 85 05        	sta	<R1
  2691 00:128E: AD xx xx     	lda	|~~basicvars+6+2
  2692 00:1291: 85 07        	sta	<R1+2
  2693 00:1293: E2 20        	sep	#$20
  2694                        	longa	off
  2695 00:1295: A0 0E 00     	ldy	#$e
  2696 00:1298: B7 0D        	lda	[<L137+p_1],Y
  2697 00:129A: A4 01        	ldy	<R0
  Sun Jan  9 2022 20:52                                                Page 48


  2698 00:129C: 97 05        	sta	[<R1],Y
  2699 00:129E: C2 20        	rep	#$20
  2700                        	longa	on
  2701 00:12A0: A9 02 00     	lda	#$2
  2702 00:12A3: 85 11        	sta	<L137+vartype_1
  2703 00:12A5: 82 89 01     	brl	L10024
  2704                        L10029:
  2705 00:12A8: A0 04 00     	ldy	#$4
  2706 00:12AB: B7 0D        	lda	[<L137+p_1],Y
  2707 00:12AD: 48           	pha
  2708 00:12AE: 22 xx xx xx  	jsl	~~get_integer
  2709 00:12B2: 85 13        	sta	<L137+intvalue_1
  2710 00:12B4: A0 0E 00     	ldy	#$e
  2711 00:12B7: B7 0D        	lda	[<L137+p_1],Y
  2712 00:12B9: 48           	pha
  2713 00:12BA: A0 04 00     	ldy	#$4
  2714 00:12BD: B7 0D        	lda	[<L137+p_1],Y
  2715 00:12BF: 48           	pha
  2716 00:12C0: 22 xx xx xx  	jsl	~~store_integer
  2717 00:12C4: A9 02 00     	lda	#$2
  2718 00:12C7: 85 11        	sta	<L137+vartype_1
  2719 00:12C9: 82 65 01     	brl	L10024
  2720                        L10030:
  2721 00:12CC: 5A           	phy
  2722 00:12CD: 5A           	phy
  2723 00:12CE: A0 04 00     	ldy	#$4
  2724 00:12D1: B7 0D        	lda	[<L137+p_1],Y
  2725 00:12D3: 48           	pha
  2726 00:12D4: 22 xx xx xx  	jsl	~~get_float
  2727 00:12D8: 68           	pla
  2728 00:12D9: 85 15        	sta	<L137+floatvalue_1
  2729 00:12DB: 68           	pla
  2730 00:12DC: 85 17        	sta	<L137+floatvalue_1+2
  2731 00:12DE: A0 10 00     	ldy	#$10
  2732 00:12E1: B7 0D        	lda	[<L137+p_1],Y
  2733 00:12E3: 48           	pha
  2734 00:12E4: A0 0E 00     	ldy	#$e
  2735 00:12E7: B7 0D        	lda	[<L137+p_1],Y
  2736 00:12E9: 48           	pha
  2737 00:12EA: A0 04 00     	ldy	#$4
  2738 00:12ED: B7 0D        	lda	[<L137+p_1],Y
  2739 00:12EF: 48           	pha
  2740 00:12F0: 22 xx xx xx  	jsl	~~store_float
  2741 00:12F4: A9 03 00     	lda	#$3
  2742 00:12F7: 85 11        	sta	<L137+vartype_1
  2743 00:12F9: 82 35 01     	brl	L10024
  2744                        L10031:
  2745 00:12FC: A0 04 00     	ldy	#$4
  2746 00:12FF: B7 0D        	lda	[<L137+p_1],Y
  2747 00:1301: 48           	pha
  2748 00:1302: 22 xx xx xx  	jsl	~~get_stringlen
  2749 00:1306: 85 19        	sta	<L137+stringvalue_1
  2750 00:1308: A5 19        	lda	<L137+stringvalue_1
  2751 00:130A: 85 13        	sta	<L137+intvalue_1
  2752 00:130C: D4 13        	pei	<L137+intvalue_1
  2753 00:130E: 22 xx xx xx  	jsl	~~alloc_string
  2754 00:1312: 85 1B        	sta	<L137+stringvalue_1+2
  2755 00:1314: 86 1D        	stx	<L137+stringvalue_1+4
  Sun Jan  9 2022 20:52                                                Page 49


  2756 00:1316: 38           	sec
  2757 00:1317: A9 00 00     	lda	#$0
  2758 00:131A: E5 13        	sbc	<L137+intvalue_1
  2759 00:131C: 70 03        	bvs	L139
  2760 00:131E: 49 00 80     	eor	#$8000
  2761                        L139:
  2762 00:1321: 10 03        	bpl	L140
  2763 00:1323: 82 3E 00     	brl	L10032
  2764                        L140:
  2765 00:1326: A0 00 00     	ldy	#$0
  2766 00:1329: A5 13        	lda	<L137+intvalue_1
  2767 00:132B: 10 01        	bpl	L141
  2768 00:132D: 88           	dey
  2769                        L141:
  2770 00:132E: 85 01        	sta	<R0
  2771 00:1330: 84 03        	sty	<R0+2
  2772 00:1332: D4 03        	pei	<R0+2
  2773 00:1334: D4 01        	pei	<R0
  2774 00:1336: A0 00 00     	ldy	#$0
  2775 00:1339: 5A           	phy
  2776 00:133A: A0 04 00     	ldy	#$4
  2777 00:133D: B7 0D        	lda	[<L137+p_1],Y
  2778 00:133F: 7A           	ply
  2779 00:1340: 2A           	rol	A
  2780 00:1341: 6A           	ror	A
  2781 00:1342: 10 01        	bpl	L142
  2782 00:1344: 88           	dey
  2783                        L142:
  2784 00:1345: 85 05        	sta	<R1
  2785 00:1347: 84 07        	sty	<R1+2
  2786 00:1349: 18           	clc
  2787 00:134A: AD xx xx     	lda	|~~basicvars+6
  2788 00:134D: 65 05        	adc	<R1
  2789 00:134F: 85 09        	sta	<R2
  2790 00:1351: AD xx xx     	lda	|~~basicvars+6+2
  2791 00:1354: 65 07        	adc	<R1+2
  2792 00:1356: 85 0B        	sta	<R2+2
  2793 00:1358: D4 0B        	pei	<R2+2
  2794 00:135A: D4 09        	pei	<R2
  2795 00:135C: D4 1D        	pei	<L137+stringvalue_1+4
  2796 00:135E: D4 1B        	pei	<L137+stringvalue_1+2
  2797 00:1360: 22 xx xx xx  	jsl	~~memmove
  2798                        L10032:
  2799 00:1364: A0 00 00     	ldy	#$0
  2800 00:1367: 5A           	phy
  2801 00:1368: A0 0E 00     	ldy	#$e
  2802 00:136B: B7 0D        	lda	[<L137+p_1],Y
  2803 00:136D: 7A           	ply
  2804 00:136E: 2A           	rol	A
  2805 00:136F: 6A           	ror	A
  2806 00:1370: 10 01        	bpl	L143
  2807 00:1372: 88           	dey
  2808                        L143:
  2809 00:1373: 85 01        	sta	<R0
  2810 00:1375: 84 03        	sty	<R0+2
  2811 00:1377: D4 03        	pei	<R0+2
  2812 00:1379: D4 01        	pei	<R0
  2813 00:137B: A0 12 00     	ldy	#$12
  Sun Jan  9 2022 20:52                                                Page 50


  2814 00:137E: B7 0D        	lda	[<L137+p_1],Y
  2815 00:1380: 48           	pha
  2816 00:1381: A0 10 00     	ldy	#$10
  2817 00:1384: B7 0D        	lda	[<L137+p_1],Y
  2818 00:1386: 48           	pha
  2819 00:1387: A0 00 00     	ldy	#$0
  2820 00:138A: 5A           	phy
  2821 00:138B: A0 04 00     	ldy	#$4
  2822 00:138E: B7 0D        	lda	[<L137+p_1],Y
  2823 00:1390: 7A           	ply
  2824 00:1391: 2A           	rol	A
  2825 00:1392: 6A           	ror	A
  2826 00:1393: 10 01        	bpl	L144
  2827 00:1395: 88           	dey
  2828                        L144:
  2829 00:1396: 85 05        	sta	<R1
  2830 00:1398: 84 07        	sty	<R1+2
  2831 00:139A: 18           	clc
  2832 00:139B: AD xx xx     	lda	|~~basicvars+6
  2833 00:139E: 65 05        	adc	<R1
  2834 00:13A0: 85 09        	sta	<R2
  2835 00:13A2: AD xx xx     	lda	|~~basicvars+6+2
  2836 00:13A5: 65 07        	adc	<R1+2
  2837 00:13A7: 85 0B        	sta	<R2+2
  2838 00:13A9: D4 0B        	pei	<R2+2
  2839 00:13AB: D4 09        	pei	<R2
  2840 00:13AD: 22 xx xx xx  	jsl	~~memmove
  2841 00:13B1: 38           	sec
  2842 00:13B2: 3B           	tsc
  2843 00:13B3: E9 06 00     	sbc	#6
  2844 00:13B6: 1B           	tcs
  2845 00:13B7: 1A           	ina
  2846 00:13B8: 85 01        	sta	<R0
  2847 00:13BA: 64 03        	stz	<R0+2
  2848 00:13BC: 18           	clc
  2849 00:13BD: A9 0E 00     	lda	#$e
  2850 00:13C0: 65 0D        	adc	<L137+p_1
  2851 00:13C2: 85 05        	sta	<R1
  2852 00:13C4: A9 00 00     	lda	#$0
  2853 00:13C7: 65 0F        	adc	<L137+p_1+2
  2854 00:13C9: 85 07        	sta	<R1+2
  2855 00:13CB: D4 07        	pei	<R1+2
  2856 00:13CD: D4 05        	pei	<R1
  2857 00:13CF: D4 03        	pei	<R0+2
  2858 00:13D1: D4 01        	pei	<R0
  2859 00:13D3: A9 06 00     	lda	#$6
  2860                        	xref	~~~fmov
  2861 00:13D6: 22 xx xx xx  	jsl	~~~fmov
  2862 00:13DA: 22 xx xx xx  	jsl	~~free_string
  2863 00:13DE: A9 15 00     	lda	#$15
  2864 00:13E1: 85 11        	sta	<L137+vartype_1
  2865 00:13E3: 82 4B 00     	brl	L10024
  2866                        L10033:
  2867                        L10034:
  2868                        L10035:
  2869 00:13E6: 82 48 00     	brl	L10024
  2870                        L10036:
  2871 00:13E9: F4 xx xx     	pea	#^L1
  Sun Jan  9 2022 20:52                                                Page 51


  2872 00:13EC: F4 xx xx     	pea	#<L1
  2873 00:13EF: F4 BA 02     	pea	#<$2ba
  2874 00:13F2: F4 82 00     	pea	#<$82
  2875 00:13F5: F4 0A 00     	pea	#10
  2876 00:13F8: 22 xx xx xx  	jsl	~~error
  2877 00:13FC: 82 32 00     	brl	L10024
  2878                        L10023:
  2879                        	xref	~~~fsw
  2880 00:13FF: 22 xx xx xx  	jsl	~~~fsw
  2881 00:1403: 02 00        	dw	2
  2882 00:1405: 14 00        	dw	20
  2883 00:1407: xx xx        	dw	L10036-1
  2884 00:1409: xx xx        	dw	L10025-1
  2885 00:140B: xx xx        	dw	L10026-1
  2886 00:140D: xx xx        	dw	L10027-1
  2887 00:140F: xx xx        	dw	L10036-1
  2888 00:1411: xx xx        	dw	L10036-1
  2889 00:1413: xx xx        	dw	L10036-1
  2890 00:1415: xx xx        	dw	L10036-1
  2891 00:1417: xx xx        	dw	L10036-1
  2892 00:1419: xx xx        	dw	L10033-1
  2893 00:141B: xx xx        	dw	L10034-1
  2894 00:141D: xx xx        	dw	L10035-1
  2895 00:141F: xx xx        	dw	L10036-1
  2896 00:1421: xx xx        	dw	L10036-1
  2897 00:1423: xx xx        	dw	L10036-1
  2898 00:1425: xx xx        	dw	L10036-1
  2899 00:1427: xx xx        	dw	L10028-1
  2900 00:1429: xx xx        	dw	L10029-1
  2901 00:142B: xx xx        	dw	L10030-1
  2902 00:142D: xx xx        	dw	L10036-1
  2903 00:142F: xx xx        	dw	L10031-1
  2904                        L10024:
  2905 00:1431: C6 22        	dec	<L136+parmcount_0
  2906 00:1433: 38           	sec
  2907 00:1434: A9 00 00     	lda	#$0
  2908 00:1437: E5 22        	sbc	<L136+parmcount_0
  2909 00:1439: 70 03        	bvs	L145
  2910 00:143B: 49 00 80     	eor	#$8000
  2911                        L145:
  2912 00:143E: 10 03        	bpl	L146
  2913 00:1440: 82 23 00     	brl	L10037
  2914                        L146:
  2915 00:1443: AD xx xx     	lda	|~~basicvars+42
  2916 00:1446: 85 01        	sta	<R0
  2917 00:1448: AD xx xx     	lda	|~~basicvars+42+2
  2918 00:144B: 85 03        	sta	<R0+2
  2919 00:144D: A7 01        	lda	[<R0]
  2920 00:144F: C9 11 00     	cmp	#<$11
  2921 00:1452: F0 03        	beq	L147
  2922 00:1454: 82 09 00     	brl	L10038
  2923                        L147:
  2924 00:1457: D4 22        	pei	<L136+parmcount_0
  2925 00:1459: 22 xx xx xx  	jsl	~~restore
  2926 00:145D: 82 06 00     	brl	L10039
  2927                        L10038:
  2928 00:1460: D4 22        	pei	<L136+parmcount_0
  2929 00:1462: 22 xx xx xx  	jsl	~~restore_retparm
  Sun Jan  9 2022 20:52                                                Page 52


  2930                        L10039:
  2931                        L10037:
  2932 00:1466: A0 08 00     	ldy	#$8
  2933 00:1469: B7 0D        	lda	[<L137+p_1],Y
  2934 00:146B: 82 02 02     	brl	L10040
  2935                        L10042:
  2936 00:146E: A0 0A 00     	ldy	#$a
  2937 00:1471: B7 0D        	lda	[<L137+p_1],Y
  2938 00:1473: 85 01        	sta	<R0
  2939 00:1475: A0 0C 00     	ldy	#$c
  2940 00:1478: B7 0D        	lda	[<L137+p_1],Y
  2941 00:147A: 85 03        	sta	<R0+2
  2942 00:147C: A5 11        	lda	<L137+vartype_1
  2943 00:147E: C9 02 00     	cmp	#<$2
  2944 00:1481: F0 03        	beq	L149
  2945 00:1483: 82 04 00     	brl	L148
  2946                        L149:
  2947 00:1486: A5 13        	lda	<L137+intvalue_1
  2948 00:1488: 80 10        	bra	L150
  2949                        L148:
  2950 00:148A: D4 17        	pei	<L137+floatvalue_1+2
  2951 00:148C: D4 15        	pei	<L137+floatvalue_1
  2952                        	xref	~~~ffix
  2953 00:148E: 22 xx xx xx  	jsl	~~~ffix
  2954 00:1492: 68           	pla
  2955 00:1493: 85 05        	sta	<R1
  2956 00:1495: 68           	pla
  2957 00:1496: 85 07        	sta	<R1+2
  2958 00:1498: A5 05        	lda	<R1
  2959                        L150:
  2960 00:149A: 87 01        	sta	[<R0]
  2961 00:149C: 82 03 02     	brl	L10041
  2962                        L10043:
  2963 00:149F: A0 0A 00     	ldy	#$a
  2964 00:14A2: B7 0D        	lda	[<L137+p_1],Y
  2965 00:14A4: 85 01        	sta	<R0
  2966 00:14A6: A0 0C 00     	ldy	#$c
  2967 00:14A9: B7 0D        	lda	[<L137+p_1],Y
  2968 00:14AB: 85 03        	sta	<R0+2
  2969 00:14AD: A5 11        	lda	<L137+vartype_1
  2970 00:14AF: C9 02 00     	cmp	#<$2
  2971 00:14B2: F0 03        	beq	L152
  2972 00:14B4: 82 10 00     	brl	L151
  2973                        L152:
  2974 00:14B7: A0 00 00     	ldy	#$0
  2975 00:14BA: A5 13        	lda	<L137+intvalue_1
  2976 00:14BC: 10 01        	bpl	L153
  2977 00:14BE: 88           	dey
  2978                        L153:
  2979 00:14BF: 5A           	phy
  2980 00:14C0: 48           	pha
  2981                        	xref	~~~fflt
  2982 00:14C1: 22 xx xx xx  	jsl	~~~fflt
  2983 00:14C5: 80 04        	bra	L154
  2984                        L151:
  2985 00:14C7: D4 17        	pei	<L137+floatvalue_1+2
  2986 00:14C9: D4 15        	pei	<L137+floatvalue_1
  2987                        L154:
  Sun Jan  9 2022 20:52                                                Page 53


  2988 00:14CB: 68           	pla
  2989 00:14CC: 87 01        	sta	[<R0]
  2990 00:14CE: 68           	pla
  2991 00:14CF: A0 02 00     	ldy	#$2
  2992 00:14D2: 97 01        	sta	[<R0],Y
  2993 00:14D4: 82 CB 01     	brl	L10041
  2994                        L10044:
  2995 00:14D7: 38           	sec
  2996 00:14D8: 3B           	tsc
  2997 00:14D9: E9 06 00     	sbc	#6
  2998 00:14DC: 1B           	tcs
  2999 00:14DD: 1A           	ina
  3000 00:14DE: 85 01        	sta	<R0
  3001 00:14E0: 64 03        	stz	<R0+2
  3002 00:14E2: A0 0C 00     	ldy	#$c
  3003 00:14E5: B7 0D        	lda	[<L137+p_1],Y
  3004 00:14E7: 48           	pha
  3005 00:14E8: A0 0A 00     	ldy	#$a
  3006 00:14EB: B7 0D        	lda	[<L137+p_1],Y
  3007 00:14ED: 48           	pha
  3008 00:14EE: D4 03        	pei	<R0+2
  3009 00:14F0: D4 01        	pei	<R0
  3010 00:14F2: A9 06 00     	lda	#$6
  3011                        	xref	~~~fmov
  3012 00:14F5: 22 xx xx xx  	jsl	~~~fmov
  3013 00:14F9: 22 xx xx xx  	jsl	~~free_string
  3014 00:14FD: 18           	clc
  3015 00:14FE: 7B           	tdc
  3016 00:14FF: 69 19 00     	adc	#<L137+stringvalue_1
  3017 00:1502: 85 01        	sta	<R0
  3018 00:1504: A9 00 00     	lda	#$0
  3019 00:1507: 85 03        	sta	<R0+2
  3020 00:1509: D4 03        	pei	<R0+2
  3021 00:150B: D4 01        	pei	<R0
  3022 00:150D: A0 0C 00     	ldy	#$c
  3023 00:1510: B7 0D        	lda	[<L137+p_1],Y
  3024 00:1512: 48           	pha
  3025 00:1513: A0 0A 00     	ldy	#$a
  3026 00:1516: B7 0D        	lda	[<L137+p_1],Y
  3027 00:1518: 48           	pha
  3028 00:1519: A9 06 00     	lda	#$6
  3029                        	xref	~~~fmov
  3030 00:151C: 22 xx xx xx  	jsl	~~~fmov
  3031 00:1520: 82 7F 01     	brl	L10041
  3032                        L10045:
  3033 00:1523: A0 0A 00     	ldy	#$a
  3034 00:1526: B7 0D        	lda	[<L137+p_1],Y
  3035 00:1528: 85 01        	sta	<R0
  3036 00:152A: AD xx xx     	lda	|~~basicvars+6
  3037 00:152D: 85 05        	sta	<R1
  3038 00:152F: AD xx xx     	lda	|~~basicvars+6+2
  3039 00:1532: 85 07        	sta	<R1+2
  3040 00:1534: A5 11        	lda	<L137+vartype_1
  3041 00:1536: C9 02 00     	cmp	#<$2
  3042 00:1539: F0 03        	beq	L156
  3043 00:153B: 82 04 00     	brl	L155
  3044                        L156:
  3045 00:153E: A5 13        	lda	<L137+intvalue_1
  Sun Jan  9 2022 20:52                                                Page 54


  3046 00:1540: 80 10        	bra	L157
  3047                        L155:
  3048 00:1542: D4 17        	pei	<L137+floatvalue_1+2
  3049 00:1544: D4 15        	pei	<L137+floatvalue_1
  3050                        	xref	~~~ffix
  3051 00:1546: 22 xx xx xx  	jsl	~~~ffix
  3052 00:154A: 68           	pla
  3053 00:154B: 85 09        	sta	<R2
  3054 00:154D: 68           	pla
  3055 00:154E: 85 0B        	sta	<R2+2
  3056 00:1550: A5 09        	lda	<R2
  3057                        L157:
  3058 00:1552: E2 20        	sep	#$20
  3059                        	longa	off
  3060 00:1554: A4 01        	ldy	<R0
  3061 00:1556: 97 05        	sta	[<R1],Y
  3062 00:1558: C2 20        	rep	#$20
  3063                        	longa	on
  3064 00:155A: 82 45 01     	brl	L10041
  3065                        L10046:
  3066 00:155D: A5 11        	lda	<L137+vartype_1
  3067 00:155F: C9 02 00     	cmp	#<$2
  3068 00:1562: F0 03        	beq	L159
  3069 00:1564: 82 04 00     	brl	L158
  3070                        L159:
  3071 00:1567: A5 13        	lda	<L137+intvalue_1
  3072 00:1569: 80 10        	bra	L160
  3073                        L158:
  3074 00:156B: D4 17        	pei	<L137+floatvalue_1+2
  3075 00:156D: D4 15        	pei	<L137+floatvalue_1
  3076                        	xref	~~~ffix
  3077 00:156F: 22 xx xx xx  	jsl	~~~ffix
  3078 00:1573: 68           	pla
  3079 00:1574: 85 01        	sta	<R0
  3080 00:1576: 68           	pla
  3081 00:1577: 85 03        	sta	<R0+2
  3082 00:1579: A5 01        	lda	<R0
  3083                        L160:
  3084 00:157B: 48           	pha
  3085 00:157C: A0 0A 00     	ldy	#$a
  3086 00:157F: B7 0D        	lda	[<L137+p_1],Y
  3087 00:1581: 48           	pha
  3088 00:1582: 22 xx xx xx  	jsl	~~store_integer
  3089 00:1586: 82 19 01     	brl	L10041
  3090                        L10047:
  3091 00:1589: A5 11        	lda	<L137+vartype_1
  3092 00:158B: C9 02 00     	cmp	#<$2
  3093 00:158E: F0 03        	beq	L162
  3094 00:1590: 82 10 00     	brl	L161
  3095                        L162:
  3096 00:1593: A0 00 00     	ldy	#$0
  3097 00:1596: A5 13        	lda	<L137+intvalue_1
  3098 00:1598: 10 01        	bpl	L163
  3099 00:159A: 88           	dey
  3100                        L163:
  3101 00:159B: 5A           	phy
  3102 00:159C: 48           	pha
  3103                        	xref	~~~fflt
  Sun Jan  9 2022 20:52                                                Page 55


  3104 00:159D: 22 xx xx xx  	jsl	~~~fflt
  3105 00:15A1: 80 04        	bra	L164
  3106                        L161:
  3107 00:15A3: D4 17        	pei	<L137+floatvalue_1+2
  3108 00:15A5: D4 15        	pei	<L137+floatvalue_1
  3109                        L164:
  3110 00:15A7: A0 0A 00     	ldy	#$a
  3111 00:15AA: B7 0D        	lda	[<L137+p_1],Y
  3112 00:15AC: 48           	pha
  3113 00:15AD: 22 xx xx xx  	jsl	~~store_float
  3114 00:15B1: 82 EE 00     	brl	L10041
  3115                        L10048:
  3116 00:15B4: 38           	sec
  3117 00:15B5: A9 00 00     	lda	#$0
  3118 00:15B8: E5 19        	sbc	<L137+stringvalue_1
  3119 00:15BA: 70 03        	bvs	L165
  3120 00:15BC: 49 00 80     	eor	#$8000
  3121                        L165:
  3122 00:15BF: 10 03        	bpl	L166
  3123 00:15C1: 82 3E 00     	brl	L10049
  3124                        L166:
  3125 00:15C4: A0 00 00     	ldy	#$0
  3126 00:15C7: A5 19        	lda	<L137+stringvalue_1
  3127 00:15C9: 10 01        	bpl	L167
  3128 00:15CB: 88           	dey
  3129                        L167:
  3130 00:15CC: 85 01        	sta	<R0
  3131 00:15CE: 84 03        	sty	<R0+2
  3132 00:15D0: D4 03        	pei	<R0+2
  3133 00:15D2: D4 01        	pei	<R0
  3134 00:15D4: D4 1D        	pei	<L137+stringvalue_1+4
  3135 00:15D6: D4 1B        	pei	<L137+stringvalue_1+2
  3136 00:15D8: A0 00 00     	ldy	#$0
  3137 00:15DB: 5A           	phy
  3138 00:15DC: A0 0A 00     	ldy	#$a
  3139 00:15DF: B7 0D        	lda	[<L137+p_1],Y
  3140 00:15E1: 7A           	ply
  3141 00:15E2: 2A           	rol	A
  3142 00:15E3: 6A           	ror	A
  3143 00:15E4: 10 01        	bpl	L168
  3144 00:15E6: 88           	dey
  3145                        L168:
  3146 00:15E7: 85 05        	sta	<R1
  3147 00:15E9: 84 07        	sty	<R1+2
  3148 00:15EB: 18           	clc
  3149 00:15EC: AD xx xx     	lda	|~~basicvars+6
  3150 00:15EF: 65 05        	adc	<R1
  3151 00:15F1: 85 09        	sta	<R2
  3152 00:15F3: AD xx xx     	lda	|~~basicvars+6+2
  3153 00:15F6: 65 07        	adc	<R1+2
  3154 00:15F8: 85 0B        	sta	<R2+2
  3155 00:15FA: D4 0B        	pei	<R2+2
  3156 00:15FC: D4 09        	pei	<R2
  3157 00:15FE: 22 xx xx xx  	jsl	~~memmove
  3158                        L10049:
  3159 00:1602: A5 11        	lda	<L137+vartype_1
  3160 00:1604: C9 04 00     	cmp	#<$4
  3161 00:1607: F0 03        	beq	L169
  Sun Jan  9 2022 20:52                                                Page 56


  3162 00:1609: 82 1E 00     	brl	L10050
  3163                        L169:
  3164 00:160C: 18           	clc
  3165 00:160D: A0 0A 00     	ldy	#$a
  3166 00:1610: B7 0D        	lda	[<L137+p_1],Y
  3167 00:1612: 65 19        	adc	<L137+stringvalue_1
  3168 00:1614: 85 01        	sta	<R0
  3169 00:1616: AD xx xx     	lda	|~~basicvars+6
  3170 00:1619: 85 05        	sta	<R1
  3171 00:161B: AD xx xx     	lda	|~~basicvars+6+2
  3172 00:161E: 85 07        	sta	<R1+2
  3173 00:1620: E2 20        	sep	#$20
  3174                        	longa	off
  3175 00:1622: A9 0D        	lda	#$d
  3176 00:1624: A4 01        	ldy	<R0
  3177 00:1626: 97 05        	sta	[<R1],Y
  3178 00:1628: C2 20        	rep	#$20
  3179                        	longa	on
  3180                        L10050:
  3181 00:162A: 38           	sec
  3182 00:162B: 3B           	tsc
  3183 00:162C: E9 06 00     	sbc	#6
  3184 00:162F: 1B           	tcs
  3185 00:1630: 1A           	ina
  3186 00:1631: 85 01        	sta	<R0
  3187 00:1633: 64 03        	stz	<R0+2
  3188 00:1635: 18           	clc
  3189 00:1636: 7B           	tdc
  3190 00:1637: 69 19 00     	adc	#<L137+stringvalue_1
  3191 00:163A: 85 05        	sta	<R1
  3192 00:163C: A9 00 00     	lda	#$0
  3193 00:163F: 85 07        	sta	<R1+2
  3194 00:1641: D4 07        	pei	<R1+2
  3195 00:1643: D4 05        	pei	<R1
  3196 00:1645: D4 03        	pei	<R0+2
  3197 00:1647: D4 01        	pei	<R0
  3198 00:1649: A9 06 00     	lda	#$6
  3199                        	xref	~~~fmov
  3200 00:164C: 22 xx xx xx  	jsl	~~~fmov
  3201 00:1650: 22 xx xx xx  	jsl	~~free_string
  3202 00:1654: 82 4B 00     	brl	L10041
  3203                        L10051:
  3204                        L10052:
  3205                        L10053:
  3206 00:1657: 82 48 00     	brl	L10041
  3207                        L10054:
  3208 00:165A: F4 xx xx     	pea	#^L1+6
  3209 00:165D: F4 xx xx     	pea	#<L1+6
  3210 00:1660: F4 E8 02     	pea	#<$2e8
  3211 00:1663: F4 82 00     	pea	#<$82
  3212 00:1666: F4 0A 00     	pea	#10
  3213 00:1669: 22 xx xx xx  	jsl	~~error
  3214 00:166D: 82 32 00     	brl	L10041
  3215                        L10040:
  3216                        	xref	~~~fsw
  3217 00:1670: 22 xx xx xx  	jsl	~~~fsw
  3218 00:1674: 02 00        	dw	2
  3219 00:1676: 14 00        	dw	20
  Sun Jan  9 2022 20:52                                                Page 57


  3220 00:1678: xx xx        	dw	L10054-1
  3221 00:167A: xx xx        	dw	L10042-1
  3222 00:167C: xx xx        	dw	L10043-1
  3223 00:167E: xx xx        	dw	L10044-1
  3224 00:1680: xx xx        	dw	L10054-1
  3225 00:1682: xx xx        	dw	L10054-1
  3226 00:1684: xx xx        	dw	L10054-1
  3227 00:1686: xx xx        	dw	L10054-1
  3228 00:1688: xx xx        	dw	L10054-1
  3229 00:168A: xx xx        	dw	L10051-1
  3230 00:168C: xx xx        	dw	L10052-1
  3231 00:168E: xx xx        	dw	L10053-1
  3232 00:1690: xx xx        	dw	L10054-1
  3233 00:1692: xx xx        	dw	L10054-1
  3234 00:1694: xx xx        	dw	L10054-1
  3235 00:1696: xx xx        	dw	L10054-1
  3236 00:1698: xx xx        	dw	L10045-1
  3237 00:169A: xx xx        	dw	L10046-1
  3238 00:169C: xx xx        	dw	L10047-1
  3239 00:169E: xx xx        	dw	L10054-1
  3240 00:16A0: xx xx        	dw	L10048-1
  3241                        L10041:
  3242                        L170:
  3243 00:16A2: A5 20        	lda	<L136+2
  3244 00:16A4: 85 22        	sta	<L136+2+2
  3245 00:16A6: A5 1F        	lda	<L136+1
  3246 00:16A8: 85 21        	sta	<L136+1+2
  3247 00:16AA: 2B           	pld
  3248 00:16AB: 3B           	tsc
  3249 00:16AC: 18           	clc
  3250 00:16AD: 69 20 00     	adc	#L136+2
  3251 00:16B0: 1B           	tcs
  3252 00:16B1: 6B           	rtl
  3253             0000001E   L136	equ	30
  3254             0000000D   L137	equ	13
  3255                        	ends
  3256                        	efunc
  3257                        	data
  3258                        L1:
  3259 00:0073: 73 74 61 63  	db	$73,$74,$61,$63,$6B,$00,$73,$74,$61,$63,
                    $6B,$00
       00:0077: 6B 00 73 74 
       00:007B: 61 63 6B 00 
  3260 00:007F:              	ends
  3261                        	code
  3262                        	xdef	~~restore
  3263                        	func
  3264                        ~~restore:
  3265                        	longa	on
  3266                        	longi	on
  3267 00:16B2: 3B           	tsc
  3268 00:16B3: 38           	sec
  3269 00:16B4: E9 12 00     	sbc	#L172
  3270 00:16B7: 1B           	tcs
  3271 00:16B8: 0B           	phd
  3272 00:16B9: 5B           	tcd
  3273             00000004   parmcount_0	set	4
  3274             00000000   p_1	set	0
  Sun Jan  9 2022 20:52                                                Page 58


  3275             00000004   localitem_1	set	4
  3276                        L10057:
  3277 00:16BA: AD xx xx     	lda	|~~basicvars+42
  3278 00:16BD: 85 0D        	sta	<L173+p_1
  3279 00:16BF: AD xx xx     	lda	|~~basicvars+42+2
  3280 00:16C2: 85 0F        	sta	<L173+p_1+2
  3281 00:16C4: 18           	clc
  3282 00:16C5: A9 0E 00     	lda	#$e
  3283 00:16C8: 6D xx xx     	adc	|~~basicvars+42
  3284 00:16CB: 8D xx xx     	sta	|~~basicvars+42
  3285 00:16CE: 90 03        	bcc	L174
  3286 00:16D0: EE xx xx     	inc	|~~basicvars+42+2
  3287                        L174:
  3288 00:16D3: A0 02 00     	ldy	#$2
  3289 00:16D6: B7 0D        	lda	[<L173+p_1],Y
  3290 00:16D8: C9 02 00     	cmp	#<$2
  3291 00:16DB: F0 03        	beq	L175
  3292 00:16DD: 82 18 00     	brl	L10058
  3293                        L175:
  3294 00:16E0: A0 04 00     	ldy	#$4
  3295 00:16E3: B7 0D        	lda	[<L173+p_1],Y
  3296 00:16E5: 85 01        	sta	<R0
  3297 00:16E7: A0 06 00     	ldy	#$6
  3298 00:16EA: B7 0D        	lda	[<L173+p_1],Y
  3299 00:16EC: 85 03        	sta	<R0+2
  3300 00:16EE: A0 08 00     	ldy	#$8
  3301 00:16F1: B7 0D        	lda	[<L173+p_1],Y
  3302 00:16F3: 87 01        	sta	[<R0]
  3303 00:16F5: 82 AE 01     	brl	L10059
  3304                        L10058:
  3305 00:16F8: A0 02 00     	ldy	#$2
  3306 00:16FB: B7 0D        	lda	[<L173+p_1],Y
  3307 00:16FD: 29 1F 00     	and	#<$1f
  3308 00:1700: 82 73 01     	brl	L10060
  3309                        L10062:
  3310 00:1703: A0 04 00     	ldy	#$4
  3311 00:1706: B7 0D        	lda	[<L173+p_1],Y
  3312 00:1708: 85 01        	sta	<R0
  3313 00:170A: A0 06 00     	ldy	#$6
  3314 00:170D: B7 0D        	lda	[<L173+p_1],Y
  3315 00:170F: 85 03        	sta	<R0+2
  3316 00:1711: A0 08 00     	ldy	#$8
  3317 00:1714: B7 0D        	lda	[<L173+p_1],Y
  3318 00:1716: 87 01        	sta	[<R0]
  3319 00:1718: A0 0A 00     	ldy	#$a
  3320 00:171B: B7 0D        	lda	[<L173+p_1],Y
  3321 00:171D: A0 02 00     	ldy	#$2
  3322 00:1720: 97 01        	sta	[<R0],Y
  3323 00:1722: 82 81 01     	brl	L10061
  3324                        L10063:
  3325 00:1725: 38           	sec
  3326 00:1726: 3B           	tsc
  3327 00:1727: E9 06 00     	sbc	#6
  3328 00:172A: 1B           	tcs
  3329 00:172B: 1A           	ina
  3330 00:172C: 85 01        	sta	<R0
  3331 00:172E: 64 03        	stz	<R0+2
  3332 00:1730: A0 06 00     	ldy	#$6
  Sun Jan  9 2022 20:52                                                Page 59


  3333 00:1733: B7 0D        	lda	[<L173+p_1],Y
  3334 00:1735: 48           	pha
  3335 00:1736: A0 04 00     	ldy	#$4
  3336 00:1739: B7 0D        	lda	[<L173+p_1],Y
  3337 00:173B: 48           	pha
  3338 00:173C: D4 03        	pei	<R0+2
  3339 00:173E: D4 01        	pei	<R0
  3340 00:1740: A9 06 00     	lda	#$6
  3341                        	xref	~~~fmov
  3342 00:1743: 22 xx xx xx  	jsl	~~~fmov
  3343 00:1747: 22 xx xx xx  	jsl	~~free_string
  3344 00:174B: 18           	clc
  3345 00:174C: A9 08 00     	lda	#$8
  3346 00:174F: 65 0D        	adc	<L173+p_1
  3347 00:1751: 85 01        	sta	<R0
  3348 00:1753: A9 00 00     	lda	#$0
  3349 00:1756: 65 0F        	adc	<L173+p_1+2
  3350 00:1758: 85 03        	sta	<R0+2
  3351 00:175A: D4 03        	pei	<R0+2
  3352 00:175C: D4 01        	pei	<R0
  3353 00:175E: A0 06 00     	ldy	#$6
  3354 00:1761: B7 0D        	lda	[<L173+p_1],Y
  3355 00:1763: 48           	pha
  3356 00:1764: A0 04 00     	ldy	#$4
  3357 00:1767: B7 0D        	lda	[<L173+p_1],Y
  3358 00:1769: 48           	pha
  3359 00:176A: A9 06 00     	lda	#$6
  3360                        	xref	~~~fmov
  3361 00:176D: 22 xx xx xx  	jsl	~~~fmov
  3362 00:1771: 82 32 01     	brl	L10061
  3363                        L10064:
  3364 00:1774: A0 04 00     	ldy	#$4
  3365 00:1777: B7 0D        	lda	[<L173+p_1],Y
  3366 00:1779: 85 01        	sta	<R0
  3367 00:177B: AD xx xx     	lda	|~~basicvars+6
  3368 00:177E: 85 05        	sta	<R1
  3369 00:1780: AD xx xx     	lda	|~~basicvars+6+2
  3370 00:1783: 85 07        	sta	<R1+2
  3371 00:1785: E2 20        	sep	#$20
  3372                        	longa	off
  3373 00:1787: A0 08 00     	ldy	#$8
  3374 00:178A: B7 0D        	lda	[<L173+p_1],Y
  3375 00:178C: A4 01        	ldy	<R0
  3376 00:178E: 97 05        	sta	[<R1],Y
  3377 00:1790: C2 20        	rep	#$20
  3378                        	longa	on
  3379 00:1792: 82 11 01     	brl	L10061
  3380                        L10065:
  3381 00:1795: A0 08 00     	ldy	#$8
  3382 00:1798: B7 0D        	lda	[<L173+p_1],Y
  3383 00:179A: 48           	pha
  3384 00:179B: A0 04 00     	ldy	#$4
  3385 00:179E: B7 0D        	lda	[<L173+p_1],Y
  3386 00:17A0: 48           	pha
  3387 00:17A1: 22 xx xx xx  	jsl	~~store_integer
  3388 00:17A5: 82 FE 00     	brl	L10061
  3389                        L10066:
  3390 00:17A8: A0 0A 00     	ldy	#$a
  Sun Jan  9 2022 20:52                                                Page 60


  3391 00:17AB: B7 0D        	lda	[<L173+p_1],Y
  3392 00:17AD: 48           	pha
  3393 00:17AE: A0 08 00     	ldy	#$8
  3394 00:17B1: B7 0D        	lda	[<L173+p_1],Y
  3395 00:17B3: 48           	pha
  3396 00:17B4: A0 04 00     	ldy	#$4
  3397 00:17B7: B7 0D        	lda	[<L173+p_1],Y
  3398 00:17B9: 48           	pha
  3399 00:17BA: 22 xx xx xx  	jsl	~~store_float
  3400 00:17BE: 82 E5 00     	brl	L10061
  3401                        L10067:
  3402 00:17C1: A0 00 00     	ldy	#$0
  3403 00:17C4: 5A           	phy
  3404 00:17C5: A0 08 00     	ldy	#$8
  3405 00:17C8: B7 0D        	lda	[<L173+p_1],Y
  3406 00:17CA: 7A           	ply
  3407 00:17CB: 2A           	rol	A
  3408 00:17CC: 6A           	ror	A
  3409 00:17CD: 10 01        	bpl	L176
  3410 00:17CF: 88           	dey
  3411                        L176:
  3412 00:17D0: 85 01        	sta	<R0
  3413 00:17D2: 84 03        	sty	<R0+2
  3414 00:17D4: D4 03        	pei	<R0+2
  3415 00:17D6: D4 01        	pei	<R0
  3416 00:17D8: A0 0C 00     	ldy	#$c
  3417 00:17DB: B7 0D        	lda	[<L173+p_1],Y
  3418 00:17DD: 48           	pha
  3419 00:17DE: A0 0A 00     	ldy	#$a
  3420 00:17E1: B7 0D        	lda	[<L173+p_1],Y
  3421 00:17E3: 48           	pha
  3422 00:17E4: A0 00 00     	ldy	#$0
  3423 00:17E7: 5A           	phy
  3424 00:17E8: A0 04 00     	ldy	#$4
  3425 00:17EB: B7 0D        	lda	[<L173+p_1],Y
  3426 00:17ED: 7A           	ply
  3427 00:17EE: 2A           	rol	A
  3428 00:17EF: 6A           	ror	A
  3429 00:17F0: 10 01        	bpl	L177
  3430 00:17F2: 88           	dey
  3431                        L177:
  3432 00:17F3: 85 05        	sta	<R1
  3433 00:17F5: 84 07        	sty	<R1+2
  3434 00:17F7: 18           	clc
  3435 00:17F8: AD xx xx     	lda	|~~basicvars+6
  3436 00:17FB: 65 05        	adc	<R1
  3437 00:17FD: 85 09        	sta	<R2
  3438 00:17FF: AD xx xx     	lda	|~~basicvars+6+2
  3439 00:1802: 65 07        	adc	<R1+2
  3440 00:1804: 85 0B        	sta	<R2+2
  3441 00:1806: D4 0B        	pei	<R2+2
  3442 00:1808: D4 09        	pei	<R2
  3443 00:180A: 22 xx xx xx  	jsl	~~memmove
  3444 00:180E: 38           	sec
  3445 00:180F: 3B           	tsc
  3446 00:1810: E9 06 00     	sbc	#6
  3447 00:1813: 1B           	tcs
  3448 00:1814: 1A           	ina
  Sun Jan  9 2022 20:52                                                Page 61


  3449 00:1815: 85 01        	sta	<R0
  3450 00:1817: 64 03        	stz	<R0+2
  3451 00:1819: 18           	clc
  3452 00:181A: A9 08 00     	lda	#$8
  3453 00:181D: 65 0D        	adc	<L173+p_1
  3454 00:181F: 85 05        	sta	<R1
  3455 00:1821: A9 00 00     	lda	#$0
  3456 00:1824: 65 0F        	adc	<L173+p_1+2
  3457 00:1826: 85 07        	sta	<R1+2
  3458 00:1828: D4 07        	pei	<R1+2
  3459 00:182A: D4 05        	pei	<R1
  3460 00:182C: D4 03        	pei	<R0+2
  3461 00:182E: D4 01        	pei	<R0
  3462 00:1830: A9 06 00     	lda	#$6
  3463                        	xref	~~~fmov
  3464 00:1833: 22 xx xx xx  	jsl	~~~fmov
  3465 00:1837: 22 xx xx xx  	jsl	~~free_string
  3466 00:183B: 82 68 00     	brl	L10061
  3467                        L10068:
  3468                        L10069:
  3469                        L10070:
  3470 00:183E: A0 04 00     	ldy	#$4
  3471 00:1841: B7 0D        	lda	[<L173+p_1],Y
  3472 00:1843: 85 01        	sta	<R0
  3473 00:1845: A0 06 00     	ldy	#$6
  3474 00:1848: B7 0D        	lda	[<L173+p_1],Y
  3475 00:184A: 85 03        	sta	<R0+2
  3476 00:184C: A0 08 00     	ldy	#$8
  3477 00:184F: B7 0D        	lda	[<L173+p_1],Y
  3478 00:1851: 87 01        	sta	[<R0]
  3479 00:1853: A0 0A 00     	ldy	#$a
  3480 00:1856: B7 0D        	lda	[<L173+p_1],Y
  3481 00:1858: A0 02 00     	ldy	#$2
  3482 00:185B: 97 01        	sta	[<R0],Y
  3483 00:185D: 82 46 00     	brl	L10061
  3484                        L10071:
  3485 00:1860: F4 xx xx     	pea	#^L171
  3486 00:1863: F4 xx xx     	pea	#<L171
  3487 00:1866: F4 14 03     	pea	#<$314
  3488 00:1869: F4 82 00     	pea	#<$82
  3489 00:186C: F4 0A 00     	pea	#10
  3490 00:186F: 22 xx xx xx  	jsl	~~error
  3491 00:1873: 82 30 00     	brl	L10061
  3492                        L10060:
  3493                        	xref	~~~fsw
  3494 00:1876: 22 xx xx xx  	jsl	~~~fsw
  3495 00:187A: 03 00        	dw	3
  3496 00:187C: 13 00        	dw	19
  3497 00:187E: xx xx        	dw	L10071-1
  3498 00:1880: xx xx        	dw	L10062-1
  3499 00:1882: xx xx        	dw	L10063-1
  3500 00:1884: xx xx        	dw	L10071-1
  3501 00:1886: xx xx        	dw	L10071-1
  3502 00:1888: xx xx        	dw	L10071-1
  3503 00:188A: xx xx        	dw	L10071-1
  3504 00:188C: xx xx        	dw	L10071-1
  3505 00:188E: xx xx        	dw	L10068-1
  3506 00:1890: xx xx        	dw	L10069-1
  Sun Jan  9 2022 20:52                                                Page 62


  3507 00:1892: xx xx        	dw	L10070-1
  3508 00:1894: xx xx        	dw	L10071-1
  3509 00:1896: xx xx        	dw	L10071-1
  3510 00:1898: xx xx        	dw	L10071-1
  3511 00:189A: xx xx        	dw	L10071-1
  3512 00:189C: xx xx        	dw	L10064-1
  3513 00:189E: xx xx        	dw	L10065-1
  3514 00:18A0: xx xx        	dw	L10066-1
  3515 00:18A2: xx xx        	dw	L10071-1
  3516 00:18A4: xx xx        	dw	L10067-1
  3517                        L10061:
  3518                        L10059:
  3519 00:18A6: C6 16        	dec	<L172+parmcount_0
  3520 00:18A8: AD xx xx     	lda	|~~basicvars+42
  3521 00:18AB: 85 01        	sta	<R0
  3522 00:18AD: AD xx xx     	lda	|~~basicvars+42+2
  3523 00:18B0: 85 03        	sta	<R0+2
  3524 00:18B2: A7 01        	lda	[<R0]
  3525 00:18B4: 85 11        	sta	<L173+localitem_1
  3526                        L10055:
  3527 00:18B6: 38           	sec
  3528 00:18B7: A9 00 00     	lda	#$0
  3529 00:18BA: E5 16        	sbc	<L172+parmcount_0
  3530 00:18BC: 70 03        	bvs	L179
  3531 00:18BE: 49 00 80     	eor	#$8000
  3532                        L179:
  3533 00:18C1: 10 03        	bpl	L180
  3534 00:18C3: 82 0A 00     	brl	L178
  3535                        L180:
  3536 00:18C6: A5 11        	lda	<L173+localitem_1
  3537 00:18C8: C9 11 00     	cmp	#<$11
  3538 00:18CB: D0 03        	bne	L181
  3539 00:18CD: 82 EA FD     	brl	L10057
  3540                        L181:
  3541                        L178:
  3542                        L10056:
  3543 00:18D0: 38           	sec
  3544 00:18D1: A9 00 00     	lda	#$0
  3545 00:18D4: E5 16        	sbc	<L172+parmcount_0
  3546 00:18D6: 70 03        	bvs	L182
  3547 00:18D8: 49 00 80     	eor	#$8000
  3548                        L182:
  3549 00:18DB: 10 03        	bpl	L183
  3550 00:18DD: 82 10 00     	brl	L10072
  3551                        L183:
  3552 00:18E0: A5 11        	lda	<L173+localitem_1
  3553 00:18E2: C9 12 00     	cmp	#<$12
  3554 00:18E5: F0 03        	beq	L184
  3555 00:18E7: 82 06 00     	brl	L10072
  3556                        L184:
  3557 00:18EA: D4 16        	pei	<L172+parmcount_0
  3558 00:18EC: 22 xx xx xx  	jsl	~~restore_retparm
  3559                        L10072:
  3560                        L185:
  3561 00:18F0: A5 14        	lda	<L172+2
  3562 00:18F2: 85 16        	sta	<L172+2+2
  3563 00:18F4: A5 13        	lda	<L172+1
  3564 00:18F6: 85 15        	sta	<L172+1+2
  Sun Jan  9 2022 20:52                                                Page 63


  3565 00:18F8: 2B           	pld
  3566 00:18F9: 3B           	tsc
  3567 00:18FA: 18           	clc
  3568 00:18FB: 69 14 00     	adc	#L172+2
  3569 00:18FE: 1B           	tcs
  3570 00:18FF: 6B           	rtl
  3571             00000012   L172	equ	18
  3572             0000000D   L173	equ	13
  3573                        	ends
  3574                        	efunc
  3575                        	data
  3576                        L171:
  3577 00:007F: 73 74 61 63  	db	$73,$74,$61,$63,$6B,$00
       00:0083: 6B 00 
  3578 00:0085:              	ends
  3579                        	code
  3580                        	xdef	~~restore_parameters
  3581                        	func
  3582                        ~~restore_parameters:
  3583                        	longa	on
  3584                        	longi	on
  3585 00:1900: 3B           	tsc
  3586 00:1901: 38           	sec
  3587 00:1902: E9 04 00     	sbc	#L187
  3588 00:1905: 1B           	tcs
  3589 00:1906: 0B           	phd
  3590 00:1907: 5B           	tcd
  3591             00000004   parmcount_0	set	4
  3592 00:1908: AD xx xx     	lda	|~~basicvars+42
  3593 00:190B: 85 01        	sta	<R0
  3594 00:190D: AD xx xx     	lda	|~~basicvars+42+2
  3595 00:1910: 85 03        	sta	<R0+2
  3596 00:1912: A7 01        	lda	[<R0]
  3597 00:1914: C9 11 00     	cmp	#<$11
  3598 00:1917: F0 03        	beq	L189
  3599 00:1919: 82 09 00     	brl	L10073
  3600                        L189:
  3601 00:191C: D4 08        	pei	<L187+parmcount_0
  3602 00:191E: 22 xx xx xx  	jsl	~~restore
  3603 00:1922: 82 06 00     	brl	L10074
  3604                        L10073:
  3605 00:1925: D4 08        	pei	<L187+parmcount_0
  3606 00:1927: 22 xx xx xx  	jsl	~~restore_retparm
  3607                        L10074:
  3608                        L190:
  3609 00:192B: A5 06        	lda	<L187+2
  3610 00:192D: 85 08        	sta	<L187+2+2
  3611 00:192F: A5 05        	lda	<L187+1
  3612 00:1931: 85 07        	sta	<L187+1+2
  3613 00:1933: 2B           	pld
  3614 00:1934: 3B           	tsc
  3615 00:1935: 18           	clc
  3616 00:1936: 69 06 00     	adc	#L187+2
  3617 00:1939: 1B           	tcs
  3618 00:193A: 6B           	rtl
  3619             00000004   L187	equ	4
  3620             00000005   L188	equ	5
  3621                        	ends
  Sun Jan  9 2022 20:52                                                Page 64


  3622                        	efunc
  3623                        	code
  3624                        	xdef	~~pop_int
  3625                        	func
  3626                        ~~pop_int:
  3627                        	longa	on
  3628                        	longi	on
  3629 00:193B: 3B           	tsc
  3630 00:193C: 38           	sec
  3631 00:193D: E9 04 00     	sbc	#L191
  3632 00:1940: 1B           	tcs
  3633 00:1941: 0B           	phd
  3634 00:1942: 5B           	tcd
  3635             00000000   p_1	set	0
  3636 00:1943: AD xx xx     	lda	|~~basicvars+42
  3637 00:1946: 85 01        	sta	<L192+p_1
  3638 00:1948: AD xx xx     	lda	|~~basicvars+42+2
  3639 00:194B: 85 03        	sta	<L192+p_1+2
  3640 00:194D: 18           	clc
  3641 00:194E: A9 04 00     	lda	#$4
  3642 00:1951: 6D xx xx     	adc	|~~basicvars+42
  3643 00:1954: 8D xx xx     	sta	|~~basicvars+42
  3644 00:1957: 90 03        	bcc	L193
  3645 00:1959: EE xx xx     	inc	|~~basicvars+42+2
  3646                        L193:
  3647 00:195C: A0 02 00     	ldy	#$2
  3648 00:195F: B7 01        	lda	[<L192+p_1],Y
  3649                        L194:
  3650 00:1961: A8           	tay
  3651 00:1962: 2B           	pld
  3652 00:1963: 3B           	tsc
  3653 00:1964: 18           	clc
  3654 00:1965: 69 04 00     	adc	#L191
  3655 00:1968: 1B           	tcs
  3656 00:1969: 98           	tya
  3657 00:196A: 6B           	rtl
  3658             00000004   L191	equ	4
  3659             00000001   L192	equ	1
  3660                        	ends
  3661                        	efunc
  3662                        	code
  3663                        	xdef	~~pop_float
  3664                        	func
  3665                        ~~pop_float:
  3666                        	longa	on
  3667                        	longi	on
  3668 00:196B: 3B           	tsc
  3669 00:196C: 38           	sec
  3670 00:196D: E9 04 00     	sbc	#L195
  3671 00:1970: 1B           	tcs
  3672 00:1971: 0B           	phd
  3673 00:1972: 5B           	tcd
  3674             00000000   p_1	set	0
  3675 00:1973: AD xx xx     	lda	|~~basicvars+42
  3676 00:1976: 85 01        	sta	<L196+p_1
  3677 00:1978: AD xx xx     	lda	|~~basicvars+42+2
  3678 00:197B: 85 03        	sta	<L196+p_1+2
  3679 00:197D: 18           	clc
  Sun Jan  9 2022 20:52                                                Page 65


  3680 00:197E: A9 06 00     	lda	#$6
  3681 00:1981: 6D xx xx     	adc	|~~basicvars+42
  3682 00:1984: 8D xx xx     	sta	|~~basicvars+42
  3683 00:1987: 90 03        	bcc	L197
  3684 00:1989: EE xx xx     	inc	|~~basicvars+42+2
  3685                        L197:
  3686 00:198C: A0 02 00     	ldy	#$2
  3687 00:198F: B7 01        	lda	[<L196+p_1],Y
  3688 00:1991: 85 08        	sta	<L195+4
  3689 00:1993: A0 04 00     	ldy	#$4
  3690 00:1996: B7 01        	lda	[<L196+p_1],Y
  3691 00:1998: 85 0A        	sta	<L195+6
  3692                        L198:
  3693 00:199A: 2B           	pld
  3694 00:199B: 3B           	tsc
  3695 00:199C: 18           	clc
  3696 00:199D: 69 04 00     	adc	#L195+0
  3697 00:19A0: 1B           	tcs
  3698 00:19A1: 6B           	rtl
  3699             00000004   L195	equ	4
  3700             00000001   L196	equ	1
  3701                        	ends
  3702                        	efunc
  3703                        	code
  3704                        	xdef	~~pop_string
  3705                        	func
  3706                        ~~pop_string:
  3707                        	longa	on
  3708                        	longi	on
  3709 00:19A2: 3B           	tsc
  3710 00:19A3: 38           	sec
  3711 00:19A4: E9 08 00     	sbc	#L199
  3712 00:19A7: 1B           	tcs
  3713 00:19A8: 0B           	phd
  3714 00:19A9: 5B           	tcd
  3715                        	udata
  3716                        L10075:
  3717 00:0000:              	ds	6
  3718 00:0006:              	ends
  3719             00000000   p_1	set	0
  3720 00:19AA: AD xx xx     	lda	|~~basicvars+42
  3721 00:19AD: 85 05        	sta	<L200+p_1
  3722 00:19AF: AD xx xx     	lda	|~~basicvars+42+2
  3723 00:19B2: 85 07        	sta	<L200+p_1+2
  3724 00:19B4: 18           	clc
  3725 00:19B5: A9 08 00     	lda	#$8
  3726 00:19B8: 6D xx xx     	adc	|~~basicvars+42
  3727 00:19BB: 8D xx xx     	sta	|~~basicvars+42
  3728 00:19BE: 90 03        	bcc	L201
  3729 00:19C0: EE xx xx     	inc	|~~basicvars+42+2
  3730                        L201:
  3731 00:19C3: 18           	clc
  3732 00:19C4: A9 02 00     	lda	#$2
  3733 00:19C7: 65 05        	adc	<L200+p_1
  3734 00:19C9: 85 01        	sta	<R0
  3735 00:19CB: A9 00 00     	lda	#$0
  3736 00:19CE: 65 07        	adc	<L200+p_1+2
  3737 00:19D0: 85 03        	sta	<R0+2
  Sun Jan  9 2022 20:52                                                Page 66


  3738 00:19D2: D4 03        	pei	<R0+2
  3739 00:19D4: D4 01        	pei	<R0
  3740 00:19D6: F4 xx xx     	pea	#^L10075
  3741 00:19D9: F4 xx xx     	pea	#<L10075
  3742 00:19DC: A9 06 00     	lda	#$6
  3743                        	xref	~~~fmov
  3744 00:19DF: 22 xx xx xx  	jsl	~~~fmov
  3745 00:19E3: A9 xx xx     	lda	#^L10075
  3746 00:19E6: AA           	tax
  3747 00:19E7: A9 xx xx     	lda	#<L10075
  3748                        L202:
  3749 00:19EA: A8           	tay
  3750 00:19EB: 2B           	pld
  3751 00:19EC: 3B           	tsc
  3752 00:19ED: 18           	clc
  3753 00:19EE: 69 08 00     	adc	#L199
  3754 00:19F1: 1B           	tcs
  3755 00:19F2: 98           	tya
  3756 00:19F3: 6B           	rtl
  3757             00000008   L199	equ	8
  3758             00000005   L200	equ	5
  3759                        	ends
  3760                        	efunc
  3761                        	code
  3762                        	xdef	~~pop_array
  3763                        	func
  3764                        ~~pop_array:
  3765                        	longa	on
  3766                        	longi	on
  3767 00:19F4: 3B           	tsc
  3768 00:19F5: 38           	sec
  3769 00:19F6: E9 04 00     	sbc	#L203
  3770 00:19F9: 1B           	tcs
  3771 00:19FA: 0B           	phd
  3772 00:19FB: 5B           	tcd
  3773             00000000   p_1	set	0
  3774 00:19FC: AD xx xx     	lda	|~~basicvars+42
  3775 00:19FF: 85 01        	sta	<L204+p_1
  3776 00:1A01: AD xx xx     	lda	|~~basicvars+42+2
  3777 00:1A04: 85 03        	sta	<L204+p_1+2
  3778 00:1A06: 18           	clc
  3779 00:1A07: A9 06 00     	lda	#$6
  3780 00:1A0A: 6D xx xx     	adc	|~~basicvars+42
  3781 00:1A0D: 8D xx xx     	sta	|~~basicvars+42
  3782 00:1A10: 90 03        	bcc	L205
  3783 00:1A12: EE xx xx     	inc	|~~basicvars+42+2
  3784                        L205:
  3785 00:1A15: A0 04 00     	ldy	#$4
  3786 00:1A18: B7 01        	lda	[<L204+p_1],Y
  3787 00:1A1A: AA           	tax
  3788 00:1A1B: A0 02 00     	ldy	#$2
  3789 00:1A1E: B7 01        	lda	[<L204+p_1],Y
  3790                        L206:
  3791 00:1A20: A8           	tay
  3792 00:1A21: 2B           	pld
  3793 00:1A22: 3B           	tsc
  3794 00:1A23: 18           	clc
  3795 00:1A24: 69 04 00     	adc	#L203
  Sun Jan  9 2022 20:52                                                Page 67


  3796 00:1A27: 1B           	tcs
  3797 00:1A28: 98           	tya
  3798 00:1A29: 6B           	rtl
  3799             00000004   L203	equ	4
  3800             00000001   L204	equ	1
  3801                        	ends
  3802                        	efunc
  3803                        	code
  3804                        	xdef	~~pop_arraytemp
  3805                        	func
  3806                        ~~pop_arraytemp:
  3807                        	longa	on
  3808                        	longi	on
  3809 00:1A2A: 3B           	tsc
  3810 00:1A2B: 38           	sec
  3811 00:1A2C: E9 08 00     	sbc	#L207
  3812 00:1A2F: 1B           	tcs
  3813 00:1A30: 0B           	phd
  3814 00:1A31: 5B           	tcd
  3815                        	udata
  3816                        L10076:
  3817 00:0006:              	ds	28
  3818 00:0022:              	ends
  3819             00000000   p_1	set	0
  3820 00:1A32: AD xx xx     	lda	|~~basicvars+42
  3821 00:1A35: 85 05        	sta	<L208+p_1
  3822 00:1A37: AD xx xx     	lda	|~~basicvars+42+2
  3823 00:1A3A: 85 07        	sta	<L208+p_1+2
  3824 00:1A3C: 18           	clc
  3825 00:1A3D: A9 1E 00     	lda	#$1e
  3826 00:1A40: 6D xx xx     	adc	|~~basicvars+42
  3827 00:1A43: 8D xx xx     	sta	|~~basicvars+42
  3828 00:1A46: 90 03        	bcc	L209
  3829 00:1A48: EE xx xx     	inc	|~~basicvars+42+2
  3830                        L209:
  3831 00:1A4B: 18           	clc
  3832 00:1A4C: A9 02 00     	lda	#$2
  3833 00:1A4F: 65 05        	adc	<L208+p_1
  3834 00:1A51: 85 01        	sta	<R0
  3835 00:1A53: A9 00 00     	lda	#$0
  3836 00:1A56: 65 07        	adc	<L208+p_1+2
  3837 00:1A58: 85 03        	sta	<R0+2
  3838 00:1A5A: D4 03        	pei	<R0+2
  3839 00:1A5C: D4 01        	pei	<R0
  3840 00:1A5E: F4 xx xx     	pea	#^L10076
  3841 00:1A61: F4 xx xx     	pea	#<L10076
  3842 00:1A64: A9 1C 00     	lda	#$1c
  3843                        	xref	~~~fmov
  3844 00:1A67: 22 xx xx xx  	jsl	~~~fmov
  3845 00:1A6B: A9 xx xx     	lda	#^L10076
  3846 00:1A6E: AA           	tax
  3847 00:1A6F: A9 xx xx     	lda	#<L10076
  3848                        L210:
  3849 00:1A72: A8           	tay
  3850 00:1A73: 2B           	pld
  3851 00:1A74: 3B           	tsc
  3852 00:1A75: 18           	clc
  3853 00:1A76: 69 08 00     	adc	#L207
  Sun Jan  9 2022 20:52                                                Page 68


  3854 00:1A79: 1B           	tcs
  3855 00:1A7A: 98           	tya
  3856 00:1A7B: 6B           	rtl
  3857             00000008   L207	equ	8
  3858             00000005   L208	equ	5
  3859                        	ends
  3860                        	efunc
  3861                        	code
  3862                        	xdef	~~pop_proc
  3863                        	func
  3864                        ~~pop_proc:
  3865                        	longa	on
  3866                        	longi	on
  3867 00:1A7C: 3B           	tsc
  3868 00:1A7D: 38           	sec
  3869 00:1A7E: E9 08 00     	sbc	#L211
  3870 00:1A81: 1B           	tcs
  3871 00:1A82: 0B           	phd
  3872 00:1A83: 5B           	tcd
  3873                        	udata
  3874                        L10077:
  3875 00:0022:              	ds	14
  3876 00:0030:              	ends
  3877             00000000   p_1	set	0
  3878 00:1A84: AD xx xx     	lda	|~~basicvars+42
  3879 00:1A87: 85 05        	sta	<L212+p_1
  3880 00:1A89: AD xx xx     	lda	|~~basicvars+42+2
  3881 00:1A8C: 85 07        	sta	<L212+p_1+2
  3882 00:1A8E: A0 02 00     	ldy	#$2
  3883 00:1A91: B7 05        	lda	[<L212+p_1],Y
  3884 00:1A93: 8D xx xx     	sta	|~~basicvars+399
  3885 00:1A96: A0 04 00     	ldy	#$4
  3886 00:1A99: B7 05        	lda	[<L212+p_1],Y
  3887 00:1A9B: 8D xx xx     	sta	|~~basicvars+399+2
  3888 00:1A9E: 18           	clc
  3889 00:1A9F: A9 10 00     	lda	#$10
  3890 00:1AA2: 6D xx xx     	adc	|~~basicvars+42
  3891 00:1AA5: 8D xx xx     	sta	|~~basicvars+42
  3892 00:1AA8: 90 03        	bcc	L213
  3893 00:1AAA: EE xx xx     	inc	|~~basicvars+42+2
  3894                        L213:
  3895 00:1AAD: 18           	clc
  3896 00:1AAE: A9 02 00     	lda	#$2
  3897 00:1AB1: 65 05        	adc	<L212+p_1
  3898 00:1AB3: 85 01        	sta	<R0
  3899 00:1AB5: A9 00 00     	lda	#$0
  3900 00:1AB8: 65 07        	adc	<L212+p_1+2
  3901 00:1ABA: 85 03        	sta	<R0+2
  3902 00:1ABC: D4 03        	pei	<R0+2
  3903 00:1ABE: D4 01        	pei	<R0
  3904 00:1AC0: F4 xx xx     	pea	#^L10077
  3905 00:1AC3: F4 xx xx     	pea	#<L10077
  3906 00:1AC6: A9 0E 00     	lda	#$e
  3907                        	xref	~~~fmov
  3908 00:1AC9: 22 xx xx xx  	jsl	~~~fmov
  3909 00:1ACD: A9 xx xx     	lda	#^L10077
  3910 00:1AD0: AA           	tax
  3911 00:1AD1: A9 xx xx     	lda	#<L10077
  Sun Jan  9 2022 20:52                                                Page 69


  3912                        L214:
  3913 00:1AD4: A8           	tay
  3914 00:1AD5: 2B           	pld
  3915 00:1AD6: 3B           	tsc
  3916 00:1AD7: 18           	clc
  3917 00:1AD8: 69 08 00     	adc	#L211
  3918 00:1ADB: 1B           	tcs
  3919 00:1ADC: 98           	tya
  3920 00:1ADD: 6B           	rtl
  3921             00000008   L211	equ	8
  3922             00000005   L212	equ	5
  3923                        	ends
  3924                        	efunc
  3925                        	code
  3926                        	xdef	~~pop_fn
  3927                        	func
  3928                        ~~pop_fn:
  3929                        	longa	on
  3930                        	longi	on
  3931 00:1ADE: 3B           	tsc
  3932 00:1ADF: 38           	sec
  3933 00:1AE0: E9 08 00     	sbc	#L215
  3934 00:1AE3: 1B           	tcs
  3935 00:1AE4: 0B           	phd
  3936 00:1AE5: 5B           	tcd
  3937                        	udata
  3938                        L10078:
  3939 00:0030:              	ds	14
  3940 00:003E:              	ends
  3941             00000000   p_1	set	0
  3942 00:1AE6: AD xx xx     	lda	|~~basicvars+42
  3943 00:1AE9: 85 05        	sta	<L216+p_1
  3944 00:1AEB: AD xx xx     	lda	|~~basicvars+42+2
  3945 00:1AEE: 85 07        	sta	<L216+p_1+2
  3946 00:1AF0: A0 10 00     	ldy	#$10
  3947 00:1AF3: B7 05        	lda	[<L216+p_1],Y
  3948 00:1AF5: 8D xx xx     	sta	|~~basicvars+10
  3949 00:1AF8: A0 12 00     	ldy	#$12
  3950 00:1AFB: B7 05        	lda	[<L216+p_1],Y
  3951 00:1AFD: 8D xx xx     	sta	|~~basicvars+10+2
  3952 00:1B00: A0 14 00     	ldy	#$14
  3953 00:1B03: B7 05        	lda	[<L216+p_1],Y
  3954 00:1B05: 8D xx xx     	sta	|~~basicvars+14
  3955 00:1B08: A0 16 00     	ldy	#$16
  3956 00:1B0B: B7 05        	lda	[<L216+p_1],Y
  3957 00:1B0D: 8D xx xx     	sta	|~~basicvars+14+2
  3958 00:1B10: A0 18 00     	ldy	#$18
  3959 00:1B13: B7 05        	lda	[<L216+p_1],Y
  3960 00:1B15: 8D xx xx     	sta	|~~basicvars+395
  3961 00:1B18: A0 1A 00     	ldy	#$1a
  3962 00:1B1B: B7 05        	lda	[<L216+p_1],Y
  3963 00:1B1D: 8D xx xx     	sta	|~~basicvars+395+2
  3964 00:1B20: A0 02 00     	ldy	#$2
  3965 00:1B23: B7 05        	lda	[<L216+p_1],Y
  3966 00:1B25: 8D xx xx     	sta	|~~basicvars+399
  3967 00:1B28: A0 04 00     	ldy	#$4
  3968 00:1B2B: B7 05        	lda	[<L216+p_1],Y
  3969 00:1B2D: 8D xx xx     	sta	|~~basicvars+399+2
  Sun Jan  9 2022 20:52                                                Page 70


  3970 00:1B30: 18           	clc
  3971 00:1B31: A9 1C 00     	lda	#$1c
  3972 00:1B34: 6D xx xx     	adc	|~~basicvars+42
  3973 00:1B37: 8D xx xx     	sta	|~~basicvars+42
  3974 00:1B3A: 90 03        	bcc	L217
  3975 00:1B3C: EE xx xx     	inc	|~~basicvars+42+2
  3976                        L217:
  3977 00:1B3F: 18           	clc
  3978 00:1B40: A9 02 00     	lda	#$2
  3979 00:1B43: 65 05        	adc	<L216+p_1
  3980 00:1B45: 85 01        	sta	<R0
  3981 00:1B47: A9 00 00     	lda	#$0
  3982 00:1B4A: 65 07        	adc	<L216+p_1+2
  3983 00:1B4C: 85 03        	sta	<R0+2
  3984 00:1B4E: D4 03        	pei	<R0+2
  3985 00:1B50: D4 01        	pei	<R0
  3986 00:1B52: F4 xx xx     	pea	#^L10078
  3987 00:1B55: F4 xx xx     	pea	#<L10078
  3988 00:1B58: A9 0E 00     	lda	#$e
  3989                        	xref	~~~fmov
  3990 00:1B5B: 22 xx xx xx  	jsl	~~~fmov
  3991 00:1B5F: A9 xx xx     	lda	#^L10078
  3992 00:1B62: AA           	tax
  3993 00:1B63: A9 xx xx     	lda	#<L10078
  3994                        L218:
  3995 00:1B66: A8           	tay
  3996 00:1B67: 2B           	pld
  3997 00:1B68: 3B           	tsc
  3998 00:1B69: 18           	clc
  3999 00:1B6A: 69 08 00     	adc	#L215
  4000 00:1B6D: 1B           	tcs
  4001 00:1B6E: 98           	tya
  4002 00:1B6F: 6B           	rtl
  4003             00000008   L215	equ	8
  4004             00000005   L216	equ	5
  4005                        	ends
  4006                        	efunc
  4007                        	code
  4008                        	xdef	~~pop_gosub
  4009                        	func
  4010                        ~~pop_gosub:
  4011                        	longa	on
  4012                        	longi	on
  4013 00:1B70: 3B           	tsc
  4014 00:1B71: 38           	sec
  4015 00:1B72: E9 08 00     	sbc	#L219
  4016 00:1B75: 1B           	tcs
  4017 00:1B76: 0B           	phd
  4018 00:1B77: 5B           	tcd
  4019                        	udata
  4020                        L10079:
  4021 00:003E:              	ds	8
  4022 00:0046:              	ends
  4023             00000000   p_1	set	0
  4024 00:1B78: AD xx xx     	lda	|~~basicvars+42
  4025 00:1B7B: 85 05        	sta	<L220+p_1
  4026 00:1B7D: AD xx xx     	lda	|~~basicvars+42+2
  4027 00:1B80: 85 07        	sta	<L220+p_1+2
  Sun Jan  9 2022 20:52                                                Page 71


  4028 00:1B82: A0 02 00     	ldy	#$2
  4029 00:1B85: B7 05        	lda	[<L220+p_1],Y
  4030 00:1B87: 8D xx xx     	sta	|~~basicvars+403
  4031 00:1B8A: A0 04 00     	ldy	#$4
  4032 00:1B8D: B7 05        	lda	[<L220+p_1],Y
  4033 00:1B8F: 8D xx xx     	sta	|~~basicvars+403+2
  4034 00:1B92: 18           	clc
  4035 00:1B93: A9 0A 00     	lda	#$a
  4036 00:1B96: 6D xx xx     	adc	|~~basicvars+42
  4037 00:1B99: 8D xx xx     	sta	|~~basicvars+42
  4038 00:1B9C: 90 03        	bcc	L221
  4039 00:1B9E: EE xx xx     	inc	|~~basicvars+42+2
  4040                        L221:
  4041 00:1BA1: 18           	clc
  4042 00:1BA2: A9 02 00     	lda	#$2
  4043 00:1BA5: 65 05        	adc	<L220+p_1
  4044 00:1BA7: 85 01        	sta	<R0
  4045 00:1BA9: A9 00 00     	lda	#$0
  4046 00:1BAC: 65 07        	adc	<L220+p_1+2
  4047 00:1BAE: 85 03        	sta	<R0+2
  4048 00:1BB0: D4 03        	pei	<R0+2
  4049 00:1BB2: D4 01        	pei	<R0
  4050 00:1BB4: F4 xx xx     	pea	#^L10079
  4051 00:1BB7: F4 xx xx     	pea	#<L10079
  4052 00:1BBA: A9 08 00     	lda	#$8
  4053                        	xref	~~~fmov
  4054 00:1BBD: 22 xx xx xx  	jsl	~~~fmov
  4055 00:1BC1: A9 xx xx     	lda	#^L10079
  4056 00:1BC4: AA           	tax
  4057 00:1BC5: A9 xx xx     	lda	#<L10079
  4058                        L222:
  4059 00:1BC8: A8           	tay
  4060 00:1BC9: 2B           	pld
  4061 00:1BCA: 3B           	tsc
  4062 00:1BCB: 18           	clc
  4063 00:1BCC: 69 08 00     	adc	#L219
  4064 00:1BCF: 1B           	tcs
  4065 00:1BD0: 98           	tya
  4066 00:1BD1: 6B           	rtl
  4067             00000008   L219	equ	8
  4068             00000005   L220	equ	5
  4069                        	ends
  4070                        	efunc
  4071                        	code
  4072                        	func
  4073                        ~~discard:
  4074                        	longa	on
  4075                        	longi	on
  4076 00:1BD2: 3B           	tsc
  4077 00:1BD3: 38           	sec
  4078 00:1BD4: E9 0E 00     	sbc	#L223
  4079 00:1BD7: 1B           	tcs
  4080 00:1BD8: 0B           	phd
  4081 00:1BD9: 5B           	tcd
  4082             00000004   item_0	set	4
  4083             00000000   temp_1	set	0
  4084 00:1BDA: A5 12        	lda	<L223+item_0
  4085 00:1BDC: 82 8F 01     	brl	L10080
  Sun Jan  9 2022 20:52                                                Page 72


  4086                        L10082:
  4087 00:1BDF: 22 xx xx xx  	jsl	~~pop_string
  4088 00:1BE3: 85 01        	sta	<R0
  4089 00:1BE5: 86 03        	stx	<R0+2
  4090 00:1BE7: D4 03        	pei	<R0+2
  4091 00:1BE9: D4 01        	pei	<R0
  4092 00:1BEB: 18           	clc
  4093 00:1BEC: 7B           	tdc
  4094 00:1BED: 69 09 00     	adc	#<L224+temp_1
  4095 00:1BF0: 85 01        	sta	<R0
  4096 00:1BF2: A9 00 00     	lda	#$0
  4097 00:1BF5: 85 03        	sta	<R0+2
  4098 00:1BF7: D4 03        	pei	<R0+2
  4099 00:1BF9: D4 01        	pei	<R0
  4100 00:1BFB: A9 06 00     	lda	#$6
  4101                        	xref	~~~fmov
  4102 00:1BFE: 22 xx xx xx  	jsl	~~~fmov
  4103 00:1C02: 38           	sec
  4104 00:1C03: 3B           	tsc
  4105 00:1C04: E9 06 00     	sbc	#6
  4106 00:1C07: 1B           	tcs
  4107 00:1C08: 1A           	ina
  4108 00:1C09: 85 01        	sta	<R0
  4109 00:1C0B: 64 03        	stz	<R0+2
  4110 00:1C0D: 18           	clc
  4111 00:1C0E: 7B           	tdc
  4112 00:1C0F: 69 09 00     	adc	#<L224+temp_1
  4113 00:1C12: 85 05        	sta	<R1
  4114 00:1C14: A9 00 00     	lda	#$0
  4115 00:1C17: 85 07        	sta	<R1+2
  4116 00:1C19: D4 07        	pei	<R1+2
  4117 00:1C1B: D4 05        	pei	<R1
  4118 00:1C1D: D4 03        	pei	<R0+2
  4119 00:1C1F: D4 01        	pei	<R0
  4120 00:1C21: A9 06 00     	lda	#$6
  4121                        	xref	~~~fmov
  4122 00:1C24: 22 xx xx xx  	jsl	~~~fmov
  4123 00:1C28: 22 xx xx xx  	jsl	~~free_string
  4124 00:1C2C: 82 71 01     	brl	L10081
  4125                        L10083:
  4126 00:1C2F: F4 01 00     	pea	#<$1
  4127 00:1C32: 22 xx xx xx  	jsl	~~restore
  4128 00:1C36: 82 67 01     	brl	L10081
  4129                        L10084:
  4130 00:1C39: F4 01 00     	pea	#<$1
  4131 00:1C3C: 22 xx xx xx  	jsl	~~restore_retparm
  4132 00:1C40: 82 5D 01     	brl	L10081
  4133                        L10085:
  4134 00:1C43: 22 xx xx xx  	jsl	~~pop_gosub
  4135 00:1C47: 82 56 01     	brl	L10081
  4136                        L10086:
  4137 00:1C4A: 22 xx xx xx  	jsl	~~pop_proc
  4138 00:1C4E: 82 4F 01     	brl	L10081
  4139                        L10087:
  4140 00:1C51: 22 xx xx xx  	jsl	~~pop_fn
  4141 00:1C55: 82 48 01     	brl	L10081
  4142                        L10088:
  4143 00:1C58: 22 xx xx xx  	jsl	~~pop_error
  Sun Jan  9 2022 20:52                                                Page 73


  4144 00:1C5C: 85 01        	sta	<R0
  4145 00:1C5E: 86 03        	stx	<R0+2
  4146 00:1C60: D4 03        	pei	<R0+2
  4147 00:1C62: D4 01        	pei	<R0
  4148 00:1C64: F4 xx xx     	pea	#<~~basicvars+232
  4149 00:1C67: A9 09 00     	lda	#$9
  4150                        	xref	~~~fnmov
  4151 00:1C6A: 22 xx xx xx  	jsl	~~~fnmov
  4152 00:1C6E: 82 2F 01     	brl	L10081
  4153                        L10089:
  4154 00:1C71: 22 xx xx xx  	jsl	~~pop_data
  4155 00:1C75: 8D xx xx     	sta	|~~basicvars+407
  4156 00:1C78: 8E xx xx     	stx	|~~basicvars+407+2
  4157 00:1C7B: 82 22 01     	brl	L10081
  4158                        L10090:
  4159 00:1C7E: AD xx xx     	lda	|~~basicvars+42
  4160 00:1C81: 85 01        	sta	<R0
  4161 00:1C83: AD xx xx     	lda	|~~basicvars+42+2
  4162 00:1C86: 85 03        	sta	<R0+2
  4163 00:1C88: 18           	clc
  4164 00:1C89: AD xx xx     	lda	|~~entrysize+24
  4165 00:1C8C: A0 02 00     	ldy	#$2
  4166 00:1C8F: 77 01        	adc	[<R0],Y
  4167 00:1C91: 85 05        	sta	<R1
  4168 00:1C93: A0 00 00     	ldy	#$0
  4169 00:1C96: A5 05        	lda	<R1
  4170 00:1C98: 10 01        	bpl	L225
  4171 00:1C9A: 88           	dey
  4172                        L225:
  4173 00:1C9B: 85 01        	sta	<R0
  4174 00:1C9D: 84 03        	sty	<R0+2
  4175 00:1C9F: 18           	clc
  4176 00:1CA0: AD xx xx     	lda	|~~basicvars+42
  4177 00:1CA3: 65 01        	adc	<R0
  4178 00:1CA5: 8D xx xx     	sta	|~~basicvars+42
  4179 00:1CA8: AD xx xx     	lda	|~~basicvars+42+2
  4180 00:1CAB: 65 03        	adc	<R0+2
  4181 00:1CAD: 8D xx xx     	sta	|~~basicvars+42+2
  4182 00:1CB0: 82 ED 00     	brl	L10081
  4183                        L10091:
  4184 00:1CB3: AD xx xx     	lda	|~~basicvars+42
  4185 00:1CB6: 85 01        	sta	<R0
  4186 00:1CB8: AD xx xx     	lda	|~~basicvars+42+2
  4187 00:1CBB: 85 03        	sta	<R0+2
  4188 00:1CBD: A0 02 00     	ldy	#$2
  4189 00:1CC0: B7 01        	lda	[<R0],Y
  4190 00:1CC2: 48           	pha
  4191 00:1CC3: A0 00 00     	ldy	#$0
  4192 00:1CC6: AD xx xx     	lda	|~~entrysize+24
  4193 00:1CC9: 10 01        	bpl	L226
  4194 00:1CCB: 88           	dey
  4195                        L226:
  4196 00:1CCC: 85 01        	sta	<R0
  4197 00:1CCE: 84 03        	sty	<R0+2
  4198 00:1CD0: 18           	clc
  4199 00:1CD1: AD xx xx     	lda	|~~basicvars+42
  4200 00:1CD4: 65 01        	adc	<R0
  4201 00:1CD6: 85 05        	sta	<R1
  Sun Jan  9 2022 20:52                                                Page 74


  4202 00:1CD8: AD xx xx     	lda	|~~basicvars+42+2
  4203 00:1CDB: 65 03        	adc	<R0+2
  4204 00:1CDD: 85 07        	sta	<R1+2
  4205 00:1CDF: D4 07        	pei	<R1+2
  4206 00:1CE1: D4 05        	pei	<R1
  4207 00:1CE3: 22 xx xx xx  	jsl	~~discard_strings
  4208 00:1CE7: AD xx xx     	lda	|~~basicvars+42
  4209 00:1CEA: 85 01        	sta	<R0
  4210 00:1CEC: AD xx xx     	lda	|~~basicvars+42+2
  4211 00:1CEF: 85 03        	sta	<R0+2
  4212 00:1CF1: 18           	clc
  4213 00:1CF2: AD xx xx     	lda	|~~entrysize+24
  4214 00:1CF5: A0 02 00     	ldy	#$2
  4215 00:1CF8: 77 01        	adc	[<R0],Y
  4216 00:1CFA: 85 05        	sta	<R1
  4217 00:1CFC: A0 00 00     	ldy	#$0
  4218 00:1CFF: A5 05        	lda	<R1
  4219 00:1D01: 10 01        	bpl	L227
  4220 00:1D03: 88           	dey
  4221                        L227:
  4222 00:1D04: 85 01        	sta	<R0
  4223 00:1D06: 84 03        	sty	<R0+2
  4224 00:1D08: 18           	clc
  4225 00:1D09: AD xx xx     	lda	|~~basicvars+42
  4226 00:1D0C: 65 01        	adc	<R0
  4227 00:1D0E: 8D xx xx     	sta	|~~basicvars+42
  4228 00:1D11: AD xx xx     	lda	|~~basicvars+42+2
  4229 00:1D14: 65 03        	adc	<R0+2
  4230 00:1D16: 8D xx xx     	sta	|~~basicvars+42+2
  4231 00:1D19: 82 84 00     	brl	L10081
  4232                        L10092:
  4233 00:1D1C: A5 12        	lda	<L223+item_0
  4234 00:1D1E: D0 03        	bne	L229
  4235 00:1D20: 82 10 00     	brl	L228
  4236                        L229:
  4237 00:1D23: 38           	sec
  4238 00:1D24: A5 12        	lda	<L223+item_0
  4239 00:1D26: E9 1B 00     	sbc	#<$1b
  4240 00:1D29: 70 03        	bvs	L230
  4241 00:1D2B: 49 00 80     	eor	#$8000
  4242                        L230:
  4243 00:1D2E: 30 03        	bmi	L231
  4244 00:1D30: 82 13 00     	brl	L10093
  4245                        L231:
  4246                        L228:
  4247 00:1D33: F4 xx xx     	pea	#^L186
  4248 00:1D36: F4 xx xx     	pea	#<L186
  4249 00:1D39: F4 CA 03     	pea	#<$3ca
  4250 00:1D3C: F4 82 00     	pea	#<$82
  4251 00:1D3F: F4 0A 00     	pea	#10
  4252 00:1D42: 22 xx xx xx  	jsl	~~error
  4253                        L10093:
  4254 00:1D46: A5 12        	lda	<L223+item_0
  4255 00:1D48: 0A           	asl	A
  4256 00:1D49: 85 01        	sta	<R0
  4257 00:1D4B: A0 00 00     	ldy	#$0
  4258 00:1D4E: A6 01        	ldx	<R0
  4259 00:1D50: BD xx xx     	lda	|~~entrysize,X
  Sun Jan  9 2022 20:52                                                Page 75


  4260 00:1D53: 10 01        	bpl	L232
  4261 00:1D55: 88           	dey
  4262                        L232:
  4263 00:1D56: 85 05        	sta	<R1
  4264 00:1D58: 84 07        	sty	<R1+2
  4265 00:1D5A: 18           	clc
  4266 00:1D5B: AD xx xx     	lda	|~~basicvars+42
  4267 00:1D5E: 65 05        	adc	<R1
  4268 00:1D60: 8D xx xx     	sta	|~~basicvars+42
  4269 00:1D63: AD xx xx     	lda	|~~basicvars+42+2
  4270 00:1D66: 65 07        	adc	<R1+2
  4271 00:1D68: 8D xx xx     	sta	|~~basicvars+42+2
  4272 00:1D6B: 82 32 00     	brl	L10081
  4273                        L10080:
  4274                        	xref	~~~fsw
  4275 00:1D6E: 22 xx xx xx  	jsl	~~~fsw
  4276 00:1D72: 05 00        	dw	5
  4277 00:1D74: 14 00        	dw	20
  4278 00:1D76: xx xx        	dw	L10092-1
  4279 00:1D78: xx xx        	dw	L10082-1
  4280 00:1D7A: xx xx        	dw	L10092-1
  4281 00:1D7C: xx xx        	dw	L10092-1
  4282 00:1D7E: xx xx        	dw	L10092-1
  4283 00:1D80: xx xx        	dw	L10092-1
  4284 00:1D82: xx xx        	dw	L10092-1
  4285 00:1D84: xx xx        	dw	L10092-1
  4286 00:1D86: xx xx        	dw	L10090-1
  4287 00:1D88: xx xx        	dw	L10091-1
  4288 00:1D8A: xx xx        	dw	L10085-1
  4289 00:1D8C: xx xx        	dw	L10086-1
  4290 00:1D8E: xx xx        	dw	L10087-1
  4291 00:1D90: xx xx        	dw	L10083-1
  4292 00:1D92: xx xx        	dw	L10084-1
  4293 00:1D94: xx xx        	dw	L10092-1
  4294 00:1D96: xx xx        	dw	L10092-1
  4295 00:1D98: xx xx        	dw	L10092-1
  4296 00:1D9A: xx xx        	dw	L10092-1
  4297 00:1D9C: xx xx        	dw	L10088-1
  4298 00:1D9E: xx xx        	dw	L10089-1
  4299                        L10081:
  4300                        L233:
  4301 00:1DA0: A5 10        	lda	<L223+2
  4302 00:1DA2: 85 12        	sta	<L223+2+2
  4303 00:1DA4: A5 0F        	lda	<L223+1
  4304 00:1DA6: 85 11        	sta	<L223+1+2
  4305 00:1DA8: 2B           	pld
  4306 00:1DA9: 3B           	tsc
  4307 00:1DAA: 18           	clc
  4308 00:1DAB: 69 10 00     	adc	#L223+2
  4309 00:1DAE: 1B           	tcs
  4310 00:1DAF: 6B           	rtl
  4311             0000000E   L223	equ	14
  4312             00000009   L224	equ	9
  4313                        	ends
  4314                        	efunc
  4315                        	data
  4316                        L186:
  4317 00:0085: 73 74 61 63  	db	$73,$74,$61,$63,$6B,$00
  Sun Jan  9 2022 20:52                                                Page 76


       00:0089: 6B 00 
  4318 00:008B:              	ends
  4319                        	code
  4320                        	xdef	~~get_while
  4321                        	func
  4322                        ~~get_while:
  4323                        	longa	on
  4324                        	longi	on
  4325 00:1DB0: 3B           	tsc
  4326 00:1DB1: 38           	sec
  4327 00:1DB2: E9 06 00     	sbc	#L235
  4328 00:1DB5: 1B           	tcs
  4329 00:1DB6: 0B           	phd
  4330 00:1DB7: 5B           	tcd
  4331             00000000   item_1	set	0
  4332 00:1DB8: AD xx xx     	lda	|~~basicvars+42
  4333 00:1DBB: 85 01        	sta	<R0
  4334 00:1DBD: AD xx xx     	lda	|~~basicvars+42+2
  4335 00:1DC0: 85 03        	sta	<R0+2
  4336 00:1DC2: A7 01        	lda	[<R0]
  4337 00:1DC4: 85 05        	sta	<L236+item_1
  4338                        L10094:
  4339 00:1DC6: A6 05        	ldx	<L236+item_1
  4340 00:1DC8: BD xx xx     	lda	|~~disposible,X
  4341 00:1DCB: 29 FF 00     	and	#$ff
  4342 00:1DCE: D0 03        	bne	L237
  4343 00:1DD0: 82 31 00     	brl	L10095
  4344                        L237:
  4345 00:1DD3: D4 05        	pei	<L236+item_1
  4346 00:1DD5: 22 xx xx xx  	jsl	~~discard
  4347 00:1DD9: AD xx xx     	lda	|~~basicvars+42
  4348 00:1DDC: 85 01        	sta	<R0
  4349 00:1DDE: AD xx xx     	lda	|~~basicvars+42+2
  4350 00:1DE1: 85 03        	sta	<R0+2
  4351 00:1DE3: A7 01        	lda	[<R0]
  4352 00:1DE5: 85 05        	sta	<L236+item_1
  4353 00:1DE7: A5 05        	lda	<L236+item_1
  4354 00:1DE9: C9 13 00     	cmp	#<$13
  4355 00:1DEC: F0 03        	beq	L238
  4356 00:1DEE: 82 10 00     	brl	L10096
  4357                        L238:
  4358 00:1DF1: AE xx xx     	ldx	|~~basicvars+42+2
  4359 00:1DF4: AD xx xx     	lda	|~~basicvars+42
  4360                        L239:
  4361 00:1DF7: A8           	tay
  4362 00:1DF8: 2B           	pld
  4363 00:1DF9: 3B           	tsc
  4364 00:1DFA: 18           	clc
  4365 00:1DFB: 69 06 00     	adc	#L235
  4366 00:1DFE: 1B           	tcs
  4367 00:1DFF: 98           	tya
  4368 00:1E00: 6B           	rtl
  4369                        L10096:
  4370 00:1E01: 82 C2 FF     	brl	L10094
  4371                        L10095:
  4372 00:1E04: A9 00 00     	lda	#$0
  4373 00:1E07: AA           	tax
  4374 00:1E08: A9 00 00     	lda	#$0
  Sun Jan  9 2022 20:52                                                Page 77


  4375 00:1E0B: 82 E9 FF     	brl	L239
  4376             00000006   L235	equ	6
  4377             00000005   L236	equ	5
  4378                        	ends
  4379                        	efunc
  4380                        	code
  4381                        	xdef	~~pop_while
  4382                        	func
  4383                        ~~pop_while:
  4384                        	longa	on
  4385                        	longi	on
  4386 00:1E0E: 3B           	tsc
  4387 00:1E0F: 38           	sec
  4388 00:1E10: E9 00 00     	sbc	#L240
  4389 00:1E13: 1B           	tcs
  4390 00:1E14: 0B           	phd
  4391 00:1E15: 5B           	tcd
  4392 00:1E16: 18           	clc
  4393 00:1E17: A9 0A 00     	lda	#$a
  4394 00:1E1A: 6D xx xx     	adc	|~~basicvars+42
  4395 00:1E1D: 8D xx xx     	sta	|~~basicvars+42
  4396 00:1E20: 90 03        	bcc	L242
  4397 00:1E22: EE xx xx     	inc	|~~basicvars+42+2
  4398                        L242:
  4399                        L243:
  4400 00:1E25: 2B           	pld
  4401 00:1E26: 3B           	tsc
  4402 00:1E27: 18           	clc
  4403 00:1E28: 69 00 00     	adc	#L240
  4404 00:1E2B: 1B           	tcs
  4405 00:1E2C: 6B           	rtl
  4406             00000000   L240	equ	0
  4407             00000001   L241	equ	1
  4408                        	ends
  4409                        	efunc
  4410                        	code
  4411                        	xdef	~~get_repeat
  4412                        	func
  4413                        ~~get_repeat:
  4414                        	longa	on
  4415                        	longi	on
  4416 00:1E2D: 3B           	tsc
  4417 00:1E2E: 38           	sec
  4418 00:1E2F: E9 06 00     	sbc	#L244
  4419 00:1E32: 1B           	tcs
  4420 00:1E33: 0B           	phd
  4421 00:1E34: 5B           	tcd
  4422             00000000   item_1	set	0
  4423 00:1E35: AD xx xx     	lda	|~~basicvars+42
  4424 00:1E38: 85 01        	sta	<R0
  4425 00:1E3A: AD xx xx     	lda	|~~basicvars+42+2
  4426 00:1E3D: 85 03        	sta	<R0+2
  4427 00:1E3F: A7 01        	lda	[<R0]
  4428 00:1E41: 85 05        	sta	<L245+item_1
  4429                        L10097:
  4430 00:1E43: A6 05        	ldx	<L245+item_1
  4431 00:1E45: BD xx xx     	lda	|~~disposible,X
  4432 00:1E48: 29 FF 00     	and	#$ff
  Sun Jan  9 2022 20:52                                                Page 78


  4433 00:1E4B: D0 03        	bne	L246
  4434 00:1E4D: 82 31 00     	brl	L10098
  4435                        L246:
  4436 00:1E50: D4 05        	pei	<L245+item_1
  4437 00:1E52: 22 xx xx xx  	jsl	~~discard
  4438 00:1E56: AD xx xx     	lda	|~~basicvars+42
  4439 00:1E59: 85 01        	sta	<R0
  4440 00:1E5B: AD xx xx     	lda	|~~basicvars+42+2
  4441 00:1E5E: 85 03        	sta	<R0+2
  4442 00:1E60: A7 01        	lda	[<R0]
  4443 00:1E62: 85 05        	sta	<L245+item_1
  4444 00:1E64: A5 05        	lda	<L245+item_1
  4445 00:1E66: C9 14 00     	cmp	#<$14
  4446 00:1E69: F0 03        	beq	L247
  4447 00:1E6B: 82 10 00     	brl	L10099
  4448                        L247:
  4449 00:1E6E: AE xx xx     	ldx	|~~basicvars+42+2
  4450 00:1E71: AD xx xx     	lda	|~~basicvars+42
  4451                        L248:
  4452 00:1E74: A8           	tay
  4453 00:1E75: 2B           	pld
  4454 00:1E76: 3B           	tsc
  4455 00:1E77: 18           	clc
  4456 00:1E78: 69 06 00     	adc	#L244
  4457 00:1E7B: 1B           	tcs
  4458 00:1E7C: 98           	tya
  4459 00:1E7D: 6B           	rtl
  4460                        L10099:
  4461 00:1E7E: 82 C2 FF     	brl	L10097
  4462                        L10098:
  4463 00:1E81: A9 00 00     	lda	#$0
  4464 00:1E84: AA           	tax
  4465 00:1E85: A9 00 00     	lda	#$0
  4466 00:1E88: 82 E9 FF     	brl	L248
  4467             00000006   L244	equ	6
  4468             00000005   L245	equ	5
  4469                        	ends
  4470                        	efunc
  4471                        	code
  4472                        	xdef	~~pop_repeat
  4473                        	func
  4474                        ~~pop_repeat:
  4475                        	longa	on
  4476                        	longi	on
  4477 00:1E8B: 3B           	tsc
  4478 00:1E8C: 38           	sec
  4479 00:1E8D: E9 00 00     	sbc	#L249
  4480 00:1E90: 1B           	tcs
  4481 00:1E91: 0B           	phd
  4482 00:1E92: 5B           	tcd
  4483 00:1E93: 18           	clc
  4484 00:1E94: A9 06 00     	lda	#$6
  4485 00:1E97: 6D xx xx     	adc	|~~basicvars+42
  4486 00:1E9A: 8D xx xx     	sta	|~~basicvars+42
  4487 00:1E9D: 90 03        	bcc	L251
  4488 00:1E9F: EE xx xx     	inc	|~~basicvars+42+2
  4489                        L251:
  4490                        L252:
  Sun Jan  9 2022 20:52                                                Page 79


  4491 00:1EA2: 2B           	pld
  4492 00:1EA3: 3B           	tsc
  4493 00:1EA4: 18           	clc
  4494 00:1EA5: 69 00 00     	adc	#L249
  4495 00:1EA8: 1B           	tcs
  4496 00:1EA9: 6B           	rtl
  4497             00000000   L249	equ	0
  4498             00000001   L250	equ	1
  4499                        	ends
  4500                        	efunc
  4501                        	code
  4502                        	xdef	~~get_for
  4503                        	func
  4504                        ~~get_for:
  4505                        	longa	on
  4506                        	longi	on
  4507 00:1EAA: 3B           	tsc
  4508 00:1EAB: 38           	sec
  4509 00:1EAC: E9 06 00     	sbc	#L253
  4510 00:1EAF: 1B           	tcs
  4511 00:1EB0: 0B           	phd
  4512 00:1EB1: 5B           	tcd
  4513             00000000   item_1	set	0
  4514 00:1EB2: AD xx xx     	lda	|~~basicvars+42
  4515 00:1EB5: 85 01        	sta	<R0
  4516 00:1EB7: AD xx xx     	lda	|~~basicvars+42+2
  4517 00:1EBA: 85 03        	sta	<R0+2
  4518 00:1EBC: A7 01        	lda	[<R0]
  4519 00:1EBE: 85 05        	sta	<L254+item_1
  4520                        L10100:
  4521 00:1EC0: A6 05        	ldx	<L254+item_1
  4522 00:1EC2: BD xx xx     	lda	|~~disposible,X
  4523 00:1EC5: 29 FF 00     	and	#$ff
  4524 00:1EC8: D0 03        	bne	L255
  4525 00:1ECA: 82 3B 00     	brl	L10101
  4526                        L255:
  4527 00:1ECD: D4 05        	pei	<L254+item_1
  4528 00:1ECF: 22 xx xx xx  	jsl	~~discard
  4529 00:1ED3: AD xx xx     	lda	|~~basicvars+42
  4530 00:1ED6: 85 01        	sta	<R0
  4531 00:1ED8: AD xx xx     	lda	|~~basicvars+42+2
  4532 00:1EDB: 85 03        	sta	<R0+2
  4533 00:1EDD: A7 01        	lda	[<R0]
  4534 00:1EDF: 85 05        	sta	<L254+item_1
  4535 00:1EE1: A5 05        	lda	<L254+item_1
  4536 00:1EE3: C9 15 00     	cmp	#<$15
  4537 00:1EE6: D0 03        	bne	L257
  4538 00:1EE8: 82 0A 00     	brl	L256
  4539                        L257:
  4540 00:1EEB: A5 05        	lda	<L254+item_1
  4541 00:1EED: C9 16 00     	cmp	#<$16
  4542 00:1EF0: F0 03        	beq	L258
  4543 00:1EF2: 82 10 00     	brl	L10102
  4544                        L258:
  4545                        L256:
  4546 00:1EF5: AE xx xx     	ldx	|~~basicvars+42+2
  4547 00:1EF8: AD xx xx     	lda	|~~basicvars+42
  4548                        L259:
  Sun Jan  9 2022 20:52                                                Page 80


  4549 00:1EFB: A8           	tay
  4550 00:1EFC: 2B           	pld
  4551 00:1EFD: 3B           	tsc
  4552 00:1EFE: 18           	clc
  4553 00:1EFF: 69 06 00     	adc	#L253
  4554 00:1F02: 1B           	tcs
  4555 00:1F03: 98           	tya
  4556 00:1F04: 6B           	rtl
  4557                        L10102:
  4558 00:1F05: 82 B8 FF     	brl	L10100
  4559                        L10101:
  4560 00:1F08: A9 00 00     	lda	#$0
  4561 00:1F0B: AA           	tax
  4562 00:1F0C: A9 00 00     	lda	#$0
  4563 00:1F0F: 82 E9 FF     	brl	L259
  4564             00000006   L253	equ	6
  4565             00000005   L254	equ	5
  4566                        	ends
  4567                        	efunc
  4568                        	code
  4569                        	xdef	~~pop_for
  4570                        	func
  4571                        ~~pop_for:
  4572                        	longa	on
  4573                        	longi	on
  4574 00:1F12: 3B           	tsc
  4575 00:1F13: 38           	sec
  4576 00:1F14: E9 00 00     	sbc	#L260
  4577 00:1F17: 1B           	tcs
  4578 00:1F18: 0B           	phd
  4579 00:1F19: 5B           	tcd
  4580 00:1F1A: 18           	clc
  4581 00:1F1B: A9 16 00     	lda	#$16
  4582 00:1F1E: 6D xx xx     	adc	|~~basicvars+42
  4583 00:1F21: 8D xx xx     	sta	|~~basicvars+42
  4584 00:1F24: 90 03        	bcc	L262
  4585 00:1F26: EE xx xx     	inc	|~~basicvars+42+2
  4586                        L262:
  4587                        L263:
  4588 00:1F29: 2B           	pld
  4589 00:1F2A: 3B           	tsc
  4590 00:1F2B: 18           	clc
  4591 00:1F2C: 69 00 00     	adc	#L260
  4592 00:1F2F: 1B           	tcs
  4593 00:1F30: 6B           	rtl
  4594             00000000   L260	equ	0
  4595             00000001   L261	equ	1
  4596                        	ends
  4597                        	efunc
  4598                        	code
  4599                        	xdef	~~pop_data
  4600                        	func
  4601                        ~~pop_data:
  4602                        	longa	on
  4603                        	longi	on
  4604 00:1F31: 3B           	tsc
  4605 00:1F32: 38           	sec
  4606 00:1F33: E9 04 00     	sbc	#L264
  Sun Jan  9 2022 20:52                                                Page 81


  4607 00:1F36: 1B           	tcs
  4608 00:1F37: 0B           	phd
  4609 00:1F38: 5B           	tcd
  4610             00000000   p_1	set	0
  4611 00:1F39: AD xx xx     	lda	|~~basicvars+42
  4612 00:1F3C: 85 01        	sta	<L265+p_1
  4613 00:1F3E: AD xx xx     	lda	|~~basicvars+42+2
  4614 00:1F41: 85 03        	sta	<L265+p_1+2
  4615 00:1F43: 18           	clc
  4616 00:1F44: A9 06 00     	lda	#$6
  4617 00:1F47: 6D xx xx     	adc	|~~basicvars+42
  4618 00:1F4A: 8D xx xx     	sta	|~~basicvars+42
  4619 00:1F4D: 90 03        	bcc	L266
  4620 00:1F4F: EE xx xx     	inc	|~~basicvars+42+2
  4621                        L266:
  4622 00:1F52: A0 04 00     	ldy	#$4
  4623 00:1F55: B7 01        	lda	[<L265+p_1],Y
  4624 00:1F57: AA           	tax
  4625 00:1F58: A0 02 00     	ldy	#$2
  4626 00:1F5B: B7 01        	lda	[<L265+p_1],Y
  4627                        L267:
  4628 00:1F5D: A8           	tay
  4629 00:1F5E: 2B           	pld
  4630 00:1F5F: 3B           	tsc
  4631 00:1F60: 18           	clc
  4632 00:1F61: 69 04 00     	adc	#L264
  4633 00:1F64: 1B           	tcs
  4634 00:1F65: 98           	tya
  4635 00:1F66: 6B           	rtl
  4636             00000004   L264	equ	4
  4637             00000001   L265	equ	1
  4638                        	ends
  4639                        	efunc
  4640                        	code
  4641                        	xdef	~~pop_error
  4642                        	func
  4643                        ~~pop_error:
  4644                        	longa	on
  4645                        	longi	on
  4646 00:1F67: 3B           	tsc
  4647 00:1F68: 38           	sec
  4648 00:1F69: E9 08 00     	sbc	#L268
  4649 00:1F6C: 1B           	tcs
  4650 00:1F6D: 0B           	phd
  4651 00:1F6E: 5B           	tcd
  4652                        	udata
  4653                        L10103:
  4654 00:0046:              	ds	9
  4655 00:004F:              	ends
  4656             00000000   p_1	set	0
  4657 00:1F6F: AD xx xx     	lda	|~~basicvars+42
  4658 00:1F72: 85 05        	sta	<L269+p_1
  4659 00:1F74: AD xx xx     	lda	|~~basicvars+42+2
  4660 00:1F77: 85 07        	sta	<L269+p_1+2
  4661 00:1F79: 18           	clc
  4662 00:1F7A: A9 0C 00     	lda	#$c
  4663 00:1F7D: 6D xx xx     	adc	|~~basicvars+42
  4664 00:1F80: 8D xx xx     	sta	|~~basicvars+42
  Sun Jan  9 2022 20:52                                                Page 82


  4665 00:1F83: 90 03        	bcc	L270
  4666 00:1F85: EE xx xx     	inc	|~~basicvars+42+2
  4667                        L270:
  4668 00:1F88: 18           	clc
  4669 00:1F89: A9 02 00     	lda	#$2
  4670 00:1F8C: 65 05        	adc	<L269+p_1
  4671 00:1F8E: 85 01        	sta	<R0
  4672 00:1F90: A9 00 00     	lda	#$0
  4673 00:1F93: 65 07        	adc	<L269+p_1+2
  4674 00:1F95: 85 03        	sta	<R0+2
  4675 00:1F97: D4 03        	pei	<R0+2
  4676 00:1F99: D4 01        	pei	<R0
  4677 00:1F9B: F4 xx xx     	pea	#^L10103
  4678 00:1F9E: F4 xx xx     	pea	#<L10103
  4679 00:1FA1: A9 09 00     	lda	#$9
  4680                        	xref	~~~fmov
  4681 00:1FA4: 22 xx xx xx  	jsl	~~~fmov
  4682 00:1FA8: A9 xx xx     	lda	#^L10103
  4683 00:1FAB: AA           	tax
  4684 00:1FAC: A9 xx xx     	lda	#<L10103
  4685                        L271:
  4686 00:1FAF: A8           	tay
  4687 00:1FB0: 2B           	pld
  4688 00:1FB1: 3B           	tsc
  4689 00:1FB2: 18           	clc
  4690 00:1FB3: 69 08 00     	adc	#L268
  4691 00:1FB6: 1B           	tcs
  4692 00:1FB7: 98           	tya
  4693 00:1FB8: 6B           	rtl
  4694             00000008   L268	equ	8
  4695             00000005   L269	equ	5
  4696                        	ends
  4697                        	efunc
  4698                        	code
  4699                        	xdef	~~empty_stack
  4700                        	func
  4701                        ~~empty_stack:
  4702                        	longa	on
  4703                        	longi	on
  4704 00:1FB9: 3B           	tsc
  4705 00:1FBA: 38           	sec
  4706 00:1FBB: E9 04 00     	sbc	#L272
  4707 00:1FBE: 1B           	tcs
  4708 00:1FBF: 0B           	phd
  4709 00:1FC0: 5B           	tcd
  4710             00000004   required_0	set	4
  4711                        L10106:
  4712 00:1FC1: AD xx xx     	lda	|~~basicvars+42
  4713 00:1FC4: 85 01        	sta	<R0
  4714 00:1FC6: AD xx xx     	lda	|~~basicvars+42+2
  4715 00:1FC9: 85 03        	sta	<R0+2
  4716 00:1FCB: A7 01        	lda	[<R0]
  4717 00:1FCD: 48           	pha
  4718 00:1FCE: 22 xx xx xx  	jsl	~~discard
  4719                        L10104:
  4720 00:1FD2: AD xx xx     	lda	|~~basicvars+42
  4721 00:1FD5: 85 01        	sta	<R0
  4722 00:1FD7: AD xx xx     	lda	|~~basicvars+42+2
  Sun Jan  9 2022 20:52                                                Page 83


  4723 00:1FDA: 85 03        	sta	<R0+2
  4724 00:1FDC: A7 01        	lda	[<R0]
  4725 00:1FDE: C5 08        	cmp	<L272+required_0
  4726 00:1FE0: F0 03        	beq	L274
  4727 00:1FE2: 82 DC FF     	brl	L10106
  4728                        L274:
  4729                        L10105:
  4730                        L275:
  4731 00:1FE5: A5 06        	lda	<L272+2
  4732 00:1FE7: 85 08        	sta	<L272+2+2
  4733 00:1FE9: A5 05        	lda	<L272+1
  4734 00:1FEB: 85 07        	sta	<L272+1+2
  4735 00:1FED: 2B           	pld
  4736 00:1FEE: 3B           	tsc
  4737 00:1FEF: 18           	clc
  4738 00:1FF0: 69 06 00     	adc	#L272+2
  4739 00:1FF3: 1B           	tcs
  4740 00:1FF4: 6B           	rtl
  4741             00000004   L272	equ	4
  4742             00000005   L273	equ	5
  4743                        	ends
  4744                        	efunc
  4745                        	code
  4746                        	xdef	~~reset_stack
  4747                        	func
  4748                        ~~reset_stack:
  4749                        	longa	on
  4750                        	longi	on
  4751 00:1FF5: 3B           	tsc
  4752 00:1FF6: 38           	sec
  4753 00:1FF7: E9 04 00     	sbc	#L276
  4754 00:1FFA: 1B           	tcs
  4755 00:1FFB: 0B           	phd
  4756 00:1FFC: 5B           	tcd
  4757             00000004   newstacktop_0	set	4
  4758                        L10107:
  4759 00:1FFD: AD xx xx     	lda	|~~basicvars+42
  4760 00:2000: C5 08        	cmp	<L276+newstacktop_0
  4761 00:2002: AD xx xx     	lda	|~~basicvars+42+2
  4762 00:2005: E5 0A        	sbc	<L276+newstacktop_0+2
  4763 00:2007: 90 03        	bcc	L278
  4764 00:2009: 82 14 00     	brl	L10108
  4765                        L278:
  4766 00:200C: AD xx xx     	lda	|~~basicvars+42
  4767 00:200F: 85 01        	sta	<R0
  4768 00:2011: AD xx xx     	lda	|~~basicvars+42+2
  4769 00:2014: 85 03        	sta	<R0+2
  4770 00:2016: A7 01        	lda	[<R0]
  4771 00:2018: 48           	pha
  4772 00:2019: 22 xx xx xx  	jsl	~~discard
  4773 00:201D: 82 DD FF     	brl	L10107
  4774                        L10108:
  4775 00:2020: AD xx xx     	lda	|~~basicvars+42
  4776 00:2023: CD xx xx     	cmp	|~~basicvars+46
  4777 00:2026: D0 06        	bne	L279
  4778 00:2028: AD xx xx     	lda	|~~basicvars+42+2
  4779 00:202B: CD xx xx     	cmp	|~~basicvars+46+2
  4780                        L279:
  Sun Jan  9 2022 20:52                                                Page 84


  4781 00:202E: D0 03        	bne	L280
  4782 00:2030: 82 30 00     	brl	L10109
  4783                        L280:
  4784 00:2033: AD xx xx     	lda	|~~basicvars+42
  4785 00:2036: C5 08        	cmp	<L276+newstacktop_0
  4786 00:2038: D0 05        	bne	L281
  4787 00:203A: AD xx xx     	lda	|~~basicvars+42+2
  4788 00:203D: C5 0A        	cmp	<L276+newstacktop_0+2
  4789                        L281:
  4790 00:203F: D0 03        	bne	L282
  4791 00:2041: 82 1F 00     	brl	L10109
  4792                        L282:
  4793 00:2044: AD xx xx     	lda	|~~basicvars+46
  4794 00:2047: 8D xx xx     	sta	|~~basicvars+42
  4795 00:204A: AD xx xx     	lda	|~~basicvars+46+2
  4796 00:204D: 8D xx xx     	sta	|~~basicvars+42+2
  4797 00:2050: F4 xx xx     	pea	#^L234
  4798 00:2053: F4 xx xx     	pea	#<L234
  4799 00:2056: F4 56 04     	pea	#<$456
  4800 00:2059: F4 82 00     	pea	#<$82
  4801 00:205C: F4 0A 00     	pea	#10
  4802 00:205F: 22 xx xx xx  	jsl	~~error
  4803                        L10109:
  4804                        L283:
  4805 00:2063: A5 06        	lda	<L276+2
  4806 00:2065: 85 0A        	sta	<L276+2+4
  4807 00:2067: A5 05        	lda	<L276+1
  4808 00:2069: 85 09        	sta	<L276+1+4
  4809 00:206B: 2B           	pld
  4810 00:206C: 3B           	tsc
  4811 00:206D: 18           	clc
  4812 00:206E: 69 08 00     	adc	#L276+4
  4813 00:2071: 1B           	tcs
  4814 00:2072: 6B           	rtl
  4815             00000004   L276	equ	4
  4816             00000005   L277	equ	5
  4817                        	ends
  4818                        	efunc
  4819                        	data
  4820                        L234:
  4821 00:008B: 73 74 61 63  	db	$73,$74,$61,$63,$6B,$00
       00:008F: 6B 00 
  4822 00:0091:              	ends
  4823                        	code
  4824                        	xdef	~~init_stack
  4825                        	func
  4826                        ~~init_stack:
  4827                        	longa	on
  4828                        	longi	on
  4829 00:2073: 3B           	tsc
  4830 00:2074: 38           	sec
  4831 00:2075: E9 04 00     	sbc	#L285
  4832 00:2078: 1B           	tcs
  4833 00:2079: 0B           	phd
  4834 00:207A: 5B           	tcd
  4835 00:207B: AD xx xx     	lda	|~~basicvars+50
  4836 00:207E: 8D xx xx     	sta	|~~basicvars+42
  4837 00:2081: AD xx xx     	lda	|~~basicvars+50+2
  Sun Jan  9 2022 20:52                                                Page 85


  4838 00:2084: 8D xx xx     	sta	|~~basicvars+42+2
  4839 00:2087: 18           	clc
  4840 00:2088: A9 FC FF     	lda	#$fffc
  4841 00:208B: 6D xx xx     	adc	|~~basicvars+42
  4842 00:208E: 8D xx xx     	sta	|~~basicvars+42
  4843 00:2091: A9 FF FF     	lda	#$ffff
  4844 00:2094: 6D xx xx     	adc	|~~basicvars+42+2
  4845 00:2097: 8D xx xx     	sta	|~~basicvars+42+2
  4846 00:209A: AD xx xx     	lda	|~~basicvars+42
  4847 00:209D: 85 01        	sta	<R0
  4848 00:209F: AD xx xx     	lda	|~~basicvars+42+2
  4849 00:20A2: 85 03        	sta	<R0+2
  4850 00:20A4: A9 00 00     	lda	#$0
  4851 00:20A7: 87 01        	sta	[<R0]
  4852 00:20A9: AD xx xx     	lda	|~~basicvars+42
  4853 00:20AC: 85 01        	sta	<R0
  4854 00:20AE: AD xx xx     	lda	|~~basicvars+42+2
  4855 00:20B1: 85 03        	sta	<R0+2
  4856 00:20B3: A9 53 54     	lda	#$5453
  4857 00:20B6: A0 02 00     	ldy	#$2
  4858 00:20B9: 97 01        	sta	[<R0],Y
  4859 00:20BB: AD xx xx     	lda	|~~basicvars+42
  4860 00:20BE: 8D xx xx     	sta	|~~basicvars+46
  4861 00:20C1: AD xx xx     	lda	|~~basicvars+42+2
  4862 00:20C4: 8D xx xx     	sta	|~~basicvars+46+2
  4863                        L287:
  4864 00:20C7: 2B           	pld
  4865 00:20C8: 3B           	tsc
  4866 00:20C9: 18           	clc
  4867 00:20CA: 69 04 00     	adc	#L285
  4868 00:20CD: 1B           	tcs
  4869 00:20CE: 6B           	rtl
  4870             00000004   L285	equ	4
  4871             00000005   L286	equ	5
  4872                        	ends
  4873                        	efunc
  4874                        	code
  4875                        	xdef	~~clear_stack
  4876                        	func
  4877                        ~~clear_stack:
  4878                        	longa	on
  4879                        	longi	on
  4880 00:20CF: 3B           	tsc
  4881 00:20D0: 38           	sec
  4882 00:20D1: E9 00 00     	sbc	#L288
  4883 00:20D4: 1B           	tcs
  4884 00:20D5: 0B           	phd
  4885 00:20D6: 5B           	tcd
  4886 00:20D7: AD xx xx     	lda	|~~basicvars+46
  4887 00:20DA: 8D xx xx     	sta	|~~basicvars+42
  4888 00:20DD: AD xx xx     	lda	|~~basicvars+46+2
  4889 00:20E0: 8D xx xx     	sta	|~~basicvars+42+2
  4890 00:20E3: 9C xx xx     	stz	|~~basicvars+399
  4891 00:20E6: 9C xx xx     	stz	|~~basicvars+399+2
  4892 00:20E9: 9C xx xx     	stz	|~~basicvars+403
  4893 00:20EC: 9C xx xx     	stz	|~~basicvars+403+2
  4894                        L290:
  4895 00:20EF: 2B           	pld
  Sun Jan  9 2022 20:52                                                Page 86


  4896 00:20F0: 3B           	tsc
  4897 00:20F1: 18           	clc
  4898 00:20F2: 69 00 00     	adc	#L288
  4899 00:20F5: 1B           	tcs
  4900 00:20F6: 6B           	rtl
  4901             00000000   L288	equ	0
  4902             00000001   L289	equ	1
  4903                        	ends
  4904                        	efunc
  4905                        	xref	~~error
  4906                        	xref	~~get_stringlen
  4907                        	xref	~~discard_strings
  4908                        	xref	~~free_string
  4909                        	xref	~~alloc_string
  4910                        	xref	~~store_float
  4911                        	xref	~~store_integer
  4912                        	xref	~~get_float
  4913                        	xref	~~get_integer
  4914                        	xref	~~memmove
  4915                        	xref	~~basicvars
  4916                        	end


      Lines assembled: 4916
      Errors: 0
