  Sun Jan  9 2022 20:52                                                Page 1


                     ***************************************
                     **      WDC 65C816 Macro Assembler   **
                     **                                   **
                     **     Version 3.49.1- Feb  6 2006    **
                     ***************************************

     1                        ;:ts=8
     2             00000001   R0	equ	1
     3             00000005   R1	equ	5
     4             00000009   R2	equ	9
     5             0000000D   R3	equ	13
     6                        	code
     7                        	xdef	~~todigit
     8                        	func
     9                        ~~todigit:
    10                        	longa	on
    11                        	longi	on
    12 00:0000: 3B           	tsc
    13 00:0001: 38           	sec
    14 00:0002: E9 04 00     	sbc	#L2
    15 00:0005: 1B           	tcs
    16 00:0006: 0B           	phd
    17 00:0007: 5B           	tcd
    18             00000004   x_0	set	4
    19 00:0008: E2 20        	sep	#$20
    20                        	longa	off
    21 00:000A: A5 08        	lda	<L2+x_0
    22 00:000C: C9 30        	cmp	#<$30
    23 00:000E: C2 20        	rep	#$20
    24                        	longa	on
    25 00:0010: B0 03        	bcs	L4
    26 00:0012: 82 2C 00     	brl	L10001
    27                        L4:
    28 00:0015: E2 20        	sep	#$20
    29                        	longa	off
    30 00:0017: A9 39        	lda	#$39
    31 00:0019: C5 08        	cmp	<L2+x_0
    32 00:001B: C2 20        	rep	#$20
    33                        	longa	on
    34 00:001D: B0 03        	bcs	L5
    35 00:001F: 82 1F 00     	brl	L10001
    36                        L5:
    37 00:0022: A5 08        	lda	<L2+x_0
    38 00:0024: 29 FF 00     	and	#$ff
    39 00:0027: 85 01        	sta	<R0
    40 00:0029: 18           	clc
    41 00:002A: A9 D0 FF     	lda	#$ffd0
    42 00:002D: 65 01        	adc	<R0
    43                        L6:
    44 00:002F: A8           	tay
    45 00:0030: A5 06        	lda	<L2+2
    46 00:0032: 85 08        	sta	<L2+2+2
    47 00:0034: A5 05        	lda	<L2+1
    48 00:0036: 85 07        	sta	<L2+1+2
    49 00:0038: 2B           	pld
    50 00:0039: 3B           	tsc
    51 00:003A: 18           	clc
    52 00:003B: 69 06 00     	adc	#L2+2
  Sun Jan  9 2022 20:52                                                Page 2


    53 00:003E: 1B           	tcs
    54 00:003F: 98           	tya
    55 00:0040: 6B           	rtl
    56                        L10001:
    57 00:0041: E2 20        	sep	#$20
    58                        	longa	off
    59 00:0043: A5 08        	lda	<L2+x_0
    60 00:0045: C9 41        	cmp	#<$41
    61 00:0047: C2 20        	rep	#$20
    62                        	longa	on
    63 00:0049: B0 03        	bcs	L7
    64 00:004B: 82 1D 00     	brl	L10002
    65                        L7:
    66 00:004E: E2 20        	sep	#$20
    67                        	longa	off
    68 00:0050: A9 46        	lda	#$46
    69 00:0052: C5 08        	cmp	<L2+x_0
    70 00:0054: C2 20        	rep	#$20
    71                        	longa	on
    72 00:0056: B0 03        	bcs	L8
    73 00:0058: 82 10 00     	brl	L10002
    74                        L8:
    75 00:005B: A5 08        	lda	<L2+x_0
    76 00:005D: 29 FF 00     	and	#$ff
    77 00:0060: 85 01        	sta	<R0
    78 00:0062: 18           	clc
    79 00:0063: A9 C9 FF     	lda	#$ffc9
    80 00:0066: 65 01        	adc	<R0
    81 00:0068: 82 C4 FF     	brl	L6
    82                        L10002:
    83 00:006B: E2 20        	sep	#$20
    84                        	longa	off
    85 00:006D: A5 08        	lda	<L2+x_0
    86 00:006F: C9 61        	cmp	#<$61
    87 00:0071: C2 20        	rep	#$20
    88                        	longa	on
    89 00:0073: B0 03        	bcs	L9
    90 00:0075: 82 1D 00     	brl	L10003
    91                        L9:
    92 00:0078: E2 20        	sep	#$20
    93                        	longa	off
    94 00:007A: A9 66        	lda	#$66
    95 00:007C: C5 08        	cmp	<L2+x_0
    96 00:007E: C2 20        	rep	#$20
    97                        	longa	on
    98 00:0080: B0 03        	bcs	L10
    99 00:0082: 82 10 00     	brl	L10003
   100                        L10:
   101 00:0085: A5 08        	lda	<L2+x_0
   102 00:0087: 29 FF 00     	and	#$ff
   103 00:008A: 85 01        	sta	<R0
   104 00:008C: 18           	clc
   105 00:008D: A9 A9 FF     	lda	#$ffa9
   106 00:0090: 65 01        	adc	<R0
   107 00:0092: 82 9A FF     	brl	L6
   108                        L10003:
   109 00:0095: A9 00 00     	lda	#$0
   110 00:0098: 82 94 FF     	brl	L6
  Sun Jan  9 2022 20:52                                                Page 3


   111             00000004   L2	equ	4
   112             00000005   L3	equ	5
   113                        	ends
   114                        	efunc
   115                        	code
   116                        	xdef	~~tonumber
   117                        	func
   118                        ~~tonumber:
   119                        	longa	on
   120                        	longi	on
   121 00:009B: 3B           	tsc
   122 00:009C: 38           	sec
   123 00:009D: E9 15 00     	sbc	#L11
   124 00:00A0: 1B           	tcs
   125 00:00A1: 0B           	phd
   126 00:00A2: 5B           	tcd
   127             00000004   cp_0	set	4
   128             00000008   isinteger_0	set	8
   129             0000000C   intvalue_0	set	12
   130             00000010   floatvalue_0	set	16
   131                        	udata
   132                        L10004:
   133 00:0000:              	ds	4
   134 00:0004:              	ends
   135                        	udata
   136                        L10005:
   137 00:0004:              	ds	4
   138 00:0008:              	ends
   139             00000000   value_1	set	0
   140             00000002   isint_1	set	2
   141             00000003   isneg_1	set	3
   142             00000004   negexp_1	set	4
   143             00000005   digits_1	set	5
   144             00000007   exponent_1	set	7
   145 00:00A3: 64 0D        	stz	<L12+value_1
   146 00:00A5: 64 12        	stz	<L12+digits_1
   147 00:00A7: D4 1B        	pei	<L11+cp_0+2
   148 00:00A9: D4 19        	pei	<L11+cp_0
   149 00:00AB: 22 xx xx xx  	jsl	~~skip_blanks
   150 00:00AF: 85 19        	sta	<L11+cp_0
   151 00:00B1: 86 1B        	stx	<L11+cp_0+2
   152 00:00B3: A7 19        	lda	[<L11+cp_0]
   153 00:00B5: 29 FF 00     	and	#$ff
   154 00:00B8: 82 1B 05     	brl	L10006
   155                        L10008:
   156 00:00BB: E6 19        	inc	<L11+cp_0
   157 00:00BD: D0 02        	bne	L13
   158 00:00BF: E6 1B        	inc	<L11+cp_0+2
   159                        L13:
   160                        L10009:
   161 00:00C1: A7 19        	lda	[<L11+cp_0]
   162 00:00C3: 29 FF 00     	and	#$ff
   163 00:00C6: 48           	pha
   164 00:00C7: 22 xx xx xx  	jsl	~~isxdigit
   165 00:00CB: AA           	tax
   166 00:00CC: D0 03        	bne	L14
   167 00:00CE: 82 23 00     	brl	L10010
   168                        L14:
  Sun Jan  9 2022 20:52                                                Page 4


   169 00:00D1: E6 12        	inc	<L12+digits_1
   170 00:00D3: A5 0D        	lda	<L12+value_1
   171 00:00D5: 0A           	asl	A
   172 00:00D6: 0A           	asl	A
   173 00:00D7: 0A           	asl	A
   174 00:00D8: 0A           	asl	A
   175 00:00D9: 85 01        	sta	<R0
   176 00:00DB: A7 19        	lda	[<L11+cp_0]
   177 00:00DD: 48           	pha
   178 00:00DE: 22 xx xx xx  	jsl	~~todigit
   179 00:00E2: 85 05        	sta	<R1
   180 00:00E4: 18           	clc
   181 00:00E5: A5 05        	lda	<R1
   182 00:00E7: 65 01        	adc	<R0
   183 00:00E9: 85 0D        	sta	<L12+value_1
   184 00:00EB: E6 19        	inc	<L11+cp_0
   185 00:00ED: D0 02        	bne	L15
   186 00:00EF: E6 1B        	inc	<L11+cp_0+2
   187                        L15:
   188 00:00F1: 82 CD FF     	brl	L10009
   189                        L10010:
   190 00:00F4: A5 12        	lda	<L12+digits_1
   191 00:00F6: F0 03        	beq	L16
   192 00:00F8: 82 0C 00     	brl	L10011
   193                        L16:
   194 00:00FB: A9 22 00     	lda	#$22
   195 00:00FE: 87 21        	sta	[<L11+intvalue_0]
   196 00:0100: 64 19        	stz	<L11+cp_0
   197 00:0102: 64 1B        	stz	<L11+cp_0+2
   198 00:0104: 82 0C 00     	brl	L10012
   199                        L10011:
   200 00:0107: A5 0D        	lda	<L12+value_1
   201 00:0109: 87 21        	sta	[<L11+intvalue_0]
   202 00:010B: E2 20        	sep	#$20
   203                        	longa	off
   204 00:010D: A9 01        	lda	#$1
   205 00:010F: 87 1D        	sta	[<L11+isinteger_0]
   206 00:0111: C2 20        	rep	#$20
   207                        	longa	on
   208                        L10012:
   209 00:0113: 82 D0 04     	brl	L10007
   210                        L10013:
   211 00:0116: E6 19        	inc	<L11+cp_0
   212 00:0118: D0 02        	bne	L17
   213 00:011A: E6 1B        	inc	<L11+cp_0+2
   214                        L17:
   215                        L10014:
   216 00:011C: E2 20        	sep	#$20
   217                        	longa	off
   218 00:011E: A7 19        	lda	[<L11+cp_0]
   219 00:0120: C9 30        	cmp	#<$30
   220 00:0122: C2 20        	rep	#$20
   221                        	longa	on
   222 00:0124: D0 03        	bne	L19
   223 00:0126: 82 0D 00     	brl	L18
   224                        L19:
   225 00:0129: E2 20        	sep	#$20
   226                        	longa	off
  Sun Jan  9 2022 20:52                                                Page 5


   227 00:012B: A7 19        	lda	[<L11+cp_0]
   228 00:012D: C9 31        	cmp	#<$31
   229 00:012F: C2 20        	rep	#$20
   230                        	longa	on
   231 00:0131: F0 03        	beq	L20
   232 00:0133: 82 26 00     	brl	L10015
   233                        L20:
   234                        L18:
   235 00:0136: E6 12        	inc	<L12+digits_1
   236 00:0138: A7 19        	lda	[<L11+cp_0]
   237 00:013A: 29 FF 00     	and	#$ff
   238 00:013D: 85 01        	sta	<R0
   239 00:013F: A5 0D        	lda	<L12+value_1
   240 00:0141: 0A           	asl	A
   241 00:0142: 85 05        	sta	<R1
   242 00:0144: 18           	clc
   243 00:0145: A5 05        	lda	<R1
   244 00:0147: 65 01        	adc	<R0
   245 00:0149: 85 09        	sta	<R2
   246 00:014B: 18           	clc
   247 00:014C: A9 D0 FF     	lda	#$ffd0
   248 00:014F: 65 09        	adc	<R2
   249 00:0151: 85 0D        	sta	<L12+value_1
   250 00:0153: E6 19        	inc	<L11+cp_0
   251 00:0155: D0 02        	bne	L21
   252 00:0157: E6 1B        	inc	<L11+cp_0+2
   253                        L21:
   254 00:0159: 82 C0 FF     	brl	L10014
   255                        L10015:
   256 00:015C: A5 12        	lda	<L12+digits_1
   257 00:015E: F0 03        	beq	L22
   258 00:0160: 82 0C 00     	brl	L10016
   259                        L22:
   260 00:0163: A9 23 00     	lda	#$23
   261 00:0166: 87 21        	sta	[<L11+intvalue_0]
   262 00:0168: 64 19        	stz	<L11+cp_0
   263 00:016A: 64 1B        	stz	<L11+cp_0+2
   264 00:016C: 82 0C 00     	brl	L10017
   265                        L10016:
   266 00:016F: A5 0D        	lda	<L12+value_1
   267 00:0171: 87 21        	sta	[<L11+intvalue_0]
   268 00:0173: E2 20        	sep	#$20
   269                        	longa	off
   270 00:0175: A9 01        	lda	#$1
   271 00:0177: 87 1D        	sta	[<L11+isinteger_0]
   272 00:0179: C2 20        	rep	#$20
   273                        	longa	on
   274                        L10017:
   275 00:017B: 82 68 04     	brl	L10007
   276                        L10018:
   277 00:017E: E2 20        	sep	#$20
   278                        	longa	off
   279 00:0180: A9 01        	lda	#$1
   280 00:0182: 85 0F        	sta	<L12+isint_1
   281 00:0184: C2 20        	rep	#$20
   282                        	longa	on
   283 00:0186: 64 01        	stz	<R0
   284 00:0188: E2 20        	sep	#$20
  Sun Jan  9 2022 20:52                                                Page 6


   285                        	longa	off
   286 00:018A: A7 19        	lda	[<L11+cp_0]
   287 00:018C: C9 2D        	cmp	#<$2d
   288 00:018E: C2 20        	rep	#$20
   289                        	longa	on
   290 00:0190: F0 03        	beq	L24
   291 00:0192: 82 02 00     	brl	L23
   292                        L24:
   293 00:0195: E6 01        	inc	<R0
   294                        L23:
   295 00:0197: E2 20        	sep	#$20
   296                        	longa	off
   297 00:0199: A5 01        	lda	<R0
   298 00:019B: 85 10        	sta	<L12+isneg_1
   299 00:019D: C2 20        	rep	#$20
   300                        	longa	on
   301 00:019F: E2 20        	sep	#$20
   302                        	longa	off
   303 00:01A1: A7 19        	lda	[<L11+cp_0]
   304 00:01A3: C9 2B        	cmp	#<$2b
   305 00:01A5: C2 20        	rep	#$20
   306                        	longa	on
   307 00:01A7: D0 03        	bne	L26
   308 00:01A9: 82 0D 00     	brl	L25
   309                        L26:
   310 00:01AC: E2 20        	sep	#$20
   311                        	longa	off
   312 00:01AE: A7 19        	lda	[<L11+cp_0]
   313 00:01B0: C9 2D        	cmp	#<$2d
   314 00:01B2: C2 20        	rep	#$20
   315                        	longa	on
   316 00:01B4: F0 03        	beq	L27
   317 00:01B6: 82 06 00     	brl	L10019
   318                        L27:
   319                        L25:
   320 00:01B9: E6 19        	inc	<L11+cp_0
   321 00:01BB: D0 02        	bne	L28
   322 00:01BD: E6 1B        	inc	<L11+cp_0+2
   323                        L28:
   324                        L10019:
   325                        L10020:
   326 00:01BF: E2 20        	sep	#$20
   327                        	longa	off
   328 00:01C1: A7 19        	lda	[<L11+cp_0]
   329 00:01C3: C9 30        	cmp	#<$30
   330 00:01C5: C2 20        	rep	#$20
   331                        	longa	on
   332 00:01C7: B0 03        	bcs	L29
   333 00:01C9: 82 DA 00     	brl	L10021
   334                        L29:
   335 00:01CC: E2 20        	sep	#$20
   336                        	longa	off
   337 00:01CE: A9 39        	lda	#$39
   338 00:01D0: C7 19        	cmp	[<L11+cp_0]
   339 00:01D2: C2 20        	rep	#$20
   340                        	longa	on
   341 00:01D4: B0 03        	bcs	L30
   342 00:01D6: 82 CD 00     	brl	L10021
  Sun Jan  9 2022 20:52                                                Page 7


   343                        L30:
   344 00:01D9: 64 12        	stz	<L12+digits_1
   345 00:01DB: A5 0F        	lda	<L12+isint_1
   346 00:01DD: 29 FF 00     	and	#$ff
   347 00:01E0: D0 03        	bne	L31
   348 00:01E2: 82 3D 00     	brl	L10022
   349                        L31:
   350 00:01E5: A0 00 00     	ldy	#$0
   351 00:01E8: A5 0D        	lda	<L12+value_1
   352 00:01EA: 10 01        	bpl	L32
   353 00:01EC: 88           	dey
   354                        L32:
   355 00:01ED: 85 01        	sta	<R0
   356 00:01EF: 84 03        	sty	<R0+2
   357 00:01F1: 38           	sec
   358 00:01F2: A5 01        	lda	<R0
   359 00:01F4: E9 CC CC     	sbc	#<$ccccccc
   360 00:01F7: A5 03        	lda	<R0+2
   361 00:01F9: E9 CC 0C     	sbc	#^$ccccccc
   362 00:01FC: 70 03        	bvs	L33
   363 00:01FE: 49 00 80     	eor	#$8000
   364                        L33:
   365 00:0201: 30 03        	bmi	L34
   366 00:0203: 82 1C 00     	brl	L10022
   367                        L34:
   368 00:0206: E2 20        	sep	#$20
   369                        	longa	off
   370 00:0208: 64 0F        	stz	<L12+isint_1
   371 00:020A: C2 20        	rep	#$20
   372                        	longa	on
   373 00:020C: A0 00 00     	ldy	#$0
   374 00:020F: A5 0D        	lda	<L12+value_1
   375 00:0211: 10 01        	bpl	L35
   376 00:0213: 88           	dey
   377                        L35:
   378 00:0214: 5A           	phy
   379 00:0215: 48           	pha
   380                        	xref	~~~fflt
   381 00:0216: 22 xx xx xx  	jsl	~~~fflt
   382 00:021A: 68           	pla
   383 00:021B: 8D xx xx     	sta	|L10004
   384 00:021E: 68           	pla
   385 00:021F: 8D xx xx     	sta	|L10004+2
   386                        L10022:
   387 00:0222: A5 0F        	lda	<L12+isint_1
   388 00:0224: 29 FF 00     	and	#$ff
   389 00:0227: D0 03        	bne	L36
   390 00:0229: 82 22 00     	brl	L10023
   391                        L36:
   392 00:022C: A7 19        	lda	[<L11+cp_0]
   393 00:022E: 29 FF 00     	and	#$ff
   394 00:0231: 85 01        	sta	<R0
   395 00:0233: A5 0D        	lda	<L12+value_1
   396 00:0235: 0A           	asl	A
   397 00:0236: 0A           	asl	A
   398 00:0237: 65 0D        	adc	<L12+value_1
   399 00:0239: 0A           	asl	A
   400 00:023A: 85 05        	sta	<R1
  Sun Jan  9 2022 20:52                                                Page 8


   401 00:023C: 18           	clc
   402 00:023D: A5 05        	lda	<R1
   403 00:023F: 65 01        	adc	<R0
   404 00:0241: 85 09        	sta	<R2
   405 00:0243: 18           	clc
   406 00:0244: A9 D0 FF     	lda	#$ffd0
   407 00:0247: 65 09        	adc	<R2
   408 00:0249: 85 0D        	sta	<L12+value_1
   409 00:024B: 82 4D 00     	brl	L10024
   410                        L10023:
   411 00:024E: A7 19        	lda	[<L11+cp_0]
   412 00:0250: 29 FF 00     	and	#$ff
   413 00:0253: 85 01        	sta	<R0
   414 00:0255: 18           	clc
   415 00:0256: A9 D0 FF     	lda	#$ffd0
   416 00:0259: 65 01        	adc	<R0
   417 00:025B: 85 05        	sta	<R1
   418 00:025D: A0 00 00     	ldy	#$0
   419 00:0260: A5 05        	lda	<R1
   420 00:0262: 10 01        	bpl	L37
   421 00:0264: 88           	dey
   422                        L37:
   423 00:0265: 5A           	phy
   424 00:0266: 48           	pha
   425                        	xref	~~~fflt
   426 00:0267: 22 xx xx xx  	jsl	~~~fflt
   427                        	xref	~~~ftod
   428 00:026B: 22 xx xx xx  	jsl	~~~ftod
   429 00:026F: F4 24 40     	pea	#$4024
   430 00:0272: F4 00 00     	pea	#$0000
   431 00:0275: F4 00 00     	pea	#$0000
   432 00:0278: F4 00 00     	pea	#$0000
   433 00:027B: AD xx xx     	lda	|L10004+2
   434 00:027E: 48           	pha
   435 00:027F: AD xx xx     	lda	|L10004
   436 00:0282: 48           	pha
   437                        	xref	~~~ftod
   438 00:0283: 22 xx xx xx  	jsl	~~~ftod
   439                        	xref	~~~dmul
   440 00:0287: 22 xx xx xx  	jsl	~~~dmul
   441                        	xref	~~~dadc
   442 00:028B: 22 xx xx xx  	jsl	~~~dadc
   443                        	xref	~~~dtof
   444 00:028F: 22 xx xx xx  	jsl	~~~dtof
   445 00:0293: 68           	pla
   446 00:0294: 8D xx xx     	sta	|L10004
   447 00:0297: 68           	pla
   448 00:0298: 8D xx xx     	sta	|L10004+2
   449                        L10024:
   450 00:029B: E6 12        	inc	<L12+digits_1
   451 00:029D: E6 19        	inc	<L11+cp_0
   452 00:029F: D0 02        	bne	L38
   453 00:02A1: E6 1B        	inc	<L11+cp_0+2
   454                        L38:
   455 00:02A3: 82 19 FF     	brl	L10020
   456                        L10021:
   457 00:02A6: A5 0F        	lda	<L12+isint_1
   458 00:02A8: 29 FF 00     	and	#$ff
  Sun Jan  9 2022 20:52                                                Page 9


   459 00:02AB: F0 03        	beq	L39
   460 00:02AD: 82 4F 00     	brl	L10025
   461                        L39:
   462 00:02B0: E2 20        	sep	#$20
   463                        	longa	off
   464 00:02B2: A7 19        	lda	[<L11+cp_0]
   465 00:02B4: C9 2E        	cmp	#<$2e
   466 00:02B6: C2 20        	rep	#$20
   467                        	longa	on
   468 00:02B8: D0 03        	bne	L40
   469 00:02BA: 82 42 00     	brl	L10025
   470                        L40:
   471 00:02BD: E2 20        	sep	#$20
   472                        	longa	off
   473 00:02BF: A7 19        	lda	[<L11+cp_0]
   474 00:02C1: C9 45        	cmp	#<$45
   475 00:02C3: C2 20        	rep	#$20
   476                        	longa	on
   477 00:02C5: D0 03        	bne	L41
   478 00:02C7: 82 35 00     	brl	L10025
   479                        L41:
   480 00:02CA: AD xx xx     	lda	|L10004+2
   481 00:02CD: 48           	pha
   482 00:02CE: AD xx xx     	lda	|L10004
   483 00:02D1: 48           	pha
   484 00:02D2: F4 00 4F     	pea	#$4F00
   485 00:02D5: F4 00 00     	pea	#$0000
   486                        	xref	~~~fcmp
   487 00:02D8: 22 xx xx xx  	jsl	~~~fcmp
   488 00:02DC: 10 03        	bpl	L42
   489 00:02DE: 82 1E 00     	brl	L10025
   490                        L42:
   491 00:02E1: AD xx xx     	lda	|L10004+2
   492 00:02E4: 48           	pha
   493 00:02E5: AD xx xx     	lda	|L10004
   494 00:02E8: 48           	pha
   495                        	xref	~~~ffix
   496 00:02E9: 22 xx xx xx  	jsl	~~~ffix
   497 00:02ED: 68           	pla
   498 00:02EE: 85 01        	sta	<R0
   499 00:02F0: 68           	pla
   500 00:02F1: 85 03        	sta	<R0+2
   501 00:02F3: A5 01        	lda	<R0
   502 00:02F5: 85 0D        	sta	<L12+value_1
   503 00:02F7: E2 20        	sep	#$20
   504                        	longa	off
   505 00:02F9: A9 01        	lda	#$1
   506 00:02FB: 85 0F        	sta	<L12+isint_1
   507 00:02FD: C2 20        	rep	#$20
   508                        	longa	on
   509                        L10025:
   510 00:02FF: E2 20        	sep	#$20
   511                        	longa	off
   512 00:0301: A7 19        	lda	[<L11+cp_0]
   513 00:0303: C9 2E        	cmp	#<$2e
   514 00:0305: C2 20        	rep	#$20
   515                        	longa	on
   516 00:0307: F0 03        	beq	L43
  Sun Jan  9 2022 20:52                                                Page 10


   517 00:0309: 82 EC 00     	brl	L10026
   518                        L43:
   519 00:030C: A5 0F        	lda	<L12+isint_1
   520 00:030E: 29 FF 00     	and	#$ff
   521 00:0311: D0 03        	bne	L44
   522 00:0313: 82 1C 00     	brl	L10027
   523                        L44:
   524 00:0316: E2 20        	sep	#$20
   525                        	longa	off
   526 00:0318: 64 0F        	stz	<L12+isint_1
   527 00:031A: C2 20        	rep	#$20
   528                        	longa	on
   529 00:031C: A0 00 00     	ldy	#$0
   530 00:031F: A5 0D        	lda	<L12+value_1
   531 00:0321: 10 01        	bpl	L45
   532 00:0323: 88           	dey
   533                        L45:
   534 00:0324: 5A           	phy
   535 00:0325: 48           	pha
   536                        	xref	~~~fflt
   537 00:0326: 22 xx xx xx  	jsl	~~~fflt
   538 00:032A: 68           	pla
   539 00:032B: 8D xx xx     	sta	|L10004
   540 00:032E: 68           	pla
   541 00:032F: 8D xx xx     	sta	|L10004+2
   542                        L10027:
   543 00:0332: A9 00 00     	lda	#$0
   544 00:0335: 8D xx xx     	sta	|L10005
   545 00:0338: A9 80 3F     	lda	#$3f80
   546 00:033B: 8D xx xx     	sta	|L10005+2
   547 00:033E: E6 19        	inc	<L11+cp_0
   548 00:0340: D0 02        	bne	L46
   549 00:0342: E6 1B        	inc	<L11+cp_0+2
   550                        L46:
   551                        L10028:
   552 00:0344: E2 20        	sep	#$20
   553                        	longa	off
   554 00:0346: A7 19        	lda	[<L11+cp_0]
   555 00:0348: C9 30        	cmp	#<$30
   556 00:034A: C2 20        	rep	#$20
   557                        	longa	on
   558 00:034C: B0 03        	bcs	L47
   559 00:034E: 82 8B 00     	brl	L10029
   560                        L47:
   561 00:0351: E2 20        	sep	#$20
   562                        	longa	off
   563 00:0353: A9 39        	lda	#$39
   564 00:0355: C7 19        	cmp	[<L11+cp_0]
   565 00:0357: C2 20        	rep	#$20
   566                        	longa	on
   567 00:0359: B0 03        	bcs	L48
   568 00:035B: 82 7E 00     	brl	L10029
   569                        L48:
   570 00:035E: A7 19        	lda	[<L11+cp_0]
   571 00:0360: 29 FF 00     	and	#$ff
   572 00:0363: 85 01        	sta	<R0
   573 00:0365: 18           	clc
   574 00:0366: A9 D0 FF     	lda	#$ffd0
  Sun Jan  9 2022 20:52                                                Page 11


   575 00:0369: 65 01        	adc	<R0
   576 00:036B: 85 05        	sta	<R1
   577 00:036D: A0 00 00     	ldy	#$0
   578 00:0370: A5 05        	lda	<R1
   579 00:0372: 10 01        	bpl	L49
   580 00:0374: 88           	dey
   581                        L49:
   582 00:0375: 5A           	phy
   583 00:0376: 48           	pha
   584                        	xref	~~~fflt
   585 00:0377: 22 xx xx xx  	jsl	~~~fflt
   586                        	xref	~~~ftod
   587 00:037B: 22 xx xx xx  	jsl	~~~ftod
   588 00:037F: F4 24 40     	pea	#$4024
   589 00:0382: F4 00 00     	pea	#$0000
   590 00:0385: F4 00 00     	pea	#$0000
   591 00:0388: F4 00 00     	pea	#$0000
   592 00:038B: AD xx xx     	lda	|L10004+2
   593 00:038E: 48           	pha
   594 00:038F: AD xx xx     	lda	|L10004
   595 00:0392: 48           	pha
   596                        	xref	~~~ftod
   597 00:0393: 22 xx xx xx  	jsl	~~~ftod
   598                        	xref	~~~dmul
   599 00:0397: 22 xx xx xx  	jsl	~~~dmul
   600                        	xref	~~~dadc
   601 00:039B: 22 xx xx xx  	jsl	~~~dadc
   602                        	xref	~~~dtof
   603 00:039F: 22 xx xx xx  	jsl	~~~dtof
   604 00:03A3: 68           	pla
   605 00:03A4: 8D xx xx     	sta	|L10004
   606 00:03A7: 68           	pla
   607 00:03A8: 8D xx xx     	sta	|L10004+2
   608 00:03AB: F4 24 40     	pea	#$4024
   609 00:03AE: F4 00 00     	pea	#$0000
   610 00:03B1: F4 00 00     	pea	#$0000
   611 00:03B4: F4 00 00     	pea	#$0000
   612 00:03B7: AD xx xx     	lda	|L10005+2
   613 00:03BA: 48           	pha
   614 00:03BB: AD xx xx     	lda	|L10005
   615 00:03BE: 48           	pha
   616                        	xref	~~~ftod
   617 00:03BF: 22 xx xx xx  	jsl	~~~ftod
   618                        	xref	~~~dmul
   619 00:03C3: 22 xx xx xx  	jsl	~~~dmul
   620                        	xref	~~~dtof
   621 00:03C7: 22 xx xx xx  	jsl	~~~dtof
   622 00:03CB: 68           	pla
   623 00:03CC: 8D xx xx     	sta	|L10005
   624 00:03CF: 68           	pla
   625 00:03D0: 8D xx xx     	sta	|L10005+2
   626 00:03D3: E6 19        	inc	<L11+cp_0
   627 00:03D5: D0 02        	bne	L50
   628 00:03D7: E6 1B        	inc	<L11+cp_0+2
   629                        L50:
   630 00:03D9: 82 68 FF     	brl	L10028
   631                        L10029:
   632 00:03DC: AD xx xx     	lda	|L10005+2
  Sun Jan  9 2022 20:52                                                Page 12


   633 00:03DF: 48           	pha
   634 00:03E0: AD xx xx     	lda	|L10005
   635 00:03E3: 48           	pha
   636 00:03E4: AD xx xx     	lda	|L10004+2
   637 00:03E7: 48           	pha
   638 00:03E8: AD xx xx     	lda	|L10004
   639 00:03EB: 48           	pha
   640                        	xref	~~~fdiv
   641 00:03EC: 22 xx xx xx  	jsl	~~~fdiv
   642 00:03F0: 68           	pla
   643 00:03F1: 8D xx xx     	sta	|L10004
   644 00:03F4: 68           	pla
   645 00:03F5: 8D xx xx     	sta	|L10004+2
   646                        L10026:
   647 00:03F8: A7 19        	lda	[<L11+cp_0]
   648 00:03FA: 29 FF 00     	and	#$ff
   649 00:03FD: 48           	pha
   650 00:03FE: 22 xx xx xx  	jsl	~~toupper
   651 00:0402: 85 01        	sta	<R0
   652 00:0404: A5 01        	lda	<R0
   653 00:0406: C9 45 00     	cmp	#<$45
   654 00:0409: F0 03        	beq	L51
   655 00:040B: 82 71 01     	brl	L10030
   656                        L51:
   657 00:040E: A0 01 00     	ldy	#$1
   658 00:0411: B7 19        	lda	[<L11+cp_0],Y
   659 00:0413: 29 FF 00     	and	#$ff
   660 00:0416: 48           	pha
   661 00:0417: 22 xx xx xx  	jsl	~~isalpha
   662 00:041B: AA           	tax
   663 00:041C: F0 03        	beq	L52
   664 00:041E: 82 5E 01     	brl	L10030
   665                        L52:
   666 00:0421: A5 0F        	lda	<L12+isint_1
   667 00:0423: 29 FF 00     	and	#$ff
   668 00:0426: D0 03        	bne	L53
   669 00:0428: 82 1C 00     	brl	L10031
   670                        L53:
   671 00:042B: E2 20        	sep	#$20
   672                        	longa	off
   673 00:042D: 64 0F        	stz	<L12+isint_1
   674 00:042F: C2 20        	rep	#$20
   675                        	longa	on
   676 00:0431: A0 00 00     	ldy	#$0
   677 00:0434: A5 0D        	lda	<L12+value_1
   678 00:0436: 10 01        	bpl	L54
   679 00:0438: 88           	dey
   680                        L54:
   681 00:0439: 5A           	phy
   682 00:043A: 48           	pha
   683                        	xref	~~~fflt
   684 00:043B: 22 xx xx xx  	jsl	~~~fflt
   685 00:043F: 68           	pla
   686 00:0440: 8D xx xx     	sta	|L10004
   687 00:0443: 68           	pla
   688 00:0444: 8D xx xx     	sta	|L10004+2
   689                        L10031:
   690 00:0447: 64 14        	stz	<L12+exponent_1
  Sun Jan  9 2022 20:52                                                Page 13


   691 00:0449: E6 19        	inc	<L11+cp_0
   692 00:044B: D0 02        	bne	L55
   693 00:044D: E6 1B        	inc	<L11+cp_0+2
   694                        L55:
   695 00:044F: 64 01        	stz	<R0
   696 00:0451: E2 20        	sep	#$20
   697                        	longa	off
   698 00:0453: A7 19        	lda	[<L11+cp_0]
   699 00:0455: C9 2D        	cmp	#<$2d
   700 00:0457: C2 20        	rep	#$20
   701                        	longa	on
   702 00:0459: F0 03        	beq	L57
   703 00:045B: 82 02 00     	brl	L56
   704                        L57:
   705 00:045E: E6 01        	inc	<R0
   706                        L56:
   707 00:0460: E2 20        	sep	#$20
   708                        	longa	off
   709 00:0462: A5 01        	lda	<R0
   710 00:0464: 85 11        	sta	<L12+negexp_1
   711 00:0466: C2 20        	rep	#$20
   712                        	longa	on
   713 00:0468: E2 20        	sep	#$20
   714                        	longa	off
   715 00:046A: A7 19        	lda	[<L11+cp_0]
   716 00:046C: C9 2B        	cmp	#<$2b
   717 00:046E: C2 20        	rep	#$20
   718                        	longa	on
   719 00:0470: D0 03        	bne	L59
   720 00:0472: 82 0D 00     	brl	L58
   721                        L59:
   722 00:0475: E2 20        	sep	#$20
   723                        	longa	off
   724 00:0477: A7 19        	lda	[<L11+cp_0]
   725 00:0479: C9 2D        	cmp	#<$2d
   726 00:047B: C2 20        	rep	#$20
   727                        	longa	on
   728 00:047D: F0 03        	beq	L60
   729 00:047F: 82 06 00     	brl	L10032
   730                        L60:
   731                        L58:
   732 00:0482: E6 19        	inc	<L11+cp_0
   733 00:0484: D0 02        	bne	L61
   734 00:0486: E6 1B        	inc	<L11+cp_0+2
   735                        L61:
   736                        L10032:
   737                        L10033:
   738 00:0488: E2 20        	sep	#$20
   739                        	longa	off
   740 00:048A: A7 19        	lda	[<L11+cp_0]
   741 00:048C: C9 30        	cmp	#<$30
   742 00:048E: C2 20        	rep	#$20
   743                        	longa	on
   744 00:0490: B0 03        	bcs	L62
   745 00:0492: 82 45 00     	brl	L10034
   746                        L62:
   747 00:0495: E2 20        	sep	#$20
   748                        	longa	off
  Sun Jan  9 2022 20:52                                                Page 14


   749 00:0497: A9 39        	lda	#$39
   750 00:0499: C7 19        	cmp	[<L11+cp_0]
   751 00:049B: C2 20        	rep	#$20
   752                        	longa	on
   753 00:049D: B0 03        	bcs	L63
   754 00:049F: 82 38 00     	brl	L10034
   755                        L63:
   756 00:04A2: 38           	sec
   757 00:04A3: A9 34 01     	lda	#$134
   758 00:04A6: E5 14        	sbc	<L12+exponent_1
   759 00:04A8: 70 03        	bvs	L64
   760 00:04AA: 49 00 80     	eor	#$8000
   761                        L64:
   762 00:04AD: 30 03        	bmi	L65
   763 00:04AF: 82 28 00     	brl	L10034
   764                        L65:
   765 00:04B2: A7 19        	lda	[<L11+cp_0]
   766 00:04B4: 29 FF 00     	and	#$ff
   767 00:04B7: 85 01        	sta	<R0
   768 00:04B9: A5 14        	lda	<L12+exponent_1
   769 00:04BB: 0A           	asl	A
   770 00:04BC: 0A           	asl	A
   771 00:04BD: 65 14        	adc	<L12+exponent_1
   772 00:04BF: 0A           	asl	A
   773 00:04C0: 85 05        	sta	<R1
   774 00:04C2: 18           	clc
   775 00:04C3: A5 05        	lda	<R1
   776 00:04C5: 65 01        	adc	<R0
   777 00:04C7: 85 09        	sta	<R2
   778 00:04C9: 18           	clc
   779 00:04CA: A9 D0 FF     	lda	#$ffd0
   780 00:04CD: 65 09        	adc	<R2
   781 00:04CF: 85 14        	sta	<L12+exponent_1
   782 00:04D1: E6 19        	inc	<L11+cp_0
   783 00:04D3: D0 02        	bne	L66
   784 00:04D5: E6 1B        	inc	<L11+cp_0+2
   785                        L66:
   786 00:04D7: 82 AE FF     	brl	L10033
   787                        L10034:
   788 00:04DA: A5 11        	lda	<L12+negexp_1
   789 00:04DC: 29 FF 00     	and	#$ff
   790 00:04DF: D0 03        	bne	L67
   791 00:04E1: 82 33 00     	brl	L10035
   792                        L67:
   793 00:04E4: 38           	sec
   794 00:04E5: A5 14        	lda	<L12+exponent_1
   795 00:04E7: E5 12        	sbc	<L12+digits_1
   796 00:04E9: 85 01        	sta	<R0
   797 00:04EB: 38           	sec
   798 00:04EC: A9 34 01     	lda	#$134
   799 00:04EF: E5 01        	sbc	<R0
   800 00:04F1: 70 03        	bvs	L68
   801 00:04F3: 49 00 80     	eor	#$8000
   802                        L68:
   803 00:04F6: 30 03        	bmi	L69
   804 00:04F8: 82 0B 00     	brl	L10036
   805                        L69:
   806 00:04FB: 38           	sec
  Sun Jan  9 2022 20:52                                                Page 15


   807 00:04FC: A9 00 00     	lda	#$0
   808 00:04FF: E5 14        	sbc	<L12+exponent_1
   809 00:0501: 85 14        	sta	<L12+exponent_1
   810 00:0503: 82 0E 00     	brl	L10037
   811                        L10036:
   812 00:0506: 64 14        	stz	<L12+exponent_1
   813 00:0508: A9 00 00     	lda	#$0
   814 00:050B: 8D xx xx     	sta	|L10004
   815 00:050E: A9 00 00     	lda	#$0
   816 00:0511: 8D xx xx     	sta	|L10004+2
   817                        L10037:
   818 00:0514: 82 2A 00     	brl	L10038
   819                        L10035:
   820 00:0517: 18           	clc
   821 00:0518: A5 14        	lda	<L12+exponent_1
   822 00:051A: 65 12        	adc	<L12+digits_1
   823 00:051C: 85 01        	sta	<R0
   824 00:051E: 18           	clc
   825 00:051F: A9 FF FF     	lda	#$ffff
   826 00:0522: 65 01        	adc	<R0
   827 00:0524: 85 05        	sta	<R1
   828 00:0526: 38           	sec
   829 00:0527: A9 34 01     	lda	#$134
   830 00:052A: E5 05        	sbc	<R1
   831 00:052C: 70 03        	bvs	L70
   832 00:052E: 49 00 80     	eor	#$8000
   833                        L70:
   834 00:0531: 10 03        	bpl	L71
   835 00:0533: 82 0B 00     	brl	L10039
   836                        L71:
   837 00:0536: A9 24 00     	lda	#$24
   838 00:0539: 87 21        	sta	[<L11+intvalue_0]
   839 00:053B: 64 19        	stz	<L11+cp_0
   840 00:053D: 64 1B        	stz	<L11+cp_0+2
   841 00:053F: 64 14        	stz	<L12+exponent_1
   842                        L10039:
   843                        L10038:
   844 00:0541: AD xx xx     	lda	|L10004+2
   845 00:0544: 48           	pha
   846 00:0545: AD xx xx     	lda	|L10004
   847 00:0548: 48           	pha
   848                        	xref	~~~ftod
   849 00:0549: 22 xx xx xx  	jsl	~~~ftod
   850 00:054D: 5A           	phy
   851 00:054E: 5A           	phy
   852 00:054F: 5A           	phy
   853 00:0550: 5A           	phy
   854 00:0551: A0 00 00     	ldy	#$0
   855 00:0554: A5 14        	lda	<L12+exponent_1
   856 00:0556: 10 01        	bpl	L72
   857 00:0558: 88           	dey
   858                        L72:
   859 00:0559: 5A           	phy
   860 00:055A: 48           	pha
   861                        	xref	~~~dflt
   862 00:055B: 22 xx xx xx  	jsl	~~~dflt
   863 00:055F: F4 24 40     	pea	#$4024
   864 00:0562: F4 00 00     	pea	#$0000
  Sun Jan  9 2022 20:52                                                Page 16


   865 00:0565: F4 00 00     	pea	#$0000
   866 00:0568: F4 00 00     	pea	#$0000
   867 00:056B: 22 xx xx xx  	jsl	~~pow
   868                        	xref	~~~dmul
   869 00:056F: 22 xx xx xx  	jsl	~~~dmul
   870                        	xref	~~~dtof
   871 00:0573: 22 xx xx xx  	jsl	~~~dtof
   872 00:0577: 68           	pla
   873 00:0578: 8D xx xx     	sta	|L10004
   874 00:057B: 68           	pla
   875 00:057C: 8D xx xx     	sta	|L10004+2
   876                        L10030:
   877 00:057F: E2 20        	sep	#$20
   878                        	longa	off
   879 00:0581: A5 0F        	lda	<L12+isint_1
   880 00:0583: 87 1D        	sta	[<L11+isinteger_0]
   881 00:0585: C2 20        	rep	#$20
   882                        	longa	on
   883 00:0587: A5 0F        	lda	<L12+isint_1
   884 00:0589: 29 FF 00     	and	#$ff
   885 00:058C: D0 03        	bne	L73
   886 00:058E: 82 19 00     	brl	L10040
   887                        L73:
   888 00:0591: A5 10        	lda	<L12+isneg_1
   889 00:0593: 29 FF 00     	and	#$ff
   890 00:0596: D0 03        	bne	L75
   891 00:0598: 82 08 00     	brl	L74
   892                        L75:
   893 00:059B: 38           	sec
   894 00:059C: A9 00 00     	lda	#$0
   895 00:059F: E5 0D        	sbc	<L12+value_1
   896 00:05A1: 80 02        	bra	L76
   897                        L74:
   898 00:05A3: A5 0D        	lda	<L12+value_1
   899                        L76:
   900 00:05A5: 87 21        	sta	[<L11+intvalue_0]
   901 00:05A7: 82 29 00     	brl	L10041
   902                        L10040:
   903 00:05AA: A5 10        	lda	<L12+isneg_1
   904 00:05AC: 29 FF 00     	and	#$ff
   905 00:05AF: D0 03        	bne	L78
   906 00:05B1: 82 0E 00     	brl	L77
   907                        L78:
   908 00:05B4: AD xx xx     	lda	|L10004+2
   909 00:05B7: 48           	pha
   910 00:05B8: AD xx xx     	lda	|L10004
   911 00:05BB: 48           	pha
   912                        	xref	~~~fneg
   913 00:05BC: 22 xx xx xx  	jsl	~~~fneg
   914 00:05C0: 80 08        	bra	L79
   915                        L77:
   916 00:05C2: AD xx xx     	lda	|L10004+2
   917 00:05C5: 48           	pha
   918 00:05C6: AD xx xx     	lda	|L10004
   919 00:05C9: 48           	pha
   920                        L79:
   921 00:05CA: 68           	pla
   922 00:05CB: 87 25        	sta	[<L11+floatvalue_0]
  Sun Jan  9 2022 20:52                                                Page 17


   923 00:05CD: 68           	pla
   924 00:05CE: A0 02 00     	ldy	#$2
   925 00:05D1: 97 25        	sta	[<L11+floatvalue_0],Y
   926                        L10041:
   927 00:05D3: 82 10 00     	brl	L10007
   928                        L10006:
   929                        	xref	~~~swt
   930 00:05D6: 22 xx xx xx  	jsl	~~~swt
   931 00:05DA: 02 00        	dw	2
   932 00:05DC: 25 00        	dw	37
   933 00:05DE: xx xx        	dw	L10013-1
   934 00:05E0: 26 00        	dw	38
   935 00:05E2: xx xx        	dw	L10008-1
   936 00:05E4: xx xx        	dw	L10018-1
   937                        L10007:
   938 00:05E6: A6 1B        	ldx	<L11+cp_0+2
   939 00:05E8: A5 19        	lda	<L11+cp_0
   940                        L80:
   941 00:05EA: A8           	tay
   942 00:05EB: A5 17        	lda	<L11+2
   943 00:05ED: 85 27        	sta	<L11+2+16
   944 00:05EF: A5 16        	lda	<L11+1
   945 00:05F1: 85 26        	sta	<L11+1+16
   946 00:05F3: 2B           	pld
   947 00:05F4: 3B           	tsc
   948 00:05F5: 18           	clc
   949 00:05F6: 69 25 00     	adc	#L11+16
   950 00:05F9: 1B           	tcs
   951 00:05FA: 98           	tya
   952 00:05FB: 6B           	rtl
   953             00000015   L11	equ	21
   954             0000000D   L12	equ	13
   955                        	ends
   956                        	efunc
   957                        	code
   958                        	xdef	~~itob
   959                        	func
   960                        ~~itob:
   961                        	longa	on
   962                        	longi	on
   963 00:05FC: 3B           	tsc
   964 00:05FD: 38           	sec
   965 00:05FE: E9 18 00     	sbc	#L81
   966 00:0601: 1B           	tcs
   967 00:0602: 0B           	phd
   968 00:0603: 5B           	tcd
   969             00000004   dest_0	set	4
   970             00000008   value_0	set	8
   971             0000000A   width_0	set	10
   972             00000000   count_1	set	0
   973             00000002   n_1	set	2
   974             00000004   temp_1	set	4
   975 00:0604: 64 07        	stz	<L82+n_1
   976 00:0606: 82 1C 00     	brl	L10045
   977                        L10044:
   978 00:0609: A5 20        	lda	<L81+value_0
   979 00:060B: 29 01 00     	and	#<$1
   980 00:060E: 85 01        	sta	<R0
  Sun Jan  9 2022 20:52                                                Page 18


   981 00:0610: 18           	clc
   982 00:0611: A9 30 00     	lda	#$30
   983 00:0614: 65 01        	adc	<R0
   984 00:0616: E2 20        	sep	#$20
   985                        	longa	off
   986 00:0618: A6 07        	ldx	<L82+n_1
   987 00:061A: 95 09        	sta	<L82+temp_1,X
   988 00:061C: C2 20        	rep	#$20
   989                        	longa	on
   990 00:061E: A5 20        	lda	<L81+value_0
   991 00:0620: 0A           	asl	A
   992 00:0621: 66 20        	ror	<L81+value_0
   993                        L10042:
   994 00:0623: E6 07        	inc	<L82+n_1
   995                        L10045:
   996 00:0625: A5 07        	lda	<L82+n_1
   997 00:0627: C9 10 00     	cmp	#<$10
   998 00:062A: B0 03        	bcs	L83
   999 00:062C: 82 DA FF     	brl	L10044
  1000                        L83:
  1001                        L10043:
  1002 00:062F: A9 0F 00     	lda	#$f
  1003 00:0632: 85 07        	sta	<L82+n_1
  1004                        L10046:
  1005 00:0634: 38           	sec
  1006 00:0635: A9 00 00     	lda	#$0
  1007 00:0638: E5 07        	sbc	<L82+n_1
  1008 00:063A: 70 03        	bvs	L84
  1009 00:063C: 49 00 80     	eor	#$8000
  1010                        L84:
  1011 00:063F: 10 03        	bpl	L85
  1012 00:0641: 82 14 00     	brl	L10047
  1013                        L85:
  1014 00:0644: E2 20        	sep	#$20
  1015                        	longa	off
  1016 00:0646: A6 07        	ldx	<L82+n_1
  1017 00:0648: B5 09        	lda	<L82+temp_1,X
  1018 00:064A: C9 30        	cmp	#<$30
  1019 00:064C: C2 20        	rep	#$20
  1020                        	longa	on
  1021 00:064E: F0 03        	beq	L86
  1022 00:0650: 82 05 00     	brl	L10047
  1023                        L86:
  1024 00:0653: C6 07        	dec	<L82+n_1
  1025 00:0655: 82 DC FF     	brl	L10046
  1026                        L10047:
  1027 00:0658: A5 07        	lda	<L82+n_1
  1028 00:065A: 1A           	ina
  1029 00:065B: 85 05        	sta	<L82+count_1
  1030                        L10048:
  1031 00:065D: A5 07        	lda	<L82+n_1
  1032 00:065F: 10 03        	bpl	L87
  1033 00:0661: 82 15 00     	brl	L10049
  1034                        L87:
  1035 00:0664: E2 20        	sep	#$20
  1036                        	longa	off
  1037 00:0666: A6 07        	ldx	<L82+n_1
  1038 00:0668: B5 09        	lda	<L82+temp_1,X
  Sun Jan  9 2022 20:52                                                Page 19


  1039 00:066A: 87 1C        	sta	[<L81+dest_0]
  1040 00:066C: C2 20        	rep	#$20
  1041                        	longa	on
  1042 00:066E: E6 1C        	inc	<L81+dest_0
  1043 00:0670: D0 02        	bne	L88
  1044 00:0672: E6 1E        	inc	<L81+dest_0+2
  1045                        L88:
  1046 00:0674: C6 07        	dec	<L82+n_1
  1047 00:0676: 82 E4 FF     	brl	L10048
  1048                        L10049:
  1049 00:0679: E2 20        	sep	#$20
  1050                        	longa	off
  1051 00:067B: A9 00        	lda	#$0
  1052 00:067D: 87 1C        	sta	[<L81+dest_0]
  1053 00:067F: C2 20        	rep	#$20
  1054                        	longa	on
  1055 00:0681: A5 05        	lda	<L82+count_1
  1056                        L89:
  1057 00:0683: A8           	tay
  1058 00:0684: A5 1A        	lda	<L81+2
  1059 00:0686: 85 22        	sta	<L81+2+8
  1060 00:0688: A5 19        	lda	<L81+1
  1061 00:068A: 85 21        	sta	<L81+1+8
  1062 00:068C: 2B           	pld
  1063 00:068D: 3B           	tsc
  1064 00:068E: 18           	clc
  1065 00:068F: 69 20 00     	adc	#L81+8
  1066 00:0692: 1B           	tcs
  1067 00:0693: 98           	tya
  1068 00:0694: 6B           	rtl
  1069             00000018   L81	equ	24
  1070             00000005   L82	equ	5
  1071                        	ends
  1072                        	efunc
  1073                        	xref	~~skip_blanks
  1074                        	xref	~~pow
  1075                        	xref	~~isxdigit
  1076                        	xref	~~toupper
  1077                        	xref	~~isalpha
  1078                        	end


      Lines assembled: 1078
      Errors: 0
