  Sun Jan  9 2022 20:52                                                Page 1


                     ***************************************
                     **      WDC 65C816 Macro Assembler   **
                     **                                   **
                     **     Version 3.49.1- Feb  6 2006    **
                     ***************************************

     1                        ;:ts=8
     2             00000001   R0	equ	1
     3             00000005   R1	equ	5
     4             00000009   R2	equ	9
     5             0000000D   R3	equ	13
     6                        	code
     7                        	xdef	~~isapath
     8                        	func
     9                        ~~isapath:
    10                        	longa	on
    11                        	longi	on
    12 00:0000: 3B           	tsc
    13 00:0001: 38           	sec
    14 00:0002: E9 08 00     	sbc	#L2
    15 00:0005: 1B           	tcs
    16 00:0006: 0B           	phd
    17 00:0007: 5B           	tcd
    18             00000004   name_0	set	4
    19 00:0008: 64 01        	stz	<R0
    20 00:000A: F4 xx xx     	pea	#^L1
    21 00:000D: F4 xx xx     	pea	#<L1
    22 00:0010: D4 0E        	pei	<L2+name_0+2
    23 00:0012: D4 0C        	pei	<L2+name_0
    24 00:0014: 22 xx xx xx  	jsl	~~strpbrk
    25 00:0018: A5 05        	lda	<R1
    26 00:001A: 05 07        	ora	<R1+2
    27 00:001C: D0 03        	bne	L5
    28 00:001E: 82 02 00     	brl	L4
    29                        L5:
    30 00:0021: E6 01        	inc	<R0
    31                        L4:
    32                        L6:
    33 00:0023: A8           	tay
    34 00:0024: A5 0A        	lda	<L2+2
    35 00:0026: 85 0E        	sta	<L2+2+4
    36 00:0028: A5 09        	lda	<L2+1
    37 00:002A: 85 0D        	sta	<L2+1+4
    38 00:002C: 2B           	pld
    39 00:002D: 3B           	tsc
    40 00:002E: 18           	clc
    41 00:002F: 69 0C 00     	adc	#L2+4
    42 00:0032: 1B           	tcs
    43 00:0033: 98           	tya
    44 00:0034: 6B           	rtl
    45             00000008   L2	equ	8
    46             00000009   L3	equ	9
    47                        	ends
    48                        	efunc
    49                        	data
    50                        L1:
    51 00:0000: 2F 00        	db	$2F,$00
    52 00:0002:              	ends
  Sun Jan  9 2022 20:52                                                Page 2


    53                        	code
    54                        	func
    55                        ~~map_handle:
    56                        	longa	on
    57                        	longi	on
    58 00:0035: 3B           	tsc
    59 00:0036: 38           	sec
    60 00:0037: E9 04 00     	sbc	#L8
    61 00:003A: 1B           	tcs
    62 00:003B: 0B           	phd
    63 00:003C: 5B           	tcd
    64             00000004   handle_0	set	4
    65 00:003D: 38           	sec
    66 00:003E: A9 FE 00     	lda	#$fe
    67 00:0041: E5 08        	sbc	<L8+handle_0
    68 00:0043: 85 08        	sta	<L8+handle_0
    69 00:0045: A5 08        	lda	<L8+handle_0
    70 00:0047: 10 03        	bpl	L11
    71 00:0049: 82 23 00     	brl	L10
    72                        L11:
    73 00:004C: 38           	sec
    74 00:004D: A5 08        	lda	<L8+handle_0
    75 00:004F: E9 19 00     	sbc	#<$19
    76 00:0052: 70 03        	bvs	L12
    77 00:0054: 49 00 80     	eor	#$8000
    78                        L12:
    79 00:0057: 10 03        	bpl	L13
    80 00:0059: 82 13 00     	brl	L10
    81                        L13:
    82 00:005C: A5 08        	lda	<L8+handle_0
    83 00:005E: 0A           	asl	A
    84 00:005F: 0A           	asl	A
    85 00:0060: 0A           	asl	A
    86 00:0061: 65 08        	adc	<L8+handle_0
    87 00:0063: 85 01        	sta	<R0
    88 00:0065: A6 01        	ldx	<R0
    89 00:0067: BD xx xx     	lda	|~~fileinfo+4,X
    90 00:006A: F0 03        	beq	L14
    91 00:006C: 82 0A 00     	brl	L10001
    92                        L14:
    93                        L10:
    94 00:006F: F4 7C 00     	pea	#<$7c
    95 00:0072: F4 04 00     	pea	#4
    96 00:0075: 22 xx xx xx  	jsl	~~error
    97                        L10001:
    98 00:0079: A5 08        	lda	<L8+handle_0
    99                        L15:
   100 00:007B: A8           	tay
   101 00:007C: A5 06        	lda	<L8+2
   102 00:007E: 85 08        	sta	<L8+2+2
   103 00:0080: A5 05        	lda	<L8+1
   104 00:0082: 85 07        	sta	<L8+1+2
   105 00:0084: 2B           	pld
   106 00:0085: 3B           	tsc
   107 00:0086: 18           	clc
   108 00:0087: 69 06 00     	adc	#L8+2
   109 00:008A: 1B           	tcs
   110 00:008B: 98           	tya
  Sun Jan  9 2022 20:52                                                Page 3


   111 00:008C: 6B           	rtl
   112             00000004   L8	equ	4
   113             00000005   L9	equ	5
   114                        	ends
   115                        	efunc
   116                        	code
   117                        	xdef	~~fileio_openin
   118                        	func
   119                        ~~fileio_openin:
   120                        	longa	on
   121                        	longi	on
   122 00:008D: 3B           	tsc
   123 00:008E: 38           	sec
   124 00:008F: E9 1E 00     	sbc	#L16
   125 00:0092: 1B           	tcs
   126 00:0093: 0B           	phd
   127 00:0094: 5B           	tcd
   128             00000004   name_0	set	4
   129             00000008   namelen_0	set	8
   130             00000000   thefile_1	set	0
   131             00000004   n_1	set	4
   132             00000006   filename_1	set	6
   133 00:0095: 64 0D        	stz	<L17+n_1
   134 00:0097: 82 02 00     	brl	L10005
   135                        L10004:
   136                        L10002:
   137 00:009A: E6 0D        	inc	<L17+n_1
   138                        L10005:
   139 00:009C: 38           	sec
   140 00:009D: A5 0D        	lda	<L17+n_1
   141 00:009F: E9 19 00     	sbc	#<$19
   142 00:00A2: 70 03        	bvs	L19
   143 00:00A4: 49 00 80     	eor	#$8000
   144                        L19:
   145 00:00A7: 10 03        	bpl	L20
   146 00:00A9: 82 1D 00     	brl	L18
   147                        L20:
   148 00:00AC: A5 0D        	lda	<L17+n_1
   149 00:00AE: 0A           	asl	A
   150 00:00AF: 0A           	asl	A
   151 00:00B0: 0A           	asl	A
   152 00:00B1: 65 0D        	adc	<L17+n_1
   153 00:00B3: 85 01        	sta	<R0
   154 00:00B5: 18           	clc
   155 00:00B6: A9 xx xx     	lda	#<~~fileinfo
   156 00:00B9: 65 01        	adc	<R0
   157 00:00BB: 85 05        	sta	<R1
   158 00:00BD: B2 05        	lda	(<R1)
   159 00:00BF: A0 02 00     	ldy	#$2
   160 00:00C2: 11 05        	ora	(<R1),Y
   161 00:00C4: F0 03        	beq	L21
   162 00:00C6: 82 D1 FF     	brl	L10004
   163                        L21:
   164                        L18:
   165                        L10003:
   166 00:00C9: 38           	sec
   167 00:00CA: A5 0D        	lda	<L17+n_1
   168 00:00CC: E9 19 00     	sbc	#<$19
  Sun Jan  9 2022 20:52                                                Page 4


   169 00:00CF: 70 03        	bvs	L22
   170 00:00D1: 49 00 80     	eor	#$8000
   171                        L22:
   172 00:00D4: 30 03        	bmi	L23
   173 00:00D6: 82 0A 00     	brl	L10006
   174                        L23:
   175 00:00D9: F4 80 00     	pea	#<$80
   176 00:00DC: F4 04 00     	pea	#4
   177 00:00DF: 22 xx xx xx  	jsl	~~error
   178                        L10006:
   179 00:00E3: A0 00 00     	ldy	#$0
   180 00:00E6: A5 26        	lda	<L16+namelen_0
   181 00:00E8: 10 01        	bpl	L24
   182 00:00EA: 88           	dey
   183                        L24:
   184 00:00EB: 85 01        	sta	<R0
   185 00:00ED: 84 03        	sty	<R0+2
   186 00:00EF: D4 03        	pei	<R0+2
   187 00:00F1: D4 01        	pei	<R0
   188 00:00F3: D4 24        	pei	<L16+name_0+2
   189 00:00F5: D4 22        	pei	<L16+name_0
   190 00:00F7: F4 00 00     	pea	#0
   191 00:00FA: 18           	clc
   192 00:00FB: 7B           	tdc
   193 00:00FC: 69 0F 00     	adc	#<L17+filename_1
   194 00:00FF: 48           	pha
   195 00:0100: 22 xx xx xx  	jsl	~~memmove
   196 00:0104: E2 20        	sep	#$20
   197                        	longa	off
   198 00:0106: A9 00        	lda	#$0
   199 00:0108: A6 26        	ldx	<L16+namelen_0
   200 00:010A: 95 0F        	sta	<L17+filename_1,X
   201 00:010C: C2 20        	rep	#$20
   202                        	longa	on
   203 00:010E: F4 xx xx     	pea	#^L7
   204 00:0111: F4 xx xx     	pea	#<L7
   205 00:0114: F4 00 00     	pea	#0
   206 00:0117: 18           	clc
   207 00:0118: 7B           	tdc
   208 00:0119: 69 0F 00     	adc	#<L17+filename_1
   209 00:011C: 48           	pha
   210 00:011D: 22 xx xx xx  	jsl	~~fopen
   211 00:0121: 85 09        	sta	<L17+thefile_1
   212 00:0123: 86 0B        	stx	<L17+thefile_1+2
   213 00:0125: A5 09        	lda	<L17+thefile_1
   214 00:0127: 05 0B        	ora	<L17+thefile_1+2
   215 00:0129: F0 03        	beq	L25
   216 00:012B: 82 15 00     	brl	L10007
   217                        L25:
   218 00:012E: A9 00 00     	lda	#$0
   219                        L26:
   220 00:0131: A8           	tay
   221 00:0132: A5 20        	lda	<L16+2
   222 00:0134: 85 26        	sta	<L16+2+6
   223 00:0136: A5 1F        	lda	<L16+1
   224 00:0138: 85 25        	sta	<L16+1+6
   225 00:013A: 2B           	pld
   226 00:013B: 3B           	tsc
  Sun Jan  9 2022 20:52                                                Page 5


   227 00:013C: 18           	clc
   228 00:013D: 69 24 00     	adc	#L16+6
   229 00:0140: 1B           	tcs
   230 00:0141: 98           	tya
   231 00:0142: 6B           	rtl
   232                        L10007:
   233 00:0143: A5 0D        	lda	<L17+n_1
   234 00:0145: 0A           	asl	A
   235 00:0146: 0A           	asl	A
   236 00:0147: 0A           	asl	A
   237 00:0148: 65 0D        	adc	<L17+n_1
   238 00:014A: 85 01        	sta	<R0
   239 00:014C: 18           	clc
   240 00:014D: A9 xx xx     	lda	#<~~fileinfo
   241 00:0150: 65 01        	adc	<R0
   242 00:0152: 85 05        	sta	<R1
   243 00:0154: A5 09        	lda	<L17+thefile_1
   244 00:0156: 92 05        	sta	(<R1)
   245 00:0158: A5 0B        	lda	<L17+thefile_1+2
   246 00:015A: A0 02 00     	ldy	#$2
   247 00:015D: 91 05        	sta	(<R1),Y
   248 00:015F: A5 0D        	lda	<L17+n_1
   249 00:0161: 0A           	asl	A
   250 00:0162: 0A           	asl	A
   251 00:0163: 0A           	asl	A
   252 00:0164: 65 0D        	adc	<L17+n_1
   253 00:0166: 85 01        	sta	<R0
   254 00:0168: A9 01 00     	lda	#$1
   255 00:016B: A6 01        	ldx	<R0
   256 00:016D: 9D xx xx     	sta	|~~fileinfo+4,X
   257 00:0170: A5 0D        	lda	<L17+n_1
   258 00:0172: 0A           	asl	A
   259 00:0173: 0A           	asl	A
   260 00:0174: 0A           	asl	A
   261 00:0175: 65 0D        	adc	<L17+n_1
   262 00:0177: 85 01        	sta	<R0
   263 00:0179: A9 00 00     	lda	#$0
   264 00:017C: A6 01        	ldx	<R0
   265 00:017E: 9D xx xx     	sta	|~~fileinfo+6,X
   266 00:0181: A5 0D        	lda	<L17+n_1
   267 00:0183: 0A           	asl	A
   268 00:0184: 0A           	asl	A
   269 00:0185: 0A           	asl	A
   270 00:0186: 65 0D        	adc	<L17+n_1
   271 00:0188: 85 01        	sta	<R0
   272 00:018A: E2 20        	sep	#$20
   273                        	longa	off
   274 00:018C: A9 00        	lda	#$0
   275 00:018E: A6 01        	ldx	<R0
   276 00:0190: 9D xx xx     	sta	|~~fileinfo+8,X
   277 00:0193: C2 20        	rep	#$20
   278                        	longa	on
   279 00:0195: 38           	sec
   280 00:0196: A9 FE 00     	lda	#$fe
   281 00:0199: E5 0D        	sbc	<L17+n_1
   282 00:019B: 82 93 FF     	brl	L26
   283             0000001E   L16	equ	30
   284             00000009   L17	equ	9
  Sun Jan  9 2022 20:52                                                Page 6


   285                        	ends
   286                        	efunc
   287                        	data
   288                        L7:
   289 00:0002: 72 00        	db	$72,$00
   290 00:0004:              	ends
   291                        	code
   292                        	xdef	~~fileio_openout
   293                        	func
   294                        ~~fileio_openout:
   295                        	longa	on
   296                        	longi	on
   297 00:019E: 3B           	tsc
   298 00:019F: 38           	sec
   299 00:01A0: E9 1E 00     	sbc	#L28
   300 00:01A3: 1B           	tcs
   301 00:01A4: 0B           	phd
   302 00:01A5: 5B           	tcd
   303             00000004   name_0	set	4
   304             00000008   namelen_0	set	8
   305             00000000   thefile_1	set	0
   306             00000004   n_1	set	4
   307             00000006   filename_1	set	6
   308 00:01A6: 64 0D        	stz	<L29+n_1
   309 00:01A8: 82 02 00     	brl	L10011
   310                        L10010:
   311                        L10008:
   312 00:01AB: E6 0D        	inc	<L29+n_1
   313                        L10011:
   314 00:01AD: 38           	sec
   315 00:01AE: A5 0D        	lda	<L29+n_1
   316 00:01B0: E9 19 00     	sbc	#<$19
   317 00:01B3: 70 03        	bvs	L31
   318 00:01B5: 49 00 80     	eor	#$8000
   319                        L31:
   320 00:01B8: 10 03        	bpl	L32
   321 00:01BA: 82 1D 00     	brl	L30
   322                        L32:
   323 00:01BD: A5 0D        	lda	<L29+n_1
   324 00:01BF: 0A           	asl	A
   325 00:01C0: 0A           	asl	A
   326 00:01C1: 0A           	asl	A
   327 00:01C2: 65 0D        	adc	<L29+n_1
   328 00:01C4: 85 01        	sta	<R0
   329 00:01C6: 18           	clc
   330 00:01C7: A9 xx xx     	lda	#<~~fileinfo
   331 00:01CA: 65 01        	adc	<R0
   332 00:01CC: 85 05        	sta	<R1
   333 00:01CE: B2 05        	lda	(<R1)
   334 00:01D0: A0 02 00     	ldy	#$2
   335 00:01D3: 11 05        	ora	(<R1),Y
   336 00:01D5: F0 03        	beq	L33
   337 00:01D7: 82 D1 FF     	brl	L10010
   338                        L33:
   339                        L30:
   340                        L10009:
   341 00:01DA: 38           	sec
   342 00:01DB: A5 0D        	lda	<L29+n_1
  Sun Jan  9 2022 20:52                                                Page 7


   343 00:01DD: E9 19 00     	sbc	#<$19
   344 00:01E0: 70 03        	bvs	L34
   345 00:01E2: 49 00 80     	eor	#$8000
   346                        L34:
   347 00:01E5: 30 03        	bmi	L35
   348 00:01E7: 82 0A 00     	brl	L10012
   349                        L35:
   350 00:01EA: F4 80 00     	pea	#<$80
   351 00:01ED: F4 04 00     	pea	#4
   352 00:01F0: 22 xx xx xx  	jsl	~~error
   353                        L10012:
   354 00:01F4: A0 00 00     	ldy	#$0
   355 00:01F7: A5 26        	lda	<L28+namelen_0
   356 00:01F9: 10 01        	bpl	L36
   357 00:01FB: 88           	dey
   358                        L36:
   359 00:01FC: 85 01        	sta	<R0
   360 00:01FE: 84 03        	sty	<R0+2
   361 00:0200: D4 03        	pei	<R0+2
   362 00:0202: D4 01        	pei	<R0
   363 00:0204: D4 24        	pei	<L28+name_0+2
   364 00:0206: D4 22        	pei	<L28+name_0
   365 00:0208: F4 00 00     	pea	#0
   366 00:020B: 18           	clc
   367 00:020C: 7B           	tdc
   368 00:020D: 69 0F 00     	adc	#<L29+filename_1
   369 00:0210: 48           	pha
   370 00:0211: 22 xx xx xx  	jsl	~~memmove
   371 00:0215: E2 20        	sep	#$20
   372                        	longa	off
   373 00:0217: A9 00        	lda	#$0
   374 00:0219: A6 26        	ldx	<L28+namelen_0
   375 00:021B: 95 0F        	sta	<L29+filename_1,X
   376 00:021D: C2 20        	rep	#$20
   377                        	longa	on
   378 00:021F: F4 xx xx     	pea	#^L27
   379 00:0222: F4 xx xx     	pea	#<L27
   380 00:0225: F4 00 00     	pea	#0
   381 00:0228: 18           	clc
   382 00:0229: 7B           	tdc
   383 00:022A: 69 0F 00     	adc	#<L29+filename_1
   384 00:022D: 48           	pha
   385 00:022E: 22 xx xx xx  	jsl	~~fopen
   386 00:0232: 85 09        	sta	<L29+thefile_1
   387 00:0234: 86 0B        	stx	<L29+thefile_1+2
   388 00:0236: A5 09        	lda	<L29+thefile_1
   389 00:0238: 05 0B        	ora	<L29+thefile_1+2
   390 00:023A: F0 03        	beq	L37
   391 00:023C: 82 13 00     	brl	L10013
   392                        L37:
   393 00:023F: F4 00 00     	pea	#0
   394 00:0242: 18           	clc
   395 00:0243: 7B           	tdc
   396 00:0244: 69 0F 00     	adc	#<L29+filename_1
   397 00:0247: 48           	pha
   398 00:0248: F4 6F 00     	pea	#<$6f
   399 00:024B: F4 08 00     	pea	#8
   400 00:024E: 22 xx xx xx  	jsl	~~error
  Sun Jan  9 2022 20:52                                                Page 8


   401                        L10013:
   402 00:0252: A5 0D        	lda	<L29+n_1
   403 00:0254: 0A           	asl	A
   404 00:0255: 0A           	asl	A
   405 00:0256: 0A           	asl	A
   406 00:0257: 65 0D        	adc	<L29+n_1
   407 00:0259: 85 01        	sta	<R0
   408 00:025B: 18           	clc
   409 00:025C: A9 xx xx     	lda	#<~~fileinfo
   410 00:025F: 65 01        	adc	<R0
   411 00:0261: 85 05        	sta	<R1
   412 00:0263: A5 09        	lda	<L29+thefile_1
   413 00:0265: 92 05        	sta	(<R1)
   414 00:0267: A5 0B        	lda	<L29+thefile_1+2
   415 00:0269: A0 02 00     	ldy	#$2
   416 00:026C: 91 05        	sta	(<R1),Y
   417 00:026E: A5 0D        	lda	<L29+n_1
   418 00:0270: 0A           	asl	A
   419 00:0271: 0A           	asl	A
   420 00:0272: 0A           	asl	A
   421 00:0273: 65 0D        	adc	<L29+n_1
   422 00:0275: 85 01        	sta	<R0
   423 00:0277: A9 03 00     	lda	#$3
   424 00:027A: A6 01        	ldx	<R0
   425 00:027C: 9D xx xx     	sta	|~~fileinfo+4,X
   426 00:027F: A5 0D        	lda	<L29+n_1
   427 00:0281: 0A           	asl	A
   428 00:0282: 0A           	asl	A
   429 00:0283: 0A           	asl	A
   430 00:0284: 65 0D        	adc	<L29+n_1
   431 00:0286: 85 01        	sta	<R0
   432 00:0288: A9 00 00     	lda	#$0
   433 00:028B: A6 01        	ldx	<R0
   434 00:028D: 9D xx xx     	sta	|~~fileinfo+6,X
   435 00:0290: A5 0D        	lda	<L29+n_1
   436 00:0292: 0A           	asl	A
   437 00:0293: 0A           	asl	A
   438 00:0294: 0A           	asl	A
   439 00:0295: 65 0D        	adc	<L29+n_1
   440 00:0297: 85 01        	sta	<R0
   441 00:0299: E2 20        	sep	#$20
   442                        	longa	off
   443 00:029B: A9 00        	lda	#$0
   444 00:029D: A6 01        	ldx	<R0
   445 00:029F: 9D xx xx     	sta	|~~fileinfo+8,X
   446 00:02A2: C2 20        	rep	#$20
   447                        	longa	on
   448 00:02A4: 38           	sec
   449 00:02A5: A9 FE 00     	lda	#$fe
   450 00:02A8: E5 0D        	sbc	<L29+n_1
   451                        L38:
   452 00:02AA: A8           	tay
   453 00:02AB: A5 20        	lda	<L28+2
   454 00:02AD: 85 26        	sta	<L28+2+6
   455 00:02AF: A5 1F        	lda	<L28+1
   456 00:02B1: 85 25        	sta	<L28+1+6
   457 00:02B3: 2B           	pld
   458 00:02B4: 3B           	tsc
  Sun Jan  9 2022 20:52                                                Page 9


   459 00:02B5: 18           	clc
   460 00:02B6: 69 24 00     	adc	#L28+6
   461 00:02B9: 1B           	tcs
   462 00:02BA: 98           	tya
   463 00:02BB: 6B           	rtl
   464             0000001E   L28	equ	30
   465             00000009   L29	equ	9
   466                        	ends
   467                        	efunc
   468                        	data
   469                        L27:
   470 00:0004: 77 2B 00     	db	$77,$2B,$00
   471 00:0007:              	ends
   472                        	code
   473                        	xdef	~~fileio_openup
   474                        	func
   475                        ~~fileio_openup:
   476                        	longa	on
   477                        	longi	on
   478 00:02BC: 3B           	tsc
   479 00:02BD: 38           	sec
   480 00:02BE: E9 1E 00     	sbc	#L40
   481 00:02C1: 1B           	tcs
   482 00:02C2: 0B           	phd
   483 00:02C3: 5B           	tcd
   484             00000004   name_0	set	4
   485             00000008   namelen_0	set	8
   486             00000000   thefile_1	set	0
   487             00000004   n_1	set	4
   488             00000006   filename_1	set	6
   489 00:02C4: 64 0D        	stz	<L41+n_1
   490 00:02C6: 82 02 00     	brl	L10017
   491                        L10016:
   492                        L10014:
   493 00:02C9: E6 0D        	inc	<L41+n_1
   494                        L10017:
   495 00:02CB: 38           	sec
   496 00:02CC: A5 0D        	lda	<L41+n_1
   497 00:02CE: E9 19 00     	sbc	#<$19
   498 00:02D1: 70 03        	bvs	L43
   499 00:02D3: 49 00 80     	eor	#$8000
   500                        L43:
   501 00:02D6: 10 03        	bpl	L44
   502 00:02D8: 82 1D 00     	brl	L42
   503                        L44:
   504 00:02DB: A5 0D        	lda	<L41+n_1
   505 00:02DD: 0A           	asl	A
   506 00:02DE: 0A           	asl	A
   507 00:02DF: 0A           	asl	A
   508 00:02E0: 65 0D        	adc	<L41+n_1
   509 00:02E2: 85 01        	sta	<R0
   510 00:02E4: 18           	clc
   511 00:02E5: A9 xx xx     	lda	#<~~fileinfo
   512 00:02E8: 65 01        	adc	<R0
   513 00:02EA: 85 05        	sta	<R1
   514 00:02EC: B2 05        	lda	(<R1)
   515 00:02EE: A0 02 00     	ldy	#$2
   516 00:02F1: 11 05        	ora	(<R1),Y
  Sun Jan  9 2022 20:52                                                Page 10


   517 00:02F3: F0 03        	beq	L45
   518 00:02F5: 82 D1 FF     	brl	L10016
   519                        L45:
   520                        L42:
   521                        L10015:
   522 00:02F8: 38           	sec
   523 00:02F9: A5 0D        	lda	<L41+n_1
   524 00:02FB: E9 19 00     	sbc	#<$19
   525 00:02FE: 70 03        	bvs	L46
   526 00:0300: 49 00 80     	eor	#$8000
   527                        L46:
   528 00:0303: 30 03        	bmi	L47
   529 00:0305: 82 0A 00     	brl	L10018
   530                        L47:
   531 00:0308: F4 80 00     	pea	#<$80
   532 00:030B: F4 04 00     	pea	#4
   533 00:030E: 22 xx xx xx  	jsl	~~error
   534                        L10018:
   535 00:0312: A0 00 00     	ldy	#$0
   536 00:0315: A5 26        	lda	<L40+namelen_0
   537 00:0317: 10 01        	bpl	L48
   538 00:0319: 88           	dey
   539                        L48:
   540 00:031A: 85 01        	sta	<R0
   541 00:031C: 84 03        	sty	<R0+2
   542 00:031E: D4 03        	pei	<R0+2
   543 00:0320: D4 01        	pei	<R0
   544 00:0322: D4 24        	pei	<L40+name_0+2
   545 00:0324: D4 22        	pei	<L40+name_0
   546 00:0326: F4 00 00     	pea	#0
   547 00:0329: 18           	clc
   548 00:032A: 7B           	tdc
   549 00:032B: 69 0F 00     	adc	#<L41+filename_1
   550 00:032E: 48           	pha
   551 00:032F: 22 xx xx xx  	jsl	~~memmove
   552 00:0333: E2 20        	sep	#$20
   553                        	longa	off
   554 00:0335: A9 00        	lda	#$0
   555 00:0337: A6 26        	ldx	<L40+namelen_0
   556 00:0339: 95 0F        	sta	<L41+filename_1,X
   557 00:033B: C2 20        	rep	#$20
   558                        	longa	on
   559 00:033D: F4 xx xx     	pea	#^L39
   560 00:0340: F4 xx xx     	pea	#<L39
   561 00:0343: F4 00 00     	pea	#0
   562 00:0346: 18           	clc
   563 00:0347: 7B           	tdc
   564 00:0348: 69 0F 00     	adc	#<L41+filename_1
   565 00:034B: 48           	pha
   566 00:034C: 22 xx xx xx  	jsl	~~fopen
   567 00:0350: 85 09        	sta	<L41+thefile_1
   568 00:0352: 86 0B        	stx	<L41+thefile_1+2
   569 00:0354: A5 09        	lda	<L41+thefile_1
   570 00:0356: 05 0B        	ora	<L41+thefile_1+2
   571 00:0358: F0 03        	beq	L49
   572 00:035A: 82 13 00     	brl	L10019
   573                        L49:
   574 00:035D: F4 00 00     	pea	#0
  Sun Jan  9 2022 20:52                                                Page 11


   575 00:0360: 18           	clc
   576 00:0361: 7B           	tdc
   577 00:0362: 69 0F 00     	adc	#<L41+filename_1
   578 00:0365: 48           	pha
   579 00:0366: F4 70 00     	pea	#<$70
   580 00:0369: F4 08 00     	pea	#8
   581 00:036C: 22 xx xx xx  	jsl	~~error
   582                        L10019:
   583 00:0370: A5 0D        	lda	<L41+n_1
   584 00:0372: 0A           	asl	A
   585 00:0373: 0A           	asl	A
   586 00:0374: 0A           	asl	A
   587 00:0375: 65 0D        	adc	<L41+n_1
   588 00:0377: 85 01        	sta	<R0
   589 00:0379: 18           	clc
   590 00:037A: A9 xx xx     	lda	#<~~fileinfo
   591 00:037D: 65 01        	adc	<R0
   592 00:037F: 85 05        	sta	<R1
   593 00:0381: A5 09        	lda	<L41+thefile_1
   594 00:0383: 92 05        	sta	(<R1)
   595 00:0385: A5 0B        	lda	<L41+thefile_1+2
   596 00:0387: A0 02 00     	ldy	#$2
   597 00:038A: 91 05        	sta	(<R1),Y
   598 00:038C: A5 0D        	lda	<L41+n_1
   599 00:038E: 0A           	asl	A
   600 00:038F: 0A           	asl	A
   601 00:0390: 0A           	asl	A
   602 00:0391: 65 0D        	adc	<L41+n_1
   603 00:0393: 85 01        	sta	<R0
   604 00:0395: A9 02 00     	lda	#$2
   605 00:0398: A6 01        	ldx	<R0
   606 00:039A: 9D xx xx     	sta	|~~fileinfo+4,X
   607 00:039D: A5 0D        	lda	<L41+n_1
   608 00:039F: 0A           	asl	A
   609 00:03A0: 0A           	asl	A
   610 00:03A1: 0A           	asl	A
   611 00:03A2: 65 0D        	adc	<L41+n_1
   612 00:03A4: 85 01        	sta	<R0
   613 00:03A6: A9 00 00     	lda	#$0
   614 00:03A9: A6 01        	ldx	<R0
   615 00:03AB: 9D xx xx     	sta	|~~fileinfo+6,X
   616 00:03AE: A5 0D        	lda	<L41+n_1
   617 00:03B0: 0A           	asl	A
   618 00:03B1: 0A           	asl	A
   619 00:03B2: 0A           	asl	A
   620 00:03B3: 65 0D        	adc	<L41+n_1
   621 00:03B5: 85 01        	sta	<R0
   622 00:03B7: E2 20        	sep	#$20
   623                        	longa	off
   624 00:03B9: A9 00        	lda	#$0
   625 00:03BB: A6 01        	ldx	<R0
   626 00:03BD: 9D xx xx     	sta	|~~fileinfo+8,X
   627 00:03C0: C2 20        	rep	#$20
   628                        	longa	on
   629 00:03C2: 38           	sec
   630 00:03C3: A9 FE 00     	lda	#$fe
   631 00:03C6: E5 0D        	sbc	<L41+n_1
   632                        L50:
  Sun Jan  9 2022 20:52                                                Page 12


   633 00:03C8: A8           	tay
   634 00:03C9: A5 20        	lda	<L40+2
   635 00:03CB: 85 26        	sta	<L40+2+6
   636 00:03CD: A5 1F        	lda	<L40+1
   637 00:03CF: 85 25        	sta	<L40+1+6
   638 00:03D1: 2B           	pld
   639 00:03D2: 3B           	tsc
   640 00:03D3: 18           	clc
   641 00:03D4: 69 24 00     	adc	#L40+6
   642 00:03D7: 1B           	tcs
   643 00:03D8: 98           	tya
   644 00:03D9: 6B           	rtl
   645             0000001E   L40	equ	30
   646             00000009   L41	equ	9
   647                        	ends
   648                        	efunc
   649                        	data
   650                        L39:
   651 00:0007: 72 2B 00     	db	$72,$2B,$00
   652 00:000A:              	ends
   653                        	code
   654                        	func
   655                        ~~close_file:
   656                        	longa	on
   657                        	longi	on
   658 00:03DA: 3B           	tsc
   659 00:03DB: 38           	sec
   660 00:03DC: E9 08 00     	sbc	#L52
   661 00:03DF: 1B           	tcs
   662 00:03E0: 0B           	phd
   663 00:03E1: 5B           	tcd
   664             00000004   handle_0	set	4
   665 00:03E2: A5 0C        	lda	<L52+handle_0
   666 00:03E4: 0A           	asl	A
   667 00:03E5: 0A           	asl	A
   668 00:03E6: 0A           	asl	A
   669 00:03E7: 65 0C        	adc	<L52+handle_0
   670 00:03E9: 85 01        	sta	<R0
   671 00:03EB: 18           	clc
   672 00:03EC: A9 xx xx     	lda	#<~~fileinfo
   673 00:03EF: 65 01        	adc	<R0
   674 00:03F1: 85 05        	sta	<R1
   675 00:03F3: A0 02 00     	ldy	#$2
   676 00:03F6: B1 05        	lda	(<R1),Y
   677 00:03F8: 48           	pha
   678 00:03F9: B2 05        	lda	(<R1)
   679 00:03FB: 48           	pha
   680 00:03FC: 22 xx xx xx  	jsl	~~fclose
   681 00:0400: A5 0C        	lda	<L52+handle_0
   682 00:0402: 0A           	asl	A
   683 00:0403: 0A           	asl	A
   684 00:0404: 0A           	asl	A
   685 00:0405: 65 0C        	adc	<L52+handle_0
   686 00:0407: 85 01        	sta	<R0
   687 00:0409: 18           	clc
   688 00:040A: A9 xx xx     	lda	#<~~fileinfo
   689 00:040D: 65 01        	adc	<R0
   690 00:040F: 85 05        	sta	<R1
  Sun Jan  9 2022 20:52                                                Page 13


   691 00:0411: A9 00 00     	lda	#$0
   692 00:0414: 92 05        	sta	(<R1)
   693 00:0416: A9 00 00     	lda	#$0
   694 00:0419: A0 02 00     	ldy	#$2
   695 00:041C: 91 05        	sta	(<R1),Y
   696 00:041E: A5 0C        	lda	<L52+handle_0
   697 00:0420: 0A           	asl	A
   698 00:0421: 0A           	asl	A
   699 00:0422: 0A           	asl	A
   700 00:0423: 65 0C        	adc	<L52+handle_0
   701 00:0425: 85 01        	sta	<R0
   702 00:0427: A9 00 00     	lda	#$0
   703 00:042A: A6 01        	ldx	<R0
   704 00:042C: 9D xx xx     	sta	|~~fileinfo+4,X
   705 00:042F: A5 0C        	lda	<L52+handle_0
   706 00:0431: 0A           	asl	A
   707 00:0432: 0A           	asl	A
   708 00:0433: 0A           	asl	A
   709 00:0434: 65 0C        	adc	<L52+handle_0
   710 00:0436: 85 01        	sta	<R0
   711 00:0438: E2 20        	sep	#$20
   712                        	longa	off
   713 00:043A: A9 00        	lda	#$0
   714 00:043C: A6 01        	ldx	<R0
   715 00:043E: 9D xx xx     	sta	|~~fileinfo+8,X
   716 00:0441: C2 20        	rep	#$20
   717                        	longa	on
   718                        L54:
   719 00:0443: A5 0A        	lda	<L52+2
   720 00:0445: 85 0C        	sta	<L52+2+2
   721 00:0447: A5 09        	lda	<L52+1
   722 00:0449: 85 0B        	sta	<L52+1+2
   723 00:044B: 2B           	pld
   724 00:044C: 3B           	tsc
   725 00:044D: 18           	clc
   726 00:044E: 69 0A 00     	adc	#L52+2
   727 00:0451: 1B           	tcs
   728 00:0452: 6B           	rtl
   729             00000008   L52	equ	8
   730             00000009   L53	equ	9
   731                        	ends
   732                        	efunc
   733                        	code
   734                        	xdef	~~fileio_close
   735                        	func
   736                        ~~fileio_close:
   737                        	longa	on
   738                        	longi	on
   739 00:0453: 3B           	tsc
   740 00:0454: 38           	sec
   741 00:0455: E9 06 00     	sbc	#L55
   742 00:0458: 1B           	tcs
   743 00:0459: 0B           	phd
   744 00:045A: 5B           	tcd
   745             00000004   handle_0	set	4
   746             00000000   n_1	set	0
   747 00:045B: A5 0A        	lda	<L55+handle_0
   748 00:045D: F0 03        	beq	L57
  Sun Jan  9 2022 20:52                                                Page 14


   749 00:045F: 82 30 00     	brl	L10020
   750                        L57:
   751 00:0462: 64 05        	stz	<L56+n_1
   752                        L10023:
   753 00:0464: A5 05        	lda	<L56+n_1
   754 00:0466: 0A           	asl	A
   755 00:0467: 0A           	asl	A
   756 00:0468: 0A           	asl	A
   757 00:0469: 65 05        	adc	<L56+n_1
   758 00:046B: 85 01        	sta	<R0
   759 00:046D: A6 01        	ldx	<R0
   760 00:046F: BD xx xx     	lda	|~~fileinfo+4,X
   761 00:0472: D0 03        	bne	L58
   762 00:0474: 82 06 00     	brl	L10024
   763                        L58:
   764 00:0477: D4 05        	pei	<L56+n_1
   765 00:0479: 22 xx xx xx  	jsl	~~close_file
   766                        L10024:
   767                        L10021:
   768 00:047D: E6 05        	inc	<L56+n_1
   769 00:047F: 38           	sec
   770 00:0480: A5 05        	lda	<L56+n_1
   771 00:0482: E9 19 00     	sbc	#<$19
   772 00:0485: 70 03        	bvs	L59
   773 00:0487: 49 00 80     	eor	#$8000
   774                        L59:
   775 00:048A: 30 03        	bmi	L60
   776 00:048C: 82 D5 FF     	brl	L10023
   777                        L60:
   778                        L10022:
   779 00:048F: 82 21 00     	brl	L10025
   780                        L10020:
   781 00:0492: D4 0A        	pei	<L55+handle_0
   782 00:0494: 22 xx xx xx  	jsl	~~map_handle
   783 00:0498: 85 05        	sta	<L56+n_1
   784 00:049A: A5 05        	lda	<L56+n_1
   785 00:049C: 0A           	asl	A
   786 00:049D: 0A           	asl	A
   787 00:049E: 0A           	asl	A
   788 00:049F: 65 05        	adc	<L56+n_1
   789 00:04A1: 85 01        	sta	<R0
   790 00:04A3: A6 01        	ldx	<R0
   791 00:04A5: BD xx xx     	lda	|~~fileinfo+4,X
   792 00:04A8: D0 03        	bne	L61
   793 00:04AA: 82 06 00     	brl	L10026
   794                        L61:
   795 00:04AD: D4 05        	pei	<L56+n_1
   796 00:04AF: 22 xx xx xx  	jsl	~~close_file
   797                        L10026:
   798                        L10025:
   799                        L62:
   800 00:04B3: A5 08        	lda	<L55+2
   801 00:04B5: 85 0A        	sta	<L55+2+2
   802 00:04B7: A5 07        	lda	<L55+1
   803 00:04B9: 85 09        	sta	<L55+1+2
   804 00:04BB: 2B           	pld
   805 00:04BC: 3B           	tsc
   806 00:04BD: 18           	clc
  Sun Jan  9 2022 20:52                                                Page 15


   807 00:04BE: 69 08 00     	adc	#L55+2
   808 00:04C1: 1B           	tcs
   809 00:04C2: 6B           	rtl
   810             00000006   L55	equ	6
   811             00000005   L56	equ	5
   812                        	ends
   813                        	efunc
   814                        	code
   815                        	xdef	~~fileio_bget
   816                        	func
   817                        ~~fileio_bget:
   818                        	longa	on
   819                        	longi	on
   820 00:04C3: 3B           	tsc
   821 00:04C4: 38           	sec
   822 00:04C5: E9 0A 00     	sbc	#L63
   823 00:04C8: 1B           	tcs
   824 00:04C9: 0B           	phd
   825 00:04CA: 5B           	tcd
   826             00000004   handle_0	set	4
   827             00000000   ch_1	set	0
   828 00:04CB: D4 0E        	pei	<L63+handle_0
   829 00:04CD: 22 xx xx xx  	jsl	~~map_handle
   830 00:04D1: 85 0E        	sta	<L63+handle_0
   831 00:04D3: A5 0E        	lda	<L63+handle_0
   832 00:04D5: 0A           	asl	A
   833 00:04D6: 0A           	asl	A
   834 00:04D7: 0A           	asl	A
   835 00:04D8: 65 0E        	adc	<L63+handle_0
   836 00:04DA: 85 01        	sta	<R0
   837 00:04DC: A6 01        	ldx	<R0
   838 00:04DE: BD xx xx     	lda	|~~fileinfo+6,X
   839 00:04E1: D0 03        	bne	L65
   840 00:04E3: 82 1E 00     	brl	L10027
   841                        L65:
   842 00:04E6: A5 0E        	lda	<L63+handle_0
   843 00:04E8: 0A           	asl	A
   844 00:04E9: 0A           	asl	A
   845 00:04EA: 0A           	asl	A
   846 00:04EB: 65 0E        	adc	<L63+handle_0
   847 00:04ED: 85 01        	sta	<R0
   848 00:04EF: A9 02 00     	lda	#$2
   849 00:04F2: A6 01        	ldx	<R0
   850 00:04F4: 9D xx xx     	sta	|~~fileinfo+6,X
   851 00:04F7: F4 74 00     	pea	#<$74
   852 00:04FA: F4 04 00     	pea	#4
   853 00:04FD: 22 xx xx xx  	jsl	~~error
   854 00:0501: 82 29 00     	brl	L10028
   855                        L10027:
   856 00:0504: A5 0E        	lda	<L63+handle_0
   857 00:0506: 0A           	asl	A
   858 00:0507: 0A           	asl	A
   859 00:0508: 0A           	asl	A
   860 00:0509: 65 0E        	adc	<L63+handle_0
   861 00:050B: 85 01        	sta	<R0
   862 00:050D: A6 01        	ldx	<R0
   863 00:050F: BD xx xx     	lda	|~~fileinfo+4,X
   864 00:0512: C9 03 00     	cmp	#<$3
  Sun Jan  9 2022 20:52                                                Page 16


   865 00:0515: F0 03        	beq	L66
   866 00:0517: 82 13 00     	brl	L10029
   867                        L66:
   868 00:051A: 64 09        	stz	<L64+ch_1
   869 00:051C: A5 0E        	lda	<L63+handle_0
   870 00:051E: 0A           	asl	A
   871 00:051F: 0A           	asl	A
   872 00:0520: 0A           	asl	A
   873 00:0521: 65 0E        	adc	<L63+handle_0
   874 00:0523: 85 01        	sta	<R0
   875 00:0525: A9 01 00     	lda	#$1
   876 00:0528: A6 01        	ldx	<R0
   877 00:052A: 9D xx xx     	sta	|~~fileinfo+6,X
   878                        L10029:
   879                        L10028:
   880 00:052D: A5 0E        	lda	<L63+handle_0
   881 00:052F: 0A           	asl	A
   882 00:0530: 0A           	asl	A
   883 00:0531: 0A           	asl	A
   884 00:0532: 65 0E        	adc	<L63+handle_0
   885 00:0534: 85 01        	sta	<R0
   886 00:0536: A6 01        	ldx	<R0
   887 00:0538: BD xx xx     	lda	|~~fileinfo+8,X
   888 00:053B: 29 FF 00     	and	#$ff
   889 00:053E: D0 03        	bne	L67
   890 00:0540: 82 32 00     	brl	L10030
   891                        L67:
   892 00:0543: A5 0E        	lda	<L63+handle_0
   893 00:0545: 0A           	asl	A
   894 00:0546: 0A           	asl	A
   895 00:0547: 0A           	asl	A
   896 00:0548: 65 0E        	adc	<L63+handle_0
   897 00:054A: 85 01        	sta	<R0
   898 00:054C: 18           	clc
   899 00:054D: A9 xx xx     	lda	#<~~fileinfo
   900 00:0550: 65 01        	adc	<R0
   901 00:0552: 85 05        	sta	<R1
   902 00:0554: A0 02 00     	ldy	#$2
   903 00:0557: B1 05        	lda	(<R1),Y
   904 00:0559: 48           	pha
   905 00:055A: B2 05        	lda	(<R1)
   906 00:055C: 48           	pha
   907 00:055D: 22 xx xx xx  	jsl	~~fflush
   908 00:0561: A5 0E        	lda	<L63+handle_0
   909 00:0563: 0A           	asl	A
   910 00:0564: 0A           	asl	A
   911 00:0565: 0A           	asl	A
   912 00:0566: 65 0E        	adc	<L63+handle_0
   913 00:0568: 85 01        	sta	<R0
   914 00:056A: E2 20        	sep	#$20
   915                        	longa	off
   916 00:056C: A9 00        	lda	#$0
   917 00:056E: A6 01        	ldx	<R0
   918 00:0570: 9D xx xx     	sta	|~~fileinfo+8,X
   919 00:0573: C2 20        	rep	#$20
   920                        	longa	on
   921                        L10030:
   922 00:0575: A5 0E        	lda	<L63+handle_0
  Sun Jan  9 2022 20:52                                                Page 17


   923 00:0577: 0A           	asl	A
   924 00:0578: 0A           	asl	A
   925 00:0579: 0A           	asl	A
   926 00:057A: 65 0E        	adc	<L63+handle_0
   927 00:057C: 85 01        	sta	<R0
   928 00:057E: 18           	clc
   929 00:057F: A9 xx xx     	lda	#<~~fileinfo
   930 00:0582: 65 01        	adc	<R0
   931 00:0584: 85 05        	sta	<R1
   932 00:0586: A0 02 00     	ldy	#$2
   933 00:0589: B1 05        	lda	(<R1),Y
   934 00:058B: 48           	pha
   935 00:058C: B2 05        	lda	(<R1)
   936 00:058E: 48           	pha
   937 00:058F: 22 xx xx xx  	jsl	~~fgetc
   938 00:0593: 85 09        	sta	<L64+ch_1
   939 00:0595: A5 09        	lda	<L64+ch_1
   940 00:0597: C9 FF FF     	cmp	#<$ffffffff
   941 00:059A: F0 03        	beq	L68
   942 00:059C: 82 13 00     	brl	L10031
   943                        L68:
   944 00:059F: A5 0E        	lda	<L63+handle_0
   945 00:05A1: 0A           	asl	A
   946 00:05A2: 0A           	asl	A
   947 00:05A3: 0A           	asl	A
   948 00:05A4: 65 0E        	adc	<L63+handle_0
   949 00:05A6: 85 01        	sta	<R0
   950 00:05A8: A9 01 00     	lda	#$1
   951 00:05AB: A6 01        	ldx	<R0
   952 00:05AD: 9D xx xx     	sta	|~~fileinfo+6,X
   953 00:05B0: 64 09        	stz	<L64+ch_1
   954                        L10031:
   955 00:05B2: A5 0E        	lda	<L63+handle_0
   956 00:05B4: 0A           	asl	A
   957 00:05B5: 0A           	asl	A
   958 00:05B6: 0A           	asl	A
   959 00:05B7: 65 0E        	adc	<L63+handle_0
   960 00:05B9: 85 01        	sta	<R0
   961 00:05BB: E2 20        	sep	#$20
   962                        	longa	off
   963 00:05BD: A9 00        	lda	#$0
   964 00:05BF: A6 01        	ldx	<R0
   965 00:05C1: 9D xx xx     	sta	|~~fileinfo+8,X
   966 00:05C4: C2 20        	rep	#$20
   967                        	longa	on
   968 00:05C6: A5 09        	lda	<L64+ch_1
   969                        L69:
   970 00:05C8: A8           	tay
   971 00:05C9: A5 0C        	lda	<L63+2
   972 00:05CB: 85 0E        	sta	<L63+2+2
   973 00:05CD: A5 0B        	lda	<L63+1
   974 00:05CF: 85 0D        	sta	<L63+1+2
   975 00:05D1: 2B           	pld
   976 00:05D2: 3B           	tsc
   977 00:05D3: 18           	clc
   978 00:05D4: 69 0C 00     	adc	#L63+2
   979 00:05D7: 1B           	tcs
   980 00:05D8: 98           	tya
  Sun Jan  9 2022 20:52                                                Page 18


   981 00:05D9: 6B           	rtl
   982             0000000A   L63	equ	10
   983             00000009   L64	equ	9
   984                        	ends
   985                        	efunc
   986                        	code
   987                        	xdef	~~fileio_getdol
   988                        	func
   989                        ~~fileio_getdol:
   990                        	longa	on
   991                        	longi	on
   992 00:05DA: 3B           	tsc
   993 00:05DB: 38           	sec
   994 00:05DC: E9 0E 00     	sbc	#L70
   995 00:05DF: 1B           	tcs
   996 00:05E0: 0B           	phd
   997 00:05E1: 5B           	tcd
   998             00000004   handle_0	set	4
   999             00000006   buffer_0	set	6
  1000             00000000   p_1	set	0
  1001             00000004   length_1	set	4
  1002 00:05E2: D4 12        	pei	<L70+handle_0
  1003 00:05E4: 22 xx xx xx  	jsl	~~map_handle
  1004 00:05E8: 85 12        	sta	<L70+handle_0
  1005 00:05EA: A5 12        	lda	<L70+handle_0
  1006 00:05EC: 0A           	asl	A
  1007 00:05ED: 0A           	asl	A
  1008 00:05EE: 0A           	asl	A
  1009 00:05EF: 65 12        	adc	<L70+handle_0
  1010 00:05F1: 85 01        	sta	<R0
  1011 00:05F3: A6 01        	ldx	<R0
  1012 00:05F5: BD xx xx     	lda	|~~fileinfo+6,X
  1013 00:05F8: D0 03        	bne	L72
  1014 00:05FA: 82 1B 00     	brl	L10032
  1015                        L72:
  1016 00:05FD: A5 12        	lda	<L70+handle_0
  1017 00:05FF: 0A           	asl	A
  1018 00:0600: 0A           	asl	A
  1019 00:0601: 0A           	asl	A
  1020 00:0602: 65 12        	adc	<L70+handle_0
  1021 00:0604: 85 01        	sta	<R0
  1022 00:0606: A9 02 00     	lda	#$2
  1023 00:0609: A6 01        	ldx	<R0
  1024 00:060B: 9D xx xx     	sta	|~~fileinfo+6,X
  1025 00:060E: F4 74 00     	pea	#<$74
  1026 00:0611: F4 04 00     	pea	#4
  1027 00:0614: 22 xx xx xx  	jsl	~~error
  1028                        L10032:
  1029 00:0618: A5 12        	lda	<L70+handle_0
  1030 00:061A: 0A           	asl	A
  1031 00:061B: 0A           	asl	A
  1032 00:061C: 0A           	asl	A
  1033 00:061D: 65 12        	adc	<L70+handle_0
  1034 00:061F: 85 01        	sta	<R0
  1035 00:0621: A6 01        	ldx	<R0
  1036 00:0623: BD xx xx     	lda	|~~fileinfo+8,X
  1037 00:0626: 29 FF 00     	and	#$ff
  1038 00:0629: D0 03        	bne	L73
  Sun Jan  9 2022 20:52                                                Page 19


  1039 00:062B: 82 32 00     	brl	L10033
  1040                        L73:
  1041 00:062E: A5 12        	lda	<L70+handle_0
  1042 00:0630: 0A           	asl	A
  1043 00:0631: 0A           	asl	A
  1044 00:0632: 0A           	asl	A
  1045 00:0633: 65 12        	adc	<L70+handle_0
  1046 00:0635: 85 01        	sta	<R0
  1047 00:0637: 18           	clc
  1048 00:0638: A9 xx xx     	lda	#<~~fileinfo
  1049 00:063B: 65 01        	adc	<R0
  1050 00:063D: 85 05        	sta	<R1
  1051 00:063F: A0 02 00     	ldy	#$2
  1052 00:0642: B1 05        	lda	(<R1),Y
  1053 00:0644: 48           	pha
  1054 00:0645: B2 05        	lda	(<R1)
  1055 00:0647: 48           	pha
  1056 00:0648: 22 xx xx xx  	jsl	~~fflush
  1057 00:064C: A5 12        	lda	<L70+handle_0
  1058 00:064E: 0A           	asl	A
  1059 00:064F: 0A           	asl	A
  1060 00:0650: 0A           	asl	A
  1061 00:0651: 65 12        	adc	<L70+handle_0
  1062 00:0653: 85 01        	sta	<R0
  1063 00:0655: E2 20        	sep	#$20
  1064                        	longa	off
  1065 00:0657: A9 00        	lda	#$0
  1066 00:0659: A6 01        	ldx	<R0
  1067 00:065B: 9D xx xx     	sta	|~~fileinfo+8,X
  1068 00:065E: C2 20        	rep	#$20
  1069                        	longa	on
  1070                        L10033:
  1071 00:0660: A5 12        	lda	<L70+handle_0
  1072 00:0662: 0A           	asl	A
  1073 00:0663: 0A           	asl	A
  1074 00:0664: 0A           	asl	A
  1075 00:0665: 65 12        	adc	<L70+handle_0
  1076 00:0667: 85 01        	sta	<R0
  1077 00:0669: 18           	clc
  1078 00:066A: A9 xx xx     	lda	#<~~fileinfo
  1079 00:066D: 65 01        	adc	<R0
  1080 00:066F: 85 05        	sta	<R1
  1081 00:0671: A0 02 00     	ldy	#$2
  1082 00:0674: B1 05        	lda	(<R1),Y
  1083 00:0676: 48           	pha
  1084 00:0677: B2 05        	lda	(<R1)
  1085 00:0679: 48           	pha
  1086 00:067A: F4 00 10     	pea	#<$1000
  1087 00:067D: D4 16        	pei	<L70+buffer_0+2
  1088 00:067F: D4 14        	pei	<L70+buffer_0
  1089 00:0681: 22 xx xx xx  	jsl	~~fgets
  1090 00:0685: 85 09        	sta	<L71+p_1
  1091 00:0687: 86 0B        	stx	<L71+p_1+2
  1092 00:0689: A5 09        	lda	<L71+p_1
  1093 00:068B: 05 0B        	ora	<L71+p_1+2
  1094 00:068D: F0 03        	beq	L74
  1095 00:068F: 82 0A 00     	brl	L10034
  1096                        L74:
  Sun Jan  9 2022 20:52                                                Page 20


  1097 00:0692: F4 72 00     	pea	#<$72
  1098 00:0695: F4 04 00     	pea	#4
  1099 00:0698: 22 xx xx xx  	jsl	~~error
  1100                        L10034:
  1101 00:069C: D4 16        	pei	<L70+buffer_0+2
  1102 00:069E: D4 14        	pei	<L70+buffer_0
  1103 00:06A0: 22 xx xx xx  	jsl	~~strlen
  1104 00:06A4: 85 0D        	sta	<L71+length_1
  1105 00:06A6: A0 00 00     	ldy	#$0
  1106 00:06A9: A5 0D        	lda	<L71+length_1
  1107 00:06AB: 10 01        	bpl	L75
  1108 00:06AD: 88           	dey
  1109                        L75:
  1110 00:06AE: 85 01        	sta	<R0
  1111 00:06B0: 84 03        	sty	<R0+2
  1112 00:06B2: 18           	clc
  1113 00:06B3: A9 FF FF     	lda	#$ffff
  1114 00:06B6: 65 01        	adc	<R0
  1115 00:06B8: 85 05        	sta	<R1
  1116 00:06BA: A9 FF FF     	lda	#$ffff
  1117 00:06BD: 65 03        	adc	<R0+2
  1118 00:06BF: 85 07        	sta	<R1+2
  1119 00:06C1: 18           	clc
  1120 00:06C2: A5 14        	lda	<L70+buffer_0
  1121 00:06C4: 65 05        	adc	<R1
  1122 00:06C6: 85 09        	sta	<L71+p_1
  1123 00:06C8: A5 16        	lda	<L70+buffer_0+2
  1124 00:06CA: 65 07        	adc	<R1+2
  1125 00:06CC: 85 0B        	sta	<L71+p_1+2
  1126 00:06CE: E2 20        	sep	#$20
  1127                        	longa	off
  1128 00:06D0: A7 09        	lda	[<L71+p_1]
  1129 00:06D2: C9 0A        	cmp	#<$a
  1130 00:06D4: C2 20        	rep	#$20
  1131                        	longa	on
  1132 00:06D6: F0 03        	beq	L76
  1133 00:06D8: 82 30 00     	brl	L10035
  1134                        L76:
  1135 00:06DB: C6 0D        	dec	<L71+length_1
  1136 00:06DD: 38           	sec
  1137 00:06DE: A9 00 00     	lda	#$0
  1138 00:06E1: E5 0D        	sbc	<L71+length_1
  1139 00:06E3: 70 03        	bvs	L77
  1140 00:06E5: 49 00 80     	eor	#$8000
  1141                        L77:
  1142 00:06E8: 10 03        	bpl	L78
  1143 00:06EA: 82 1E 00     	brl	L10036
  1144                        L78:
  1145 00:06ED: 18           	clc
  1146 00:06EE: A9 FF FF     	lda	#$ffff
  1147 00:06F1: 65 09        	adc	<L71+p_1
  1148 00:06F3: 85 01        	sta	<R0
  1149 00:06F5: A9 FF FF     	lda	#$ffff
  1150 00:06F8: 65 0B        	adc	<L71+p_1+2
  1151 00:06FA: 85 03        	sta	<R0+2
  1152 00:06FC: E2 20        	sep	#$20
  1153                        	longa	off
  1154 00:06FE: A7 01        	lda	[<R0]
  Sun Jan  9 2022 20:52                                                Page 21


  1155 00:0700: C9 0D        	cmp	#<$d
  1156 00:0702: C2 20        	rep	#$20
  1157                        	longa	on
  1158 00:0704: F0 03        	beq	L79
  1159 00:0706: 82 02 00     	brl	L10036
  1160                        L79:
  1161 00:0709: C6 0D        	dec	<L71+length_1
  1162                        L10036:
  1163                        L10035:
  1164 00:070B: A5 0D        	lda	<L71+length_1
  1165                        L80:
  1166 00:070D: A8           	tay
  1167 00:070E: A5 10        	lda	<L70+2
  1168 00:0710: 85 16        	sta	<L70+2+6
  1169 00:0712: A5 0F        	lda	<L70+1
  1170 00:0714: 85 15        	sta	<L70+1+6
  1171 00:0716: 2B           	pld
  1172 00:0717: 3B           	tsc
  1173 00:0718: 18           	clc
  1174 00:0719: 69 14 00     	adc	#L70+6
  1175 00:071C: 1B           	tcs
  1176 00:071D: 98           	tya
  1177 00:071E: 6B           	rtl
  1178             0000000E   L70	equ	14
  1179             00000009   L71	equ	9
  1180                        	ends
  1181                        	efunc
  1182                        	code
  1183                        	func
  1184                        ~~read:
  1185                        	longa	on
  1186                        	longi	on
  1187 00:071F: 3B           	tsc
  1188 00:0720: 38           	sec
  1189 00:0721: E9 02 00     	sbc	#L81
  1190 00:0724: 1B           	tcs
  1191 00:0725: 0B           	phd
  1192 00:0726: 5B           	tcd
  1193             00000004   handle_0	set	4
  1194             00000000   ch_1	set	0
  1195 00:0727: D4 08        	pei	<L81+handle_0+2
  1196 00:0729: D4 06        	pei	<L81+handle_0
  1197 00:072B: 22 xx xx xx  	jsl	~~fgetc
  1198 00:072F: 85 01        	sta	<L82+ch_1
  1199 00:0731: A5 01        	lda	<L82+ch_1
  1200 00:0733: C9 FF FF     	cmp	#<$ffffffff
  1201 00:0736: F0 03        	beq	L83
  1202 00:0738: 82 0A 00     	brl	L10037
  1203                        L83:
  1204 00:073B: F4 72 00     	pea	#<$72
  1205 00:073E: F4 04 00     	pea	#4
  1206 00:0741: 22 xx xx xx  	jsl	~~error
  1207                        L10037:
  1208 00:0745: A5 01        	lda	<L82+ch_1
  1209                        L84:
  1210 00:0747: A8           	tay
  1211 00:0748: A5 04        	lda	<L81+2
  1212 00:074A: 85 08        	sta	<L81+2+4
  Sun Jan  9 2022 20:52                                                Page 22


  1213 00:074C: A5 03        	lda	<L81+1
  1214 00:074E: 85 07        	sta	<L81+1+4
  1215 00:0750: 2B           	pld
  1216 00:0751: 3B           	tsc
  1217 00:0752: 18           	clc
  1218 00:0753: 69 06 00     	adc	#L81+4
  1219 00:0756: 1B           	tcs
  1220 00:0757: 98           	tya
  1221 00:0758: 6B           	rtl
  1222             00000002   L81	equ	2
  1223             00000001   L82	equ	1
  1224                        	ends
  1225                        	efunc
  1226                        	code
  1227                        	xdef	~~fileio_getnumber
  1228                        	func
  1229                        ~~fileio_getnumber:
  1230                        	longa	on
  1231                        	longi	on
  1232 00:0759: 3B           	tsc
  1233 00:075A: 38           	sec
  1234 00:075B: E9 18 00     	sbc	#L85
  1235 00:075E: 1B           	tcs
  1236 00:075F: 0B           	phd
  1237 00:0760: 5B           	tcd
  1238             00000004   handle_0	set	4
  1239             00000006   isint_0	set	6
  1240             0000000A   ip_0	set	10
  1241             0000000E   fp_0	set	14
  1242             00000000   stream_1	set	0
  1243             00000004   n_1	set	4
  1244             00000006   marker_1	set	6
  1245             00000008   temp_1	set	8
  1246 00:0761: D4 1C        	pei	<L85+handle_0
  1247 00:0763: 22 xx xx xx  	jsl	~~map_handle
  1248 00:0767: 85 1C        	sta	<L85+handle_0
  1249 00:0769: A5 1C        	lda	<L85+handle_0
  1250 00:076B: 0A           	asl	A
  1251 00:076C: 0A           	asl	A
  1252 00:076D: 0A           	asl	A
  1253 00:076E: 65 1C        	adc	<L85+handle_0
  1254 00:0770: 85 01        	sta	<R0
  1255 00:0772: A6 01        	ldx	<R0
  1256 00:0774: BD xx xx     	lda	|~~fileinfo+6,X
  1257 00:0777: D0 03        	bne	L87
  1258 00:0779: 82 1B 00     	brl	L10038
  1259                        L87:
  1260 00:077C: A5 1C        	lda	<L85+handle_0
  1261 00:077E: 0A           	asl	A
  1262 00:077F: 0A           	asl	A
  1263 00:0780: 0A           	asl	A
  1264 00:0781: 65 1C        	adc	<L85+handle_0
  1265 00:0783: 85 01        	sta	<R0
  1266 00:0785: A9 02 00     	lda	#$2
  1267 00:0788: A6 01        	ldx	<R0
  1268 00:078A: 9D xx xx     	sta	|~~fileinfo+6,X
  1269 00:078D: F4 74 00     	pea	#<$74
  1270 00:0790: F4 04 00     	pea	#4
  Sun Jan  9 2022 20:52                                                Page 23


  1271 00:0793: 22 xx xx xx  	jsl	~~error
  1272                        L10038:
  1273 00:0797: A5 1C        	lda	<L85+handle_0
  1274 00:0799: 0A           	asl	A
  1275 00:079A: 0A           	asl	A
  1276 00:079B: 0A           	asl	A
  1277 00:079C: 65 1C        	adc	<L85+handle_0
  1278 00:079E: 85 01        	sta	<R0
  1279 00:07A0: A6 01        	ldx	<R0
  1280 00:07A2: BD xx xx     	lda	|~~fileinfo+8,X
  1281 00:07A5: 29 FF 00     	and	#$ff
  1282 00:07A8: D0 03        	bne	L88
  1283 00:07AA: 82 32 00     	brl	L10039
  1284                        L88:
  1285 00:07AD: A5 1C        	lda	<L85+handle_0
  1286 00:07AF: 0A           	asl	A
  1287 00:07B0: 0A           	asl	A
  1288 00:07B1: 0A           	asl	A
  1289 00:07B2: 65 1C        	adc	<L85+handle_0
  1290 00:07B4: 85 01        	sta	<R0
  1291 00:07B6: 18           	clc
  1292 00:07B7: A9 xx xx     	lda	#<~~fileinfo
  1293 00:07BA: 65 01        	adc	<R0
  1294 00:07BC: 85 05        	sta	<R1
  1295 00:07BE: A0 02 00     	ldy	#$2
  1296 00:07C1: B1 05        	lda	(<R1),Y
  1297 00:07C3: 48           	pha
  1298 00:07C4: B2 05        	lda	(<R1)
  1299 00:07C6: 48           	pha
  1300 00:07C7: 22 xx xx xx  	jsl	~~fflush
  1301 00:07CB: A5 1C        	lda	<L85+handle_0
  1302 00:07CD: 0A           	asl	A
  1303 00:07CE: 0A           	asl	A
  1304 00:07CF: 0A           	asl	A
  1305 00:07D0: 65 1C        	adc	<L85+handle_0
  1306 00:07D2: 85 01        	sta	<R0
  1307 00:07D4: E2 20        	sep	#$20
  1308                        	longa	off
  1309 00:07D6: A9 00        	lda	#$0
  1310 00:07D8: A6 01        	ldx	<R0
  1311 00:07DA: 9D xx xx     	sta	|~~fileinfo+8,X
  1312 00:07DD: C2 20        	rep	#$20
  1313                        	longa	on
  1314                        L10039:
  1315 00:07DF: A5 1C        	lda	<L85+handle_0
  1316 00:07E1: 0A           	asl	A
  1317 00:07E2: 0A           	asl	A
  1318 00:07E3: 0A           	asl	A
  1319 00:07E4: 65 1C        	adc	<L85+handle_0
  1320 00:07E6: 85 01        	sta	<R0
  1321 00:07E8: 18           	clc
  1322 00:07E9: A9 xx xx     	lda	#<~~fileinfo
  1323 00:07EC: 65 01        	adc	<R0
  1324 00:07EE: 85 05        	sta	<R1
  1325 00:07F0: B2 05        	lda	(<R1)
  1326 00:07F2: 85 09        	sta	<L86+stream_1
  1327 00:07F4: A0 02 00     	ldy	#$2
  1328 00:07F7: B1 05        	lda	(<R1),Y
  Sun Jan  9 2022 20:52                                                Page 24


  1329 00:07F9: 85 0B        	sta	<L86+stream_1+2
  1330 00:07FB: D4 0B        	pei	<L86+stream_1+2
  1331 00:07FD: D4 09        	pei	<L86+stream_1
  1332 00:07FF: 22 xx xx xx  	jsl	~~read
  1333 00:0803: 85 0F        	sta	<L86+marker_1
  1334 00:0805: A5 0F        	lda	<L86+marker_1
  1335 00:0807: 82 40 02     	brl	L10040
  1336                        L10042:
  1337 00:080A: A9 00 00     	lda	#$0
  1338 00:080D: 87 22        	sta	[<L85+ip_0]
  1339 00:080F: A9 18 00     	lda	#$18
  1340 00:0812: 85 0D        	sta	<L86+n_1
  1341                        L10045:
  1342 00:0814: D4 0B        	pei	<L86+stream_1+2
  1343 00:0816: D4 09        	pei	<L86+stream_1
  1344 00:0818: 22 xx xx xx  	jsl	~~read
  1345 00:081C: A6 0D        	ldx	<L86+n_1
  1346                        	xref	~~~asl
  1347 00:081E: 22 xx xx xx  	jsl	~~~asl
  1348 00:0822: 85 01        	sta	<R0
  1349 00:0824: A7 22        	lda	[<L85+ip_0]
  1350 00:0826: 05 01        	ora	<R0
  1351 00:0828: 87 22        	sta	[<L85+ip_0]
  1352                        L10043:
  1353 00:082A: 18           	clc
  1354 00:082B: A9 F8 FF     	lda	#$fff8
  1355 00:082E: 65 0D        	adc	<L86+n_1
  1356 00:0830: 85 0D        	sta	<L86+n_1
  1357 00:0832: A5 0D        	lda	<L86+n_1
  1358 00:0834: 30 03        	bmi	L89
  1359 00:0836: 82 DB FF     	brl	L10045
  1360                        L89:
  1361                        L10044:
  1362 00:0839: E2 20        	sep	#$20
  1363                        	longa	off
  1364 00:083B: A9 01        	lda	#$1
  1365 00:083D: 87 1E        	sta	[<L85+isint_0]
  1366 00:083F: C2 20        	rep	#$20
  1367                        	longa	on
  1368 00:0841: 82 1A 02     	brl	L10041
  1369                        L10046:
  1370 00:0844: AD xx xx     	lda	|~~double_type
  1371 00:0847: 82 A5 00     	brl	L10047
  1372                        L10049:
  1373 00:084A: 64 0D        	stz	<L86+n_1
  1374 00:084C: 82 12 00     	brl	L10053
  1375                        L10052:
  1376 00:084F: D4 0B        	pei	<L86+stream_1+2
  1377 00:0851: D4 09        	pei	<L86+stream_1
  1378 00:0853: 22 xx xx xx  	jsl	~~read
  1379 00:0857: E2 20        	sep	#$20
  1380                        	longa	off
  1381 00:0859: A6 0D        	ldx	<L86+n_1
  1382 00:085B: 95 11        	sta	<L86+temp_1,X
  1383 00:085D: C2 20        	rep	#$20
  1384                        	longa	on
  1385                        L10050:
  1386 00:085F: E6 0D        	inc	<L86+n_1
  Sun Jan  9 2022 20:52                                                Page 25


  1387                        L10053:
  1388 00:0861: A5 0D        	lda	<L86+n_1
  1389 00:0863: C9 04 00     	cmp	#<$4
  1390 00:0866: B0 03        	bcs	L90
  1391 00:0868: 82 E4 FF     	brl	L10052
  1392                        L90:
  1393                        L10051:
  1394 00:086B: 82 93 00     	brl	L10048
  1395                        L10054:
  1396 00:086E: 64 0D        	stz	<L86+n_1
  1397 00:0870: 82 19 00     	brl	L10058
  1398                        L10057:
  1399 00:0873: A5 0D        	lda	<L86+n_1
  1400 00:0875: 49 04 00     	eor	#<$4
  1401 00:0878: 85 01        	sta	<R0
  1402 00:087A: D4 0B        	pei	<L86+stream_1+2
  1403 00:087C: D4 09        	pei	<L86+stream_1
  1404 00:087E: 22 xx xx xx  	jsl	~~read
  1405 00:0882: E2 20        	sep	#$20
  1406                        	longa	off
  1407 00:0884: A6 01        	ldx	<R0
  1408 00:0886: 95 11        	sta	<L86+temp_1,X
  1409 00:0888: C2 20        	rep	#$20
  1410                        	longa	on
  1411                        L10055:
  1412 00:088A: E6 0D        	inc	<L86+n_1
  1413                        L10058:
  1414 00:088C: A5 0D        	lda	<L86+n_1
  1415 00:088E: C9 04 00     	cmp	#<$4
  1416 00:0891: B0 03        	bcs	L91
  1417 00:0893: 82 DD FF     	brl	L10057
  1418                        L91:
  1419                        L10056:
  1420 00:0896: 82 68 00     	brl	L10048
  1421                        L10059:
  1422 00:0899: 64 0D        	stz	<L86+n_1
  1423 00:089B: 82 19 00     	brl	L10063
  1424                        L10062:
  1425 00:089E: A5 0D        	lda	<L86+n_1
  1426 00:08A0: 49 03 00     	eor	#<$3
  1427 00:08A3: 85 01        	sta	<R0
  1428 00:08A5: D4 0B        	pei	<L86+stream_1+2
  1429 00:08A7: D4 09        	pei	<L86+stream_1
  1430 00:08A9: 22 xx xx xx  	jsl	~~read
  1431 00:08AD: E2 20        	sep	#$20
  1432                        	longa	off
  1433 00:08AF: A6 01        	ldx	<R0
  1434 00:08B1: 95 11        	sta	<L86+temp_1,X
  1435 00:08B3: C2 20        	rep	#$20
  1436                        	longa	on
  1437                        L10060:
  1438 00:08B5: E6 0D        	inc	<L86+n_1
  1439                        L10063:
  1440 00:08B7: A5 0D        	lda	<L86+n_1
  1441 00:08B9: C9 04 00     	cmp	#<$4
  1442 00:08BC: B0 03        	bcs	L92
  1443 00:08BE: 82 DD FF     	brl	L10062
  1444                        L92:
  Sun Jan  9 2022 20:52                                                Page 26


  1445                        L10061:
  1446 00:08C1: 82 3D 00     	brl	L10048
  1447                        L10064:
  1448 00:08C4: 64 0D        	stz	<L86+n_1
  1449 00:08C6: 82 19 00     	brl	L10068
  1450                        L10067:
  1451 00:08C9: A5 0D        	lda	<L86+n_1
  1452 00:08CB: 49 07 00     	eor	#<$7
  1453 00:08CE: 85 01        	sta	<R0
  1454 00:08D0: D4 0B        	pei	<L86+stream_1+2
  1455 00:08D2: D4 09        	pei	<L86+stream_1
  1456 00:08D4: 22 xx xx xx  	jsl	~~read
  1457 00:08D8: E2 20        	sep	#$20
  1458                        	longa	off
  1459 00:08DA: A6 01        	ldx	<R0
  1460 00:08DC: 95 11        	sta	<L86+temp_1,X
  1461 00:08DE: C2 20        	rep	#$20
  1462                        	longa	on
  1463                        L10065:
  1464 00:08E0: E6 0D        	inc	<L86+n_1
  1465                        L10068:
  1466 00:08E2: A5 0D        	lda	<L86+n_1
  1467 00:08E4: C9 04 00     	cmp	#<$4
  1468 00:08E7: B0 03        	bcs	L93
  1469 00:08E9: 82 DD FF     	brl	L10067
  1470                        L93:
  1471                        L10066:
  1472 00:08EC: 82 12 00     	brl	L10048
  1473                        L10047:
  1474                        	xref	~~~fsw
  1475 00:08EF: 22 xx xx xx  	jsl	~~~fsw
  1476 00:08F3: 00 00        	dw	0
  1477 00:08F5: 04 00        	dw	4
  1478 00:08F7: xx xx        	dw	L10048-1
  1479 00:08F9: xx xx        	dw	L10049-1
  1480 00:08FB: xx xx        	dw	L10054-1
  1481 00:08FD: xx xx        	dw	L10059-1
  1482 00:08FF: xx xx        	dw	L10064-1
  1483                        L10048:
  1484 00:0901: F4 00 00     	pea	#^$4
  1485 00:0904: F4 04 00     	pea	#<$4
  1486 00:0907: F4 00 00     	pea	#0
  1487 00:090A: 18           	clc
  1488 00:090B: 7B           	tdc
  1489 00:090C: 69 11 00     	adc	#<L86+temp_1
  1490 00:090F: 48           	pha
  1491 00:0910: D4 28        	pei	<L85+fp_0+2
  1492 00:0912: D4 26        	pei	<L85+fp_0
  1493 00:0914: 22 xx xx xx  	jsl	~~memmove
  1494 00:0918: E2 20        	sep	#$20
  1495                        	longa	off
  1496 00:091A: A9 00        	lda	#$0
  1497 00:091C: 87 1E        	sta	[<L85+isint_0]
  1498 00:091E: C2 20        	rep	#$20
  1499                        	longa	on
  1500 00:0920: 82 3B 01     	brl	L10041
  1501                        L10069:
  1502             0000000C   exponent_2	set	12
  Sun Jan  9 2022 20:52                                                Page 27


  1503             0000000E   mantissa_2	set	14
  1504 00:0923: D4 0B        	pei	<L86+stream_1+2
  1505 00:0925: D4 09        	pei	<L86+stream_1
  1506 00:0927: 22 xx xx xx  	jsl	~~read
  1507 00:092B: 85 17        	sta	<L86+mantissa_2
  1508 00:092D: D4 0B        	pei	<L86+stream_1+2
  1509 00:092F: D4 09        	pei	<L86+stream_1
  1510 00:0931: 22 xx xx xx  	jsl	~~read
  1511 00:0935: 85 05        	sta	<R1
  1512 00:0937: A5 05        	lda	<R1
  1513 00:0939: EB           	xba
  1514 00:093A: 29 00 FF     	and	#$ff00
  1515 00:093D: 85 01        	sta	<R0
  1516 00:093F: A5 01        	lda	<R0
  1517 00:0941: 04 17        	tsb	<L86+mantissa_2
  1518 00:0943: D4 0B        	pei	<L86+stream_1+2
  1519 00:0945: D4 09        	pei	<L86+stream_1
  1520 00:0947: 22 xx xx xx  	jsl	~~read
  1521 00:094B: A2 10 00     	ldx	#<$10
  1522                        	xref	~~~asl
  1523 00:094E: 22 xx xx xx  	jsl	~~~asl
  1524 00:0952: 85 01        	sta	<R0
  1525 00:0954: A5 01        	lda	<R0
  1526 00:0956: 04 17        	tsb	<L86+mantissa_2
  1527 00:0958: D4 0B        	pei	<L86+stream_1+2
  1528 00:095A: D4 09        	pei	<L86+stream_1
  1529 00:095C: 22 xx xx xx  	jsl	~~read
  1530 00:0960: A2 18 00     	ldx	#<$18
  1531                        	xref	~~~asl
  1532 00:0963: 22 xx xx xx  	jsl	~~~asl
  1533 00:0967: 85 01        	sta	<R0
  1534 00:0969: A5 01        	lda	<R0
  1535 00:096B: 04 17        	tsb	<L86+mantissa_2
  1536 00:096D: D4 0B        	pei	<L86+stream_1+2
  1537 00:096F: D4 09        	pei	<L86+stream_1
  1538 00:0971: 22 xx xx xx  	jsl	~~read
  1539 00:0975: 85 15        	sta	<L86+exponent_2
  1540 00:0977: A5 15        	lda	<L86+exponent_2
  1541 00:0979: F0 03        	beq	L95
  1542 00:097B: 82 07 00     	brl	L94
  1543                        L95:
  1544 00:097E: A5 17        	lda	<L86+mantissa_2
  1545 00:0980: D0 03        	bne	L96
  1546 00:0982: 82 A0 00     	brl	L10070
  1547                        L96:
  1548                        L94:
  1549 00:0985: A5 17        	lda	<L86+mantissa_2
  1550 00:0987: 30 03        	bmi	L98
  1551 00:0989: 82 05 00     	brl	L97
  1552                        L98:
  1553 00:098C: A9 FF FF     	lda	#$ffff
  1554 00:098F: 80 03        	bra	L99
  1555                        L97:
  1556 00:0991: A9 01 00     	lda	#$1
  1557                        L99:
  1558 00:0994: 85 01        	sta	<R0
  1559 00:0996: A0 00 00     	ldy	#$0
  1560 00:0999: A5 01        	lda	<R0
  Sun Jan  9 2022 20:52                                                Page 28


  1561 00:099B: 10 01        	bpl	L100
  1562 00:099D: 88           	dey
  1563                        L100:
  1564 00:099E: 5A           	phy
  1565 00:099F: 48           	pha
  1566                        	xref	~~~dflt
  1567 00:09A0: 22 xx xx xx  	jsl	~~~dflt
  1568 00:09A4: F4 E0 3F     	pea	#$3FE0
  1569 00:09A7: F4 00 00     	pea	#$0000
  1570 00:09AA: F4 00 00     	pea	#$0000
  1571 00:09AD: F4 00 00     	pea	#$0000
  1572 00:09B0: F4 F0 41     	pea	#$41F0
  1573 00:09B3: F4 00 00     	pea	#$0000
  1574 00:09B6: F4 00 00     	pea	#$0000
  1575 00:09B9: F4 00 00     	pea	#$0000
  1576 00:09BC: A0 00 00     	ldy	#$0
  1577 00:09BF: A5 17        	lda	<L86+mantissa_2
  1578 00:09C1: 10 01        	bpl	L101
  1579 00:09C3: 88           	dey
  1580                        L101:
  1581 00:09C4: 85 01        	sta	<R0
  1582 00:09C6: 84 03        	sty	<R0+2
  1583 00:09C8: A5 01        	lda	<R0
  1584 00:09CA: 85 05        	sta	<R1
  1585 00:09CC: A5 03        	lda	<R0+2
  1586 00:09CE: 29 FF 7F     	and	#^$7fffffff
  1587 00:09D1: 85 07        	sta	<R1+2
  1588 00:09D3: D4 07        	pei	<R1+2
  1589 00:09D5: D4 05        	pei	<R1
  1590                        	xref	~~~dflt
  1591 00:09D7: 22 xx xx xx  	jsl	~~~dflt
  1592                        	xref	~~~ddiv
  1593 00:09DB: 22 xx xx xx  	jsl	~~~ddiv
  1594                        	xref	~~~dadc
  1595 00:09DF: 22 xx xx xx  	jsl	~~~dadc
  1596 00:09E3: 5A           	phy
  1597 00:09E4: 5A           	phy
  1598 00:09E5: 5A           	phy
  1599 00:09E6: 5A           	phy
  1600 00:09E7: 18           	clc
  1601 00:09E8: A9 80 FF     	lda	#$ff80
  1602 00:09EB: 65 15        	adc	<L86+exponent_2
  1603 00:09ED: 85 01        	sta	<R0
  1604 00:09EF: A0 00 00     	ldy	#$0
  1605 00:09F2: A5 01        	lda	<R0
  1606 00:09F4: 10 01        	bpl	L102
  1607 00:09F6: 88           	dey
  1608                        L102:
  1609 00:09F7: 5A           	phy
  1610 00:09F8: 48           	pha
  1611                        	xref	~~~dflt
  1612 00:09F9: 22 xx xx xx  	jsl	~~~dflt
  1613 00:09FD: F4 00 40     	pea	#$4000
  1614 00:0A00: F4 00 00     	pea	#$0000
  1615 00:0A03: F4 00 00     	pea	#$0000
  1616 00:0A06: F4 00 00     	pea	#$0000
  1617 00:0A09: 22 xx xx xx  	jsl	~~pow
  1618                        	xref	~~~dmul
  Sun Jan  9 2022 20:52                                                Page 29


  1619 00:0A0D: 22 xx xx xx  	jsl	~~~dmul
  1620                        	xref	~~~dmul
  1621 00:0A11: 22 xx xx xx  	jsl	~~~dmul
  1622                        	xref	~~~dtof
  1623 00:0A15: 22 xx xx xx  	jsl	~~~dtof
  1624 00:0A19: 68           	pla
  1625 00:0A1A: 87 26        	sta	[<L85+fp_0]
  1626 00:0A1C: 68           	pla
  1627 00:0A1D: A0 02 00     	ldy	#$2
  1628 00:0A20: 97 26        	sta	[<L85+fp_0],Y
  1629 00:0A22: 82 0D 00     	brl	L10071
  1630                        L10070:
  1631 00:0A25: A9 00 00     	lda	#$0
  1632 00:0A28: 87 26        	sta	[<L85+fp_0]
  1633 00:0A2A: A9 00 00     	lda	#$0
  1634 00:0A2D: A0 02 00     	ldy	#$2
  1635 00:0A30: 97 26        	sta	[<L85+fp_0],Y
  1636                        L10071:
  1637 00:0A32: E2 20        	sep	#$20
  1638                        	longa	off
  1639 00:0A34: A9 00        	lda	#$0
  1640 00:0A36: 87 1E        	sta	[<L85+isint_0]
  1641 00:0A38: C2 20        	rep	#$20
  1642                        	longa	on
  1643 00:0A3A: 82 21 00     	brl	L10041
  1644                        L10072:
  1645 00:0A3D: F4 3F 00     	pea	#<$3f
  1646 00:0A40: F4 04 00     	pea	#4
  1647 00:0A43: 22 xx xx xx  	jsl	~~error
  1648 00:0A47: 82 14 00     	brl	L10041
  1649                        L10040:
  1650                        	xref	~~~swt
  1651 00:0A4A: 22 xx xx xx  	jsl	~~~swt
  1652 00:0A4E: 03 00        	dw	3
  1653 00:0A50: 40 00        	dw	64
  1654 00:0A52: xx xx        	dw	L10042-1
  1655 00:0A54: 80 00        	dw	128
  1656 00:0A56: xx xx        	dw	L10069-1
  1657 00:0A58: 88 00        	dw	136
  1658 00:0A5A: xx xx        	dw	L10046-1
  1659 00:0A5C: xx xx        	dw	L10072-1
  1660                        L10041:
  1661                        L103:
  1662 00:0A5E: A5 1A        	lda	<L85+2
  1663 00:0A60: 85 28        	sta	<L85+2+14
  1664 00:0A62: A5 19        	lda	<L85+1
  1665 00:0A64: 85 27        	sta	<L85+1+14
  1666 00:0A66: 2B           	pld
  1667 00:0A67: 3B           	tsc
  1668 00:0A68: 18           	clc
  1669 00:0A69: 69 26 00     	adc	#L85+14
  1670 00:0A6C: 1B           	tcs
  1671 00:0A6D: 6B           	rtl
  1672             00000018   L85	equ	24
  1673             00000009   L86	equ	9
  1674                        	ends
  1675                        	efunc
  1676                        	code
  Sun Jan  9 2022 20:52                                                Page 30


  1677                        	xdef	~~fileio_getstring
  1678                        	func
  1679                        ~~fileio_getstring:
  1680                        	longa	on
  1681                        	longi	on
  1682 00:0A6E: 3B           	tsc
  1683 00:0A6F: 38           	sec
  1684 00:0A70: E9 12 00     	sbc	#L104
  1685 00:0A73: 1B           	tcs
  1686 00:0A74: 0B           	phd
  1687 00:0A75: 5B           	tcd
  1688             00000004   handle_0	set	4
  1689             00000006   p_0	set	6
  1690             00000000   stream_1	set	0
  1691             00000004   marker_1	set	4
  1692             00000006   length_1	set	6
  1693             00000008   n_1	set	8
  1694 00:0A76: D4 16        	pei	<L104+handle_0
  1695 00:0A78: 22 xx xx xx  	jsl	~~map_handle
  1696 00:0A7C: 85 16        	sta	<L104+handle_0
  1697 00:0A7E: A5 16        	lda	<L104+handle_0
  1698 00:0A80: 0A           	asl	A
  1699 00:0A81: 0A           	asl	A
  1700 00:0A82: 0A           	asl	A
  1701 00:0A83: 65 16        	adc	<L104+handle_0
  1702 00:0A85: 85 01        	sta	<R0
  1703 00:0A87: A6 01        	ldx	<R0
  1704 00:0A89: BD xx xx     	lda	|~~fileinfo+6,X
  1705 00:0A8C: D0 03        	bne	L106
  1706 00:0A8E: 82 1B 00     	brl	L10073
  1707                        L106:
  1708 00:0A91: A5 16        	lda	<L104+handle_0
  1709 00:0A93: 0A           	asl	A
  1710 00:0A94: 0A           	asl	A
  1711 00:0A95: 0A           	asl	A
  1712 00:0A96: 65 16        	adc	<L104+handle_0
  1713 00:0A98: 85 01        	sta	<R0
  1714 00:0A9A: A9 02 00     	lda	#$2
  1715 00:0A9D: A6 01        	ldx	<R0
  1716 00:0A9F: 9D xx xx     	sta	|~~fileinfo+6,X
  1717 00:0AA2: F4 74 00     	pea	#<$74
  1718 00:0AA5: F4 04 00     	pea	#4
  1719 00:0AA8: 22 xx xx xx  	jsl	~~error
  1720                        L10073:
  1721 00:0AAC: A5 16        	lda	<L104+handle_0
  1722 00:0AAE: 0A           	asl	A
  1723 00:0AAF: 0A           	asl	A
  1724 00:0AB0: 0A           	asl	A
  1725 00:0AB1: 65 16        	adc	<L104+handle_0
  1726 00:0AB3: 85 01        	sta	<R0
  1727 00:0AB5: A6 01        	ldx	<R0
  1728 00:0AB7: BD xx xx     	lda	|~~fileinfo+8,X
  1729 00:0ABA: 29 FF 00     	and	#$ff
  1730 00:0ABD: D0 03        	bne	L107
  1731 00:0ABF: 82 32 00     	brl	L10074
  1732                        L107:
  1733 00:0AC2: A5 16        	lda	<L104+handle_0
  1734 00:0AC4: 0A           	asl	A
  Sun Jan  9 2022 20:52                                                Page 31


  1735 00:0AC5: 0A           	asl	A
  1736 00:0AC6: 0A           	asl	A
  1737 00:0AC7: 65 16        	adc	<L104+handle_0
  1738 00:0AC9: 85 01        	sta	<R0
  1739 00:0ACB: 18           	clc
  1740 00:0ACC: A9 xx xx     	lda	#<~~fileinfo
  1741 00:0ACF: 65 01        	adc	<R0
  1742 00:0AD1: 85 05        	sta	<R1
  1743 00:0AD3: A0 02 00     	ldy	#$2
  1744 00:0AD6: B1 05        	lda	(<R1),Y
  1745 00:0AD8: 48           	pha
  1746 00:0AD9: B2 05        	lda	(<R1)
  1747 00:0ADB: 48           	pha
  1748 00:0ADC: 22 xx xx xx  	jsl	~~fflush
  1749 00:0AE0: A5 16        	lda	<L104+handle_0
  1750 00:0AE2: 0A           	asl	A
  1751 00:0AE3: 0A           	asl	A
  1752 00:0AE4: 0A           	asl	A
  1753 00:0AE5: 65 16        	adc	<L104+handle_0
  1754 00:0AE7: 85 01        	sta	<R0
  1755 00:0AE9: E2 20        	sep	#$20
  1756                        	longa	off
  1757 00:0AEB: A9 00        	lda	#$0
  1758 00:0AED: A6 01        	ldx	<R0
  1759 00:0AEF: 9D xx xx     	sta	|~~fileinfo+8,X
  1760 00:0AF2: C2 20        	rep	#$20
  1761                        	longa	on
  1762                        L10074:
  1763 00:0AF4: A5 16        	lda	<L104+handle_0
  1764 00:0AF6: 0A           	asl	A
  1765 00:0AF7: 0A           	asl	A
  1766 00:0AF8: 0A           	asl	A
  1767 00:0AF9: 65 16        	adc	<L104+handle_0
  1768 00:0AFB: 85 01        	sta	<R0
  1769 00:0AFD: 18           	clc
  1770 00:0AFE: A9 xx xx     	lda	#<~~fileinfo
  1771 00:0B01: 65 01        	adc	<R0
  1772 00:0B03: 85 05        	sta	<R1
  1773 00:0B05: B2 05        	lda	(<R1)
  1774 00:0B07: 85 09        	sta	<L105+stream_1
  1775 00:0B09: A0 02 00     	ldy	#$2
  1776 00:0B0C: B1 05        	lda	(<R1),Y
  1777 00:0B0E: 85 0B        	sta	<L105+stream_1+2
  1778 00:0B10: D4 0B        	pei	<L105+stream_1+2
  1779 00:0B12: D4 09        	pei	<L105+stream_1
  1780 00:0B14: 22 xx xx xx  	jsl	~~read
  1781 00:0B18: 85 0D        	sta	<L105+marker_1
  1782 00:0B1A: A5 0D        	lda	<L105+marker_1
  1783 00:0B1C: 82 A2 00     	brl	L10075
  1784                        L10077:
  1785 00:0B1F: D4 0B        	pei	<L105+stream_1+2
  1786 00:0B21: D4 09        	pei	<L105+stream_1
  1787 00:0B23: 22 xx xx xx  	jsl	~~read
  1788 00:0B27: 85 0F        	sta	<L105+length_1
  1789 00:0B29: A9 01 00     	lda	#$1
  1790 00:0B2C: 85 11        	sta	<L105+n_1
  1791 00:0B2E: 82 19 00     	brl	L10081
  1792                        L10080:
  Sun Jan  9 2022 20:52                                                Page 32


  1793 00:0B31: 38           	sec
  1794 00:0B32: A5 0F        	lda	<L105+length_1
  1795 00:0B34: E5 11        	sbc	<L105+n_1
  1796 00:0B36: 85 01        	sta	<R0
  1797 00:0B38: D4 0B        	pei	<L105+stream_1+2
  1798 00:0B3A: D4 09        	pei	<L105+stream_1
  1799 00:0B3C: 22 xx xx xx  	jsl	~~read
  1800 00:0B40: E2 20        	sep	#$20
  1801                        	longa	off
  1802 00:0B42: A4 01        	ldy	<R0
  1803 00:0B44: 97 18        	sta	[<L104+p_0],Y
  1804 00:0B46: C2 20        	rep	#$20
  1805                        	longa	on
  1806                        L10078:
  1807 00:0B48: E6 11        	inc	<L105+n_1
  1808                        L10081:
  1809 00:0B4A: 38           	sec
  1810 00:0B4B: A5 0F        	lda	<L105+length_1
  1811 00:0B4D: E5 11        	sbc	<L105+n_1
  1812 00:0B4F: 70 03        	bvs	L108
  1813 00:0B51: 49 00 80     	eor	#$8000
  1814                        L108:
  1815 00:0B54: 10 03        	bpl	L109
  1816 00:0B56: 82 D8 FF     	brl	L10080
  1817                        L109:
  1818                        L10079:
  1819 00:0B59: 82 75 00     	brl	L10076
  1820                        L10082:
  1821 00:0B5C: 64 0F        	stz	<L105+length_1
  1822 00:0B5E: 64 11        	stz	<L105+n_1
  1823 00:0B60: 82 1E 00     	brl	L10086
  1824                        L10085:
  1825 00:0B63: A5 11        	lda	<L105+n_1
  1826 00:0B65: 0A           	asl	A
  1827 00:0B66: 0A           	asl	A
  1828 00:0B67: 0A           	asl	A
  1829 00:0B68: 48           	pha
  1830 00:0B69: D4 0B        	pei	<L105+stream_1+2
  1831 00:0B6B: D4 09        	pei	<L105+stream_1
  1832 00:0B6D: 22 xx xx xx  	jsl	~~read
  1833 00:0B71: FA           	plx
  1834                        	xref	~~~asl
  1835 00:0B72: 22 xx xx xx  	jsl	~~~asl
  1836 00:0B76: 85 01        	sta	<R0
  1837 00:0B78: 18           	clc
  1838 00:0B79: A5 01        	lda	<R0
  1839 00:0B7B: 65 0F        	adc	<L105+length_1
  1840 00:0B7D: 85 0F        	sta	<L105+length_1
  1841                        L10083:
  1842 00:0B7F: E6 11        	inc	<L105+n_1
  1843                        L10086:
  1844 00:0B81: A5 11        	lda	<L105+n_1
  1845 00:0B83: C9 02 00     	cmp	#<$2
  1846 00:0B86: B0 03        	bcs	L110
  1847 00:0B88: 82 D8 FF     	brl	L10085
  1848                        L110:
  1849                        L10084:
  1850 00:0B8B: 64 11        	stz	<L105+n_1
  Sun Jan  9 2022 20:52                                                Page 33


  1851 00:0B8D: 82 12 00     	brl	L10090
  1852                        L10089:
  1853 00:0B90: D4 0B        	pei	<L105+stream_1+2
  1854 00:0B92: D4 09        	pei	<L105+stream_1
  1855 00:0B94: 22 xx xx xx  	jsl	~~read
  1856 00:0B98: E2 20        	sep	#$20
  1857                        	longa	off
  1858 00:0B9A: A4 11        	ldy	<L105+n_1
  1859 00:0B9C: 97 18        	sta	[<L104+p_0],Y
  1860 00:0B9E: C2 20        	rep	#$20
  1861                        	longa	on
  1862                        L10087:
  1863 00:0BA0: E6 11        	inc	<L105+n_1
  1864                        L10090:
  1865 00:0BA2: 38           	sec
  1866 00:0BA3: A5 11        	lda	<L105+n_1
  1867 00:0BA5: E5 0F        	sbc	<L105+length_1
  1868 00:0BA7: 70 03        	bvs	L111
  1869 00:0BA9: 49 00 80     	eor	#$8000
  1870                        L111:
  1871 00:0BAC: 30 03        	bmi	L112
  1872 00:0BAE: 82 DF FF     	brl	L10089
  1873                        L112:
  1874                        L10088:
  1875 00:0BB1: 82 1D 00     	brl	L10076
  1876                        L10091:
  1877 00:0BB4: F4 40 00     	pea	#<$40
  1878 00:0BB7: F4 04 00     	pea	#4
  1879 00:0BBA: 22 xx xx xx  	jsl	~~error
  1880 00:0BBE: 82 10 00     	brl	L10076
  1881                        L10075:
  1882                        	xref	~~~swt
  1883 00:0BC1: 22 xx xx xx  	jsl	~~~swt
  1884 00:0BC5: 02 00        	dw	2
  1885 00:0BC7: 00 00        	dw	0
  1886 00:0BC9: xx xx        	dw	L10077-1
  1887 00:0BCB: 01 00        	dw	1
  1888 00:0BCD: xx xx        	dw	L10082-1
  1889 00:0BCF: xx xx        	dw	L10091-1
  1890                        L10076:
  1891 00:0BD1: A5 0F        	lda	<L105+length_1
  1892                        L113:
  1893 00:0BD3: A8           	tay
  1894 00:0BD4: A5 14        	lda	<L104+2
  1895 00:0BD6: 85 1A        	sta	<L104+2+6
  1896 00:0BD8: A5 13        	lda	<L104+1
  1897 00:0BDA: 85 19        	sta	<L104+1+6
  1898 00:0BDC: 2B           	pld
  1899 00:0BDD: 3B           	tsc
  1900 00:0BDE: 18           	clc
  1901 00:0BDF: 69 18 00     	adc	#L104+6
  1902 00:0BE2: 1B           	tcs
  1903 00:0BE3: 98           	tya
  1904 00:0BE4: 6B           	rtl
  1905             00000012   L104	equ	18
  1906             00000009   L105	equ	9
  1907                        	ends
  1908                        	efunc
  Sun Jan  9 2022 20:52                                                Page 34


  1909                        	code
  1910                        	func
  1911                        ~~write:
  1912                        	longa	on
  1913                        	longi	on
  1914 00:0BE5: 3B           	tsc
  1915 00:0BE6: 38           	sec
  1916 00:0BE7: E9 02 00     	sbc	#L114
  1917 00:0BEA: 1B           	tcs
  1918 00:0BEB: 0B           	phd
  1919 00:0BEC: 5B           	tcd
  1920             00000004   stream_0	set	4
  1921             00000008   value_0	set	8
  1922             00000000   result_1	set	0
  1923 00:0BED: D4 08        	pei	<L114+stream_0+2
  1924 00:0BEF: D4 06        	pei	<L114+stream_0
  1925 00:0BF1: D4 0A        	pei	<L114+value_0
  1926 00:0BF3: 22 xx xx xx  	jsl	~~fputc
  1927 00:0BF7: 85 01        	sta	<L115+result_1
  1928 00:0BF9: A5 01        	lda	<L115+result_1
  1929 00:0BFB: C9 FF FF     	cmp	#<$ffffffff
  1930 00:0BFE: F0 03        	beq	L116
  1931 00:0C00: 82 0A 00     	brl	L10092
  1932                        L116:
  1933 00:0C03: F4 73 00     	pea	#<$73
  1934 00:0C06: F4 04 00     	pea	#4
  1935 00:0C09: 22 xx xx xx  	jsl	~~error
  1936                        L10092:
  1937                        L117:
  1938 00:0C0D: A5 04        	lda	<L114+2
  1939 00:0C0F: 85 0A        	sta	<L114+2+6
  1940 00:0C11: A5 03        	lda	<L114+1
  1941 00:0C13: 85 09        	sta	<L114+1+6
  1942 00:0C15: 2B           	pld
  1943 00:0C16: 3B           	tsc
  1944 00:0C17: 18           	clc
  1945 00:0C18: 69 08 00     	adc	#L114+6
  1946 00:0C1B: 1B           	tcs
  1947 00:0C1C: 6B           	rtl
  1948             00000002   L114	equ	2
  1949             00000001   L115	equ	1
  1950                        	ends
  1951                        	efunc
  1952                        	code
  1953                        	xdef	~~fileio_bput
  1954                        	func
  1955                        ~~fileio_bput:
  1956                        	longa	on
  1957                        	longi	on
  1958 00:0C1D: 3B           	tsc
  1959 00:0C1E: 38           	sec
  1960 00:0C1F: E9 0A 00     	sbc	#L118
  1961 00:0C22: 1B           	tcs
  1962 00:0C23: 0B           	phd
  1963 00:0C24: 5B           	tcd
  1964             00000004   handle_0	set	4
  1965             00000006   value_0	set	6
  1966             00000000   result_1	set	0
  Sun Jan  9 2022 20:52                                                Page 35


  1967 00:0C25: D4 0E        	pei	<L118+handle_0
  1968 00:0C27: 22 xx xx xx  	jsl	~~map_handle
  1969 00:0C2B: 85 0E        	sta	<L118+handle_0
  1970 00:0C2D: A5 0E        	lda	<L118+handle_0
  1971 00:0C2F: 0A           	asl	A
  1972 00:0C30: 0A           	asl	A
  1973 00:0C31: 0A           	asl	A
  1974 00:0C32: 65 0E        	adc	<L118+handle_0
  1975 00:0C34: 85 01        	sta	<R0
  1976 00:0C36: A6 01        	ldx	<R0
  1977 00:0C38: BD xx xx     	lda	|~~fileinfo+4,X
  1978 00:0C3B: C9 01 00     	cmp	#<$1
  1979 00:0C3E: F0 03        	beq	L120
  1980 00:0C40: 82 0A 00     	brl	L10093
  1981                        L120:
  1982 00:0C43: F4 71 00     	pea	#<$71
  1983 00:0C46: F4 04 00     	pea	#4
  1984 00:0C49: 22 xx xx xx  	jsl	~~error
  1985                        L10093:
  1986 00:0C4D: A5 0E        	lda	<L118+handle_0
  1987 00:0C4F: 0A           	asl	A
  1988 00:0C50: 0A           	asl	A
  1989 00:0C51: 0A           	asl	A
  1990 00:0C52: 65 0E        	adc	<L118+handle_0
  1991 00:0C54: 85 01        	sta	<R0
  1992 00:0C56: A9 00 00     	lda	#$0
  1993 00:0C59: A6 01        	ldx	<R0
  1994 00:0C5B: 9D xx xx     	sta	|~~fileinfo+6,X
  1995 00:0C5E: A5 0E        	lda	<L118+handle_0
  1996 00:0C60: 0A           	asl	A
  1997 00:0C61: 0A           	asl	A
  1998 00:0C62: 0A           	asl	A
  1999 00:0C63: 65 0E        	adc	<L118+handle_0
  2000 00:0C65: 85 01        	sta	<R0
  2001 00:0C67: 18           	clc
  2002 00:0C68: A9 xx xx     	lda	#<~~fileinfo
  2003 00:0C6B: 65 01        	adc	<R0
  2004 00:0C6D: 85 05        	sta	<R1
  2005 00:0C6F: A0 02 00     	ldy	#$2
  2006 00:0C72: B1 05        	lda	(<R1),Y
  2007 00:0C74: 48           	pha
  2008 00:0C75: B2 05        	lda	(<R1)
  2009 00:0C77: 48           	pha
  2010 00:0C78: D4 10        	pei	<L118+value_0
  2011 00:0C7A: 22 xx xx xx  	jsl	~~fputc
  2012 00:0C7E: 85 09        	sta	<L119+result_1
  2013 00:0C80: A5 09        	lda	<L119+result_1
  2014 00:0C82: C9 FF FF     	cmp	#<$ffffffff
  2015 00:0C85: F0 03        	beq	L121
  2016 00:0C87: 82 0A 00     	brl	L10094
  2017                        L121:
  2018 00:0C8A: F4 73 00     	pea	#<$73
  2019 00:0C8D: F4 04 00     	pea	#4
  2020 00:0C90: 22 xx xx xx  	jsl	~~error
  2021                        L10094:
  2022 00:0C94: A5 0E        	lda	<L118+handle_0
  2023 00:0C96: 0A           	asl	A
  2024 00:0C97: 0A           	asl	A
  Sun Jan  9 2022 20:52                                                Page 36


  2025 00:0C98: 0A           	asl	A
  2026 00:0C99: 65 0E        	adc	<L118+handle_0
  2027 00:0C9B: 85 01        	sta	<R0
  2028 00:0C9D: E2 20        	sep	#$20
  2029                        	longa	off
  2030 00:0C9F: A9 01        	lda	#$1
  2031 00:0CA1: A6 01        	ldx	<R0
  2032 00:0CA3: 9D xx xx     	sta	|~~fileinfo+8,X
  2033 00:0CA6: C2 20        	rep	#$20
  2034                        	longa	on
  2035                        L122:
  2036 00:0CA8: A5 0C        	lda	<L118+2
  2037 00:0CAA: 85 10        	sta	<L118+2+4
  2038 00:0CAC: A5 0B        	lda	<L118+1
  2039 00:0CAE: 85 0F        	sta	<L118+1+4
  2040 00:0CB0: 2B           	pld
  2041 00:0CB1: 3B           	tsc
  2042 00:0CB2: 18           	clc
  2043 00:0CB3: 69 0E 00     	adc	#L118+4
  2044 00:0CB6: 1B           	tcs
  2045 00:0CB7: 6B           	rtl
  2046             0000000A   L118	equ	10
  2047             00000009   L119	equ	9
  2048                        	ends
  2049                        	efunc
  2050                        	code
  2051                        	xdef	~~fileio_bputstr
  2052                        	func
  2053                        ~~fileio_bputstr:
  2054                        	longa	on
  2055                        	longi	on
  2056 00:0CB8: 3B           	tsc
  2057 00:0CB9: 38           	sec
  2058 00:0CBA: E9 0A 00     	sbc	#L123
  2059 00:0CBD: 1B           	tcs
  2060 00:0CBE: 0B           	phd
  2061 00:0CBF: 5B           	tcd
  2062             00000004   handle_0	set	4
  2063             00000006   string_0	set	6
  2064             0000000A   length_0	set	10
  2065             00000000   result_1	set	0
  2066 00:0CC0: D4 0E        	pei	<L123+handle_0
  2067 00:0CC2: 22 xx xx xx  	jsl	~~map_handle
  2068 00:0CC6: 85 0E        	sta	<L123+handle_0
  2069 00:0CC8: A5 0E        	lda	<L123+handle_0
  2070 00:0CCA: 0A           	asl	A
  2071 00:0CCB: 0A           	asl	A
  2072 00:0CCC: 0A           	asl	A
  2073 00:0CCD: 65 0E        	adc	<L123+handle_0
  2074 00:0CCF: 85 01        	sta	<R0
  2075 00:0CD1: A6 01        	ldx	<R0
  2076 00:0CD3: BD xx xx     	lda	|~~fileinfo+4,X
  2077 00:0CD6: C9 01 00     	cmp	#<$1
  2078 00:0CD9: F0 03        	beq	L125
  2079 00:0CDB: 82 0A 00     	brl	L10095
  2080                        L125:
  2081 00:0CDE: F4 71 00     	pea	#<$71
  2082 00:0CE1: F4 04 00     	pea	#4
  Sun Jan  9 2022 20:52                                                Page 37


  2083 00:0CE4: 22 xx xx xx  	jsl	~~error
  2084                        L10095:
  2085 00:0CE8: A5 0E        	lda	<L123+handle_0
  2086 00:0CEA: 0A           	asl	A
  2087 00:0CEB: 0A           	asl	A
  2088 00:0CEC: 0A           	asl	A
  2089 00:0CED: 65 0E        	adc	<L123+handle_0
  2090 00:0CEF: 85 01        	sta	<R0
  2091 00:0CF1: A9 00 00     	lda	#$0
  2092 00:0CF4: A6 01        	ldx	<R0
  2093 00:0CF6: 9D xx xx     	sta	|~~fileinfo+6,X
  2094 00:0CF9: A5 0E        	lda	<L123+handle_0
  2095 00:0CFB: 0A           	asl	A
  2096 00:0CFC: 0A           	asl	A
  2097 00:0CFD: 0A           	asl	A
  2098 00:0CFE: 65 0E        	adc	<L123+handle_0
  2099 00:0D00: 85 01        	sta	<R0
  2100 00:0D02: 18           	clc
  2101 00:0D03: A9 xx xx     	lda	#<~~fileinfo
  2102 00:0D06: 65 01        	adc	<R0
  2103 00:0D08: 85 05        	sta	<R1
  2104 00:0D0A: A0 02 00     	ldy	#$2
  2105 00:0D0D: B1 05        	lda	(<R1),Y
  2106 00:0D0F: 48           	pha
  2107 00:0D10: B2 05        	lda	(<R1)
  2108 00:0D12: 48           	pha
  2109 00:0D13: A0 00 00     	ldy	#$0
  2110 00:0D16: A5 14        	lda	<L123+length_0
  2111 00:0D18: 10 01        	bpl	L126
  2112 00:0D1A: 88           	dey
  2113                        L126:
  2114 00:0D1B: 85 01        	sta	<R0
  2115 00:0D1D: 84 03        	sty	<R0+2
  2116 00:0D1F: D4 03        	pei	<R0+2
  2117 00:0D21: D4 01        	pei	<R0
  2118 00:0D23: F4 00 00     	pea	#^$1
  2119 00:0D26: F4 01 00     	pea	#<$1
  2120 00:0D29: D4 12        	pei	<L123+string_0+2
  2121 00:0D2B: D4 10        	pei	<L123+string_0
  2122 00:0D2D: 22 xx xx xx  	jsl	~~fwrite
  2123 00:0D31: 85 09        	sta	<L124+result_1
  2124 00:0D33: A5 09        	lda	<L124+result_1
  2125 00:0D35: C5 14        	cmp	<L123+length_0
  2126 00:0D37: D0 03        	bne	L127
  2127 00:0D39: 82 0A 00     	brl	L10096
  2128                        L127:
  2129 00:0D3C: F4 73 00     	pea	#<$73
  2130 00:0D3F: F4 04 00     	pea	#4
  2131 00:0D42: 22 xx xx xx  	jsl	~~error
  2132                        L10096:
  2133 00:0D46: A5 0E        	lda	<L123+handle_0
  2134 00:0D48: 0A           	asl	A
  2135 00:0D49: 0A           	asl	A
  2136 00:0D4A: 0A           	asl	A
  2137 00:0D4B: 65 0E        	adc	<L123+handle_0
  2138 00:0D4D: 85 01        	sta	<R0
  2139 00:0D4F: E2 20        	sep	#$20
  2140                        	longa	off
  Sun Jan  9 2022 20:52                                                Page 38


  2141 00:0D51: A9 01        	lda	#$1
  2142 00:0D53: A6 01        	ldx	<R0
  2143 00:0D55: 9D xx xx     	sta	|~~fileinfo+8,X
  2144 00:0D58: C2 20        	rep	#$20
  2145                        	longa	on
  2146                        L128:
  2147 00:0D5A: A5 0C        	lda	<L123+2
  2148 00:0D5C: 85 14        	sta	<L123+2+8
  2149 00:0D5E: A5 0B        	lda	<L123+1
  2150 00:0D60: 85 13        	sta	<L123+1+8
  2151 00:0D62: 2B           	pld
  2152 00:0D63: 3B           	tsc
  2153 00:0D64: 18           	clc
  2154 00:0D65: 69 12 00     	adc	#L123+8
  2155 00:0D68: 1B           	tcs
  2156 00:0D69: 6B           	rtl
  2157             0000000A   L123	equ	10
  2158             00000009   L124	equ	9
  2159                        	ends
  2160                        	efunc
  2161                        	code
  2162                        	xdef	~~fileio_printint
  2163                        	func
  2164                        ~~fileio_printint:
  2165                        	longa	on
  2166                        	longi	on
  2167 00:0D6A: 3B           	tsc
  2168 00:0D6B: 38           	sec
  2169 00:0D6C: E9 0E 00     	sbc	#L129
  2170 00:0D6F: 1B           	tcs
  2171 00:0D70: 0B           	phd
  2172 00:0D71: 5B           	tcd
  2173             00000004   handle_0	set	4
  2174             00000006   value_0	set	6
  2175             00000000   stream_1	set	0
  2176             00000004   n_1	set	4
  2177 00:0D72: D4 12        	pei	<L129+handle_0
  2178 00:0D74: 22 xx xx xx  	jsl	~~map_handle
  2179 00:0D78: 85 12        	sta	<L129+handle_0
  2180 00:0D7A: A5 12        	lda	<L129+handle_0
  2181 00:0D7C: 0A           	asl	A
  2182 00:0D7D: 0A           	asl	A
  2183 00:0D7E: 0A           	asl	A
  2184 00:0D7F: 65 12        	adc	<L129+handle_0
  2185 00:0D81: 85 01        	sta	<R0
  2186 00:0D83: A6 01        	ldx	<R0
  2187 00:0D85: BD xx xx     	lda	|~~fileinfo+4,X
  2188 00:0D88: C9 01 00     	cmp	#<$1
  2189 00:0D8B: F0 03        	beq	L131
  2190 00:0D8D: 82 0A 00     	brl	L10097
  2191                        L131:
  2192 00:0D90: F4 71 00     	pea	#<$71
  2193 00:0D93: F4 04 00     	pea	#4
  2194 00:0D96: 22 xx xx xx  	jsl	~~error
  2195                        L10097:
  2196 00:0D9A: A5 12        	lda	<L129+handle_0
  2197 00:0D9C: 0A           	asl	A
  2198 00:0D9D: 0A           	asl	A
  Sun Jan  9 2022 20:52                                                Page 39


  2199 00:0D9E: 0A           	asl	A
  2200 00:0D9F: 65 12        	adc	<L129+handle_0
  2201 00:0DA1: 85 01        	sta	<R0
  2202 00:0DA3: A9 00 00     	lda	#$0
  2203 00:0DA6: A6 01        	ldx	<R0
  2204 00:0DA8: 9D xx xx     	sta	|~~fileinfo+6,X
  2205 00:0DAB: A5 12        	lda	<L129+handle_0
  2206 00:0DAD: 0A           	asl	A
  2207 00:0DAE: 0A           	asl	A
  2208 00:0DAF: 0A           	asl	A
  2209 00:0DB0: 65 12        	adc	<L129+handle_0
  2210 00:0DB2: 85 01        	sta	<R0
  2211 00:0DB4: 18           	clc
  2212 00:0DB5: A9 xx xx     	lda	#<~~fileinfo
  2213 00:0DB8: 65 01        	adc	<R0
  2214 00:0DBA: 85 05        	sta	<R1
  2215 00:0DBC: B2 05        	lda	(<R1)
  2216 00:0DBE: 85 09        	sta	<L130+stream_1
  2217 00:0DC0: A0 02 00     	ldy	#$2
  2218 00:0DC3: B1 05        	lda	(<R1),Y
  2219 00:0DC5: 85 0B        	sta	<L130+stream_1+2
  2220 00:0DC7: F4 40 00     	pea	#<$40
  2221 00:0DCA: D4 0B        	pei	<L130+stream_1+2
  2222 00:0DCC: D4 09        	pei	<L130+stream_1
  2223 00:0DCE: 22 xx xx xx  	jsl	~~write
  2224 00:0DD2: A9 18 00     	lda	#$18
  2225 00:0DD5: 85 0D        	sta	<L130+n_1
  2226                        L10100:
  2227 00:0DD7: A5 14        	lda	<L129+value_0
  2228 00:0DD9: A6 0D        	ldx	<L130+n_1
  2229                        	xref	~~~asr
  2230 00:0DDB: 22 xx xx xx  	jsl	~~~asr
  2231 00:0DDF: 48           	pha
  2232 00:0DE0: D4 0B        	pei	<L130+stream_1+2
  2233 00:0DE2: D4 09        	pei	<L130+stream_1
  2234 00:0DE4: 22 xx xx xx  	jsl	~~write
  2235                        L10098:
  2236 00:0DE8: 18           	clc
  2237 00:0DE9: A9 F8 FF     	lda	#$fff8
  2238 00:0DEC: 65 0D        	adc	<L130+n_1
  2239 00:0DEE: 85 0D        	sta	<L130+n_1
  2240 00:0DF0: A5 0D        	lda	<L130+n_1
  2241 00:0DF2: 30 03        	bmi	L132
  2242 00:0DF4: 82 E0 FF     	brl	L10100
  2243                        L132:
  2244                        L10099:
  2245 00:0DF7: A5 12        	lda	<L129+handle_0
  2246 00:0DF9: 0A           	asl	A
  2247 00:0DFA: 0A           	asl	A
  2248 00:0DFB: 0A           	asl	A
  2249 00:0DFC: 65 12        	adc	<L129+handle_0
  2250 00:0DFE: 85 01        	sta	<R0
  2251 00:0E00: E2 20        	sep	#$20
  2252                        	longa	off
  2253 00:0E02: A9 01        	lda	#$1
  2254 00:0E04: A6 01        	ldx	<R0
  2255 00:0E06: 9D xx xx     	sta	|~~fileinfo+8,X
  2256 00:0E09: C2 20        	rep	#$20
  Sun Jan  9 2022 20:52                                                Page 40


  2257                        	longa	on
  2258                        L133:
  2259 00:0E0B: A5 10        	lda	<L129+2
  2260 00:0E0D: 85 14        	sta	<L129+2+4
  2261 00:0E0F: A5 0F        	lda	<L129+1
  2262 00:0E11: 85 13        	sta	<L129+1+4
  2263 00:0E13: 2B           	pld
  2264 00:0E14: 3B           	tsc
  2265 00:0E15: 18           	clc
  2266 00:0E16: 69 12 00     	adc	#L129+4
  2267 00:0E19: 1B           	tcs
  2268 00:0E1A: 6B           	rtl
  2269             0000000E   L129	equ	14
  2270             00000009   L130	equ	9
  2271                        	ends
  2272                        	efunc
  2273                        	code
  2274                        	xdef	~~fileio_printfloat
  2275                        	func
  2276                        ~~fileio_printfloat:
  2277                        	longa	on
  2278                        	longi	on
  2279 00:0E1B: 3B           	tsc
  2280 00:0E1C: 38           	sec
  2281 00:0E1D: E9 12 00     	sbc	#L134
  2282 00:0E20: 1B           	tcs
  2283 00:0E21: 0B           	phd
  2284 00:0E22: 5B           	tcd
  2285             00000004   handle_0	set	4
  2286             00000006   value_0	set	6
  2287             00000000   stream_1	set	0
  2288             00000004   n_1	set	4
  2289             00000006   temp_1	set	6
  2290 00:0E23: D4 16        	pei	<L134+handle_0
  2291 00:0E25: 22 xx xx xx  	jsl	~~map_handle
  2292 00:0E29: 85 16        	sta	<L134+handle_0
  2293 00:0E2B: A5 16        	lda	<L134+handle_0
  2294 00:0E2D: 0A           	asl	A
  2295 00:0E2E: 0A           	asl	A
  2296 00:0E2F: 0A           	asl	A
  2297 00:0E30: 65 16        	adc	<L134+handle_0
  2298 00:0E32: 85 01        	sta	<R0
  2299 00:0E34: A6 01        	ldx	<R0
  2300 00:0E36: BD xx xx     	lda	|~~fileinfo+4,X
  2301 00:0E39: C9 01 00     	cmp	#<$1
  2302 00:0E3C: F0 03        	beq	L136
  2303 00:0E3E: 82 0A 00     	brl	L10101
  2304                        L136:
  2305 00:0E41: F4 71 00     	pea	#<$71
  2306 00:0E44: F4 04 00     	pea	#4
  2307 00:0E47: 22 xx xx xx  	jsl	~~error
  2308                        L10101:
  2309 00:0E4B: A5 16        	lda	<L134+handle_0
  2310 00:0E4D: 0A           	asl	A
  2311 00:0E4E: 0A           	asl	A
  2312 00:0E4F: 0A           	asl	A
  2313 00:0E50: 65 16        	adc	<L134+handle_0
  2314 00:0E52: 85 01        	sta	<R0
  Sun Jan  9 2022 20:52                                                Page 41


  2315 00:0E54: A9 00 00     	lda	#$0
  2316 00:0E57: A6 01        	ldx	<R0
  2317 00:0E59: 9D xx xx     	sta	|~~fileinfo+6,X
  2318 00:0E5C: A5 16        	lda	<L134+handle_0
  2319 00:0E5E: 0A           	asl	A
  2320 00:0E5F: 0A           	asl	A
  2321 00:0E60: 0A           	asl	A
  2322 00:0E61: 65 16        	adc	<L134+handle_0
  2323 00:0E63: 85 01        	sta	<R0
  2324 00:0E65: 18           	clc
  2325 00:0E66: A9 xx xx     	lda	#<~~fileinfo
  2326 00:0E69: 65 01        	adc	<R0
  2327 00:0E6B: 85 05        	sta	<R1
  2328 00:0E6D: B2 05        	lda	(<R1)
  2329 00:0E6F: 85 09        	sta	<L135+stream_1
  2330 00:0E71: A0 02 00     	ldy	#$2
  2331 00:0E74: B1 05        	lda	(<R1),Y
  2332 00:0E76: 85 0B        	sta	<L135+stream_1+2
  2333 00:0E78: F4 88 00     	pea	#<$88
  2334 00:0E7B: D4 0B        	pei	<L135+stream_1+2
  2335 00:0E7D: D4 09        	pei	<L135+stream_1
  2336 00:0E7F: 22 xx xx xx  	jsl	~~write
  2337 00:0E83: F4 00 00     	pea	#^$4
  2338 00:0E86: F4 04 00     	pea	#<$4
  2339 00:0E89: F4 00 00     	pea	#0
  2340 00:0E8C: 18           	clc
  2341 00:0E8D: 7B           	tdc
  2342 00:0E8E: 69 18 00     	adc	#<L134+value_0
  2343 00:0E91: 48           	pha
  2344 00:0E92: F4 00 00     	pea	#0
  2345 00:0E95: 18           	clc
  2346 00:0E96: 7B           	tdc
  2347 00:0E97: 69 0F 00     	adc	#<L135+temp_1
  2348 00:0E9A: 48           	pha
  2349 00:0E9B: 22 xx xx xx  	jsl	~~memmove
  2350 00:0E9F: AD xx xx     	lda	|~~double_type
  2351 00:0EA2: 82 A5 00     	brl	L10102
  2352                        L10104:
  2353 00:0EA5: 64 0D        	stz	<L135+n_1
  2354 00:0EA7: 82 12 00     	brl	L10108
  2355                        L10107:
  2356 00:0EAA: A6 0D        	ldx	<L135+n_1
  2357 00:0EAC: B5 0F        	lda	<L135+temp_1,X
  2358 00:0EAE: 29 FF 00     	and	#$ff
  2359 00:0EB1: 48           	pha
  2360 00:0EB2: D4 0B        	pei	<L135+stream_1+2
  2361 00:0EB4: D4 09        	pei	<L135+stream_1
  2362 00:0EB6: 22 xx xx xx  	jsl	~~write
  2363                        L10105:
  2364 00:0EBA: E6 0D        	inc	<L135+n_1
  2365                        L10108:
  2366 00:0EBC: A5 0D        	lda	<L135+n_1
  2367 00:0EBE: C9 04 00     	cmp	#<$4
  2368 00:0EC1: B0 03        	bcs	L137
  2369 00:0EC3: 82 E4 FF     	brl	L10107
  2370                        L137:
  2371                        L10106:
  2372 00:0EC6: 82 93 00     	brl	L10103
  Sun Jan  9 2022 20:52                                                Page 42


  2373                        L10109:
  2374 00:0EC9: 64 0D        	stz	<L135+n_1
  2375 00:0ECB: 82 19 00     	brl	L10113
  2376                        L10112:
  2377 00:0ECE: A5 0D        	lda	<L135+n_1
  2378 00:0ED0: 49 04 00     	eor	#<$4
  2379 00:0ED3: 85 01        	sta	<R0
  2380 00:0ED5: A6 01        	ldx	<R0
  2381 00:0ED7: B5 0F        	lda	<L135+temp_1,X
  2382 00:0ED9: 29 FF 00     	and	#$ff
  2383 00:0EDC: 48           	pha
  2384 00:0EDD: D4 0B        	pei	<L135+stream_1+2
  2385 00:0EDF: D4 09        	pei	<L135+stream_1
  2386 00:0EE1: 22 xx xx xx  	jsl	~~write
  2387                        L10110:
  2388 00:0EE5: E6 0D        	inc	<L135+n_1
  2389                        L10113:
  2390 00:0EE7: A5 0D        	lda	<L135+n_1
  2391 00:0EE9: C9 04 00     	cmp	#<$4
  2392 00:0EEC: B0 03        	bcs	L138
  2393 00:0EEE: 82 DD FF     	brl	L10112
  2394                        L138:
  2395                        L10111:
  2396 00:0EF1: 82 68 00     	brl	L10103
  2397                        L10114:
  2398 00:0EF4: 64 0D        	stz	<L135+n_1
  2399 00:0EF6: 82 19 00     	brl	L10118
  2400                        L10117:
  2401 00:0EF9: A5 0D        	lda	<L135+n_1
  2402 00:0EFB: 49 03 00     	eor	#<$3
  2403 00:0EFE: 85 01        	sta	<R0
  2404 00:0F00: A6 01        	ldx	<R0
  2405 00:0F02: B5 0F        	lda	<L135+temp_1,X
  2406 00:0F04: 29 FF 00     	and	#$ff
  2407 00:0F07: 48           	pha
  2408 00:0F08: D4 0B        	pei	<L135+stream_1+2
  2409 00:0F0A: D4 09        	pei	<L135+stream_1
  2410 00:0F0C: 22 xx xx xx  	jsl	~~write
  2411                        L10115:
  2412 00:0F10: E6 0D        	inc	<L135+n_1
  2413                        L10118:
  2414 00:0F12: A5 0D        	lda	<L135+n_1
  2415 00:0F14: C9 04 00     	cmp	#<$4
  2416 00:0F17: B0 03        	bcs	L139
  2417 00:0F19: 82 DD FF     	brl	L10117
  2418                        L139:
  2419                        L10116:
  2420 00:0F1C: 82 3D 00     	brl	L10103
  2421                        L10119:
  2422 00:0F1F: 64 0D        	stz	<L135+n_1
  2423 00:0F21: 82 19 00     	brl	L10123
  2424                        L10122:
  2425 00:0F24: A5 0D        	lda	<L135+n_1
  2426 00:0F26: 49 07 00     	eor	#<$7
  2427 00:0F29: 85 01        	sta	<R0
  2428 00:0F2B: A6 01        	ldx	<R0
  2429 00:0F2D: B5 0F        	lda	<L135+temp_1,X
  2430 00:0F2F: 29 FF 00     	and	#$ff
  Sun Jan  9 2022 20:52                                                Page 43


  2431 00:0F32: 48           	pha
  2432 00:0F33: D4 0B        	pei	<L135+stream_1+2
  2433 00:0F35: D4 09        	pei	<L135+stream_1
  2434 00:0F37: 22 xx xx xx  	jsl	~~write
  2435                        L10120:
  2436 00:0F3B: E6 0D        	inc	<L135+n_1
  2437                        L10123:
  2438 00:0F3D: A5 0D        	lda	<L135+n_1
  2439 00:0F3F: C9 04 00     	cmp	#<$4
  2440 00:0F42: B0 03        	bcs	L140
  2441 00:0F44: 82 DD FF     	brl	L10122
  2442                        L140:
  2443                        L10121:
  2444 00:0F47: 82 12 00     	brl	L10103
  2445                        L10102:
  2446                        	xref	~~~fsw
  2447 00:0F4A: 22 xx xx xx  	jsl	~~~fsw
  2448 00:0F4E: 00 00        	dw	0
  2449 00:0F50: 04 00        	dw	4
  2450 00:0F52: xx xx        	dw	L10103-1
  2451 00:0F54: xx xx        	dw	L10104-1
  2452 00:0F56: xx xx        	dw	L10109-1
  2453 00:0F58: xx xx        	dw	L10114-1
  2454 00:0F5A: xx xx        	dw	L10119-1
  2455                        L10103:
  2456 00:0F5C: A5 16        	lda	<L134+handle_0
  2457 00:0F5E: 0A           	asl	A
  2458 00:0F5F: 0A           	asl	A
  2459 00:0F60: 0A           	asl	A
  2460 00:0F61: 65 16        	adc	<L134+handle_0
  2461 00:0F63: 85 01        	sta	<R0
  2462 00:0F65: E2 20        	sep	#$20
  2463                        	longa	off
  2464 00:0F67: A9 01        	lda	#$1
  2465 00:0F69: A6 01        	ldx	<R0
  2466 00:0F6B: 9D xx xx     	sta	|~~fileinfo+8,X
  2467 00:0F6E: C2 20        	rep	#$20
  2468                        	longa	on
  2469                        L141:
  2470 00:0F70: A5 14        	lda	<L134+2
  2471 00:0F72: 85 1A        	sta	<L134+2+6
  2472 00:0F74: A5 13        	lda	<L134+1
  2473 00:0F76: 85 19        	sta	<L134+1+6
  2474 00:0F78: 2B           	pld
  2475 00:0F79: 3B           	tsc
  2476 00:0F7A: 18           	clc
  2477 00:0F7B: 69 18 00     	adc	#L134+6
  2478 00:0F7E: 1B           	tcs
  2479 00:0F7F: 6B           	rtl
  2480             00000012   L134	equ	18
  2481             00000009   L135	equ	9
  2482                        	ends
  2483                        	efunc
  2484                        	code
  2485                        	xdef	~~fileio_printstring
  2486                        	func
  2487                        ~~fileio_printstring:
  2488                        	longa	on
  Sun Jan  9 2022 20:52                                                Page 44


  2489                        	longi	on
  2490 00:0F80: 3B           	tsc
  2491 00:0F81: 38           	sec
  2492 00:0F82: E9 12 00     	sbc	#L142
  2493 00:0F85: 1B           	tcs
  2494 00:0F86: 0B           	phd
  2495 00:0F87: 5B           	tcd
  2496             00000004   handle_0	set	4
  2497             00000006   string_0	set	6
  2498             0000000A   length_0	set	10
  2499             00000000   stream_1	set	0
  2500             00000004   n_1	set	4
  2501             00000006   temp_1	set	6
  2502             00000008   result_1	set	8
  2503 00:0F88: D4 16        	pei	<L142+handle_0
  2504 00:0F8A: 22 xx xx xx  	jsl	~~map_handle
  2505 00:0F8E: 85 16        	sta	<L142+handle_0
  2506 00:0F90: A5 16        	lda	<L142+handle_0
  2507 00:0F92: 0A           	asl	A
  2508 00:0F93: 0A           	asl	A
  2509 00:0F94: 0A           	asl	A
  2510 00:0F95: 65 16        	adc	<L142+handle_0
  2511 00:0F97: 85 01        	sta	<R0
  2512 00:0F99: A6 01        	ldx	<R0
  2513 00:0F9B: BD xx xx     	lda	|~~fileinfo+4,X
  2514 00:0F9E: C9 01 00     	cmp	#<$1
  2515 00:0FA1: F0 03        	beq	L144
  2516 00:0FA3: 82 0A 00     	brl	L10124
  2517                        L144:
  2518 00:0FA6: F4 71 00     	pea	#<$71
  2519 00:0FA9: F4 04 00     	pea	#4
  2520 00:0FAC: 22 xx xx xx  	jsl	~~error
  2521                        L10124:
  2522 00:0FB0: A5 16        	lda	<L142+handle_0
  2523 00:0FB2: 0A           	asl	A
  2524 00:0FB3: 0A           	asl	A
  2525 00:0FB4: 0A           	asl	A
  2526 00:0FB5: 65 16        	adc	<L142+handle_0
  2527 00:0FB7: 85 01        	sta	<R0
  2528 00:0FB9: A9 00 00     	lda	#$0
  2529 00:0FBC: A6 01        	ldx	<R0
  2530 00:0FBE: 9D xx xx     	sta	|~~fileinfo+6,X
  2531 00:0FC1: A5 16        	lda	<L142+handle_0
  2532 00:0FC3: 0A           	asl	A
  2533 00:0FC4: 0A           	asl	A
  2534 00:0FC5: 0A           	asl	A
  2535 00:0FC6: 65 16        	adc	<L142+handle_0
  2536 00:0FC8: 85 01        	sta	<R0
  2537 00:0FCA: 18           	clc
  2538 00:0FCB: A9 xx xx     	lda	#<~~fileinfo
  2539 00:0FCE: 65 01        	adc	<R0
  2540 00:0FD0: 85 05        	sta	<R1
  2541 00:0FD2: B2 05        	lda	(<R1)
  2542 00:0FD4: 85 09        	sta	<L143+stream_1
  2543 00:0FD6: A0 02 00     	ldy	#$2
  2544 00:0FD9: B1 05        	lda	(<R1),Y
  2545 00:0FDB: 85 0B        	sta	<L143+stream_1+2
  2546 00:0FDD: 38           	sec
  Sun Jan  9 2022 20:52                                                Page 45


  2547 00:0FDE: A5 1C        	lda	<L142+length_0
  2548 00:0FE0: E9 00 01     	sbc	#<$100
  2549 00:0FE3: 70 03        	bvs	L145
  2550 00:0FE5: 49 00 80     	eor	#$8000
  2551                        L145:
  2552 00:0FE8: 10 03        	bpl	L146
  2553 00:0FEA: 82 4C 00     	brl	L10125
  2554                        L146:
  2555 00:0FED: F4 00 00     	pea	#<$0
  2556 00:0FF0: D4 0B        	pei	<L143+stream_1+2
  2557 00:0FF2: D4 09        	pei	<L143+stream_1
  2558 00:0FF4: 22 xx xx xx  	jsl	~~write
  2559 00:0FF8: D4 1C        	pei	<L142+length_0
  2560 00:0FFA: D4 0B        	pei	<L143+stream_1+2
  2561 00:0FFC: D4 09        	pei	<L143+stream_1
  2562 00:0FFE: 22 xx xx xx  	jsl	~~write
  2563 00:1002: 38           	sec
  2564 00:1003: A9 00 00     	lda	#$0
  2565 00:1006: E5 1C        	sbc	<L142+length_0
  2566 00:1008: 70 03        	bvs	L147
  2567 00:100A: 49 00 80     	eor	#$8000
  2568                        L147:
  2569 00:100D: 10 03        	bpl	L148
  2570 00:100F: 82 24 00     	brl	L10126
  2571                        L148:
  2572 00:1012: 18           	clc
  2573 00:1013: A9 FF FF     	lda	#$ffff
  2574 00:1016: 65 1C        	adc	<L142+length_0
  2575 00:1018: 85 0D        	sta	<L143+n_1
  2576 00:101A: 82 12 00     	brl	L10130
  2577                        L10129:
  2578 00:101D: A4 0D        	ldy	<L143+n_1
  2579 00:101F: B7 18        	lda	[<L142+string_0],Y
  2580 00:1021: 29 FF 00     	and	#$ff
  2581 00:1024: 48           	pha
  2582 00:1025: D4 0B        	pei	<L143+stream_1+2
  2583 00:1027: D4 09        	pei	<L143+stream_1
  2584 00:1029: 22 xx xx xx  	jsl	~~write
  2585                        L10127:
  2586 00:102D: C6 0D        	dec	<L143+n_1
  2587                        L10130:
  2588 00:102F: A5 0D        	lda	<L143+n_1
  2589 00:1031: 30 03        	bmi	L149
  2590 00:1033: 82 E7 FF     	brl	L10129
  2591                        L149:
  2592                        L10128:
  2593                        L10126:
  2594 00:1036: 82 70 00     	brl	L10131
  2595                        L10125:
  2596 00:1039: F4 01 00     	pea	#<$1
  2597 00:103C: D4 0B        	pei	<L143+stream_1+2
  2598 00:103E: D4 09        	pei	<L143+stream_1
  2599 00:1040: 22 xx xx xx  	jsl	~~write
  2600 00:1044: A5 1C        	lda	<L142+length_0
  2601 00:1046: 85 0F        	sta	<L143+temp_1
  2602 00:1048: 64 0D        	stz	<L143+n_1
  2603 00:104A: 82 1B 00     	brl	L10135
  2604                        L10134:
  Sun Jan  9 2022 20:52                                                Page 46


  2605 00:104D: A5 0F        	lda	<L143+temp_1
  2606 00:104F: 29 FF 00     	and	#<$ff
  2607 00:1052: 48           	pha
  2608 00:1053: D4 0B        	pei	<L143+stream_1+2
  2609 00:1055: D4 09        	pei	<L143+stream_1
  2610 00:1057: 22 xx xx xx  	jsl	~~write
  2611 00:105B: A5 0F        	lda	<L143+temp_1
  2612 00:105D: A2 08 00     	ldx	#<$8
  2613                        	xref	~~~asr
  2614 00:1060: 22 xx xx xx  	jsl	~~~asr
  2615 00:1064: 85 0F        	sta	<L143+temp_1
  2616                        L10132:
  2617 00:1066: E6 0D        	inc	<L143+n_1
  2618                        L10135:
  2619 00:1068: A5 0D        	lda	<L143+n_1
  2620 00:106A: C9 02 00     	cmp	#<$2
  2621 00:106D: B0 03        	bcs	L150
  2622 00:106F: 82 DB FF     	brl	L10134
  2623                        L150:
  2624                        L10133:
  2625 00:1072: D4 0B        	pei	<L143+stream_1+2
  2626 00:1074: D4 09        	pei	<L143+stream_1
  2627 00:1076: A0 00 00     	ldy	#$0
  2628 00:1079: A5 1C        	lda	<L142+length_0
  2629 00:107B: 10 01        	bpl	L151
  2630 00:107D: 88           	dey
  2631                        L151:
  2632 00:107E: 85 01        	sta	<R0
  2633 00:1080: 84 03        	sty	<R0+2
  2634 00:1082: D4 03        	pei	<R0+2
  2635 00:1084: D4 01        	pei	<R0
  2636 00:1086: F4 00 00     	pea	#^$1
  2637 00:1089: F4 01 00     	pea	#<$1
  2638 00:108C: D4 1A        	pei	<L142+string_0+2
  2639 00:108E: D4 18        	pei	<L142+string_0
  2640 00:1090: 22 xx xx xx  	jsl	~~fwrite
  2641 00:1094: 85 11        	sta	<L143+result_1
  2642 00:1096: A5 11        	lda	<L143+result_1
  2643 00:1098: C5 1C        	cmp	<L142+length_0
  2644 00:109A: D0 03        	bne	L152
  2645 00:109C: 82 0A 00     	brl	L10136
  2646                        L152:
  2647 00:109F: F4 73 00     	pea	#<$73
  2648 00:10A2: F4 04 00     	pea	#4
  2649 00:10A5: 22 xx xx xx  	jsl	~~error
  2650                        L10136:
  2651                        L10131:
  2652 00:10A9: A5 16        	lda	<L142+handle_0
  2653 00:10AB: 0A           	asl	A
  2654 00:10AC: 0A           	asl	A
  2655 00:10AD: 0A           	asl	A
  2656 00:10AE: 65 16        	adc	<L142+handle_0
  2657 00:10B0: 85 01        	sta	<R0
  2658 00:10B2: E2 20        	sep	#$20
  2659                        	longa	off
  2660 00:10B4: A9 01        	lda	#$1
  2661 00:10B6: A6 01        	ldx	<R0
  2662 00:10B8: 9D xx xx     	sta	|~~fileinfo+8,X
  Sun Jan  9 2022 20:52                                                Page 47


  2663 00:10BB: C2 20        	rep	#$20
  2664                        	longa	on
  2665                        L153:
  2666 00:10BD: A5 14        	lda	<L142+2
  2667 00:10BF: 85 1C        	sta	<L142+2+8
  2668 00:10C1: A5 13        	lda	<L142+1
  2669 00:10C3: 85 1B        	sta	<L142+1+8
  2670 00:10C5: 2B           	pld
  2671 00:10C6: 3B           	tsc
  2672 00:10C7: 18           	clc
  2673 00:10C8: 69 1A 00     	adc	#L142+8
  2674 00:10CB: 1B           	tcs
  2675 00:10CC: 6B           	rtl
  2676             00000012   L142	equ	18
  2677             00000009   L143	equ	9
  2678                        	ends
  2679                        	efunc
  2680                        	code
  2681                        	xdef	~~fileio_setptr
  2682                        	func
  2683                        ~~fileio_setptr:
  2684                        	longa	on
  2685                        	longi	on
  2686 00:10CD: 3B           	tsc
  2687 00:10CE: 38           	sec
  2688 00:10CF: E9 0E 00     	sbc	#L154
  2689 00:10D2: 1B           	tcs
  2690 00:10D3: 0B           	phd
  2691 00:10D4: 5B           	tcd
  2692             00000004   handle_0	set	4
  2693             00000006   newoffset_0	set	6
  2694             00000000   result_1	set	0
  2695 00:10D5: D4 12        	pei	<L154+handle_0
  2696 00:10D7: 22 xx xx xx  	jsl	~~map_handle
  2697 00:10DB: 85 12        	sta	<L154+handle_0
  2698 00:10DD: F4 00 00     	pea	#<$0
  2699 00:10E0: A0 00 00     	ldy	#$0
  2700 00:10E3: A5 14        	lda	<L154+newoffset_0
  2701 00:10E5: 10 01        	bpl	L156
  2702 00:10E7: 88           	dey
  2703                        L156:
  2704 00:10E8: 85 01        	sta	<R0
  2705 00:10EA: 84 03        	sty	<R0+2
  2706 00:10EC: D4 03        	pei	<R0+2
  2707 00:10EE: D4 01        	pei	<R0
  2708 00:10F0: A5 12        	lda	<L154+handle_0
  2709 00:10F2: 0A           	asl	A
  2710 00:10F3: 0A           	asl	A
  2711 00:10F4: 0A           	asl	A
  2712 00:10F5: 65 12        	adc	<L154+handle_0
  2713 00:10F7: 85 05        	sta	<R1
  2714 00:10F9: 18           	clc
  2715 00:10FA: A9 xx xx     	lda	#<~~fileinfo
  2716 00:10FD: 65 05        	adc	<R1
  2717 00:10FF: 85 09        	sta	<R2
  2718 00:1101: A0 02 00     	ldy	#$2
  2719 00:1104: B1 09        	lda	(<R2),Y
  2720 00:1106: 48           	pha
  Sun Jan  9 2022 20:52                                                Page 48


  2721 00:1107: B2 09        	lda	(<R2)
  2722 00:1109: 48           	pha
  2723 00:110A: 22 xx xx xx  	jsl	~~fseek
  2724 00:110E: 85 0D        	sta	<L155+result_1
  2725 00:1110: A5 0D        	lda	<L155+result_1
  2726 00:1112: C9 FF FF     	cmp	#<$ffffffff
  2727 00:1115: F0 03        	beq	L157
  2728 00:1117: 82 0A 00     	brl	L10137
  2729                        L157:
  2730 00:111A: F4 7D 00     	pea	#<$7d
  2731 00:111D: F4 04 00     	pea	#4
  2732 00:1120: 22 xx xx xx  	jsl	~~error
  2733                        L10137:
  2734 00:1124: A5 12        	lda	<L154+handle_0
  2735 00:1126: 0A           	asl	A
  2736 00:1127: 0A           	asl	A
  2737 00:1128: 0A           	asl	A
  2738 00:1129: 65 12        	adc	<L154+handle_0
  2739 00:112B: 85 01        	sta	<R0
  2740 00:112D: A9 00 00     	lda	#$0
  2741 00:1130: A6 01        	ldx	<R0
  2742 00:1132: 9D xx xx     	sta	|~~fileinfo+6,X
  2743                        L158:
  2744 00:1135: A5 10        	lda	<L154+2
  2745 00:1137: 85 14        	sta	<L154+2+4
  2746 00:1139: A5 0F        	lda	<L154+1
  2747 00:113B: 85 13        	sta	<L154+1+4
  2748 00:113D: 2B           	pld
  2749 00:113E: 3B           	tsc
  2750 00:113F: 18           	clc
  2751 00:1140: 69 12 00     	adc	#L154+4
  2752 00:1143: 1B           	tcs
  2753 00:1144: 6B           	rtl
  2754             0000000E   L154	equ	14
  2755             0000000D   L155	equ	13
  2756                        	ends
  2757                        	efunc
  2758                        	code
  2759                        	xdef	~~fileio_getptr
  2760                        	func
  2761                        ~~fileio_getptr:
  2762                        	longa	on
  2763                        	longi	on
  2764 00:1145: 3B           	tsc
  2765 00:1146: 38           	sec
  2766 00:1147: E9 0A 00     	sbc	#L159
  2767 00:114A: 1B           	tcs
  2768 00:114B: 0B           	phd
  2769 00:114C: 5B           	tcd
  2770             00000004   handle_0	set	4
  2771             00000000   result_1	set	0
  2772 00:114D: D4 0E        	pei	<L159+handle_0
  2773 00:114F: 22 xx xx xx  	jsl	~~map_handle
  2774 00:1153: 85 0E        	sta	<L159+handle_0
  2775 00:1155: A5 0E        	lda	<L159+handle_0
  2776 00:1157: 0A           	asl	A
  2777 00:1158: 0A           	asl	A
  2778 00:1159: 0A           	asl	A
  Sun Jan  9 2022 20:52                                                Page 49


  2779 00:115A: 65 0E        	adc	<L159+handle_0
  2780 00:115C: 85 01        	sta	<R0
  2781 00:115E: 18           	clc
  2782 00:115F: A9 xx xx     	lda	#<~~fileinfo
  2783 00:1162: 65 01        	adc	<R0
  2784 00:1164: 85 05        	sta	<R1
  2785 00:1166: A0 02 00     	ldy	#$2
  2786 00:1169: B1 05        	lda	(<R1),Y
  2787 00:116B: 48           	pha
  2788 00:116C: B2 05        	lda	(<R1)
  2789 00:116E: 48           	pha
  2790 00:116F: 22 xx xx xx  	jsl	~~ftell
  2791 00:1173: 85 09        	sta	<L160+result_1
  2792 00:1175: A5 09        	lda	<L160+result_1
  2793 00:1177: C9 FF FF     	cmp	#<$ffffffff
  2794 00:117A: F0 03        	beq	L161
  2795 00:117C: 82 0A 00     	brl	L10138
  2796                        L161:
  2797 00:117F: F4 7E 00     	pea	#<$7e
  2798 00:1182: F4 04 00     	pea	#4
  2799 00:1185: 22 xx xx xx  	jsl	~~error
  2800                        L10138:
  2801 00:1189: A5 09        	lda	<L160+result_1
  2802                        L162:
  2803 00:118B: A8           	tay
  2804 00:118C: A5 0C        	lda	<L159+2
  2805 00:118E: 85 0E        	sta	<L159+2+2
  2806 00:1190: A5 0B        	lda	<L159+1
  2807 00:1192: 85 0D        	sta	<L159+1+2
  2808 00:1194: 2B           	pld
  2809 00:1195: 3B           	tsc
  2810 00:1196: 18           	clc
  2811 00:1197: 69 0C 00     	adc	#L159+2
  2812 00:119A: 1B           	tcs
  2813 00:119B: 98           	tya
  2814 00:119C: 6B           	rtl
  2815             0000000A   L159	equ	10
  2816             00000009   L160	equ	9
  2817                        	ends
  2818                        	efunc
  2819                        	code
  2820                        	xdef	~~fileio_getext
  2821                        	func
  2822                        ~~fileio_getext:
  2823                        	longa	on
  2824                        	longi	on
  2825 00:119D: 3B           	tsc
  2826 00:119E: 38           	sec
  2827 00:119F: E9 14 00     	sbc	#L163
  2828 00:11A2: 1B           	tcs
  2829 00:11A3: 0B           	phd
  2830 00:11A4: 5B           	tcd
  2831             00000004   handle_0	set	4
  2832             00000000   position_1	set	0
  2833             00000004   length_1	set	4
  2834             00000008   stream_1	set	8
  2835 00:11A5: D4 18        	pei	<L163+handle_0
  2836 00:11A7: 22 xx xx xx  	jsl	~~map_handle
  Sun Jan  9 2022 20:52                                                Page 50


  2837 00:11AB: 85 18        	sta	<L163+handle_0
  2838 00:11AD: A5 18        	lda	<L163+handle_0
  2839 00:11AF: 0A           	asl	A
  2840 00:11B0: 0A           	asl	A
  2841 00:11B1: 0A           	asl	A
  2842 00:11B2: 65 18        	adc	<L163+handle_0
  2843 00:11B4: 85 01        	sta	<R0
  2844 00:11B6: 18           	clc
  2845 00:11B7: A9 xx xx     	lda	#<~~fileinfo
  2846 00:11BA: 65 01        	adc	<R0
  2847 00:11BC: 85 05        	sta	<R1
  2848 00:11BE: B2 05        	lda	(<R1)
  2849 00:11C0: 85 11        	sta	<L164+stream_1
  2850 00:11C2: A0 02 00     	ldy	#$2
  2851 00:11C5: B1 05        	lda	(<R1),Y
  2852 00:11C7: 85 13        	sta	<L164+stream_1+2
  2853 00:11C9: D4 13        	pei	<L164+stream_1+2
  2854 00:11CB: D4 11        	pei	<L164+stream_1
  2855 00:11CD: 22 xx xx xx  	jsl	~~ftell
  2856 00:11D1: 85 09        	sta	<L164+position_1
  2857 00:11D3: 86 0B        	stx	<L164+position_1+2
  2858 00:11D5: A5 09        	lda	<L164+position_1
  2859 00:11D7: C9 FF FF     	cmp	#<$ffffffff
  2860 00:11DA: D0 05        	bne	L165
  2861 00:11DC: A5 0B        	lda	<L164+position_1+2
  2862 00:11DE: C9 FF FF     	cmp	#^$ffffffff
  2863                        L165:
  2864 00:11E1: F0 03        	beq	L166
  2865 00:11E3: 82 0A 00     	brl	L10139
  2866                        L166:
  2867 00:11E6: F4 7F 00     	pea	#<$7f
  2868 00:11E9: F4 04 00     	pea	#4
  2869 00:11EC: 22 xx xx xx  	jsl	~~error
  2870                        L10139:
  2871 00:11F0: F4 02 00     	pea	#<$2
  2872 00:11F3: F4 00 00     	pea	#^$0
  2873 00:11F6: F4 00 00     	pea	#<$0
  2874 00:11F9: D4 13        	pei	<L164+stream_1+2
  2875 00:11FB: D4 11        	pei	<L164+stream_1
  2876 00:11FD: 22 xx xx xx  	jsl	~~fseek
  2877 00:1201: D4 13        	pei	<L164+stream_1+2
  2878 00:1203: D4 11        	pei	<L164+stream_1
  2879 00:1205: 22 xx xx xx  	jsl	~~ftell
  2880 00:1209: 85 0D        	sta	<L164+length_1
  2881 00:120B: 86 0F        	stx	<L164+length_1+2
  2882 00:120D: F4 00 00     	pea	#<$0
  2883 00:1210: D4 0B        	pei	<L164+position_1+2
  2884 00:1212: D4 09        	pei	<L164+position_1
  2885 00:1214: D4 13        	pei	<L164+stream_1+2
  2886 00:1216: D4 11        	pei	<L164+stream_1
  2887 00:1218: 22 xx xx xx  	jsl	~~fseek
  2888 00:121C: A5 0D        	lda	<L164+length_1
  2889                        L167:
  2890 00:121E: A8           	tay
  2891 00:121F: A5 16        	lda	<L163+2
  2892 00:1221: 85 18        	sta	<L163+2+2
  2893 00:1223: A5 15        	lda	<L163+1
  2894 00:1225: 85 17        	sta	<L163+1+2
  Sun Jan  9 2022 20:52                                                Page 51


  2895 00:1227: 2B           	pld
  2896 00:1228: 3B           	tsc
  2897 00:1229: 18           	clc
  2898 00:122A: 69 16 00     	adc	#L163+2
  2899 00:122D: 1B           	tcs
  2900 00:122E: 98           	tya
  2901 00:122F: 6B           	rtl
  2902             00000014   L163	equ	20
  2903             00000009   L164	equ	9
  2904                        	ends
  2905                        	efunc
  2906                        	code
  2907                        	xdef	~~fileio_setext
  2908                        	func
  2909                        ~~fileio_setext:
  2910                        	longa	on
  2911                        	longi	on
  2912 00:1230: 3B           	tsc
  2913 00:1231: 38           	sec
  2914 00:1232: E9 00 00     	sbc	#L168
  2915 00:1235: 1B           	tcs
  2916 00:1236: 0B           	phd
  2917 00:1237: 5B           	tcd
  2918             00000004   handle_0	set	4
  2919             00000006   newsize_0	set	6
  2920 00:1238: D4 04        	pei	<L168+handle_0
  2921 00:123A: 22 xx xx xx  	jsl	~~map_handle
  2922 00:123E: 85 04        	sta	<L168+handle_0
  2923 00:1240: F4 01 00     	pea	#<$1
  2924 00:1243: F4 04 00     	pea	#4
  2925 00:1246: 22 xx xx xx  	jsl	~~error
  2926                        L170:
  2927 00:124A: A5 02        	lda	<L168+2
  2928 00:124C: 85 06        	sta	<L168+2+4
  2929 00:124E: A5 01        	lda	<L168+1
  2930 00:1250: 85 05        	sta	<L168+1+4
  2931 00:1252: 2B           	pld
  2932 00:1253: 3B           	tsc
  2933 00:1254: 18           	clc
  2934 00:1255: 69 04 00     	adc	#L168+4
  2935 00:1258: 1B           	tcs
  2936 00:1259: 6B           	rtl
  2937             00000000   L168	equ	0
  2938             00000001   L169	equ	1
  2939                        	ends
  2940                        	efunc
  2941                        	code
  2942                        	xdef	~~fileio_eof
  2943                        	func
  2944                        ~~fileio_eof:
  2945                        	longa	on
  2946                        	longi	on
  2947 00:125A: 3B           	tsc
  2948 00:125B: 38           	sec
  2949 00:125C: E9 11 00     	sbc	#L171
  2950 00:125F: 1B           	tcs
  2951 00:1260: 0B           	phd
  2952 00:1261: 5B           	tcd
  Sun Jan  9 2022 20:52                                                Page 52


  2953             00000004   handle_0	set	4
  2954             00000000   position_1	set	0
  2955             00000004   stream_1	set	4
  2956             00000008   ateof_1	set	8
  2957 00:1262: D4 15        	pei	<L171+handle_0
  2958 00:1264: 22 xx xx xx  	jsl	~~map_handle
  2959 00:1268: 85 15        	sta	<L171+handle_0
  2960 00:126A: A5 15        	lda	<L171+handle_0
  2961 00:126C: 0A           	asl	A
  2962 00:126D: 0A           	asl	A
  2963 00:126E: 0A           	asl	A
  2964 00:126F: 65 15        	adc	<L171+handle_0
  2965 00:1271: 85 01        	sta	<R0
  2966 00:1273: 18           	clc
  2967 00:1274: A9 xx xx     	lda	#<~~fileinfo
  2968 00:1277: 65 01        	adc	<R0
  2969 00:1279: 85 05        	sta	<R1
  2970 00:127B: B2 05        	lda	(<R1)
  2971 00:127D: 85 0D        	sta	<L172+stream_1
  2972 00:127F: A0 02 00     	ldy	#$2
  2973 00:1282: B1 05        	lda	(<R1),Y
  2974 00:1284: 85 0F        	sta	<L172+stream_1+2
  2975 00:1286: D4 0F        	pei	<L172+stream_1+2
  2976 00:1288: D4 0D        	pei	<L172+stream_1
  2977 00:128A: 22 xx xx xx  	jsl	~~ftell
  2978 00:128E: 85 09        	sta	<L172+position_1
  2979 00:1290: 86 0B        	stx	<L172+position_1+2
  2980 00:1292: A5 09        	lda	<L172+position_1
  2981 00:1294: C9 FF FF     	cmp	#<$ffffffff
  2982 00:1297: D0 05        	bne	L173
  2983 00:1299: A5 0B        	lda	<L172+position_1+2
  2984 00:129B: C9 FF FF     	cmp	#^$ffffffff
  2985                        L173:
  2986 00:129E: F0 03        	beq	L174
  2987 00:12A0: 82 28 00     	brl	L10140
  2988                        L174:
  2989 00:12A3: D4 0F        	pei	<L172+stream_1+2
  2990 00:12A5: D4 0D        	pei	<L172+stream_1
  2991 00:12A7: 22 xx xx xx  	jsl	~~feof
  2992 00:12AB: AA           	tax
  2993 00:12AC: D0 03        	bne	L176
  2994 00:12AE: 82 05 00     	brl	L175
  2995                        L176:
  2996 00:12B1: A9 01 00     	lda	#$1
  2997 00:12B4: 80 03        	bra	L177
  2998                        L175:
  2999 00:12B6: A9 00 00     	lda	#$0
  3000                        L177:
  3001                        L178:
  3002 00:12B9: A8           	tay
  3003 00:12BA: A5 13        	lda	<L171+2
  3004 00:12BC: 85 15        	sta	<L171+2+2
  3005 00:12BE: A5 12        	lda	<L171+1
  3006 00:12C0: 85 14        	sta	<L171+1+2
  3007 00:12C2: 2B           	pld
  3008 00:12C3: 3B           	tsc
  3009 00:12C4: 18           	clc
  3010 00:12C5: 69 13 00     	adc	#L171+2
  Sun Jan  9 2022 20:52                                                Page 53


  3011 00:12C8: 1B           	tcs
  3012 00:12C9: 98           	tya
  3013 00:12CA: 6B           	rtl
  3014                        L10140:
  3015 00:12CB: F4 02 00     	pea	#<$2
  3016 00:12CE: F4 00 00     	pea	#^$0
  3017 00:12D1: F4 00 00     	pea	#<$0
  3018 00:12D4: D4 0F        	pei	<L172+stream_1+2
  3019 00:12D6: D4 0D        	pei	<L172+stream_1
  3020 00:12D8: 22 xx xx xx  	jsl	~~fseek
  3021 00:12DC: 64 01        	stz	<R0
  3022 00:12DE: D4 0F        	pei	<L172+stream_1+2
  3023 00:12E0: D4 0D        	pei	<L172+stream_1
  3024 00:12E2: 22 xx xx xx  	jsl	~~ftell
  3025 00:12E6: 85 05        	sta	<R1
  3026 00:12E8: 86 07        	stx	<R1+2
  3027 00:12EA: A5 05        	lda	<R1
  3028 00:12EC: C5 09        	cmp	<L172+position_1
  3029 00:12EE: D0 04        	bne	L180
  3030 00:12F0: A5 07        	lda	<R1+2
  3031 00:12F2: C5 0B        	cmp	<L172+position_1+2
  3032                        L180:
  3033 00:12F4: F0 03        	beq	L181
  3034 00:12F6: 82 02 00     	brl	L179
  3035                        L181:
  3036 00:12F9: E6 01        	inc	<R0
  3037                        L179:
  3038 00:12FB: E2 20        	sep	#$20
  3039                        	longa	off
  3040 00:12FD: A5 01        	lda	<R0
  3041 00:12FF: 85 11        	sta	<L172+ateof_1
  3042 00:1301: C2 20        	rep	#$20
  3043                        	longa	on
  3044 00:1303: F4 00 00     	pea	#<$0
  3045 00:1306: D4 0B        	pei	<L172+position_1+2
  3046 00:1308: D4 09        	pei	<L172+position_1
  3047 00:130A: D4 0F        	pei	<L172+stream_1+2
  3048 00:130C: D4 0D        	pei	<L172+stream_1
  3049 00:130E: 22 xx xx xx  	jsl	~~fseek
  3050 00:1312: A5 11        	lda	<L172+ateof_1
  3051 00:1314: 29 FF 00     	and	#$ff
  3052 00:1317: 82 9F FF     	brl	L178
  3053             00000011   L171	equ	17
  3054             00000009   L172	equ	9
  3055                        	ends
  3056                        	efunc
  3057                        	code
  3058                        	xdef	~~fileio_shutdown
  3059                        	func
  3060                        ~~fileio_shutdown:
  3061                        	longa	on
  3062                        	longi	on
  3063 00:131A: 3B           	tsc
  3064 00:131B: 38           	sec
  3065 00:131C: E9 08 00     	sbc	#L182
  3066 00:131F: 1B           	tcs
  3067 00:1320: 0B           	phd
  3068 00:1321: 5B           	tcd
  Sun Jan  9 2022 20:52                                                Page 54


  3069             00000000   n_1	set	0
  3070             00000002   count_1	set	2
  3071 00:1322: 64 07        	stz	<L183+count_1
  3072 00:1324: 64 05        	stz	<L183+n_1
  3073                        L10143:
  3074 00:1326: A5 05        	lda	<L183+n_1
  3075 00:1328: 0A           	asl	A
  3076 00:1329: 0A           	asl	A
  3077 00:132A: 0A           	asl	A
  3078 00:132B: 65 05        	adc	<L183+n_1
  3079 00:132D: 85 01        	sta	<R0
  3080 00:132F: A6 01        	ldx	<R0
  3081 00:1331: BD xx xx     	lda	|~~fileinfo+4,X
  3082 00:1334: D0 03        	bne	L184
  3083 00:1336: 82 08 00     	brl	L10144
  3084                        L184:
  3085 00:1339: D4 05        	pei	<L183+n_1
  3086 00:133B: 22 xx xx xx  	jsl	~~close_file
  3087 00:133F: E6 07        	inc	<L183+count_1
  3088                        L10144:
  3089                        L10141:
  3090 00:1341: E6 05        	inc	<L183+n_1
  3091 00:1343: 38           	sec
  3092 00:1344: A5 05        	lda	<L183+n_1
  3093 00:1346: E9 19 00     	sbc	#<$19
  3094 00:1349: 70 03        	bvs	L185
  3095 00:134B: 49 00 80     	eor	#$8000
  3096                        L185:
  3097 00:134E: 30 03        	bmi	L186
  3098 00:1350: 82 D3 FF     	brl	L10143
  3099                        L186:
  3100                        L10142:
  3101 00:1353: A5 07        	lda	<L183+count_1
  3102 00:1355: C9 01 00     	cmp	#<$1
  3103 00:1358: F0 03        	beq	L187
  3104 00:135A: 82 0D 00     	brl	L10145
  3105                        L187:
  3106 00:135D: F4 8C 00     	pea	#<$8c
  3107 00:1360: F4 04 00     	pea	#4
  3108 00:1363: 22 xx xx xx  	jsl	~~error
  3109 00:1367: 82 1C 00     	brl	L10146
  3110                        L10145:
  3111 00:136A: 38           	sec
  3112 00:136B: A9 01 00     	lda	#$1
  3113 00:136E: E5 07        	sbc	<L183+count_1
  3114 00:1370: 70 03        	bvs	L188
  3115 00:1372: 49 00 80     	eor	#$8000
  3116                        L188:
  3117 00:1375: 10 03        	bpl	L189
  3118 00:1377: 82 0C 00     	brl	L10147
  3119                        L189:
  3120 00:137A: D4 07        	pei	<L183+count_1
  3121 00:137C: F4 8D 00     	pea	#<$8d
  3122 00:137F: F4 06 00     	pea	#6
  3123 00:1382: 22 xx xx xx  	jsl	~~error
  3124                        L10147:
  3125                        L10146:
  3126                        L190:
  Sun Jan  9 2022 20:52                                                Page 55


  3127 00:1386: 2B           	pld
  3128 00:1387: 3B           	tsc
  3129 00:1388: 18           	clc
  3130 00:1389: 69 08 00     	adc	#L182
  3131 00:138C: 1B           	tcs
  3132 00:138D: 6B           	rtl
  3133             00000008   L182	equ	8
  3134             00000005   L183	equ	5
  3135                        	ends
  3136                        	efunc
  3137                        	code
  3138                        	func
  3139                        ~~find_floatformat:
  3140                        	longa	on
  3141                        	longi	on
  3142 00:138E: 3B           	tsc
  3143 00:138F: 38           	sec
  3144 00:1390: E9 04 00     	sbc	#L191
  3145 00:1393: 1B           	tcs
  3146 00:1394: 0B           	phd
  3147 00:1395: 5B           	tcd
  3148             00000000   value_1	set	0
  3149 00:1396: A9 00 00     	lda	#$0
  3150 00:1399: 85 01        	sta	<L192+value_1
  3151 00:139B: A9 80 3F     	lda	#$3f80
  3152 00:139E: 85 03        	sta	<L192+value_1+2
  3153 00:13A0: E2 20        	sep	#$20
  3154                        	longa	off
  3155 00:13A2: A5 04        	lda	<L192+value_1+3
  3156 00:13A4: C9 3F        	cmp	#<$3f
  3157 00:13A6: C2 20        	rep	#$20
  3158                        	longa	on
  3159 00:13A8: F0 03        	beq	L193
  3160 00:13AA: 82 06 00     	brl	L10148
  3161                        L193:
  3162 00:13AD: 9C xx xx     	stz	|~~double_type
  3163 00:13B0: 82 52 00     	brl	L10149
  3164                        L10148:
  3165 00:13B3: E2 20        	sep	#$20
  3166                        	longa	off
  3167 00:13B5: A5 08        	lda	<L192+value_1+7
  3168 00:13B7: C9 3F        	cmp	#<$3f
  3169 00:13B9: C2 20        	rep	#$20
  3170                        	longa	on
  3171 00:13BB: F0 03        	beq	L194
  3172 00:13BD: 82 09 00     	brl	L10150
  3173                        L194:
  3174 00:13C0: A9 01 00     	lda	#$1
  3175 00:13C3: 8D xx xx     	sta	|~~double_type
  3176 00:13C6: 82 3C 00     	brl	L10151
  3177                        L10150:
  3178 00:13C9: E2 20        	sep	#$20
  3179                        	longa	off
  3180 00:13CB: A5 01        	lda	<L192+value_1
  3181 00:13CD: C9 3F        	cmp	#<$3f
  3182 00:13CF: C2 20        	rep	#$20
  3183                        	longa	on
  3184 00:13D1: F0 03        	beq	L195
  Sun Jan  9 2022 20:52                                                Page 56


  3185 00:13D3: 82 09 00     	brl	L10152
  3186                        L195:
  3187 00:13D6: A9 02 00     	lda	#$2
  3188 00:13D9: 8D xx xx     	sta	|~~double_type
  3189 00:13DC: 82 26 00     	brl	L10153
  3190                        L10152:
  3191 00:13DF: E2 20        	sep	#$20
  3192                        	longa	off
  3193 00:13E1: A5 05        	lda	<L192+value_1+4
  3194 00:13E3: C9 3F        	cmp	#<$3f
  3195 00:13E5: C2 20        	rep	#$20
  3196                        	longa	on
  3197 00:13E7: F0 03        	beq	L196
  3198 00:13E9: 82 09 00     	brl	L10154
  3199                        L196:
  3200 00:13EC: A9 03 00     	lda	#$3
  3201 00:13EF: 8D xx xx     	sta	|~~double_type
  3202 00:13F2: 82 10 00     	brl	L10155
  3203                        L10154:
  3204 00:13F5: A9 01 00     	lda	#$1
  3205 00:13F8: 8D xx xx     	sta	|~~double_type
  3206 00:13FB: F4 91 00     	pea	#<$91
  3207 00:13FE: F4 04 00     	pea	#4
  3208 00:1401: 22 xx xx xx  	jsl	~~error
  3209                        L10155:
  3210                        L10153:
  3211                        L10151:
  3212                        L10149:
  3213                        L197:
  3214 00:1405: 2B           	pld
  3215 00:1406: 3B           	tsc
  3216 00:1407: 18           	clc
  3217 00:1408: 69 04 00     	adc	#L191
  3218 00:140B: 1B           	tcs
  3219 00:140C: 6B           	rtl
  3220             00000004   L191	equ	4
  3221             00000001   L192	equ	1
  3222                        	ends
  3223                        	efunc
  3224                        	code
  3225                        	xdef	~~init_fileio
  3226                        	func
  3227                        ~~init_fileio:
  3228                        	longa	on
  3229                        	longi	on
  3230 00:140D: 3B           	tsc
  3231 00:140E: 38           	sec
  3232 00:140F: E9 0A 00     	sbc	#L198
  3233 00:1412: 1B           	tcs
  3234 00:1413: 0B           	phd
  3235 00:1414: 5B           	tcd
  3236             00000000   n_1	set	0
  3237 00:1415: 64 09        	stz	<L199+n_1
  3238                        L10158:
  3239 00:1417: A5 09        	lda	<L199+n_1
  3240 00:1419: 0A           	asl	A
  3241 00:141A: 0A           	asl	A
  3242 00:141B: 0A           	asl	A
  Sun Jan  9 2022 20:52                                                Page 57


  3243 00:141C: 65 09        	adc	<L199+n_1
  3244 00:141E: 85 01        	sta	<R0
  3245 00:1420: 18           	clc
  3246 00:1421: A9 xx xx     	lda	#<~~fileinfo
  3247 00:1424: 65 01        	adc	<R0
  3248 00:1426: 85 05        	sta	<R1
  3249 00:1428: A9 00 00     	lda	#$0
  3250 00:142B: 92 05        	sta	(<R1)
  3251 00:142D: A9 00 00     	lda	#$0
  3252 00:1430: A0 02 00     	ldy	#$2
  3253 00:1433: 91 05        	sta	(<R1),Y
  3254 00:1435: A5 09        	lda	<L199+n_1
  3255 00:1437: 0A           	asl	A
  3256 00:1438: 0A           	asl	A
  3257 00:1439: 0A           	asl	A
  3258 00:143A: 65 09        	adc	<L199+n_1
  3259 00:143C: 85 01        	sta	<R0
  3260 00:143E: A9 00 00     	lda	#$0
  3261 00:1441: A6 01        	ldx	<R0
  3262 00:1443: 9D xx xx     	sta	|~~fileinfo+4,X
  3263 00:1446: A5 09        	lda	<L199+n_1
  3264 00:1448: 0A           	asl	A
  3265 00:1449: 0A           	asl	A
  3266 00:144A: 0A           	asl	A
  3267 00:144B: 65 09        	adc	<L199+n_1
  3268 00:144D: 85 01        	sta	<R0
  3269 00:144F: A9 02 00     	lda	#$2
  3270 00:1452: A6 01        	ldx	<R0
  3271 00:1454: 9D xx xx     	sta	|~~fileinfo+6,X
  3272                        L10156:
  3273 00:1457: E6 09        	inc	<L199+n_1
  3274 00:1459: 38           	sec
  3275 00:145A: A5 09        	lda	<L199+n_1
  3276 00:145C: E9 19 00     	sbc	#<$19
  3277 00:145F: 70 03        	bvs	L200
  3278 00:1461: 49 00 80     	eor	#$8000
  3279                        L200:
  3280 00:1464: 30 03        	bmi	L201
  3281 00:1466: 82 AE FF     	brl	L10158
  3282                        L201:
  3283                        L10157:
  3284 00:1469: 22 xx xx xx  	jsl	~~find_floatformat
  3285                        L202:
  3286 00:146D: 2B           	pld
  3287 00:146E: 3B           	tsc
  3288 00:146F: 18           	clc
  3289 00:1470: 69 0A 00     	adc	#L198
  3290 00:1473: 1B           	tcs
  3291 00:1474: 6B           	rtl
  3292             0000000A   L198	equ	10
  3293             00000009   L199	equ	9
  3294                        	ends
  3295                        	efunc
  3296                        	xref	~~error
  3297                        	xref	~~pow
  3298                        	xref	~~strpbrk
  3299                        	xref	~~strlen
  3300                        	xref	~~memmove
  Sun Jan  9 2022 20:52                                                Page 58


  3301                        	xref	~~feof
  3302                        	xref	~~fclose
  3303                        	xref	~~fflush
  3304                        	xref	~~fwrite
  3305                        	xref	~~ftell
  3306                        	xref	~~fseek
  3307                        	xref	~~fputc
  3308                        	xref	~~fgets
  3309                        	xref	~~fgetc
  3310                        	xref	~~fopen
  3311                        	udata
  3312                        ~~fileinfo
  3313 00:0000:              	ds	225
  3314 00:00E1:              	ends
  3315                        	udata
  3316                        	xdef	~~double_type
  3317                        ~~double_type
  3318 00:00E1:              	ds	2
  3319 00:00E3:              	ends
  3320                        	end


      Lines assembled: 3320
      Errors: 0
