  Sun Jan  9 2022 20:52                                                Page 1


                     ***************************************
                     **      WDC 65C816 Macro Assembler   **
                     **                                   **
                     **     Version 3.49.1- Feb  6 2006    **
                     ***************************************

     1                        ;:ts=8
     2             00000001   R0	equ	1
     3             00000005   R1	equ	5
     4             00000009   R2	equ	9
     5             0000000D   R3	equ	13
     6                        	code
     7                        	xdef	~~init_heap
     8                        	func
     9                        ~~init_heap:
    10                        	longa	on
    11                        	longi	on
    12 00:0000: 3B           	tsc
    13 00:0001: 38           	sec
    14 00:0002: E9 04 00     	sbc	#L2
    15 00:0005: 1B           	tcs
    16 00:0006: 0B           	phd
    17 00:0007: 5B           	tcd
    18 00:0008: F4 00 00     	pea	#^$1000
    19 00:000B: F4 00 10     	pea	#<$1000
    20 00:000E: 22 xx xx xx  	jsl	~~malloc
    21 00:0012: 8D xx xx     	sta	|~~basicvars+70
    22 00:0015: 8E xx xx     	stx	|~~basicvars+70+2
    23 00:0018: 64 01        	stz	<R0
    24 00:001A: AD xx xx     	lda	|~~basicvars+70
    25 00:001D: 0D xx xx     	ora	|~~basicvars+70+2
    26 00:0020: D0 03        	bne	L5
    27 00:0022: 82 02 00     	brl	L4
    28                        L5:
    29 00:0025: E6 01        	inc	<R0
    30                        L4:
    31 00:0027: A5 01        	lda	<R0
    32 00:0029: 29 FF 00     	and	#$ff
    33                        L6:
    34 00:002C: A8           	tay
    35 00:002D: 2B           	pld
    36 00:002E: 3B           	tsc
    37 00:002F: 18           	clc
    38 00:0030: 69 04 00     	adc	#L2
    39 00:0033: 1B           	tcs
    40 00:0034: 98           	tya
    41 00:0035: 6B           	rtl
    42             00000004   L2	equ	4
    43             00000005   L3	equ	5
    44                        	ends
    45                        	efunc
    46                        	code
    47                        	xdef	~~init_workspace
    48                        	func
    49                        ~~init_workspace:
    50                        	longa	on
    51                        	longi	on
    52 00:0036: 3B           	tsc
  Sun Jan  9 2022 20:52                                                Page 2


    53 00:0037: 38           	sec
    54 00:0038: E9 08 00     	sbc	#L7
    55 00:003B: 1B           	tcs
    56 00:003C: 0B           	phd
    57 00:003D: 5B           	tcd
    58             00000004   heapsize_0	set	4
    59             00000000   wp_1	set	0
    60 00:003E: A5 0C        	lda	<L7+heapsize_0
    61 00:0040: F0 03        	beq	L9
    62 00:0042: 82 05 00     	brl	L10001
    63                        L9:
    64 00:0045: 64 0C        	stz	<L7+heapsize_0
    65 00:0047: 82 20 00     	brl	L10002
    66                        L10001:
    67 00:004A: 38           	sec
    68 00:004B: A5 0C        	lda	<L7+heapsize_0
    69 00:004D: E9 00 28     	sbc	#<$2800
    70 00:0050: 70 03        	bvs	L10
    71 00:0052: 49 00 80     	eor	#$8000
    72                        L10:
    73 00:0055: 10 03        	bpl	L11
    74 00:0057: 82 08 00     	brl	L10003
    75                        L11:
    76 00:005A: A9 00 28     	lda	#$2800
    77 00:005D: 85 0C        	sta	<L7+heapsize_0
    78 00:005F: 82 08 00     	brl	L10004
    79                        L10003:
    80 00:0062: A5 0C        	lda	<L7+heapsize_0
    81 00:0064: 1A           	ina
    82 00:0065: 29 FE FF     	and	#<$fffffffe
    83 00:0068: 85 0C        	sta	<L7+heapsize_0
    84                        L10004:
    85                        L10002:
    86 00:006A: A0 00 00     	ldy	#$0
    87 00:006D: A5 0C        	lda	<L7+heapsize_0
    88 00:006F: 10 01        	bpl	L12
    89 00:0071: 88           	dey
    90                        L12:
    91 00:0072: 85 01        	sta	<R0
    92 00:0074: 84 03        	sty	<R0+2
    93 00:0076: D4 03        	pei	<R0+2
    94 00:0078: D4 01        	pei	<R0
    95 00:007A: 22 xx xx xx  	jsl	~~malloc
    96 00:007E: 85 05        	sta	<L8+wp_1
    97 00:0080: 86 07        	stx	<L8+wp_1+2
    98 00:0082: A5 05        	lda	<L8+wp_1
    99 00:0084: 05 07        	ora	<L8+wp_1+2
   100 00:0086: F0 03        	beq	L13
   101 00:0088: 82 02 00     	brl	L10005
   102                        L13:
   103 00:008B: 64 0C        	stz	<L7+heapsize_0
   104                        L10005:
   105 00:008D: A5 0C        	lda	<L7+heapsize_0
   106 00:008F: 8D xx xx     	sta	|~~basicvars+4
   107 00:0092: A5 05        	lda	<L8+wp_1
   108 00:0094: 8D xx xx     	sta	|~~basicvars
   109 00:0097: A5 07        	lda	<L8+wp_1+2
   110 00:0099: 8D xx xx     	sta	|~~basicvars+2
  Sun Jan  9 2022 20:52                                                Page 3


   111 00:009C: A5 05        	lda	<L8+wp_1
   112 00:009E: 8D xx xx     	sta	|~~basicvars+18
   113 00:00A1: A5 07        	lda	<L8+wp_1+2
   114 00:00A3: 8D xx xx     	sta	|~~basicvars+18+2
   115 00:00A6: A0 00 00     	ldy	#$0
   116 00:00A9: AD xx xx     	lda	|~~basicvars+4
   117 00:00AC: 10 01        	bpl	L14
   118 00:00AE: 88           	dey
   119                        L14:
   120 00:00AF: 85 01        	sta	<R0
   121 00:00B1: 84 03        	sty	<R0+2
   122 00:00B3: 18           	clc
   123 00:00B4: A5 05        	lda	<L8+wp_1
   124 00:00B6: 65 01        	adc	<R0
   125 00:00B8: 8D xx xx     	sta	|~~basicvars+50
   126 00:00BB: A5 07        	lda	<L8+wp_1+2
   127 00:00BD: 65 03        	adc	<R0+2
   128 00:00BF: 8D xx xx     	sta	|~~basicvars+50+2
   129 00:00C2: AD xx xx     	lda	|~~basicvars+50
   130 00:00C5: 8D xx xx     	sta	|~~basicvars+54
   131 00:00C8: AD xx xx     	lda	|~~basicvars+50+2
   132 00:00CB: 8D xx xx     	sta	|~~basicvars+54+2
   133 00:00CE: AD xx xx     	lda	|~~basicvars+50
   134 00:00D1: 8D xx xx     	sta	|~~basicvars+58
   135 00:00D4: AD xx xx     	lda	|~~basicvars+50+2
   136 00:00D7: 8D xx xx     	sta	|~~basicvars+58+2
   137 00:00DA: A5 05        	lda	<L8+wp_1
   138 00:00DC: 8D xx xx     	sta	|~~basicvars+6
   139 00:00DF: A5 07        	lda	<L8+wp_1+2
   140 00:00E1: 8D xx xx     	sta	|~~basicvars+6+2
   141 00:00E4: 64 01        	stz	<R0
   142 00:00E6: A5 05        	lda	<L8+wp_1
   143 00:00E8: 05 07        	ora	<L8+wp_1+2
   144 00:00EA: D0 03        	bne	L16
   145 00:00EC: 82 02 00     	brl	L15
   146                        L16:
   147 00:00EF: E6 01        	inc	<R0
   148                        L15:
   149 00:00F1: A5 01        	lda	<R0
   150 00:00F3: 29 FF 00     	and	#$ff
   151                        L17:
   152 00:00F6: A8           	tay
   153 00:00F7: A5 0A        	lda	<L7+2
   154 00:00F9: 85 0C        	sta	<L7+2+2
   155 00:00FB: A5 09        	lda	<L7+1
   156 00:00FD: 85 0B        	sta	<L7+1+2
   157 00:00FF: 2B           	pld
   158 00:0100: 3B           	tsc
   159 00:0101: 18           	clc
   160 00:0102: 69 0A 00     	adc	#L7+2
   161 00:0105: 1B           	tcs
   162 00:0106: 98           	tya
   163 00:0107: 6B           	rtl
   164             00000008   L7	equ	8
   165             00000005   L8	equ	5
   166                        	ends
   167                        	efunc
   168                        	code
  Sun Jan  9 2022 20:52                                                Page 4


   169                        	xdef	~~release_workspace
   170                        	func
   171                        ~~release_workspace:
   172                        	longa	on
   173                        	longi	on
   174 00:0108: 3B           	tsc
   175 00:0109: 38           	sec
   176 00:010A: E9 00 00     	sbc	#L18
   177 00:010D: 1B           	tcs
   178 00:010E: 0B           	phd
   179 00:010F: 5B           	tcd
   180 00:0110: AD xx xx     	lda	|~~basicvars
   181 00:0113: 0D xx xx     	ora	|~~basicvars+2
   182 00:0116: D0 03        	bne	L20
   183 00:0118: 82 15 00     	brl	L10006
   184                        L20:
   185 00:011B: AD xx xx     	lda	|~~basicvars+2
   186 00:011E: 48           	pha
   187 00:011F: AD xx xx     	lda	|~~basicvars
   188 00:0122: 48           	pha
   189 00:0123: 22 xx xx xx  	jsl	~~free
   190 00:0127: 9C xx xx     	stz	|~~basicvars
   191 00:012A: 9C xx xx     	stz	|~~basicvars+2
   192 00:012D: 9C xx xx     	stz	|~~basicvars+4
   193                        L10006:
   194                        L21:
   195 00:0130: 2B           	pld
   196 00:0131: 3B           	tsc
   197 00:0132: 18           	clc
   198 00:0133: 69 00 00     	adc	#L18
   199 00:0136: 1B           	tcs
   200 00:0137: 6B           	rtl
   201             00000000   L18	equ	0
   202             00000001   L19	equ	1
   203                        	ends
   204                        	efunc
   205                        	code
   206                        	xdef	~~release_heap
   207                        	func
   208                        ~~release_heap:
   209                        	longa	on
   210                        	longi	on
   211 00:0138: 3B           	tsc
   212 00:0139: 38           	sec
   213 00:013A: E9 08 00     	sbc	#L22
   214 00:013D: 1B           	tcs
   215 00:013E: 0B           	phd
   216 00:013F: 5B           	tcd
   217             00000000   lp_1	set	0
   218             00000004   lp2_1	set	4
   219 00:0140: AD xx xx     	lda	|~~basicvars+415
   220 00:0143: 85 01        	sta	<L23+lp_1
   221 00:0145: AD xx xx     	lda	|~~basicvars+415+2
   222 00:0148: 85 03        	sta	<L23+lp_1+2
   223                        L10007:
   224 00:014A: A5 01        	lda	<L23+lp_1
   225 00:014C: 05 03        	ora	<L23+lp_1+2
   226 00:014E: D0 03        	bne	L24
  Sun Jan  9 2022 20:52                                                Page 5


   227 00:0150: 82 2E 00     	brl	L10008
   228                        L24:
   229 00:0153: A7 01        	lda	[<L23+lp_1]
   230 00:0155: 85 05        	sta	<L23+lp2_1
   231 00:0157: A0 02 00     	ldy	#$2
   232 00:015A: B7 01        	lda	[<L23+lp_1],Y
   233 00:015C: 85 07        	sta	<L23+lp2_1+2
   234 00:015E: A0 06 00     	ldy	#$6
   235 00:0161: B7 01        	lda	[<L23+lp_1],Y
   236 00:0163: 48           	pha
   237 00:0164: A0 04 00     	ldy	#$4
   238 00:0167: B7 01        	lda	[<L23+lp_1],Y
   239 00:0169: 48           	pha
   240 00:016A: 22 xx xx xx  	jsl	~~free
   241 00:016E: D4 03        	pei	<L23+lp_1+2
   242 00:0170: D4 01        	pei	<L23+lp_1
   243 00:0172: 22 xx xx xx  	jsl	~~free
   244 00:0176: A5 05        	lda	<L23+lp2_1
   245 00:0178: 85 01        	sta	<L23+lp_1
   246 00:017A: A5 07        	lda	<L23+lp2_1+2
   247 00:017C: 85 03        	sta	<L23+lp_1+2
   248 00:017E: 82 C9 FF     	brl	L10007
   249                        L10008:
   250 00:0181: 22 xx xx xx  	jsl	~~release_workspace
   251 00:0185: AD xx xx     	lda	|~~basicvars+70+2
   252 00:0188: 48           	pha
   253 00:0189: AD xx xx     	lda	|~~basicvars+70
   254 00:018C: 48           	pha
   255 00:018D: 22 xx xx xx  	jsl	~~free
   256 00:0191: AD xx xx     	lda	|~~basicvars+419
   257 00:0194: 0D xx xx     	ora	|~~basicvars+419+2
   258 00:0197: D0 03        	bne	L25
   259 00:0199: 82 0C 00     	brl	L10009
   260                        L25:
   261 00:019C: AD xx xx     	lda	|~~basicvars+419+2
   262 00:019F: 48           	pha
   263 00:01A0: AD xx xx     	lda	|~~basicvars+419
   264 00:01A3: 48           	pha
   265 00:01A4: 22 xx xx xx  	jsl	~~free
   266                        L10009:
   267                        L26:
   268 00:01A8: 2B           	pld
   269 00:01A9: 3B           	tsc
   270 00:01AA: 18           	clc
   271 00:01AB: 69 08 00     	adc	#L22
   272 00:01AE: 1B           	tcs
   273 00:01AF: 6B           	rtl
   274             00000008   L22	equ	8
   275             00000001   L23	equ	1
   276                        	ends
   277                        	efunc
   278                        	code
   279                        	xdef	~~allocmem
   280                        	func
   281                        ~~allocmem:
   282                        	longa	on
   283                        	longi	on
   284 00:01B0: 3B           	tsc
  Sun Jan  9 2022 20:52                                                Page 6


   285 00:01B1: 38           	sec
   286 00:01B2: E9 08 00     	sbc	#L27
   287 00:01B5: 1B           	tcs
   288 00:01B6: 0B           	phd
   289 00:01B7: 5B           	tcd
   290             00000004   size_0	set	4
   291             00000000   newlimit_1	set	0
   292 00:01B8: A5 0C        	lda	<L27+size_0
   293 00:01BA: 1A           	ina
   294 00:01BB: 29 FE FF     	and	#<$fffffffe
   295 00:01BE: 85 0C        	sta	<L27+size_0
   296 00:01C0: A0 00 00     	ldy	#$0
   297 00:01C3: A5 0C        	lda	<L27+size_0
   298 00:01C5: 10 01        	bpl	L29
   299 00:01C7: 88           	dey
   300                        L29:
   301 00:01C8: 85 01        	sta	<R0
   302 00:01CA: 84 03        	sty	<R0+2
   303 00:01CC: 18           	clc
   304 00:01CD: AD xx xx     	lda	|~~basicvars+38
   305 00:01D0: 65 01        	adc	<R0
   306 00:01D2: 85 05        	sta	<L28+newlimit_1
   307 00:01D4: AD xx xx     	lda	|~~basicvars+38+2
   308 00:01D7: 65 03        	adc	<R0+2
   309 00:01D9: 85 07        	sta	<L28+newlimit_1+2
   310 00:01DB: A5 05        	lda	<L28+newlimit_1
   311 00:01DD: CD xx xx     	cmp	|~~basicvars+42
   312 00:01E0: A5 07        	lda	<L28+newlimit_1+2
   313 00:01E2: ED xx xx     	sbc	|~~basicvars+42+2
   314 00:01E5: B0 03        	bcs	L30
   315 00:01E7: 82 0A 00     	brl	L10010
   316                        L30:
   317 00:01EA: F4 59 00     	pea	#<$59
   318 00:01ED: F4 04 00     	pea	#4
   319 00:01F0: 22 xx xx xx  	jsl	~~error
   320                        L10010:
   321 00:01F4: A5 05        	lda	<L28+newlimit_1
   322 00:01F6: 8D xx xx     	sta	|~~basicvars+38
   323 00:01F9: A5 07        	lda	<L28+newlimit_1+2
   324 00:01FB: 8D xx xx     	sta	|~~basicvars+38+2
   325 00:01FE: AD xx xx     	lda	|~~basicvars+34
   326 00:0201: 85 05        	sta	<L28+newlimit_1
   327 00:0203: AD xx xx     	lda	|~~basicvars+34+2
   328 00:0206: 85 07        	sta	<L28+newlimit_1+2
   329 00:0208: A0 00 00     	ldy	#$0
   330 00:020B: A5 0C        	lda	<L27+size_0
   331 00:020D: 10 01        	bpl	L31
   332 00:020F: 88           	dey
   333                        L31:
   334 00:0210: 85 01        	sta	<R0
   335 00:0212: 84 03        	sty	<R0+2
   336 00:0214: 18           	clc
   337 00:0215: AD xx xx     	lda	|~~basicvars+34
   338 00:0218: 65 01        	adc	<R0
   339 00:021A: 8D xx xx     	sta	|~~basicvars+34
   340 00:021D: AD xx xx     	lda	|~~basicvars+34+2
   341 00:0220: 65 03        	adc	<R0+2
   342 00:0222: 8D xx xx     	sta	|~~basicvars+34+2
  Sun Jan  9 2022 20:52                                                Page 7


   343 00:0225: A6 07        	ldx	<L28+newlimit_1+2
   344 00:0227: A5 05        	lda	<L28+newlimit_1
   345                        L32:
   346 00:0229: A8           	tay
   347 00:022A: A5 0A        	lda	<L27+2
   348 00:022C: 85 0C        	sta	<L27+2+2
   349 00:022E: A5 09        	lda	<L27+1
   350 00:0230: 85 0B        	sta	<L27+1+2
   351 00:0232: 2B           	pld
   352 00:0233: 3B           	tsc
   353 00:0234: 18           	clc
   354 00:0235: 69 0A 00     	adc	#L27+2
   355 00:0238: 1B           	tcs
   356 00:0239: 98           	tya
   357 00:023A: 6B           	rtl
   358             00000008   L27	equ	8
   359             00000005   L28	equ	5
   360                        	ends
   361                        	efunc
   362                        	code
   363                        	xdef	~~condalloc
   364                        	func
   365                        ~~condalloc:
   366                        	longa	on
   367                        	longi	on
   368 00:023B: 3B           	tsc
   369 00:023C: 38           	sec
   370 00:023D: E9 08 00     	sbc	#L33
   371 00:0240: 1B           	tcs
   372 00:0241: 0B           	phd
   373 00:0242: 5B           	tcd
   374             00000004   size_0	set	4
   375             00000000   newlimit_1	set	0
   376 00:0243: A5 0C        	lda	<L33+size_0
   377 00:0245: 1A           	ina
   378 00:0246: 29 FE FF     	and	#<$fffffffe
   379 00:0249: 85 0C        	sta	<L33+size_0
   380 00:024B: A0 00 00     	ldy	#$0
   381 00:024E: A5 0C        	lda	<L33+size_0
   382 00:0250: 10 01        	bpl	L35
   383 00:0252: 88           	dey
   384                        L35:
   385 00:0253: 85 01        	sta	<R0
   386 00:0255: 84 03        	sty	<R0+2
   387 00:0257: 18           	clc
   388 00:0258: AD xx xx     	lda	|~~basicvars+38
   389 00:025B: 65 01        	adc	<R0
   390 00:025D: 85 05        	sta	<L34+newlimit_1
   391 00:025F: AD xx xx     	lda	|~~basicvars+38+2
   392 00:0262: 65 03        	adc	<R0+2
   393 00:0264: 85 07        	sta	<L34+newlimit_1+2
   394 00:0266: A5 05        	lda	<L34+newlimit_1
   395 00:0268: CD xx xx     	cmp	|~~basicvars+42
   396 00:026B: A5 07        	lda	<L34+newlimit_1+2
   397 00:026D: ED xx xx     	sbc	|~~basicvars+42+2
   398 00:0270: B0 03        	bcs	L36
   399 00:0272: 82 19 00     	brl	L10011
   400                        L36:
  Sun Jan  9 2022 20:52                                                Page 8


   401 00:0275: A9 00 00     	lda	#$0
   402 00:0278: AA           	tax
   403 00:0279: A9 00 00     	lda	#$0
   404                        L37:
   405 00:027C: A8           	tay
   406 00:027D: A5 0A        	lda	<L33+2
   407 00:027F: 85 0C        	sta	<L33+2+2
   408 00:0281: A5 09        	lda	<L33+1
   409 00:0283: 85 0B        	sta	<L33+1+2
   410 00:0285: 2B           	pld
   411 00:0286: 3B           	tsc
   412 00:0287: 18           	clc
   413 00:0288: 69 0A 00     	adc	#L33+2
   414 00:028B: 1B           	tcs
   415 00:028C: 98           	tya
   416 00:028D: 6B           	rtl
   417                        L10011:
   418 00:028E: A5 05        	lda	<L34+newlimit_1
   419 00:0290: 8D xx xx     	sta	|~~basicvars+38
   420 00:0293: A5 07        	lda	<L34+newlimit_1+2
   421 00:0295: 8D xx xx     	sta	|~~basicvars+38+2
   422 00:0298: AD xx xx     	lda	|~~basicvars+34
   423 00:029B: 85 05        	sta	<L34+newlimit_1
   424 00:029D: AD xx xx     	lda	|~~basicvars+34+2
   425 00:02A0: 85 07        	sta	<L34+newlimit_1+2
   426 00:02A2: A0 00 00     	ldy	#$0
   427 00:02A5: A5 0C        	lda	<L33+size_0
   428 00:02A7: 10 01        	bpl	L38
   429 00:02A9: 88           	dey
   430                        L38:
   431 00:02AA: 85 01        	sta	<R0
   432 00:02AC: 84 03        	sty	<R0+2
   433 00:02AE: 18           	clc
   434 00:02AF: AD xx xx     	lda	|~~basicvars+34
   435 00:02B2: 65 01        	adc	<R0
   436 00:02B4: 8D xx xx     	sta	|~~basicvars+34
   437 00:02B7: AD xx xx     	lda	|~~basicvars+34+2
   438 00:02BA: 65 03        	adc	<R0+2
   439 00:02BC: 8D xx xx     	sta	|~~basicvars+34+2
   440 00:02BF: A6 07        	ldx	<L34+newlimit_1+2
   441 00:02C1: A5 05        	lda	<L34+newlimit_1
   442 00:02C3: 82 B6 FF     	brl	L37
   443             00000008   L33	equ	8
   444             00000005   L34	equ	5
   445                        	ends
   446                        	efunc
   447                        	code
   448                        	xdef	~~freemem
   449                        	func
   450                        ~~freemem:
   451                        	longa	on
   452                        	longi	on
   453 00:02C6: 3B           	tsc
   454 00:02C7: 38           	sec
   455 00:02C8: E9 04 00     	sbc	#L39
   456 00:02CB: 1B           	tcs
   457 00:02CC: 0B           	phd
   458 00:02CD: 5B           	tcd
  Sun Jan  9 2022 20:52                                                Page 9


   459             00000004   where_0	set	4
   460             00000008   size_0	set	8
   461 00:02CE: A0 00 00     	ldy	#$0
   462 00:02D1: A5 0C        	lda	<L39+size_0
   463 00:02D3: 10 01        	bpl	L41
   464 00:02D5: 88           	dey
   465                        L41:
   466 00:02D6: 85 01        	sta	<R0
   467 00:02D8: 84 03        	sty	<R0+2
   468 00:02DA: 38           	sec
   469 00:02DB: AD xx xx     	lda	|~~basicvars+34
   470 00:02DE: E5 01        	sbc	<R0
   471 00:02E0: 8D xx xx     	sta	|~~basicvars+34
   472 00:02E3: AD xx xx     	lda	|~~basicvars+34+2
   473 00:02E6: E5 03        	sbc	<R0+2
   474 00:02E8: 8D xx xx     	sta	|~~basicvars+34+2
   475 00:02EB: A0 00 00     	ldy	#$0
   476 00:02EE: A5 0C        	lda	<L39+size_0
   477 00:02F0: 10 01        	bpl	L42
   478 00:02F2: 88           	dey
   479                        L42:
   480 00:02F3: 85 01        	sta	<R0
   481 00:02F5: 84 03        	sty	<R0+2
   482 00:02F7: 38           	sec
   483 00:02F8: AD xx xx     	lda	|~~basicvars+38
   484 00:02FB: E5 01        	sbc	<R0
   485 00:02FD: 8D xx xx     	sta	|~~basicvars+38
   486 00:0300: AD xx xx     	lda	|~~basicvars+38+2
   487 00:0303: E5 03        	sbc	<R0+2
   488 00:0305: 8D xx xx     	sta	|~~basicvars+38+2
   489                        L43:
   490 00:0308: A5 06        	lda	<L39+2
   491 00:030A: 85 0C        	sta	<L39+2+6
   492 00:030C: A5 05        	lda	<L39+1
   493 00:030E: 85 0B        	sta	<L39+1+6
   494 00:0310: 2B           	pld
   495 00:0311: 3B           	tsc
   496 00:0312: 18           	clc
   497 00:0313: 69 0A 00     	adc	#L39+6
   498 00:0316: 1B           	tcs
   499 00:0317: 6B           	rtl
   500             00000004   L39	equ	4
   501             00000005   L40	equ	5
   502                        	ends
   503                        	efunc
   504                        	code
   505                        	xdef	~~returnable
   506                        	func
   507                        ~~returnable:
   508                        	longa	on
   509                        	longi	on
   510 00:0318: 3B           	tsc
   511 00:0319: 38           	sec
   512 00:031A: E9 0C 00     	sbc	#L44
   513 00:031D: 1B           	tcs
   514 00:031E: 0B           	phd
   515 00:031F: 5B           	tcd
   516             00000004   where_0	set	4
  Sun Jan  9 2022 20:52                                                Page 10


   517             00000008   size_0	set	8
   518 00:0320: A5 14        	lda	<L44+size_0
   519 00:0322: 1A           	ina
   520 00:0323: 29 FE FF     	and	#<$fffffffe
   521 00:0326: 85 14        	sta	<L44+size_0
   522 00:0328: 64 01        	stz	<R0
   523 00:032A: A0 00 00     	ldy	#$0
   524 00:032D: A5 14        	lda	<L44+size_0
   525 00:032F: 10 01        	bpl	L47
   526 00:0331: 88           	dey
   527                        L47:
   528 00:0332: 85 05        	sta	<R1
   529 00:0334: 84 07        	sty	<R1+2
   530 00:0336: 18           	clc
   531 00:0337: A5 10        	lda	<L44+where_0
   532 00:0339: 65 05        	adc	<R1
   533 00:033B: 85 09        	sta	<R2
   534 00:033D: A5 12        	lda	<L44+where_0+2
   535 00:033F: 65 07        	adc	<R1+2
   536 00:0341: 85 0B        	sta	<R2+2
   537 00:0343: AD xx xx     	lda	|~~basicvars+34
   538 00:0346: C5 09        	cmp	<R2
   539 00:0348: D0 05        	bne	L48
   540 00:034A: AD xx xx     	lda	|~~basicvars+34+2
   541 00:034D: C5 0B        	cmp	<R2+2
   542                        L48:
   543 00:034F: F0 03        	beq	L49
   544 00:0351: 82 02 00     	brl	L46
   545                        L49:
   546 00:0354: E6 01        	inc	<R0
   547                        L46:
   548 00:0356: A5 01        	lda	<R0
   549 00:0358: 29 FF 00     	and	#$ff
   550                        L50:
   551 00:035B: A8           	tay
   552 00:035C: A5 0E        	lda	<L44+2
   553 00:035E: 85 14        	sta	<L44+2+6
   554 00:0360: A5 0D        	lda	<L44+1
   555 00:0362: 85 13        	sta	<L44+1+6
   556 00:0364: 2B           	pld
   557 00:0365: 3B           	tsc
   558 00:0366: 18           	clc
   559 00:0367: 69 12 00     	adc	#L44+6
   560 00:036A: 1B           	tcs
   561 00:036B: 98           	tya
   562 00:036C: 6B           	rtl
   563             0000000C   L44	equ	12
   564             0000000D   L45	equ	13
   565                        	ends
   566                        	efunc
   567                        	code
   568                        	xdef	~~mark_basicheap
   569                        	func
   570                        ~~mark_basicheap:
   571                        	longa	on
   572                        	longi	on
   573 00:036D: 3B           	tsc
   574 00:036E: 38           	sec
  Sun Jan  9 2022 20:52                                                Page 11


   575 00:036F: E9 00 00     	sbc	#L51
   576 00:0372: 1B           	tcs
   577 00:0373: 0B           	phd
   578 00:0374: 5B           	tcd
   579 00:0375: AD xx xx     	lda	|~~basicvars+34
   580 00:0378: 8D xx xx     	sta	|~~basicvars+66
   581 00:037B: AD xx xx     	lda	|~~basicvars+34+2
   582 00:037E: 8D xx xx     	sta	|~~basicvars+66+2
   583                        L53:
   584 00:0381: 2B           	pld
   585 00:0382: 3B           	tsc
   586 00:0383: 18           	clc
   587 00:0384: 69 00 00     	adc	#L51
   588 00:0387: 1B           	tcs
   589 00:0388: 6B           	rtl
   590             00000000   L51	equ	0
   591             00000001   L52	equ	1
   592                        	ends
   593                        	efunc
   594                        	code
   595                        	xdef	~~release_basicheap
   596                        	func
   597                        ~~release_basicheap:
   598                        	longa	on
   599                        	longi	on
   600 00:0389: 3B           	tsc
   601 00:038A: 38           	sec
   602 00:038B: E9 00 00     	sbc	#L54
   603 00:038E: 1B           	tcs
   604 00:038F: 0B           	phd
   605 00:0390: 5B           	tcd
   606 00:0391: AD xx xx     	lda	|~~basicvars+66
   607 00:0394: 8D xx xx     	sta	|~~basicvars+34
   608 00:0397: AD xx xx     	lda	|~~basicvars+66+2
   609 00:039A: 8D xx xx     	sta	|~~basicvars+34+2
   610 00:039D: 18           	clc
   611 00:039E: A9 00 01     	lda	#$100
   612 00:03A1: 6D xx xx     	adc	|~~basicvars+34
   613 00:03A4: 8D xx xx     	sta	|~~basicvars+38
   614 00:03A7: A9 00 00     	lda	#$0
   615 00:03AA: 6D xx xx     	adc	|~~basicvars+34+2
   616 00:03AD: 8D xx xx     	sta	|~~basicvars+38+2
   617                        L56:
   618 00:03B0: 2B           	pld
   619 00:03B1: 3B           	tsc
   620 00:03B2: 18           	clc
   621 00:03B3: 69 00 00     	adc	#L54
   622 00:03B6: 1B           	tcs
   623 00:03B7: 6B           	rtl
   624             00000000   L54	equ	0
   625             00000001   L55	equ	1
   626                        	ends
   627                        	efunc
   628                        	code
   629                        	xdef	~~clear_heap
   630                        	func
   631                        ~~clear_heap:
   632                        	longa	on
  Sun Jan  9 2022 20:52                                                Page 12


   633                        	longi	on
   634 00:03B8: 3B           	tsc
   635 00:03B9: 38           	sec
   636 00:03BA: E9 00 00     	sbc	#L57
   637 00:03BD: 1B           	tcs
   638 00:03BE: 0B           	phd
   639 00:03BF: 5B           	tcd
   640 00:03C0: AD xx xx     	lda	|~~basicvars+30
   641 00:03C3: 8D xx xx     	sta	|~~basicvars+34
   642 00:03C6: AD xx xx     	lda	|~~basicvars+30+2
   643 00:03C9: 8D xx xx     	sta	|~~basicvars+34+2
   644 00:03CC: 18           	clc
   645 00:03CD: A9 00 01     	lda	#$100
   646 00:03D0: 6D xx xx     	adc	|~~basicvars+30
   647 00:03D3: 8D xx xx     	sta	|~~basicvars+38
   648 00:03D6: A9 00 00     	lda	#$0
   649 00:03D9: 6D xx xx     	adc	|~~basicvars+30+2
   650 00:03DC: 8D xx xx     	sta	|~~basicvars+38+2
   651                        L59:
   652 00:03DF: 2B           	pld
   653 00:03E0: 3B           	tsc
   654 00:03E1: 18           	clc
   655 00:03E2: 69 00 00     	adc	#L57
   656 00:03E5: 1B           	tcs
   657 00:03E6: 6B           	rtl
   658             00000000   L57	equ	0
   659             00000001   L58	equ	1
   660                        	ends
   661                        	efunc
   662                        	xref	~~error
   663                        	xref	~~free
   664                        	xref	~~malloc
   665                        	xref	~~basicvars
   666                        	end


      Lines assembled: 666
      Errors: 0
