  Sun Jan  9 2022 20:52                                                Page 1


                     ***************************************
                     **      WDC 65C816 Macro Assembler   **
                     **                                   **
                     **     Version 3.49.1- Feb  6 2006    **
                     ***************************************

     1                        ;:ts=8
     2             00000001   R0	equ	1
     3             00000005   R1	equ	5
     4             00000009   R2	equ	9
     5             0000000D   R3	equ	13
     6                        	data
     7                        ~~binsizes:
     8 00:0000: 00 00 04 00  	dw	$0,$4,$8,$C,$10,$14,$18,$1C,$20,$24
       00:0004: 08 00 0C 00 
       00:0008: 10 00 14 00 
       00:000C: 18 00 1C 00 
       00:0010: 20 00 24 00 
     9 00:0014: 28 00 2C 00  	dw	$28,$2C,$30,$34,$38,$3C,$40,$44,$48,$4C
       00:0018: 30 00 34 00 
       00:001C: 38 00 3C 00 
       00:0020: 40 00 44 00 
       00:0024: 48 00 4C 00 
    10 00:0028: 50 00 54 00  	dw	$50,$54,$58,$5C,$60,$64,$68,$6C,$70,$74
       00:002C: 58 00 5C 00 
       00:0030: 60 00 64 00 
       00:0034: 68 00 6C 00 
       00:0038: 70 00 74 00 
    11 00:003C: 78 00 7C 00  	dw	$78,$7C,$80,$100,$180,$200,$280,$300,$38
                    0,$400
       00:0040: 80 00 00 01 
       00:0044: 80 01 00 02 
       00:0048: 80 02 00 03 
       00:004C: 80 03 00 04 
    12 00:0050: 00 08 00 10  	dw	$800,$1000,$2000,$4000,$8000,$0
       00:0054: 00 20 00 40 
       00:0058: 00 80 00 00 
    13 00:005C:              	ends
    14                        	code
    15                        	func
    16                        ~~find_bin:
    17                        	longa	on
    18                        	longi	on
    19 00:0000: 3B           	tsc
    20 00:0001: 38           	sec
    21 00:0002: E9 0E 00     	sbc	#L2
    22 00:0005: 1B           	tcs
    23 00:0006: 0B           	phd
    24 00:0007: 5B           	tcd
    25             00000004   size_0	set	4
    26 00:0008: 38           	sec
    27 00:0009: A9 80 00     	lda	#$80
    28 00:000C: E5 12        	sbc	<L2+size_0
    29 00:000E: 70 03        	bvs	L4
    30 00:0010: 49 00 80     	eor	#$8000
    31                        L4:
    32 00:0013: 30 03        	bmi	L5
    33 00:0015: 82 3E 00     	brl	L10001
  Sun Jan  9 2022 20:52                                                Page 2


    34                        L5:
    35 00:0018: A0 00 00     	ldy	#$0
    36 00:001B: A5 12        	lda	<L2+size_0
    37 00:001D: 10 01        	bpl	L6
    38 00:001F: 88           	dey
    39                        L6:
    40 00:0020: 85 05        	sta	<R1
    41 00:0022: 84 07        	sty	<R1+2
    42 00:0024: 18           	clc
    43 00:0025: A9 01 00     	lda	#$1
    44 00:0028: 65 05        	adc	<R1
    45 00:002A: 85 09        	sta	<R2
    46 00:002C: A9 00 00     	lda	#$0
    47 00:002F: 65 07        	adc	<R1+2
    48 00:0031: 85 0B        	sta	<R2+2
    49 00:0033: D4 0B        	pei	<R2+2
    50 00:0035: D4 09        	pei	<R2
    51 00:0037: A9 01 00     	lda	#$1
    52                        	xref	~~~llsr
    53 00:003A: 22 xx xx xx  	jsl	~~~llsr
    54 00:003E: 85 01        	sta	<R0
    55 00:0040: 86 03        	stx	<R0+2
    56 00:0042: A5 01        	lda	<R0
    57                        L7:
    58 00:0044: A8           	tay
    59 00:0045: A5 10        	lda	<L2+2
    60 00:0047: 85 12        	sta	<L2+2+2
    61 00:0049: A5 0F        	lda	<L2+1
    62 00:004B: 85 11        	sta	<L2+1+2
    63 00:004D: 2B           	pld
    64 00:004E: 3B           	tsc
    65 00:004F: 18           	clc
    66 00:0050: 69 10 00     	adc	#L2+2
    67 00:0053: 1B           	tcs
    68 00:0054: 98           	tya
    69 00:0055: 6B           	rtl
    70                        L10001:
    71 00:0056: 38           	sec
    72 00:0057: A9 00 04     	lda	#$400
    73 00:005A: E5 12        	sbc	<L2+size_0
    74 00:005C: 70 03        	bvs	L8
    75 00:005E: 49 00 80     	eor	#$8000
    76                        L8:
    77 00:0061: 30 03        	bmi	L9
    78 00:0063: 82 33 00     	brl	L10002
    79                        L9:
    80 00:0066: 18           	clc
    81 00:0067: A9 7F 00     	lda	#$7f
    82 00:006A: 65 12        	adc	<L2+size_0
    83 00:006C: 85 01        	sta	<R0
    84 00:006E: A5 01        	lda	<R0
    85 00:0070: A2 80 00     	ldx	#<$80
    86                        	xref	~~~div
    87 00:0073: 22 xx xx xx  	jsl	~~~div
    88 00:0077: 85 01        	sta	<R0
    89 00:0079: A0 00 00     	ldy	#$0
    90 00:007C: A5 01        	lda	<R0
    91 00:007E: 10 01        	bpl	L10
  Sun Jan  9 2022 20:52                                                Page 3


    92 00:0080: 88           	dey
    93                        L10:
    94 00:0081: 85 01        	sta	<R0
    95 00:0083: 84 03        	sty	<R0+2
    96 00:0085: 18           	clc
    97 00:0086: A9 3F 00     	lda	#$3f
    98 00:0089: 65 01        	adc	<R0
    99 00:008B: 85 05        	sta	<R1
   100 00:008D: A9 00 00     	lda	#$0
   101 00:0090: 65 03        	adc	<R0+2
   102 00:0092: 85 07        	sta	<R1+2
   103 00:0094: A5 05        	lda	<R1
   104 00:0096: 82 AB FF     	brl	L7
   105                        L10002:
   106             00000000   n_2	set	0
   107 00:0099: A9 48 00     	lda	#$48
   108 00:009C: 85 0D        	sta	<L3+n_2
   109                        L10005:
   110 00:009E: A5 0D        	lda	<L3+n_2
   111 00:00A0: 0A           	asl	A
   112 00:00A1: 85 01        	sta	<R0
   113 00:00A3: 38           	sec
   114 00:00A4: A6 01        	ldx	<R0
   115 00:00A6: BD xx xx     	lda	|~~binsizes,X
   116 00:00A9: E5 12        	sbc	<L2+size_0
   117 00:00AB: 70 03        	bvs	L11
   118 00:00AD: 49 00 80     	eor	#$8000
   119                        L11:
   120 00:00B0: 30 03        	bmi	L12
   121 00:00B2: 82 05 00     	brl	L10006
   122                        L12:
   123 00:00B5: A5 0D        	lda	<L3+n_2
   124 00:00B7: 82 8A FF     	brl	L7
   125                        L10006:
   126 00:00BA: E6 0D        	inc	<L3+n_2
   127                        L10003:
   128 00:00BC: 38           	sec
   129 00:00BD: A5 0D        	lda	<L3+n_2
   130 00:00BF: E9 2E 00     	sbc	#<$2e
   131 00:00C2: 70 03        	bvs	L13
   132 00:00C4: 49 00 80     	eor	#$8000
   133                        L13:
   134 00:00C7: 30 03        	bmi	L14
   135 00:00C9: 82 D2 FF     	brl	L10005
   136                        L14:
   137                        L10004:
   138 00:00CC: F4 xx xx     	pea	#^L1
   139 00:00CF: F4 xx xx     	pea	#<L1
   140 00:00D2: F4 87 00     	pea	#<$87
   141 00:00D5: F4 82 00     	pea	#<$82
   142 00:00D8: F4 0A 00     	pea	#10
   143 00:00DB: 22 xx xx xx  	jsl	~~error
   144 00:00DF: A9 00 00     	lda	#$0
   145 00:00E2: 82 5F FF     	brl	L7
   146             0000000E   L2	equ	14
   147             0000000D   L3	equ	13
   148                        	ends
   149                        	efunc
  Sun Jan  9 2022 20:52                                                Page 4


   150                        	data
   151                        L1:
   152 00:005C: 73 74 72 69  	db	$73,$74,$72,$69,$6E,$67,$73,$00
       00:0060: 6E 67 73 00 
   153 00:0064:              	ends
   154                        	code
   155                        	xdef	~~alloc_string
   156                        	func
   157                        ~~alloc_string:
   158                        	longa	on
   159                        	longi	on
   160 00:00E5: 3B           	tsc
   161 00:00E6: 38           	sec
   162 00:00E7: E9 1B 00     	sbc	#L16
   163 00:00EA: 1B           	tcs
   164 00:00EB: 0B           	phd
   165 00:00EC: 5B           	tcd
   166             00000004   size_0	set	4
   167             00000000   bin_1	set	0
   168             00000002   unused_1	set	2
   169             00000004   p_1	set	4
   170             00000008   last_1	set	8
   171             0000000C   reclaimed_1	set	12
   172 00:00ED: A5 1F        	lda	<L16+size_0
   173 00:00EF: F0 03        	beq	L18
   174 00:00F1: 82 20 00     	brl	L10007
   175                        L18:
   176 00:00F4: A9 xx xx     	lda	#<~~emptystring
   177 00:00F7: 85 01        	sta	<R0
   178                        	xref	_BEG_DATA
   179 00:00F9: A9 xx xx     	lda	#_BEG_DATA>>16
   180 00:00FC: 85 03        	sta	<R0+2
   181 00:00FE: A6 03        	ldx	<R0+2
   182 00:0100: A5 01        	lda	<R0
   183                        L19:
   184 00:0102: A8           	tay
   185 00:0103: A5 1D        	lda	<L16+2
   186 00:0105: 85 1F        	sta	<L16+2+2
   187 00:0107: A5 1C        	lda	<L16+1
   188 00:0109: 85 1E        	sta	<L16+1+2
   189 00:010B: 2B           	pld
   190 00:010C: 3B           	tsc
   191 00:010D: 18           	clc
   192 00:010E: 69 1D 00     	adc	#L16+2
   193 00:0111: 1B           	tcs
   194 00:0112: 98           	tya
   195 00:0113: 6B           	rtl
   196                        L10007:
   197 00:0114: A9 40 00     	lda	#$40
   198 00:0117: 0C xx xx     	tsb	~~basicvars+423
   199 00:011A: D4 1F        	pei	<L16+size_0
   200 00:011C: 22 xx xx xx  	jsl	~~find_bin
   201 00:0120: 85 09        	sta	<L17+bin_1
   202 00:0122: E2 20        	sep	#$20
   203                        	longa	off
   204 00:0124: 64 15        	stz	<L17+reclaimed_1
   205 00:0126: C2 20        	rep	#$20
   206                        	longa	on
  Sun Jan  9 2022 20:52                                                Page 5


   207                        L10010:
   208 00:0128: A5 09        	lda	<L17+bin_1
   209 00:012A: 0A           	asl	A
   210 00:012B: 0A           	asl	A
   211 00:012C: 85 01        	sta	<R0
   212 00:012E: 18           	clc
   213 00:012F: A9 xx xx     	lda	#<~~binlists
   214 00:0132: 65 01        	adc	<R0
   215 00:0134: 85 05        	sta	<R1
   216 00:0136: B2 05        	lda	(<R1)
   217 00:0138: A0 02 00     	ldy	#$2
   218 00:013B: 11 05        	ora	(<R1),Y
   219 00:013D: D0 03        	bne	L20
   220 00:013F: 82 3F 00     	brl	L10011
   221                        L20:
   222 00:0142: A5 09        	lda	<L17+bin_1
   223 00:0144: 0A           	asl	A
   224 00:0145: 0A           	asl	A
   225 00:0146: 85 01        	sta	<R0
   226 00:0148: 18           	clc
   227 00:0149: A9 xx xx     	lda	#<~~binlists
   228 00:014C: 65 01        	adc	<R0
   229 00:014E: 85 05        	sta	<R1
   230 00:0150: B2 05        	lda	(<R1)
   231 00:0152: 85 0D        	sta	<L17+p_1
   232 00:0154: A0 02 00     	ldy	#$2
   233 00:0157: B1 05        	lda	(<R1),Y
   234 00:0159: 85 0F        	sta	<L17+p_1+2
   235 00:015B: A5 09        	lda	<L17+bin_1
   236 00:015D: 0A           	asl	A
   237 00:015E: 0A           	asl	A
   238 00:015F: 85 01        	sta	<R0
   239 00:0161: 18           	clc
   240 00:0162: A9 xx xx     	lda	#<~~binlists
   241 00:0165: 65 01        	adc	<R0
   242 00:0167: 85 05        	sta	<R1
   243 00:0169: A7 0D        	lda	[<L17+p_1]
   244 00:016B: 92 05        	sta	(<R1)
   245 00:016D: A0 02 00     	ldy	#$2
   246 00:0170: B7 0D        	lda	[<L17+p_1],Y
   247 00:0172: A0 02 00     	ldy	#$2
   248 00:0175: 91 05        	sta	(<R1),Y
   249 00:0177: CE xx xx     	dec	|~~freestrings
   250 00:017A: A6 0F        	ldx	<L17+p_1+2
   251 00:017C: A5 0D        	lda	<L17+p_1
   252 00:017E: 82 81 FF     	brl	L19
   253                        L10011:
   254 00:0181: A5 09        	lda	<L17+bin_1
   255 00:0183: 0A           	asl	A
   256 00:0184: 85 01        	sta	<R0
   257 00:0186: A6 01        	ldx	<R0
   258 00:0188: BD xx xx     	lda	|~~binsizes,X
   259 00:018B: 85 1F        	sta	<L16+size_0
   260 00:018D: D4 1F        	pei	<L16+size_0
   261 00:018F: 22 xx xx xx  	jsl	~~condalloc
   262 00:0193: 85 0D        	sta	<L17+p_1
   263 00:0195: 86 0F        	stx	<L17+p_1+2
   264 00:0197: A5 0D        	lda	<L17+p_1
  Sun Jan  9 2022 20:52                                                Page 6


   265 00:0199: 05 0F        	ora	<L17+p_1+2
   266 00:019B: D0 03        	bne	L21
   267 00:019D: 82 07 00     	brl	L10012
   268                        L21:
   269 00:01A0: A6 0F        	ldx	<L17+p_1+2
   270 00:01A2: A5 0D        	lda	<L17+p_1
   271 00:01A4: 82 5B FF     	brl	L19
   272                        L10012:
   273 00:01A7: AD xx xx     	lda	|~~freelist
   274 00:01AA: 85 0D        	sta	<L17+p_1
   275 00:01AC: AD xx xx     	lda	|~~freelist+2
   276 00:01AF: 85 0F        	sta	<L17+p_1+2
   277 00:01B1: 64 11        	stz	<L17+last_1
   278 00:01B3: 64 13        	stz	<L17+last_1+2
   279                        L10013:
   280 00:01B5: A5 0D        	lda	<L17+p_1
   281 00:01B7: 05 0F        	ora	<L17+p_1+2
   282 00:01B9: D0 03        	bne	L22
   283 00:01BB: 82 30 00     	brl	L10014
   284                        L22:
   285 00:01BE: 38           	sec
   286 00:01BF: A0 04 00     	ldy	#$4
   287 00:01C2: B7 0D        	lda	[<L17+p_1],Y
   288 00:01C4: E5 1F        	sbc	<L16+size_0
   289 00:01C6: 70 03        	bvs	L23
   290 00:01C8: 49 00 80     	eor	#$8000
   291                        L23:
   292 00:01CB: 10 03        	bpl	L24
   293 00:01CD: 82 1E 00     	brl	L10014
   294                        L24:
   295 00:01D0: A5 0D        	lda	<L17+p_1
   296 00:01D2: 85 11        	sta	<L17+last_1
   297 00:01D4: A5 0F        	lda	<L17+p_1+2
   298 00:01D6: 85 13        	sta	<L17+last_1+2
   299 00:01D8: A7 0D        	lda	[<L17+p_1]
   300 00:01DA: 85 01        	sta	<R0
   301 00:01DC: A0 02 00     	ldy	#$2
   302 00:01DF: B7 0D        	lda	[<L17+p_1],Y
   303 00:01E1: 85 03        	sta	<R0+2
   304 00:01E3: A5 01        	lda	<R0
   305 00:01E5: 85 0D        	sta	<L17+p_1
   306 00:01E7: A5 03        	lda	<R0+2
   307 00:01E9: 85 0F        	sta	<L17+p_1+2
   308 00:01EB: 82 C7 FF     	brl	L10013
   309                        L10014:
   310 00:01EE: A5 0D        	lda	<L17+p_1
   311 00:01F0: 05 0F        	ora	<L17+p_1+2
   312 00:01F2: D0 03        	bne	L25
   313 00:01F4: 82 F4 00     	brl	L10015
   314                        L25:
   315 00:01F7: 38           	sec
   316 00:01F8: A0 04 00     	ldy	#$4
   317 00:01FB: B7 0D        	lda	[<L17+p_1],Y
   318 00:01FD: E5 1F        	sbc	<L16+size_0
   319 00:01FF: 85 0B        	sta	<L17+unused_1
   320 00:0201: 38           	sec
   321 00:0202: A9 80 00     	lda	#$80
   322 00:0205: E5 0B        	sbc	<L17+unused_1
  Sun Jan  9 2022 20:52                                                Page 7


   323 00:0207: 70 03        	bvs	L26
   324 00:0209: 49 00 80     	eor	#$8000
   325                        L26:
   326 00:020C: 30 03        	bmi	L27
   327 00:020E: 82 84 00     	brl	L10016
   328                        L27:
   329 00:0211: A5 11        	lda	<L17+last_1
   330 00:0213: 05 13        	ora	<L17+last_1+2
   331 00:0215: F0 03        	beq	L28
   332 00:0217: 82 10 00     	brl	L10017
   333                        L28:
   334 00:021A: A7 0D        	lda	[<L17+p_1]
   335 00:021C: 8D xx xx     	sta	|~~freelist
   336 00:021F: A0 02 00     	ldy	#$2
   337 00:0222: B7 0D        	lda	[<L17+p_1],Y
   338 00:0224: 8D xx xx     	sta	|~~freelist+2
   339 00:0227: 82 0E 00     	brl	L10018
   340                        L10017:
   341 00:022A: A7 0D        	lda	[<L17+p_1]
   342 00:022C: 87 11        	sta	[<L17+last_1]
   343 00:022E: A0 02 00     	ldy	#$2
   344 00:0231: B7 0D        	lda	[<L17+p_1],Y
   345 00:0233: A0 02 00     	ldy	#$2
   346 00:0236: 97 11        	sta	[<L17+last_1],Y
   347                        L10018:
   348 00:0238: CE xx xx     	dec	|~~freestrings
   349 00:023B: 38           	sec
   350 00:023C: A9 00 00     	lda	#$0
   351 00:023F: E5 0B        	sbc	<L17+unused_1
   352 00:0241: 70 03        	bvs	L29
   353 00:0243: 49 00 80     	eor	#$8000
   354                        L29:
   355 00:0246: 10 03        	bpl	L30
   356 00:0248: 82 47 00     	brl	L10019
   357                        L30:
   358             0000000D   descriptor_2	set	13
   359 00:024B: A0 00 00     	ldy	#$0
   360 00:024E: A5 1F        	lda	<L16+size_0
   361 00:0250: 10 01        	bpl	L31
   362 00:0252: 88           	dey
   363                        L31:
   364 00:0253: 85 01        	sta	<R0
   365 00:0255: 84 03        	sty	<R0+2
   366 00:0257: 18           	clc
   367 00:0258: A5 0D        	lda	<L17+p_1
   368 00:025A: 65 01        	adc	<R0
   369 00:025C: 85 18        	sta	<L17+descriptor_2+2
   370 00:025E: A5 0F        	lda	<L17+p_1+2
   371 00:0260: 65 03        	adc	<R0+2
   372 00:0262: 85 1A        	sta	<L17+descriptor_2+4
   373 00:0264: A5 0B        	lda	<L17+unused_1
   374 00:0266: 85 16        	sta	<L17+descriptor_2
   375 00:0268: 38           	sec
   376 00:0269: 3B           	tsc
   377 00:026A: E9 06 00     	sbc	#6
   378 00:026D: 1B           	tcs
   379 00:026E: 1A           	ina
   380 00:026F: 85 01        	sta	<R0
  Sun Jan  9 2022 20:52                                                Page 8


   381 00:0271: 64 03        	stz	<R0+2
   382 00:0273: 18           	clc
   383 00:0274: 7B           	tdc
   384 00:0275: 69 16 00     	adc	#<L17+descriptor_2
   385 00:0278: 85 05        	sta	<R1
   386 00:027A: A9 00 00     	lda	#$0
   387 00:027D: 85 07        	sta	<R1+2
   388 00:027F: D4 07        	pei	<R1+2
   389 00:0281: D4 05        	pei	<R1
   390 00:0283: D4 03        	pei	<R0+2
   391 00:0285: D4 01        	pei	<R0
   392 00:0287: A9 06 00     	lda	#$6
   393                        	xref	~~~fmov
   394 00:028A: 22 xx xx xx  	jsl	~~~fmov
   395 00:028E: 22 xx xx xx  	jsl	~~free_string
   396                        L10019:
   397 00:0292: 82 4F 00     	brl	L10020
   398                        L10016:
   399             0000000D   up_3	set	13
   400 00:0295: A0 00 00     	ldy	#$0
   401 00:0298: A5 1F        	lda	<L16+size_0
   402 00:029A: 10 01        	bpl	L32
   403 00:029C: 88           	dey
   404                        L32:
   405 00:029D: 85 01        	sta	<R0
   406 00:029F: 84 03        	sty	<R0+2
   407 00:02A1: 18           	clc
   408 00:02A2: A5 0D        	lda	<L17+p_1
   409 00:02A4: 65 01        	adc	<R0
   410 00:02A6: 85 16        	sta	<L17+up_3
   411 00:02A8: A5 0F        	lda	<L17+p_1+2
   412 00:02AA: 65 03        	adc	<R0+2
   413 00:02AC: 85 18        	sta	<L17+up_3+2
   414 00:02AE: A7 0D        	lda	[<L17+p_1]
   415 00:02B0: 87 16        	sta	[<L17+up_3]
   416 00:02B2: A0 02 00     	ldy	#$2
   417 00:02B5: B7 0D        	lda	[<L17+p_1],Y
   418 00:02B7: A0 02 00     	ldy	#$2
   419 00:02BA: 97 16        	sta	[<L17+up_3],Y
   420 00:02BC: A5 0B        	lda	<L17+unused_1
   421 00:02BE: A0 04 00     	ldy	#$4
   422 00:02C1: 97 16        	sta	[<L17+up_3],Y
   423 00:02C3: A5 11        	lda	<L17+last_1
   424 00:02C5: 05 13        	ora	<L17+last_1+2
   425 00:02C7: F0 03        	beq	L33
   426 00:02C9: 82 0D 00     	brl	L10021
   427                        L33:
   428 00:02CC: A5 16        	lda	<L17+up_3
   429 00:02CE: 8D xx xx     	sta	|~~freelist
   430 00:02D1: A5 18        	lda	<L17+up_3+2
   431 00:02D3: 8D xx xx     	sta	|~~freelist+2
   432 00:02D6: 82 0B 00     	brl	L10022
   433                        L10021:
   434 00:02D9: A5 16        	lda	<L17+up_3
   435 00:02DB: 87 11        	sta	[<L17+last_1]
   436 00:02DD: A5 18        	lda	<L17+up_3+2
   437 00:02DF: A0 02 00     	ldy	#$2
   438 00:02E2: 97 11        	sta	[<L17+last_1],Y
  Sun Jan  9 2022 20:52                                                Page 9


   439                        L10022:
   440                        L10020:
   441 00:02E4: A6 0F        	ldx	<L17+p_1+2
   442 00:02E6: A5 0D        	lda	<L17+p_1
   443 00:02E8: 82 17 FE     	brl	L19
   444                        L10015:
   445 00:02EB: A5 15        	lda	<L17+reclaimed_1
   446 00:02ED: 29 FF 00     	and	#$ff
   447 00:02F0: F0 03        	beq	L35
   448 00:02F2: 82 0C 00     	brl	L34
   449                        L35:
   450 00:02F5: 22 xx xx xx  	jsl	~~collect
   451 00:02F9: 29 FF 00     	and	#$ff
   452 00:02FC: F0 03        	beq	L36
   453 00:02FE: 82 0A 00     	brl	L10023
   454                        L36:
   455                        L34:
   456 00:0301: F4 59 00     	pea	#<$59
   457 00:0304: F4 04 00     	pea	#4
   458 00:0307: 22 xx xx xx  	jsl	~~error
   459                        L10023:
   460 00:030B: E2 20        	sep	#$20
   461                        	longa	off
   462 00:030D: A9 01        	lda	#$1
   463 00:030F: 85 15        	sta	<L17+reclaimed_1
   464 00:0311: C2 20        	rep	#$20
   465                        	longa	on
   466                        L10008:
   467 00:0313: 82 12 FE     	brl	L10010
   468 00:0316: A9 00 00     	lda	#$0
   469 00:0319: AA           	tax
   470 00:031A: A9 00 00     	lda	#$0
   471 00:031D: 82 E2 FD     	brl	L19
   472             0000001B   L16	equ	27
   473             00000009   L17	equ	9
   474                        	ends
   475                        	efunc
   476                        	code
   477                        	xdef	~~free_string
   478                        	func
   479                        ~~free_string:
   480                        	longa	on
   481                        	longi	on
   482 00:0320: 3B           	tsc
   483 00:0321: 38           	sec
   484 00:0322: E9 18 00     	sbc	#L37
   485 00:0325: 1B           	tcs
   486 00:0326: 0B           	phd
   487 00:0327: 5B           	tcd
   488             00000004   descriptor_0	set	4
   489             00000000   hp_1	set	0
   490             00000004   hp2_1	set	4
   491             00000008   size_1	set	8
   492             0000000A   bin_1	set	10
   493 00:0328: A5 1C        	lda	<L37+descriptor_0
   494 00:032A: 85 11        	sta	<L38+size_1
   495 00:032C: A5 11        	lda	<L38+size_1
   496 00:032E: F0 03        	beq	L39
  Sun Jan  9 2022 20:52                                                Page 10


   497 00:0330: 82 10 00     	brl	L10024
   498                        L39:
   499                        L40:
   500 00:0333: A5 1A        	lda	<L37+2
   501 00:0335: 85 20        	sta	<L37+2+6
   502 00:0337: A5 19        	lda	<L37+1
   503 00:0339: 85 1F        	sta	<L37+1+6
   504 00:033B: 2B           	pld
   505 00:033C: 3B           	tsc
   506 00:033D: 18           	clc
   507 00:033E: 69 1E 00     	adc	#L37+6
   508 00:0341: 1B           	tcs
   509 00:0342: 6B           	rtl
   510                        L10024:
   511 00:0343: A5 1E        	lda	<L37+descriptor_0+2
   512 00:0345: 85 09        	sta	<L38+hp_1
   513 00:0347: A5 20        	lda	<L37+descriptor_0+4
   514 00:0349: 85 0B        	sta	<L38+hp_1+2
   515 00:034B: D4 11        	pei	<L38+size_1
   516 00:034D: 22 xx xx xx  	jsl	~~find_bin
   517 00:0351: 85 13        	sta	<L38+bin_1
   518 00:0353: A5 13        	lda	<L38+bin_1
   519 00:0355: 0A           	asl	A
   520 00:0356: 0A           	asl	A
   521 00:0357: 85 01        	sta	<R0
   522 00:0359: 18           	clc
   523 00:035A: A9 xx xx     	lda	#<~~binlists
   524 00:035D: 65 01        	adc	<R0
   525 00:035F: 85 05        	sta	<R1
   526 00:0361: B2 05        	lda	(<R1)
   527 00:0363: 85 0D        	sta	<L38+hp2_1
   528 00:0365: A0 02 00     	ldy	#$2
   529 00:0368: B1 05        	lda	(<R1),Y
   530 00:036A: 85 0F        	sta	<L38+hp2_1+2
   531 00:036C: A5 0D        	lda	<L38+hp2_1
   532 00:036E: 05 0F        	ora	<L38+hp2_1+2
   533 00:0370: D0 03        	bne	L42
   534 00:0372: 82 0D 00     	brl	L41
   535                        L42:
   536 00:0375: A5 09        	lda	<L38+hp_1
   537 00:0377: C5 0D        	cmp	<L38+hp2_1
   538 00:0379: A5 0B        	lda	<L38+hp_1+2
   539 00:037B: E5 0F        	sbc	<L38+hp2_1+2
   540 00:037D: 90 03        	bcc	L43
   541 00:037F: 82 27 00     	brl	L10025
   542                        L43:
   543                        L41:
   544 00:0382: A5 0D        	lda	<L38+hp2_1
   545 00:0384: 87 09        	sta	[<L38+hp_1]
   546 00:0386: A5 0F        	lda	<L38+hp2_1+2
   547 00:0388: A0 02 00     	ldy	#$2
   548 00:038B: 97 09        	sta	[<L38+hp_1],Y
   549 00:038D: A5 13        	lda	<L38+bin_1
   550 00:038F: 0A           	asl	A
   551 00:0390: 0A           	asl	A
   552 00:0391: 85 01        	sta	<R0
   553 00:0393: 18           	clc
   554 00:0394: A9 xx xx     	lda	#<~~binlists
  Sun Jan  9 2022 20:52                                                Page 11


   555 00:0397: 65 01        	adc	<R0
   556 00:0399: 85 05        	sta	<R1
   557 00:039B: A5 09        	lda	<L38+hp_1
   558 00:039D: 92 05        	sta	(<R1)
   559 00:039F: A5 0B        	lda	<L38+hp_1+2
   560 00:03A1: A0 02 00     	ldy	#$2
   561 00:03A4: 91 05        	sta	(<R1),Y
   562 00:03A6: 82 4A 00     	brl	L10026
   563                        L10025:
   564             0000000C   last_2	set	12
   565                        L10029:
   566 00:03A9: A5 0D        	lda	<L38+hp2_1
   567 00:03AB: 85 15        	sta	<L38+last_2
   568 00:03AD: A5 0F        	lda	<L38+hp2_1+2
   569 00:03AF: 85 17        	sta	<L38+last_2+2
   570 00:03B1: A7 0D        	lda	[<L38+hp2_1]
   571 00:03B3: 85 01        	sta	<R0
   572 00:03B5: A0 02 00     	ldy	#$2
   573 00:03B8: B7 0D        	lda	[<L38+hp2_1],Y
   574 00:03BA: 85 03        	sta	<R0+2
   575 00:03BC: A5 01        	lda	<R0
   576 00:03BE: 85 0D        	sta	<L38+hp2_1
   577 00:03C0: A5 03        	lda	<R0+2
   578 00:03C2: 85 0F        	sta	<L38+hp2_1+2
   579                        L10027:
   580 00:03C4: A5 0D        	lda	<L38+hp2_1
   581 00:03C6: 05 0F        	ora	<L38+hp2_1+2
   582 00:03C8: D0 03        	bne	L45
   583 00:03CA: 82 0D 00     	brl	L44
   584                        L45:
   585 00:03CD: A5 0D        	lda	<L38+hp2_1
   586 00:03CF: C5 09        	cmp	<L38+hp_1
   587 00:03D1: A5 0F        	lda	<L38+hp2_1+2
   588 00:03D3: E5 0B        	sbc	<L38+hp_1+2
   589 00:03D5: B0 03        	bcs	L46
   590 00:03D7: 82 CF FF     	brl	L10029
   591                        L46:
   592                        L44:
   593                        L10028:
   594 00:03DA: A7 15        	lda	[<L38+last_2]
   595 00:03DC: 87 09        	sta	[<L38+hp_1]
   596 00:03DE: A0 02 00     	ldy	#$2
   597 00:03E1: B7 15        	lda	[<L38+last_2],Y
   598 00:03E3: A0 02 00     	ldy	#$2
   599 00:03E6: 97 09        	sta	[<L38+hp_1],Y
   600 00:03E8: A5 09        	lda	<L38+hp_1
   601 00:03EA: 87 15        	sta	[<L38+last_2]
   602 00:03EC: A5 0B        	lda	<L38+hp_1+2
   603 00:03EE: A0 02 00     	ldy	#$2
   604 00:03F1: 97 15        	sta	[<L38+last_2],Y
   605                        L10026:
   606 00:03F3: EE xx xx     	inc	|~~freestrings
   607 00:03F6: 82 3A FF     	brl	L40
   608             00000018   L37	equ	24
   609             00000009   L38	equ	9
   610                        	ends
   611                        	efunc
   612                        	code
  Sun Jan  9 2022 20:52                                                Page 12


   613                        	xdef	~~discard_strings
   614                        	func
   615                        ~~discard_strings:
   616                        	longa	on
   617                        	longi	on
   618 00:03F9: 3B           	tsc
   619 00:03FA: 38           	sec
   620 00:03FB: E9 0A 00     	sbc	#L47
   621 00:03FE: 1B           	tcs
   622 00:03FF: 0B           	phd
   623 00:0400: 5B           	tcd
   624             00000004   base_0	set	4
   625             00000008   size_0	set	8
   626             00000000   p_1	set	0
   627             00000004   n_1	set	4
   628 00:0401: A5 0E        	lda	<L47+base_0
   629 00:0403: 85 05        	sta	<L48+p_1
   630 00:0405: A5 10        	lda	<L47+base_0+2
   631 00:0407: 85 07        	sta	<L48+p_1+2
   632 00:0409: A0 00 00     	ldy	#$0
   633 00:040C: A5 12        	lda	<L47+size_0
   634 00:040E: 10 01        	bpl	L49
   635 00:0410: 88           	dey
   636                        L49:
   637 00:0411: 85 01        	sta	<R0
   638 00:0413: 84 03        	sty	<R0+2
   639 00:0415: F4 00 00     	pea	#^$6
   640 00:0418: F4 06 00     	pea	#<$6
   641 00:041B: D4 03        	pei	<R0+2
   642 00:041D: D4 01        	pei	<R0
   643                        	xref	~~~ludv
   644 00:041F: 22 xx xx xx  	jsl	~~~ludv
   645 00:0423: 85 01        	sta	<R0
   646 00:0425: 86 03        	stx	<R0+2
   647 00:0427: A5 01        	lda	<R0
   648 00:0429: 85 09        	sta	<L48+n_1
   649                        L10030:
   650 00:042B: 38           	sec
   651 00:042C: A9 00 00     	lda	#$0
   652 00:042F: E5 09        	sbc	<L48+n_1
   653 00:0431: 70 03        	bvs	L50
   654 00:0433: 49 00 80     	eor	#$8000
   655                        L50:
   656 00:0436: 10 03        	bpl	L51
   657 00:0438: 82 2F 00     	brl	L10031
   658                        L51:
   659 00:043B: 38           	sec
   660 00:043C: 3B           	tsc
   661 00:043D: E9 06 00     	sbc	#6
   662 00:0440: 1B           	tcs
   663 00:0441: 1A           	ina
   664 00:0442: 85 01        	sta	<R0
   665 00:0444: 64 03        	stz	<R0+2
   666 00:0446: D4 07        	pei	<L48+p_1+2
   667 00:0448: D4 05        	pei	<L48+p_1
   668 00:044A: D4 03        	pei	<R0+2
   669 00:044C: D4 01        	pei	<R0
   670 00:044E: A9 06 00     	lda	#$6
  Sun Jan  9 2022 20:52                                                Page 13


   671                        	xref	~~~fmov
   672 00:0451: 22 xx xx xx  	jsl	~~~fmov
   673 00:0455: 22 xx xx xx  	jsl	~~free_string
   674 00:0459: 18           	clc
   675 00:045A: A9 06 00     	lda	#$6
   676 00:045D: 65 05        	adc	<L48+p_1
   677 00:045F: 85 05        	sta	<L48+p_1
   678 00:0461: 90 02        	bcc	L52
   679 00:0463: E6 07        	inc	<L48+p_1+2
   680                        L52:
   681 00:0465: C6 09        	dec	<L48+n_1
   682 00:0467: 82 C1 FF     	brl	L10030
   683                        L10031:
   684                        L53:
   685 00:046A: A5 0C        	lda	<L47+2
   686 00:046C: 85 12        	sta	<L47+2+6
   687 00:046E: A5 0B        	lda	<L47+1
   688 00:0470: 85 11        	sta	<L47+1+6
   689 00:0472: 2B           	pld
   690 00:0473: 3B           	tsc
   691 00:0474: 18           	clc
   692 00:0475: 69 10 00     	adc	#L47+6
   693 00:0478: 1B           	tcs
   694 00:0479: 6B           	rtl
   695             0000000A   L47	equ	10
   696             00000005   L48	equ	5
   697                        	ends
   698                        	efunc
   699                        	code
   700                        	xdef	~~resize_string
   701                        	func
   702                        ~~resize_string:
   703                        	longa	on
   704                        	longi	on
   705 00:047A: 3B           	tsc
   706 00:047B: 38           	sec
   707 00:047C: E9 18 00     	sbc	#L54
   708 00:047F: 1B           	tcs
   709 00:0480: 0B           	phd
   710 00:0481: 5B           	tcd
   711             00000004   cp_0	set	4
   712             00000008   oldlen_0	set	8
   713             0000000A   newlen_0	set	10
   714             00000000   oldbin_1	set	0
   715             00000002   newbin_1	set	2
   716             00000004   sizediff_1	set	4
   717             00000006   newcp_1	set	6
   718             0000000A   descriptor_1	set	10
   719 00:0482: D4 20        	pei	<L54+oldlen_0
   720 00:0484: 22 xx xx xx  	jsl	~~find_bin
   721 00:0488: 85 09        	sta	<L55+oldbin_1
   722 00:048A: D4 22        	pei	<L54+newlen_0
   723 00:048C: 22 xx xx xx  	jsl	~~find_bin
   724 00:0490: 85 0B        	sta	<L55+newbin_1
   725 00:0492: A5 0B        	lda	<L55+newbin_1
   726 00:0494: C5 09        	cmp	<L55+oldbin_1
   727 00:0496: F0 03        	beq	L56
   728 00:0498: 82 16 00     	brl	L10032
  Sun Jan  9 2022 20:52                                                Page 14


   729                        L56:
   730 00:049B: A6 1E        	ldx	<L54+cp_0+2
   731 00:049D: A5 1C        	lda	<L54+cp_0
   732                        L57:
   733 00:049F: A8           	tay
   734 00:04A0: A5 1A        	lda	<L54+2
   735 00:04A2: 85 22        	sta	<L54+2+8
   736 00:04A4: A5 19        	lda	<L54+1
   737 00:04A6: 85 21        	sta	<L54+1+8
   738 00:04A8: 2B           	pld
   739 00:04A9: 3B           	tsc
   740 00:04AA: 18           	clc
   741 00:04AB: 69 20 00     	adc	#L54+8
   742 00:04AE: 1B           	tcs
   743 00:04AF: 98           	tya
   744 00:04B0: 6B           	rtl
   745                        L10032:
   746 00:04B1: 38           	sec
   747 00:04B2: A5 20        	lda	<L54+oldlen_0
   748 00:04B4: E5 22        	sbc	<L54+newlen_0
   749 00:04B6: 70 03        	bvs	L58
   750 00:04B8: 49 00 80     	eor	#$8000
   751                        L58:
   752 00:04BB: 10 03        	bpl	L59
   753 00:04BD: 82 6A 00     	brl	L10033
   754                        L59:
   755 00:04C0: D4 22        	pei	<L54+newlen_0
   756 00:04C2: 22 xx xx xx  	jsl	~~alloc_string
   757 00:04C6: 85 0F        	sta	<L55+newcp_1
   758 00:04C8: 86 11        	stx	<L55+newcp_1+2
   759 00:04CA: A5 20        	lda	<L54+oldlen_0
   760 00:04CC: D0 03        	bne	L60
   761 00:04CE: 82 52 00     	brl	L10034
   762                        L60:
   763 00:04D1: A0 00 00     	ldy	#$0
   764 00:04D4: A5 20        	lda	<L54+oldlen_0
   765 00:04D6: 10 01        	bpl	L61
   766 00:04D8: 88           	dey
   767                        L61:
   768 00:04D9: 85 01        	sta	<R0
   769 00:04DB: 84 03        	sty	<R0+2
   770 00:04DD: D4 03        	pei	<R0+2
   771 00:04DF: D4 01        	pei	<R0
   772 00:04E1: D4 1E        	pei	<L54+cp_0+2
   773 00:04E3: D4 1C        	pei	<L54+cp_0
   774 00:04E5: D4 11        	pei	<L55+newcp_1+2
   775 00:04E7: D4 0F        	pei	<L55+newcp_1
   776 00:04E9: 22 xx xx xx  	jsl	~~memmove
   777 00:04ED: A5 20        	lda	<L54+oldlen_0
   778 00:04EF: 85 13        	sta	<L55+descriptor_1
   779 00:04F1: A5 1C        	lda	<L54+cp_0
   780 00:04F3: 85 15        	sta	<L55+descriptor_1+2
   781 00:04F5: A5 1E        	lda	<L54+cp_0+2
   782 00:04F7: 85 17        	sta	<L55+descriptor_1+4
   783 00:04F9: 38           	sec
   784 00:04FA: 3B           	tsc
   785 00:04FB: E9 06 00     	sbc	#6
   786 00:04FE: 1B           	tcs
  Sun Jan  9 2022 20:52                                                Page 15


   787 00:04FF: 1A           	ina
   788 00:0500: 85 01        	sta	<R0
   789 00:0502: 64 03        	stz	<R0+2
   790 00:0504: 18           	clc
   791 00:0505: 7B           	tdc
   792 00:0506: 69 13 00     	adc	#<L55+descriptor_1
   793 00:0509: 85 05        	sta	<R1
   794 00:050B: A9 00 00     	lda	#$0
   795 00:050E: 85 07        	sta	<R1+2
   796 00:0510: D4 07        	pei	<R1+2
   797 00:0512: D4 05        	pei	<R1
   798 00:0514: D4 03        	pei	<R0+2
   799 00:0516: D4 01        	pei	<R0
   800 00:0518: A9 06 00     	lda	#$6
   801                        	xref	~~~fmov
   802 00:051B: 22 xx xx xx  	jsl	~~~fmov
   803 00:051F: 22 xx xx xx  	jsl	~~free_string
   804                        L10034:
   805 00:0523: A6 11        	ldx	<L55+newcp_1+2
   806 00:0525: A5 0F        	lda	<L55+newcp_1
   807 00:0527: 82 75 FF     	brl	L57
   808                        L10033:
   809 00:052A: A5 22        	lda	<L54+newlen_0
   810 00:052C: F0 03        	beq	L62
   811 00:052E: 82 47 00     	brl	L10035
   812                        L62:
   813 00:0531: A5 20        	lda	<L54+oldlen_0
   814 00:0533: 85 13        	sta	<L55+descriptor_1
   815 00:0535: A5 1C        	lda	<L54+cp_0
   816 00:0537: 85 15        	sta	<L55+descriptor_1+2
   817 00:0539: A5 1E        	lda	<L54+cp_0+2
   818 00:053B: 85 17        	sta	<L55+descriptor_1+4
   819 00:053D: 38           	sec
   820 00:053E: 3B           	tsc
   821 00:053F: E9 06 00     	sbc	#6
   822 00:0542: 1B           	tcs
   823 00:0543: 1A           	ina
   824 00:0544: 85 01        	sta	<R0
   825 00:0546: 64 03        	stz	<R0+2
   826 00:0548: 18           	clc
   827 00:0549: 7B           	tdc
   828 00:054A: 69 13 00     	adc	#<L55+descriptor_1
   829 00:054D: 85 05        	sta	<R1
   830 00:054F: A9 00 00     	lda	#$0
   831 00:0552: 85 07        	sta	<R1+2
   832 00:0554: D4 07        	pei	<R1+2
   833 00:0556: D4 05        	pei	<R1
   834 00:0558: D4 03        	pei	<R0+2
   835 00:055A: D4 01        	pei	<R0
   836 00:055C: A9 06 00     	lda	#$6
   837                        	xref	~~~fmov
   838 00:055F: 22 xx xx xx  	jsl	~~~fmov
   839 00:0563: 22 xx xx xx  	jsl	~~free_string
   840 00:0567: A9 xx xx     	lda	#<~~emptystring
   841 00:056A: 85 01        	sta	<R0
   842                        	xref	_BEG_DATA
   843 00:056C: A9 xx xx     	lda	#_BEG_DATA>>16
   844 00:056F: 85 03        	sta	<R0+2
  Sun Jan  9 2022 20:52                                                Page 16


   845 00:0571: A6 03        	ldx	<R0+2
   846 00:0573: A5 01        	lda	<R0
   847 00:0575: 82 27 FF     	brl	L57
   848                        L10035:
   849 00:0578: A5 0B        	lda	<L55+newbin_1
   850 00:057A: 0A           	asl	A
   851 00:057B: 85 01        	sta	<R0
   852 00:057D: A5 09        	lda	<L55+oldbin_1
   853 00:057F: 0A           	asl	A
   854 00:0580: 85 05        	sta	<R1
   855 00:0582: 38           	sec
   856 00:0583: A6 05        	ldx	<R1
   857 00:0585: BD xx xx     	lda	|~~binsizes,X
   858 00:0588: A6 01        	ldx	<R0
   859 00:058A: FD xx xx     	sbc	|~~binsizes,X
   860 00:058D: 85 0D        	sta	<L55+sizediff_1
   861 00:058F: D4 0D        	pei	<L55+sizediff_1
   862 00:0591: 22 xx xx xx  	jsl	~~find_bin
   863 00:0595: 85 05        	sta	<R1
   864 00:0597: A5 05        	lda	<R1
   865 00:0599: 0A           	asl	A
   866 00:059A: 85 01        	sta	<R0
   867 00:059C: A6 01        	ldx	<R0
   868 00:059E: BD xx xx     	lda	|~~binsizes,X
   869 00:05A1: C5 0D        	cmp	<L55+sizediff_1
   870 00:05A3: F0 03        	beq	L63
   871 00:05A5: 82 56 00     	brl	L10036
   872                        L63:
   873 00:05A8: A5 0D        	lda	<L55+sizediff_1
   874 00:05AA: 85 13        	sta	<L55+descriptor_1
   875 00:05AC: A5 0B        	lda	<L55+newbin_1
   876 00:05AE: 0A           	asl	A
   877 00:05AF: 85 01        	sta	<R0
   878 00:05B1: A0 00 00     	ldy	#$0
   879 00:05B4: A6 01        	ldx	<R0
   880 00:05B6: BD xx xx     	lda	|~~binsizes,X
   881 00:05B9: 10 01        	bpl	L64
   882 00:05BB: 88           	dey
   883                        L64:
   884 00:05BC: 85 05        	sta	<R1
   885 00:05BE: 84 07        	sty	<R1+2
   886 00:05C0: 18           	clc
   887 00:05C1: A5 1C        	lda	<L54+cp_0
   888 00:05C3: 65 05        	adc	<R1
   889 00:05C5: 85 15        	sta	<L55+descriptor_1+2
   890 00:05C7: A5 1E        	lda	<L54+cp_0+2
   891 00:05C9: 65 07        	adc	<R1+2
   892 00:05CB: 85 17        	sta	<L55+descriptor_1+4
   893 00:05CD: 38           	sec
   894 00:05CE: 3B           	tsc
   895 00:05CF: E9 06 00     	sbc	#6
   896 00:05D2: 1B           	tcs
   897 00:05D3: 1A           	ina
   898 00:05D4: 85 01        	sta	<R0
   899 00:05D6: 64 03        	stz	<R0+2
   900 00:05D8: 18           	clc
   901 00:05D9: 7B           	tdc
   902 00:05DA: 69 13 00     	adc	#<L55+descriptor_1
  Sun Jan  9 2022 20:52                                                Page 17


   903 00:05DD: 85 05        	sta	<R1
   904 00:05DF: A9 00 00     	lda	#$0
   905 00:05E2: 85 07        	sta	<R1+2
   906 00:05E4: D4 07        	pei	<R1+2
   907 00:05E6: D4 05        	pei	<R1
   908 00:05E8: D4 03        	pei	<R0+2
   909 00:05EA: D4 01        	pei	<R0
   910 00:05EC: A9 06 00     	lda	#$6
   911                        	xref	~~~fmov
   912 00:05EF: 22 xx xx xx  	jsl	~~~fmov
   913 00:05F3: 22 xx xx xx  	jsl	~~free_string
   914 00:05F7: A6 1E        	ldx	<L54+cp_0+2
   915 00:05F9: A5 1C        	lda	<L54+cp_0
   916 00:05FB: 82 A1 FE     	brl	L57
   917                        L10036:
   918 00:05FE: D4 22        	pei	<L54+newlen_0
   919 00:0600: 22 xx xx xx  	jsl	~~alloc_string
   920 00:0604: 85 0F        	sta	<L55+newcp_1
   921 00:0606: 86 11        	stx	<L55+newcp_1+2
   922 00:0608: A0 00 00     	ldy	#$0
   923 00:060B: A5 22        	lda	<L54+newlen_0
   924 00:060D: 10 01        	bpl	L65
   925 00:060F: 88           	dey
   926                        L65:
   927 00:0610: 85 01        	sta	<R0
   928 00:0612: 84 03        	sty	<R0+2
   929 00:0614: D4 03        	pei	<R0+2
   930 00:0616: D4 01        	pei	<R0
   931 00:0618: D4 1E        	pei	<L54+cp_0+2
   932 00:061A: D4 1C        	pei	<L54+cp_0
   933 00:061C: D4 11        	pei	<L55+newcp_1+2
   934 00:061E: D4 0F        	pei	<L55+newcp_1
   935 00:0620: 22 xx xx xx  	jsl	~~memmove
   936 00:0624: A5 20        	lda	<L54+oldlen_0
   937 00:0626: 85 13        	sta	<L55+descriptor_1
   938 00:0628: A5 1C        	lda	<L54+cp_0
   939 00:062A: 85 15        	sta	<L55+descriptor_1+2
   940 00:062C: A5 1E        	lda	<L54+cp_0+2
   941 00:062E: 85 17        	sta	<L55+descriptor_1+4
   942 00:0630: 38           	sec
   943 00:0631: 3B           	tsc
   944 00:0632: E9 06 00     	sbc	#6
   945 00:0635: 1B           	tcs
   946 00:0636: 1A           	ina
   947 00:0637: 85 01        	sta	<R0
   948 00:0639: 64 03        	stz	<R0+2
   949 00:063B: 18           	clc
   950 00:063C: 7B           	tdc
   951 00:063D: 69 13 00     	adc	#<L55+descriptor_1
   952 00:0640: 85 05        	sta	<R1
   953 00:0642: A9 00 00     	lda	#$0
   954 00:0645: 85 07        	sta	<R1+2
   955 00:0647: D4 07        	pei	<R1+2
   956 00:0649: D4 05        	pei	<R1
   957 00:064B: D4 03        	pei	<R0+2
   958 00:064D: D4 01        	pei	<R0
   959 00:064F: A9 06 00     	lda	#$6
   960                        	xref	~~~fmov
  Sun Jan  9 2022 20:52                                                Page 18


   961 00:0652: 22 xx xx xx  	jsl	~~~fmov
   962 00:0656: 22 xx xx xx  	jsl	~~free_string
   963 00:065A: A6 11        	ldx	<L55+newcp_1+2
   964 00:065C: A5 0F        	lda	<L55+newcp_1
   965 00:065E: 82 3E FE     	brl	L57
   966             00000018   L54	equ	24
   967             00000009   L55	equ	9
   968                        	ends
   969                        	efunc
   970                        	code
   971                        	xdef	~~get_stringlen
   972                        	func
   973                        ~~get_stringlen:
   974                        	longa	on
   975                        	longi	on
   976 00:0661: 3B           	tsc
   977 00:0662: 38           	sec
   978 00:0663: E9 06 00     	sbc	#L66
   979 00:0666: 1B           	tcs
   980 00:0667: 0B           	phd
   981 00:0668: 5B           	tcd
   982             00000004   start_0	set	4
   983             00000000   n_1	set	0
   984 00:0669: A5 0A        	lda	<L66+start_0
   985 00:066B: 85 05        	sta	<L67+n_1
   986                        L10037:
   987 00:066D: 38           	sec
   988 00:066E: A5 05        	lda	<L67+n_1
   989 00:0670: E5 0A        	sbc	<L66+start_0
   990 00:0672: 85 01        	sta	<R0
   991 00:0674: 38           	sec
   992 00:0675: A9 00 10     	lda	#$1000
   993 00:0678: E5 01        	sbc	<R0
   994 00:067A: 70 03        	bvs	L68
   995 00:067C: 49 00 80     	eor	#$8000
   996                        L68:
   997 00:067F: 30 03        	bmi	L69
   998 00:0681: 82 1E 00     	brl	L10038
   999                        L69:
  1000 00:0684: AD xx xx     	lda	|~~basicvars+6
  1001 00:0687: 85 01        	sta	<R0
  1002 00:0689: AD xx xx     	lda	|~~basicvars+6+2
  1003 00:068C: 85 03        	sta	<R0+2
  1004 00:068E: E2 20        	sep	#$20
  1005                        	longa	off
  1006 00:0690: A4 05        	ldy	<L67+n_1
  1007 00:0692: B7 01        	lda	[<R0],Y
  1008 00:0694: C9 0D        	cmp	#<$d
  1009 00:0696: C2 20        	rep	#$20
  1010                        	longa	on
  1011 00:0698: D0 03        	bne	L70
  1012 00:069A: 82 05 00     	brl	L10038
  1013                        L70:
  1014 00:069D: E6 05        	inc	<L67+n_1
  1015 00:069F: 82 CB FF     	brl	L10037
  1016                        L10038:
  1017 00:06A2: AD xx xx     	lda	|~~basicvars+6
  1018 00:06A5: 85 01        	sta	<R0
  Sun Jan  9 2022 20:52                                                Page 19


  1019 00:06A7: AD xx xx     	lda	|~~basicvars+6+2
  1020 00:06AA: 85 03        	sta	<R0+2
  1021 00:06AC: E2 20        	sep	#$20
  1022                        	longa	off
  1023 00:06AE: A4 05        	ldy	<L67+n_1
  1024 00:06B0: B7 01        	lda	[<R0],Y
  1025 00:06B2: C9 0D        	cmp	#<$d
  1026 00:06B4: C2 20        	rep	#$20
  1027                        	longa	on
  1028 00:06B6: F0 03        	beq	L71
  1029 00:06B8: 82 17 00     	brl	L10039
  1030                        L71:
  1031 00:06BB: 38           	sec
  1032 00:06BC: A5 05        	lda	<L67+n_1
  1033 00:06BE: E5 0A        	sbc	<L66+start_0
  1034                        L72:
  1035 00:06C0: A8           	tay
  1036 00:06C1: A5 08        	lda	<L66+2
  1037 00:06C3: 85 0A        	sta	<L66+2+2
  1038 00:06C5: A5 07        	lda	<L66+1
  1039 00:06C7: 85 09        	sta	<L66+1+2
  1040 00:06C9: 2B           	pld
  1041 00:06CA: 3B           	tsc
  1042 00:06CB: 18           	clc
  1043 00:06CC: 69 08 00     	adc	#L66+2
  1044 00:06CF: 1B           	tcs
  1045 00:06D0: 98           	tya
  1046 00:06D1: 6B           	rtl
  1047                        L10039:
  1048 00:06D2: A9 00 00     	lda	#$0
  1049 00:06D5: 82 E8 FF     	brl	L72
  1050             00000006   L66	equ	6
  1051             00000005   L67	equ	5
  1052                        	ends
  1053                        	efunc
  1054                        	code
  1055                        	xdef	~~clear_strings
  1056                        	func
  1057                        ~~clear_strings:
  1058                        	longa	on
  1059                        	longi	on
  1060 00:06D8: 3B           	tsc
  1061 00:06D9: 38           	sec
  1062 00:06DA: E9 0A 00     	sbc	#L73
  1063 00:06DD: 1B           	tcs
  1064 00:06DE: 0B           	phd
  1065 00:06DF: 5B           	tcd
  1066             00000000   n_1	set	0
  1067 00:06E0: 64 09        	stz	<L74+n_1
  1068                        L10042:
  1069 00:06E2: A5 09        	lda	<L74+n_1
  1070 00:06E4: 0A           	asl	A
  1071 00:06E5: 0A           	asl	A
  1072 00:06E6: 85 01        	sta	<R0
  1073 00:06E8: 18           	clc
  1074 00:06E9: A9 xx xx     	lda	#<~~binlists
  1075 00:06EC: 65 01        	adc	<R0
  1076 00:06EE: 85 05        	sta	<R1
  Sun Jan  9 2022 20:52                                                Page 20


  1077 00:06F0: A9 00 00     	lda	#$0
  1078 00:06F3: 92 05        	sta	(<R1)
  1079 00:06F5: A9 00 00     	lda	#$0
  1080 00:06F8: A0 02 00     	ldy	#$2
  1081 00:06FB: 91 05        	sta	(<R1),Y
  1082                        L10040:
  1083 00:06FD: E6 09        	inc	<L74+n_1
  1084 00:06FF: 38           	sec
  1085 00:0700: A5 09        	lda	<L74+n_1
  1086 00:0702: E9 2E 00     	sbc	#<$2e
  1087 00:0705: 70 03        	bvs	L75
  1088 00:0707: 49 00 80     	eor	#$8000
  1089                        L75:
  1090 00:070A: 30 03        	bmi	L76
  1091 00:070C: 82 D3 FF     	brl	L10042
  1092                        L76:
  1093                        L10041:
  1094 00:070F: 9C xx xx     	stz	|~~freestrings
  1095 00:0712: 9C xx xx     	stz	|~~freelist
  1096 00:0715: 9C xx xx     	stz	|~~freelist+2
  1097                        L77:
  1098 00:0718: 2B           	pld
  1099 00:0719: 3B           	tsc
  1100 00:071A: 18           	clc
  1101 00:071B: 69 0A 00     	adc	#L73
  1102 00:071E: 1B           	tcs
  1103 00:071F: 6B           	rtl
  1104             0000000A   L73	equ	10
  1105             00000009   L74	equ	9
  1106                        	ends
  1107                        	efunc
  1108                        	code
  1109                        	xdef	~~compare
  1110                        	func
  1111                        ~~compare:
  1112                        	longa	on
  1113                        	longi	on
  1114 00:0720: 3B           	tsc
  1115 00:0721: 38           	sec
  1116 00:0722: E9 04 00     	sbc	#L78
  1117 00:0725: 1B           	tcs
  1118 00:0726: 0B           	phd
  1119 00:0727: 5B           	tcd
  1120             00000004   first_0	set	4
  1121             00000008   second_0	set	8
  1122 00:0728: 38           	sec
  1123 00:0729: A7 08        	lda	[<L78+first_0]
  1124 00:072B: E7 0C        	sbc	[<L78+second_0]
  1125 00:072D: 85 01        	sta	<R0
  1126 00:072F: A0 02 00     	ldy	#$2
  1127 00:0732: B7 08        	lda	[<L78+first_0],Y
  1128 00:0734: A0 02 00     	ldy	#$2
  1129 00:0737: F7 0C        	sbc	[<L78+second_0],Y
  1130 00:0739: 85 03        	sta	<R0+2
  1131 00:073B: A5 01        	lda	<R0
  1132                        L80:
  1133 00:073D: A8           	tay
  1134 00:073E: A5 06        	lda	<L78+2
  Sun Jan  9 2022 20:52                                                Page 21


  1135 00:0740: 85 0E        	sta	<L78+2+8
  1136 00:0742: A5 05        	lda	<L78+1
  1137 00:0744: 85 0D        	sta	<L78+1+8
  1138 00:0746: 2B           	pld
  1139 00:0747: 3B           	tsc
  1140 00:0748: 18           	clc
  1141 00:0749: 69 0C 00     	adc	#L78+8
  1142 00:074C: 1B           	tcs
  1143 00:074D: 98           	tya
  1144 00:074E: 6B           	rtl
  1145             00000004   L78	equ	4
  1146             00000005   L79	equ	5
  1147                        	ends
  1148                        	efunc
  1149                        	code
  1150                        	func
  1151                        ~~collect:
  1152                        	longa	on
  1153                        	longi	on
  1154 00:074F: 3B           	tsc
  1155 00:0750: 38           	sec
  1156 00:0751: E9 21 00     	sbc	#L81
  1157 00:0754: 1B           	tcs
  1158 00:0755: 0B           	phd
  1159 00:0756: 5B           	tcd
  1160             00000000   n_1	set	0
  1161             00000002   here_1	set	2
  1162             00000004   next_1	set	4
  1163             00000006   size_1	set	6
  1164             00000008   p_1	set	8
  1165             0000000C   base_1	set	12
  1166             00000010   merged_1	set	16
  1167 00:0757: AD xx xx     	lda	|~~freestrings
  1168 00:075A: F0 03        	beq	L83
  1169 00:075C: 82 0D 00     	brl	L10043
  1170                        L83:
  1171 00:075F: A9 00 00     	lda	#$0
  1172                        L84:
  1173 00:0762: A8           	tay
  1174 00:0763: 2B           	pld
  1175 00:0764: 3B           	tsc
  1176 00:0765: 18           	clc
  1177 00:0766: 69 21 00     	adc	#L81
  1178 00:0769: 1B           	tcs
  1179 00:076A: 98           	tya
  1180 00:076B: 6B           	rtl
  1181                        L10043:
  1182 00:076C: A0 00 00     	ldy	#$0
  1183 00:076F: AD xx xx     	lda	|~~freestrings
  1184 00:0772: 10 01        	bpl	L85
  1185 00:0774: 88           	dey
  1186                        L85:
  1187 00:0775: 85 01        	sta	<R0
  1188 00:0777: 84 03        	sty	<R0+2
  1189 00:0779: F4 00 00     	pea	#^$6
  1190 00:077C: F4 06 00     	pea	#<$6
  1191 00:077F: D4 03        	pei	<R0+2
  1192 00:0781: D4 01        	pei	<R0
  Sun Jan  9 2022 20:52                                                Page 22


  1193                        	xref	~~~lmul
  1194 00:0783: 22 xx xx xx  	jsl	~~~lmul
  1195 00:0787: 85 01        	sta	<R0
  1196 00:0789: 86 03        	stx	<R0+2
  1197 00:078B: D4 03        	pei	<R0+2
  1198 00:078D: D4 01        	pei	<R0
  1199 00:078F: 22 xx xx xx  	jsl	~~malloc
  1200 00:0793: 85 1D        	sta	<L82+base_1
  1201 00:0795: 86 1F        	stx	<L82+base_1+2
  1202 00:0797: A5 1D        	lda	<L82+base_1
  1203 00:0799: 05 1F        	ora	<L82+base_1+2
  1204 00:079B: F0 03        	beq	L86
  1205 00:079D: 82 06 00     	brl	L10044
  1206                        L86:
  1207 00:07A0: A9 00 00     	lda	#$0
  1208 00:07A3: 82 BC FF     	brl	L84
  1209                        L10044:
  1210 00:07A6: 64 15        	stz	<L82+next_1
  1211 00:07A8: AD xx xx     	lda	|~~freelist
  1212 00:07AB: 85 19        	sta	<L82+p_1
  1213 00:07AD: AD xx xx     	lda	|~~freelist+2
  1214 00:07B0: 85 1B        	sta	<L82+p_1+2
  1215                        L10045:
  1216 00:07B2: A5 19        	lda	<L82+p_1
  1217 00:07B4: 05 1B        	ora	<L82+p_1+2
  1218 00:07B6: D0 03        	bne	L87
  1219 00:07B8: 82 8F 00     	brl	L10046
  1220                        L87:
  1221 00:07BB: A0 00 00     	ldy	#$0
  1222 00:07BE: A5 15        	lda	<L82+next_1
  1223 00:07C0: 10 01        	bpl	L88
  1224 00:07C2: 88           	dey
  1225                        L88:
  1226 00:07C3: 85 01        	sta	<R0
  1227 00:07C5: 84 03        	sty	<R0+2
  1228 00:07C7: F4 00 00     	pea	#^$6
  1229 00:07CA: F4 06 00     	pea	#<$6
  1230 00:07CD: D4 03        	pei	<R0+2
  1231 00:07CF: D4 01        	pei	<R0
  1232                        	xref	~~~lmul
  1233 00:07D1: 22 xx xx xx  	jsl	~~~lmul
  1234 00:07D5: 85 01        	sta	<R0
  1235 00:07D7: 86 03        	stx	<R0+2
  1236 00:07D9: 18           	clc
  1237 00:07DA: A5 1D        	lda	<L82+base_1
  1238 00:07DC: 65 01        	adc	<R0
  1239 00:07DE: 85 05        	sta	<R1
  1240 00:07E0: A5 1F        	lda	<L82+base_1+2
  1241 00:07E2: 65 03        	adc	<R0+2
  1242 00:07E4: 85 07        	sta	<R1+2
  1243 00:07E6: A5 19        	lda	<L82+p_1
  1244 00:07E8: 87 05        	sta	[<R1]
  1245 00:07EA: A5 1B        	lda	<L82+p_1+2
  1246 00:07EC: A0 02 00     	ldy	#$2
  1247 00:07EF: 97 05        	sta	[<R1],Y
  1248 00:07F1: A0 00 00     	ldy	#$0
  1249 00:07F4: A5 15        	lda	<L82+next_1
  1250 00:07F6: 10 01        	bpl	L89
  Sun Jan  9 2022 20:52                                                Page 23


  1251 00:07F8: 88           	dey
  1252                        L89:
  1253 00:07F9: 85 01        	sta	<R0
  1254 00:07FB: 84 03        	sty	<R0+2
  1255 00:07FD: F4 00 00     	pea	#^$6
  1256 00:0800: F4 06 00     	pea	#<$6
  1257 00:0803: D4 03        	pei	<R0+2
  1258 00:0805: D4 01        	pei	<R0
  1259                        	xref	~~~lmul
  1260 00:0807: 22 xx xx xx  	jsl	~~~lmul
  1261 00:080B: 85 01        	sta	<R0
  1262 00:080D: 86 03        	stx	<R0+2
  1263 00:080F: 18           	clc
  1264 00:0810: A9 04 00     	lda	#$4
  1265 00:0813: 65 1D        	adc	<L82+base_1
  1266 00:0815: 85 05        	sta	<R1
  1267 00:0817: A9 00 00     	lda	#$0
  1268 00:081A: 65 1F        	adc	<L82+base_1+2
  1269 00:081C: 85 07        	sta	<R1+2
  1270 00:081E: 18           	clc
  1271 00:081F: A5 05        	lda	<R1
  1272 00:0821: 65 01        	adc	<R0
  1273 00:0823: 85 09        	sta	<R2
  1274 00:0825: A5 07        	lda	<R1+2
  1275 00:0827: 65 03        	adc	<R0+2
  1276 00:0829: 85 0B        	sta	<R2+2
  1277 00:082B: A0 04 00     	ldy	#$4
  1278 00:082E: B7 19        	lda	[<L82+p_1],Y
  1279 00:0830: 87 09        	sta	[<R2]
  1280 00:0832: E6 15        	inc	<L82+next_1
  1281 00:0834: A7 19        	lda	[<L82+p_1]
  1282 00:0836: 85 01        	sta	<R0
  1283 00:0838: A0 02 00     	ldy	#$2
  1284 00:083B: B7 19        	lda	[<L82+p_1],Y
  1285 00:083D: 85 03        	sta	<R0+2
  1286 00:083F: A5 01        	lda	<R0
  1287 00:0841: 85 19        	sta	<L82+p_1
  1288 00:0843: A5 03        	lda	<R0+2
  1289 00:0845: 85 1B        	sta	<L82+p_1+2
  1290 00:0847: 82 68 FF     	brl	L10045
  1291                        L10046:
  1292 00:084A: A9 01 00     	lda	#$1
  1293 00:084D: 85 11        	sta	<L82+n_1
  1294                        L10049:
  1295 00:084F: A5 11        	lda	<L82+n_1
  1296 00:0851: 0A           	asl	A
  1297 00:0852: 0A           	asl	A
  1298 00:0853: 85 01        	sta	<R0
  1299 00:0855: 18           	clc
  1300 00:0856: A9 xx xx     	lda	#<~~binlists
  1301 00:0859: 65 01        	adc	<R0
  1302 00:085B: 85 05        	sta	<R1
  1303 00:085D: B2 05        	lda	(<R1)
  1304 00:085F: 85 19        	sta	<L82+p_1
  1305 00:0861: A0 02 00     	ldy	#$2
  1306 00:0864: B1 05        	lda	(<R1),Y
  1307 00:0866: 85 1B        	sta	<L82+p_1+2
  1308 00:0868: A5 11        	lda	<L82+n_1
  Sun Jan  9 2022 20:52                                                Page 24


  1309 00:086A: 0A           	asl	A
  1310 00:086B: 0A           	asl	A
  1311 00:086C: 85 01        	sta	<R0
  1312 00:086E: 18           	clc
  1313 00:086F: A9 xx xx     	lda	#<~~binlists
  1314 00:0872: 65 01        	adc	<R0
  1315 00:0874: 85 05        	sta	<R1
  1316 00:0876: A9 00 00     	lda	#$0
  1317 00:0879: 92 05        	sta	(<R1)
  1318 00:087B: A9 00 00     	lda	#$0
  1319 00:087E: A0 02 00     	ldy	#$2
  1320 00:0881: 91 05        	sta	(<R1),Y
  1321 00:0883: A5 11        	lda	<L82+n_1
  1322 00:0885: 0A           	asl	A
  1323 00:0886: 85 01        	sta	<R0
  1324 00:0888: A6 01        	ldx	<R0
  1325 00:088A: BD xx xx     	lda	|~~binsizes,X
  1326 00:088D: 85 17        	sta	<L82+size_1
  1327                        L10050:
  1328 00:088F: A5 19        	lda	<L82+p_1
  1329 00:0891: 05 1B        	ora	<L82+p_1+2
  1330 00:0893: D0 03        	bne	L90
  1331 00:0895: 82 8C 00     	brl	L10051
  1332                        L90:
  1333 00:0898: A0 00 00     	ldy	#$0
  1334 00:089B: A5 15        	lda	<L82+next_1
  1335 00:089D: 10 01        	bpl	L91
  1336 00:089F: 88           	dey
  1337                        L91:
  1338 00:08A0: 85 01        	sta	<R0
  1339 00:08A2: 84 03        	sty	<R0+2
  1340 00:08A4: F4 00 00     	pea	#^$6
  1341 00:08A7: F4 06 00     	pea	#<$6
  1342 00:08AA: D4 03        	pei	<R0+2
  1343 00:08AC: D4 01        	pei	<R0
  1344                        	xref	~~~lmul
  1345 00:08AE: 22 xx xx xx  	jsl	~~~lmul
  1346 00:08B2: 85 01        	sta	<R0
  1347 00:08B4: 86 03        	stx	<R0+2
  1348 00:08B6: 18           	clc
  1349 00:08B7: A5 1D        	lda	<L82+base_1
  1350 00:08B9: 65 01        	adc	<R0
  1351 00:08BB: 85 05        	sta	<R1
  1352 00:08BD: A5 1F        	lda	<L82+base_1+2
  1353 00:08BF: 65 03        	adc	<R0+2
  1354 00:08C1: 85 07        	sta	<R1+2
  1355 00:08C3: A5 19        	lda	<L82+p_1
  1356 00:08C5: 87 05        	sta	[<R1]
  1357 00:08C7: A5 1B        	lda	<L82+p_1+2
  1358 00:08C9: A0 02 00     	ldy	#$2
  1359 00:08CC: 97 05        	sta	[<R1],Y
  1360 00:08CE: A0 00 00     	ldy	#$0
  1361 00:08D1: A5 15        	lda	<L82+next_1
  1362 00:08D3: 10 01        	bpl	L92
  1363 00:08D5: 88           	dey
  1364                        L92:
  1365 00:08D6: 85 01        	sta	<R0
  1366 00:08D8: 84 03        	sty	<R0+2
  Sun Jan  9 2022 20:52                                                Page 25


  1367 00:08DA: F4 00 00     	pea	#^$6
  1368 00:08DD: F4 06 00     	pea	#<$6
  1369 00:08E0: D4 03        	pei	<R0+2
  1370 00:08E2: D4 01        	pei	<R0
  1371                        	xref	~~~lmul
  1372 00:08E4: 22 xx xx xx  	jsl	~~~lmul
  1373 00:08E8: 85 01        	sta	<R0
  1374 00:08EA: 86 03        	stx	<R0+2
  1375 00:08EC: 18           	clc
  1376 00:08ED: A9 04 00     	lda	#$4
  1377 00:08F0: 65 1D        	adc	<L82+base_1
  1378 00:08F2: 85 05        	sta	<R1
  1379 00:08F4: A9 00 00     	lda	#$0
  1380 00:08F7: 65 1F        	adc	<L82+base_1+2
  1381 00:08F9: 85 07        	sta	<R1+2
  1382 00:08FB: 18           	clc
  1383 00:08FC: A5 05        	lda	<R1
  1384 00:08FE: 65 01        	adc	<R0
  1385 00:0900: 85 09        	sta	<R2
  1386 00:0902: A5 07        	lda	<R1+2
  1387 00:0904: 65 03        	adc	<R0+2
  1388 00:0906: 85 0B        	sta	<R2+2
  1389 00:0908: A5 17        	lda	<L82+size_1
  1390 00:090A: 87 09        	sta	[<R2]
  1391 00:090C: E6 15        	inc	<L82+next_1
  1392 00:090E: A7 19        	lda	[<L82+p_1]
  1393 00:0910: 85 01        	sta	<R0
  1394 00:0912: A0 02 00     	ldy	#$2
  1395 00:0915: B7 19        	lda	[<L82+p_1],Y
  1396 00:0917: 85 03        	sta	<R0+2
  1397 00:0919: A5 01        	lda	<R0
  1398 00:091B: 85 19        	sta	<L82+p_1
  1399 00:091D: A5 03        	lda	<R0+2
  1400 00:091F: 85 1B        	sta	<L82+p_1+2
  1401 00:0921: 82 6B FF     	brl	L10050
  1402                        L10051:
  1403                        L10047:
  1404 00:0924: E6 11        	inc	<L82+n_1
  1405 00:0926: 38           	sec
  1406 00:0927: A5 11        	lda	<L82+n_1
  1407 00:0929: E9 2E 00     	sbc	#<$2e
  1408 00:092C: 70 03        	bvs	L93
  1409 00:092E: 49 00 80     	eor	#$8000
  1410                        L93:
  1411 00:0931: 30 03        	bmi	L94
  1412 00:0933: 82 19 FF     	brl	L10049
  1413                        L94:
  1414                        L10048:
  1415 00:0936: F4 xx xx     	pea	#^~~compare
  1416 00:0939: F4 xx xx     	pea	#<~~compare
  1417 00:093C: F4 00 00     	pea	#^$6
  1418 00:093F: F4 06 00     	pea	#<$6
  1419 00:0942: A0 00 00     	ldy	#$0
  1420 00:0945: AD xx xx     	lda	|~~freestrings
  1421 00:0948: 10 01        	bpl	L95
  1422 00:094A: 88           	dey
  1423                        L95:
  1424 00:094B: 85 01        	sta	<R0
  Sun Jan  9 2022 20:52                                                Page 26


  1425 00:094D: 84 03        	sty	<R0+2
  1426 00:094F: D4 03        	pei	<R0+2
  1427 00:0951: D4 01        	pei	<R0
  1428 00:0953: D4 1F        	pei	<L82+base_1+2
  1429 00:0955: D4 1D        	pei	<L82+base_1
  1430 00:0957: 22 xx xx xx  	jsl	~~qsort
  1431 00:095B: E2 20        	sep	#$20
  1432                        	longa	off
  1433 00:095D: 64 21        	stz	<L82+merged_1
  1434 00:095F: C2 20        	rep	#$20
  1435                        	longa	on
  1436 00:0961: 64 13        	stz	<L82+here_1
  1437 00:0963: A9 01 00     	lda	#$1
  1438 00:0966: 85 15        	sta	<L82+next_1
  1439                        L10054:
  1440 00:0968: A0 00 00     	ldy	#$0
  1441 00:096B: A5 13        	lda	<L82+here_1
  1442 00:096D: 10 01        	bpl	L96
  1443 00:096F: 88           	dey
  1444                        L96:
  1445 00:0970: 85 01        	sta	<R0
  1446 00:0972: 84 03        	sty	<R0+2
  1447 00:0974: F4 00 00     	pea	#^$6
  1448 00:0977: F4 06 00     	pea	#<$6
  1449 00:097A: D4 03        	pei	<R0+2
  1450 00:097C: D4 01        	pei	<R0
  1451                        	xref	~~~lmul
  1452 00:097E: 22 xx xx xx  	jsl	~~~lmul
  1453 00:0982: 85 01        	sta	<R0
  1454 00:0984: 86 03        	stx	<R0+2
  1455 00:0986: 18           	clc
  1456 00:0987: A9 04 00     	lda	#$4
  1457 00:098A: 65 1D        	adc	<L82+base_1
  1458 00:098C: 85 05        	sta	<R1
  1459 00:098E: A9 00 00     	lda	#$0
  1460 00:0991: 65 1F        	adc	<L82+base_1+2
  1461 00:0993: 85 07        	sta	<R1+2
  1462 00:0995: 18           	clc
  1463 00:0996: A5 05        	lda	<R1
  1464 00:0998: 65 01        	adc	<R0
  1465 00:099A: 85 09        	sta	<R2
  1466 00:099C: A5 07        	lda	<R1+2
  1467 00:099E: 65 03        	adc	<R0+2
  1468 00:09A0: 85 0B        	sta	<R2+2
  1469 00:09A2: A7 09        	lda	[<R2]
  1470 00:09A4: 85 17        	sta	<L82+size_1
  1471                        L10055:
  1472 00:09A6: 38           	sec
  1473 00:09A7: A5 15        	lda	<L82+next_1
  1474 00:09A9: ED xx xx     	sbc	|~~freestrings
  1475 00:09AC: 70 03        	bvs	L97
  1476 00:09AE: 49 00 80     	eor	#$8000
  1477                        L97:
  1478 00:09B1: 10 03        	bpl	L98
  1479 00:09B3: 82 48 01     	brl	L10056
  1480                        L98:
  1481 00:09B6: A0 00 00     	ldy	#$0
  1482 00:09B9: A5 17        	lda	<L82+size_1
  Sun Jan  9 2022 20:52                                                Page 27


  1483 00:09BB: 10 01        	bpl	L99
  1484 00:09BD: 88           	dey
  1485                        L99:
  1486 00:09BE: 85 01        	sta	<R0
  1487 00:09C0: 84 03        	sty	<R0+2
  1488 00:09C2: A0 00 00     	ldy	#$0
  1489 00:09C5: A5 13        	lda	<L82+here_1
  1490 00:09C7: 10 01        	bpl	L100
  1491 00:09C9: 88           	dey
  1492                        L100:
  1493 00:09CA: 85 05        	sta	<R1
  1494 00:09CC: 84 07        	sty	<R1+2
  1495 00:09CE: F4 00 00     	pea	#^$6
  1496 00:09D1: F4 06 00     	pea	#<$6
  1497 00:09D4: D4 07        	pei	<R1+2
  1498 00:09D6: D4 05        	pei	<R1
  1499                        	xref	~~~lmul
  1500 00:09D8: 22 xx xx xx  	jsl	~~~lmul
  1501 00:09DC: 85 05        	sta	<R1
  1502 00:09DE: 86 07        	stx	<R1+2
  1503 00:09E0: 18           	clc
  1504 00:09E1: A5 1D        	lda	<L82+base_1
  1505 00:09E3: 65 05        	adc	<R1
  1506 00:09E5: 85 09        	sta	<R2
  1507 00:09E7: A5 1F        	lda	<L82+base_1+2
  1508 00:09E9: 65 07        	adc	<R1+2
  1509 00:09EB: 85 0B        	sta	<R2+2
  1510 00:09ED: 18           	clc
  1511 00:09EE: A7 09        	lda	[<R2]
  1512 00:09F0: 65 01        	adc	<R0
  1513 00:09F2: 85 05        	sta	<R1
  1514 00:09F4: A0 02 00     	ldy	#$2
  1515 00:09F7: B7 09        	lda	[<R2],Y
  1516 00:09F9: 65 03        	adc	<R0+2
  1517 00:09FB: 85 07        	sta	<R1+2
  1518 00:09FD: A0 00 00     	ldy	#$0
  1519 00:0A00: A5 15        	lda	<L82+next_1
  1520 00:0A02: 10 01        	bpl	L101
  1521 00:0A04: 88           	dey
  1522                        L101:
  1523 00:0A05: 85 01        	sta	<R0
  1524 00:0A07: 84 03        	sty	<R0+2
  1525 00:0A09: F4 00 00     	pea	#^$6
  1526 00:0A0C: F4 06 00     	pea	#<$6
  1527 00:0A0F: D4 03        	pei	<R0+2
  1528 00:0A11: D4 01        	pei	<R0
  1529                        	xref	~~~lmul
  1530 00:0A13: 22 xx xx xx  	jsl	~~~lmul
  1531 00:0A17: 85 01        	sta	<R0
  1532 00:0A19: 86 03        	stx	<R0+2
  1533 00:0A1B: 18           	clc
  1534 00:0A1C: A5 1D        	lda	<L82+base_1
  1535 00:0A1E: 65 01        	adc	<R0
  1536 00:0A20: 85 09        	sta	<R2
  1537 00:0A22: A5 1F        	lda	<L82+base_1+2
  1538 00:0A24: 65 03        	adc	<R0+2
  1539 00:0A26: 85 0B        	sta	<R2+2
  1540 00:0A28: A7 09        	lda	[<R2]
  Sun Jan  9 2022 20:52                                                Page 28


  1541 00:0A2A: C5 05        	cmp	<R1
  1542 00:0A2C: D0 07        	bne	L102
  1543 00:0A2E: A0 02 00     	ldy	#$2
  1544 00:0A31: B7 09        	lda	[<R2],Y
  1545 00:0A33: C5 07        	cmp	<R1+2
  1546                        L102:
  1547 00:0A35: F0 03        	beq	L103
  1548 00:0A37: 82 C4 00     	brl	L10056
  1549                        L103:
  1550 00:0A3A: A0 00 00     	ldy	#$0
  1551 00:0A3D: A5 13        	lda	<L82+here_1
  1552 00:0A3F: 10 01        	bpl	L104
  1553 00:0A41: 88           	dey
  1554                        L104:
  1555 00:0A42: 85 01        	sta	<R0
  1556 00:0A44: 84 03        	sty	<R0+2
  1557 00:0A46: F4 00 00     	pea	#^$6
  1558 00:0A49: F4 06 00     	pea	#<$6
  1559 00:0A4C: D4 03        	pei	<R0+2
  1560 00:0A4E: D4 01        	pei	<R0
  1561                        	xref	~~~lmul
  1562 00:0A50: 22 xx xx xx  	jsl	~~~lmul
  1563 00:0A54: 85 01        	sta	<R0
  1564 00:0A56: 86 03        	stx	<R0+2
  1565 00:0A58: 18           	clc
  1566 00:0A59: A9 04 00     	lda	#$4
  1567 00:0A5C: 65 1D        	adc	<L82+base_1
  1568 00:0A5E: 85 05        	sta	<R1
  1569 00:0A60: A9 00 00     	lda	#$0
  1570 00:0A63: 65 1F        	adc	<L82+base_1+2
  1571 00:0A65: 85 07        	sta	<R1+2
  1572 00:0A67: 18           	clc
  1573 00:0A68: A5 05        	lda	<R1
  1574 00:0A6A: 65 01        	adc	<R0
  1575 00:0A6C: 85 09        	sta	<R2
  1576 00:0A6E: A5 07        	lda	<R1+2
  1577 00:0A70: 65 03        	adc	<R0+2
  1578 00:0A72: 85 0B        	sta	<R2+2
  1579 00:0A74: A0 00 00     	ldy	#$0
  1580 00:0A77: A5 15        	lda	<L82+next_1
  1581 00:0A79: 10 01        	bpl	L105
  1582 00:0A7B: 88           	dey
  1583                        L105:
  1584 00:0A7C: 85 01        	sta	<R0
  1585 00:0A7E: 84 03        	sty	<R0+2
  1586 00:0A80: F4 00 00     	pea	#^$6
  1587 00:0A83: F4 06 00     	pea	#<$6
  1588 00:0A86: D4 03        	pei	<R0+2
  1589 00:0A88: D4 01        	pei	<R0
  1590                        	xref	~~~lmul
  1591 00:0A8A: 22 xx xx xx  	jsl	~~~lmul
  1592 00:0A8E: 85 01        	sta	<R0
  1593 00:0A90: 86 03        	stx	<R0+2
  1594 00:0A92: 18           	clc
  1595 00:0A93: A9 04 00     	lda	#$4
  1596 00:0A96: 65 1D        	adc	<L82+base_1
  1597 00:0A98: 85 05        	sta	<R1
  1598 00:0A9A: A9 00 00     	lda	#$0
  Sun Jan  9 2022 20:52                                                Page 29


  1599 00:0A9D: 65 1F        	adc	<L82+base_1+2
  1600 00:0A9F: 85 07        	sta	<R1+2
  1601 00:0AA1: 18           	clc
  1602 00:0AA2: A5 05        	lda	<R1
  1603 00:0AA4: 65 01        	adc	<R0
  1604 00:0AA6: 85 0D        	sta	<R3
  1605 00:0AA8: A5 07        	lda	<R1+2
  1606 00:0AAA: 65 03        	adc	<R0+2
  1607 00:0AAC: 85 0F        	sta	<R3+2
  1608 00:0AAE: 18           	clc
  1609 00:0AAF: A7 0D        	lda	[<R3]
  1610 00:0AB1: 65 17        	adc	<L82+size_1
  1611 00:0AB3: 85 17        	sta	<L82+size_1
  1612 00:0AB5: A5 17        	lda	<L82+size_1
  1613 00:0AB7: 87 09        	sta	[<R2]
  1614 00:0AB9: A0 00 00     	ldy	#$0
  1615 00:0ABC: A5 15        	lda	<L82+next_1
  1616 00:0ABE: 10 01        	bpl	L106
  1617 00:0AC0: 88           	dey
  1618                        L106:
  1619 00:0AC1: 85 01        	sta	<R0
  1620 00:0AC3: 84 03        	sty	<R0+2
  1621 00:0AC5: F4 00 00     	pea	#^$6
  1622 00:0AC8: F4 06 00     	pea	#<$6
  1623 00:0ACB: D4 03        	pei	<R0+2
  1624 00:0ACD: D4 01        	pei	<R0
  1625                        	xref	~~~lmul
  1626 00:0ACF: 22 xx xx xx  	jsl	~~~lmul
  1627 00:0AD3: 85 01        	sta	<R0
  1628 00:0AD5: 86 03        	stx	<R0+2
  1629 00:0AD7: 18           	clc
  1630 00:0AD8: A5 1D        	lda	<L82+base_1
  1631 00:0ADA: 65 01        	adc	<R0
  1632 00:0ADC: 85 05        	sta	<R1
  1633 00:0ADE: A5 1F        	lda	<L82+base_1+2
  1634 00:0AE0: 65 03        	adc	<R0+2
  1635 00:0AE2: 85 07        	sta	<R1+2
  1636 00:0AE4: A9 00 00     	lda	#$0
  1637 00:0AE7: 87 05        	sta	[<R1]
  1638 00:0AE9: A9 00 00     	lda	#$0
  1639 00:0AEC: A0 02 00     	ldy	#$2
  1640 00:0AEF: 97 05        	sta	[<R1],Y
  1641 00:0AF1: E2 20        	sep	#$20
  1642                        	longa	off
  1643 00:0AF3: A9 01        	lda	#$1
  1644 00:0AF5: 85 21        	sta	<L82+merged_1
  1645 00:0AF7: C2 20        	rep	#$20
  1646                        	longa	on
  1647 00:0AF9: E6 15        	inc	<L82+next_1
  1648 00:0AFB: 82 A8 FE     	brl	L10055
  1649                        L10056:
  1650 00:0AFE: A5 15        	lda	<L82+next_1
  1651 00:0B00: 85 13        	sta	<L82+here_1
  1652 00:0B02: E6 15        	inc	<L82+next_1
  1653                        L10052:
  1654 00:0B04: 18           	clc
  1655 00:0B05: A9 FF FF     	lda	#$ffff
  1656 00:0B08: 6D xx xx     	adc	|~~freestrings
  Sun Jan  9 2022 20:52                                                Page 30


  1657 00:0B0B: 85 01        	sta	<R0
  1658 00:0B0D: 38           	sec
  1659 00:0B0E: A5 13        	lda	<L82+here_1
  1660 00:0B10: E5 01        	sbc	<R0
  1661 00:0B12: 70 03        	bvs	L107
  1662 00:0B14: 49 00 80     	eor	#$8000
  1663                        L107:
  1664 00:0B17: 30 03        	bmi	L108
  1665 00:0B19: 82 4C FE     	brl	L10054
  1666                        L108:
  1667                        L10053:
  1668 00:0B1C: 18           	clc
  1669 00:0B1D: A9 FF FF     	lda	#$ffff
  1670 00:0B20: 6D xx xx     	adc	|~~freestrings
  1671 00:0B23: 85 11        	sta	<L82+n_1
  1672                        L10057:
  1673 00:0B25: A5 11        	lda	<L82+n_1
  1674 00:0B27: 10 03        	bpl	L109
  1675 00:0B29: 82 3C 00     	brl	L10058
  1676                        L109:
  1677 00:0B2C: A0 00 00     	ldy	#$0
  1678 00:0B2F: A5 11        	lda	<L82+n_1
  1679 00:0B31: 10 01        	bpl	L110
  1680 00:0B33: 88           	dey
  1681                        L110:
  1682 00:0B34: 85 01        	sta	<R0
  1683 00:0B36: 84 03        	sty	<R0+2
  1684 00:0B38: F4 00 00     	pea	#^$6
  1685 00:0B3B: F4 06 00     	pea	#<$6
  1686 00:0B3E: D4 03        	pei	<R0+2
  1687 00:0B40: D4 01        	pei	<R0
  1688                        	xref	~~~lmul
  1689 00:0B42: 22 xx xx xx  	jsl	~~~lmul
  1690 00:0B46: 85 01        	sta	<R0
  1691 00:0B48: 86 03        	stx	<R0+2
  1692 00:0B4A: 18           	clc
  1693 00:0B4B: A5 1D        	lda	<L82+base_1
  1694 00:0B4D: 65 01        	adc	<R0
  1695 00:0B4F: 85 05        	sta	<R1
  1696 00:0B51: A5 1F        	lda	<L82+base_1+2
  1697 00:0B53: 65 03        	adc	<R0+2
  1698 00:0B55: 85 07        	sta	<R1+2
  1699 00:0B57: A7 05        	lda	[<R1]
  1700 00:0B59: A0 02 00     	ldy	#$2
  1701 00:0B5C: 17 05        	ora	[<R1],Y
  1702 00:0B5E: F0 03        	beq	L111
  1703 00:0B60: 82 05 00     	brl	L10058
  1704                        L111:
  1705 00:0B63: C6 11        	dec	<L82+n_1
  1706 00:0B65: 82 BD FF     	brl	L10057
  1707                        L10058:
  1708 00:0B68: A5 11        	lda	<L82+n_1
  1709 00:0B6A: 10 03        	bpl	L112
  1710 00:0B6C: 82 F4 00     	brl	L10059
  1711                        L112:
  1712 00:0B6F: A0 00 00     	ldy	#$0
  1713 00:0B72: A5 11        	lda	<L82+n_1
  1714 00:0B74: 10 01        	bpl	L113
  Sun Jan  9 2022 20:52                                                Page 31


  1715 00:0B76: 88           	dey
  1716                        L113:
  1717 00:0B77: 85 01        	sta	<R0
  1718 00:0B79: 84 03        	sty	<R0+2
  1719 00:0B7B: F4 00 00     	pea	#^$6
  1720 00:0B7E: F4 06 00     	pea	#<$6
  1721 00:0B81: D4 03        	pei	<R0+2
  1722 00:0B83: D4 01        	pei	<R0
  1723                        	xref	~~~lmul
  1724 00:0B85: 22 xx xx xx  	jsl	~~~lmul
  1725 00:0B89: 85 01        	sta	<R0
  1726 00:0B8B: 86 03        	stx	<R0+2
  1727 00:0B8D: 18           	clc
  1728 00:0B8E: A9 04 00     	lda	#$4
  1729 00:0B91: 65 1D        	adc	<L82+base_1
  1730 00:0B93: 85 05        	sta	<R1
  1731 00:0B95: A9 00 00     	lda	#$0
  1732 00:0B98: 65 1F        	adc	<L82+base_1+2
  1733 00:0B9A: 85 07        	sta	<R1+2
  1734 00:0B9C: 18           	clc
  1735 00:0B9D: A5 05        	lda	<R1
  1736 00:0B9F: 65 01        	adc	<R0
  1737 00:0BA1: 85 09        	sta	<R2
  1738 00:0BA3: A5 07        	lda	<R1+2
  1739 00:0BA5: 65 03        	adc	<R0+2
  1740 00:0BA7: 85 0B        	sta	<R2+2
  1741 00:0BA9: A7 09        	lda	[<R2]
  1742 00:0BAB: 48           	pha
  1743 00:0BAC: A0 00 00     	ldy	#$0
  1744 00:0BAF: A5 11        	lda	<L82+n_1
  1745 00:0BB1: 10 01        	bpl	L114
  1746 00:0BB3: 88           	dey
  1747                        L114:
  1748 00:0BB4: 85 01        	sta	<R0
  1749 00:0BB6: 84 03        	sty	<R0+2
  1750 00:0BB8: F4 00 00     	pea	#^$6
  1751 00:0BBB: F4 06 00     	pea	#<$6
  1752 00:0BBE: D4 03        	pei	<R0+2
  1753 00:0BC0: D4 01        	pei	<R0
  1754                        	xref	~~~lmul
  1755 00:0BC2: 22 xx xx xx  	jsl	~~~lmul
  1756 00:0BC6: 85 01        	sta	<R0
  1757 00:0BC8: 86 03        	stx	<R0+2
  1758 00:0BCA: 18           	clc
  1759 00:0BCB: A5 1D        	lda	<L82+base_1
  1760 00:0BCD: 65 01        	adc	<R0
  1761 00:0BCF: 85 05        	sta	<R1
  1762 00:0BD1: A5 1F        	lda	<L82+base_1+2
  1763 00:0BD3: 65 03        	adc	<R0+2
  1764 00:0BD5: 85 07        	sta	<R1+2
  1765 00:0BD7: A0 02 00     	ldy	#$2
  1766 00:0BDA: B7 05        	lda	[<R1],Y
  1767 00:0BDC: 48           	pha
  1768 00:0BDD: A7 05        	lda	[<R1]
  1769 00:0BDF: 48           	pha
  1770 00:0BE0: 22 xx xx xx  	jsl	~~returnable
  1771 00:0BE4: 29 FF 00     	and	#$ff
  1772 00:0BE7: D0 03        	bne	L115
  Sun Jan  9 2022 20:52                                                Page 32


  1773 00:0BE9: 82 77 00     	brl	L10059
  1774                        L115:
  1775 00:0BEC: A0 00 00     	ldy	#$0
  1776 00:0BEF: A5 11        	lda	<L82+n_1
  1777 00:0BF1: 10 01        	bpl	L116
  1778 00:0BF3: 88           	dey
  1779                        L116:
  1780 00:0BF4: 85 01        	sta	<R0
  1781 00:0BF6: 84 03        	sty	<R0+2
  1782 00:0BF8: F4 00 00     	pea	#^$6
  1783 00:0BFB: F4 06 00     	pea	#<$6
  1784 00:0BFE: D4 03        	pei	<R0+2
  1785 00:0C00: D4 01        	pei	<R0
  1786                        	xref	~~~lmul
  1787 00:0C02: 22 xx xx xx  	jsl	~~~lmul
  1788 00:0C06: 85 01        	sta	<R0
  1789 00:0C08: 86 03        	stx	<R0+2
  1790 00:0C0A: 18           	clc
  1791 00:0C0B: A9 04 00     	lda	#$4
  1792 00:0C0E: 65 1D        	adc	<L82+base_1
  1793 00:0C10: 85 05        	sta	<R1
  1794 00:0C12: A9 00 00     	lda	#$0
  1795 00:0C15: 65 1F        	adc	<L82+base_1+2
  1796 00:0C17: 85 07        	sta	<R1+2
  1797 00:0C19: 18           	clc
  1798 00:0C1A: A5 05        	lda	<R1
  1799 00:0C1C: 65 01        	adc	<R0
  1800 00:0C1E: 85 09        	sta	<R2
  1801 00:0C20: A5 07        	lda	<R1+2
  1802 00:0C22: 65 03        	adc	<R0+2
  1803 00:0C24: 85 0B        	sta	<R2+2
  1804 00:0C26: A7 09        	lda	[<R2]
  1805 00:0C28: 48           	pha
  1806 00:0C29: A0 00 00     	ldy	#$0
  1807 00:0C2C: A5 11        	lda	<L82+n_1
  1808 00:0C2E: 10 01        	bpl	L117
  1809 00:0C30: 88           	dey
  1810                        L117:
  1811 00:0C31: 85 01        	sta	<R0
  1812 00:0C33: 84 03        	sty	<R0+2
  1813 00:0C35: F4 00 00     	pea	#^$6
  1814 00:0C38: F4 06 00     	pea	#<$6
  1815 00:0C3B: D4 03        	pei	<R0+2
  1816 00:0C3D: D4 01        	pei	<R0
  1817                        	xref	~~~lmul
  1818 00:0C3F: 22 xx xx xx  	jsl	~~~lmul
  1819 00:0C43: 85 01        	sta	<R0
  1820 00:0C45: 86 03        	stx	<R0+2
  1821 00:0C47: 18           	clc
  1822 00:0C48: A5 1D        	lda	<L82+base_1
  1823 00:0C4A: 65 01        	adc	<R0
  1824 00:0C4C: 85 05        	sta	<R1
  1825 00:0C4E: A5 1F        	lda	<L82+base_1+2
  1826 00:0C50: 65 03        	adc	<R0+2
  1827 00:0C52: 85 07        	sta	<R1+2
  1828 00:0C54: A0 02 00     	ldy	#$2
  1829 00:0C57: B7 05        	lda	[<R1],Y
  1830 00:0C59: 48           	pha
  Sun Jan  9 2022 20:52                                                Page 33


  1831 00:0C5A: A7 05        	lda	[<R1]
  1832 00:0C5C: 48           	pha
  1833 00:0C5D: 22 xx xx xx  	jsl	~~freemem
  1834 00:0C61: C6 11        	dec	<L82+n_1
  1835                        L10059:
  1836 00:0C63: 9C xx xx     	stz	|~~freestrings
  1837 00:0C66: 9C xx xx     	stz	|~~freelist
  1838 00:0C69: 9C xx xx     	stz	|~~freelist+2
  1839                        L10060:
  1840 00:0C6C: A5 11        	lda	<L82+n_1
  1841 00:0C6E: 10 03        	bpl	L118
  1842 00:0C70: 82 BA 02     	brl	L10061
  1843                        L118:
  1844 00:0C73: A0 00 00     	ldy	#$0
  1845 00:0C76: A5 11        	lda	<L82+n_1
  1846 00:0C78: 10 01        	bpl	L119
  1847 00:0C7A: 88           	dey
  1848                        L119:
  1849 00:0C7B: 85 01        	sta	<R0
  1850 00:0C7D: 84 03        	sty	<R0+2
  1851 00:0C7F: F4 00 00     	pea	#^$6
  1852 00:0C82: F4 06 00     	pea	#<$6
  1853 00:0C85: D4 03        	pei	<R0+2
  1854 00:0C87: D4 01        	pei	<R0
  1855                        	xref	~~~lmul
  1856 00:0C89: 22 xx xx xx  	jsl	~~~lmul
  1857 00:0C8D: 85 01        	sta	<R0
  1858 00:0C8F: 86 03        	stx	<R0+2
  1859 00:0C91: 18           	clc
  1860 00:0C92: A5 1D        	lda	<L82+base_1
  1861 00:0C94: 65 01        	adc	<R0
  1862 00:0C96: 85 05        	sta	<R1
  1863 00:0C98: A5 1F        	lda	<L82+base_1+2
  1864 00:0C9A: 65 03        	adc	<R0+2
  1865 00:0C9C: 85 07        	sta	<R1+2
  1866 00:0C9E: A7 05        	lda	[<R1]
  1867 00:0CA0: A0 02 00     	ldy	#$2
  1868 00:0CA3: 17 05        	ora	[<R1],Y
  1869 00:0CA5: D0 03        	bne	L120
  1870 00:0CA7: 82 7E 02     	brl	L10062
  1871                        L120:
  1872 00:0CAA: A0 00 00     	ldy	#$0
  1873 00:0CAD: A5 11        	lda	<L82+n_1
  1874 00:0CAF: 10 01        	bpl	L121
  1875 00:0CB1: 88           	dey
  1876                        L121:
  1877 00:0CB2: 85 01        	sta	<R0
  1878 00:0CB4: 84 03        	sty	<R0+2
  1879 00:0CB6: F4 00 00     	pea	#^$6
  1880 00:0CB9: F4 06 00     	pea	#<$6
  1881 00:0CBC: D4 03        	pei	<R0+2
  1882 00:0CBE: D4 01        	pei	<R0
  1883                        	xref	~~~lmul
  1884 00:0CC0: 22 xx xx xx  	jsl	~~~lmul
  1885 00:0CC4: 85 01        	sta	<R0
  1886 00:0CC6: 86 03        	stx	<R0+2
  1887 00:0CC8: 18           	clc
  1888 00:0CC9: A9 04 00     	lda	#$4
  Sun Jan  9 2022 20:52                                                Page 34


  1889 00:0CCC: 65 1D        	adc	<L82+base_1
  1890 00:0CCE: 85 05        	sta	<R1
  1891 00:0CD0: A9 00 00     	lda	#$0
  1892 00:0CD3: 65 1F        	adc	<L82+base_1+2
  1893 00:0CD5: 85 07        	sta	<R1+2
  1894 00:0CD7: 18           	clc
  1895 00:0CD8: A5 05        	lda	<R1
  1896 00:0CDA: 65 01        	adc	<R0
  1897 00:0CDC: 85 09        	sta	<R2
  1898 00:0CDE: A5 07        	lda	<R1+2
  1899 00:0CE0: 65 03        	adc	<R0+2
  1900 00:0CE2: 85 0B        	sta	<R2+2
  1901 00:0CE4: 38           	sec
  1902 00:0CE5: A9 00 10     	lda	#$1000
  1903 00:0CE8: E7 09        	sbc	[<R2]
  1904 00:0CEA: 70 03        	bvs	L122
  1905 00:0CEC: 49 00 80     	eor	#$8000
  1906                        L122:
  1907 00:0CEF: 30 03        	bmi	L123
  1908 00:0CF1: 82 46 00     	brl	L10063
  1909                        L123:
  1910 00:0CF4: A0 00 00     	ldy	#$0
  1911 00:0CF7: A5 11        	lda	<L82+n_1
  1912 00:0CF9: 10 01        	bpl	L124
  1913 00:0CFB: 88           	dey
  1914                        L124:
  1915 00:0CFC: 85 01        	sta	<R0
  1916 00:0CFE: 84 03        	sty	<R0+2
  1917 00:0D00: F4 00 00     	pea	#^$6
  1918 00:0D03: F4 06 00     	pea	#<$6
  1919 00:0D06: D4 03        	pei	<R0+2
  1920 00:0D08: D4 01        	pei	<R0
  1921                        	xref	~~~lmul
  1922 00:0D0A: 22 xx xx xx  	jsl	~~~lmul
  1923 00:0D0E: 85 01        	sta	<R0
  1924 00:0D10: 86 03        	stx	<R0+2
  1925 00:0D12: 18           	clc
  1926 00:0D13: A9 04 00     	lda	#$4
  1927 00:0D16: 65 1D        	adc	<L82+base_1
  1928 00:0D18: 85 05        	sta	<R1
  1929 00:0D1A: A9 00 00     	lda	#$0
  1930 00:0D1D: 65 1F        	adc	<L82+base_1+2
  1931 00:0D1F: 85 07        	sta	<R1+2
  1932 00:0D21: 18           	clc
  1933 00:0D22: A5 05        	lda	<R1
  1934 00:0D24: 65 01        	adc	<R0
  1935 00:0D26: 85 09        	sta	<R2
  1936 00:0D28: A5 07        	lda	<R1+2
  1937 00:0D2A: 65 03        	adc	<R0+2
  1938 00:0D2C: 85 0B        	sta	<R2+2
  1939 00:0D2E: A7 09        	lda	[<R2]
  1940 00:0D30: 48           	pha
  1941 00:0D31: 22 xx xx xx  	jsl	~~find_bin
  1942 00:0D35: 85 17        	sta	<L82+size_1
  1943 00:0D37: 82 02 00     	brl	L10064
  1944                        L10063:
  1945 00:0D3A: 64 17        	stz	<L82+size_1
  1946                        L10064:
  Sun Jan  9 2022 20:52                                                Page 35


  1947 00:0D3C: 38           	sec
  1948 00:0D3D: A9 00 00     	lda	#$0
  1949 00:0D40: E5 17        	sbc	<L82+size_1
  1950 00:0D42: 70 03        	bvs	L125
  1951 00:0D44: 49 00 80     	eor	#$8000
  1952                        L125:
  1953 00:0D47: 10 03        	bpl	L126
  1954 00:0D49: 82 E7 00     	brl	L10065
  1955                        L126:
  1956 00:0D4C: A5 17        	lda	<L82+size_1
  1957 00:0D4E: 0A           	asl	A
  1958 00:0D4F: 85 01        	sta	<R0
  1959 00:0D51: A0 00 00     	ldy	#$0
  1960 00:0D54: A5 11        	lda	<L82+n_1
  1961 00:0D56: 10 01        	bpl	L127
  1962 00:0D58: 88           	dey
  1963                        L127:
  1964 00:0D59: 85 05        	sta	<R1
  1965 00:0D5B: 84 07        	sty	<R1+2
  1966 00:0D5D: F4 00 00     	pea	#^$6
  1967 00:0D60: F4 06 00     	pea	#<$6
  1968 00:0D63: D4 07        	pei	<R1+2
  1969 00:0D65: D4 05        	pei	<R1
  1970                        	xref	~~~lmul
  1971 00:0D67: 22 xx xx xx  	jsl	~~~lmul
  1972 00:0D6B: 85 05        	sta	<R1
  1973 00:0D6D: 86 07        	stx	<R1+2
  1974 00:0D6F: 18           	clc
  1975 00:0D70: A9 04 00     	lda	#$4
  1976 00:0D73: 65 1D        	adc	<L82+base_1
  1977 00:0D75: 85 09        	sta	<R2
  1978 00:0D77: A9 00 00     	lda	#$0
  1979 00:0D7A: 65 1F        	adc	<L82+base_1+2
  1980 00:0D7C: 85 0B        	sta	<R2+2
  1981 00:0D7E: 18           	clc
  1982 00:0D7F: A5 09        	lda	<R2
  1983 00:0D81: 65 05        	adc	<R1
  1984 00:0D83: 85 0D        	sta	<R3
  1985 00:0D85: A5 0B        	lda	<R2+2
  1986 00:0D87: 65 07        	adc	<R1+2
  1987 00:0D89: 85 0F        	sta	<R3+2
  1988 00:0D8B: A7 0D        	lda	[<R3]
  1989 00:0D8D: A6 01        	ldx	<R0
  1990 00:0D8F: DD xx xx     	cmp	|~~binsizes,X
  1991 00:0D92: F0 03        	beq	L128
  1992 00:0D94: 82 9C 00     	brl	L10065
  1993                        L128:
  1994 00:0D97: A0 00 00     	ldy	#$0
  1995 00:0D9A: A5 11        	lda	<L82+n_1
  1996 00:0D9C: 10 01        	bpl	L129
  1997 00:0D9E: 88           	dey
  1998                        L129:
  1999 00:0D9F: 85 01        	sta	<R0
  2000 00:0DA1: 84 03        	sty	<R0+2
  2001 00:0DA3: F4 00 00     	pea	#^$6
  2002 00:0DA6: F4 06 00     	pea	#<$6
  2003 00:0DA9: D4 03        	pei	<R0+2
  2004 00:0DAB: D4 01        	pei	<R0
  Sun Jan  9 2022 20:52                                                Page 36


  2005                        	xref	~~~lmul
  2006 00:0DAD: 22 xx xx xx  	jsl	~~~lmul
  2007 00:0DB1: 85 01        	sta	<R0
  2008 00:0DB3: 86 03        	stx	<R0+2
  2009 00:0DB5: 18           	clc
  2010 00:0DB6: A5 1D        	lda	<L82+base_1
  2011 00:0DB8: 65 01        	adc	<R0
  2012 00:0DBA: 85 05        	sta	<R1
  2013 00:0DBC: A5 1F        	lda	<L82+base_1+2
  2014 00:0DBE: 65 03        	adc	<R0+2
  2015 00:0DC0: 85 07        	sta	<R1+2
  2016 00:0DC2: A7 05        	lda	[<R1]
  2017 00:0DC4: 85 01        	sta	<R0
  2018 00:0DC6: A0 02 00     	ldy	#$2
  2019 00:0DC9: B7 05        	lda	[<R1],Y
  2020 00:0DCB: 85 03        	sta	<R0+2
  2021 00:0DCD: A5 17        	lda	<L82+size_1
  2022 00:0DCF: 0A           	asl	A
  2023 00:0DD0: 0A           	asl	A
  2024 00:0DD1: 85 05        	sta	<R1
  2025 00:0DD3: 18           	clc
  2026 00:0DD4: A9 xx xx     	lda	#<~~binlists
  2027 00:0DD7: 65 05        	adc	<R1
  2028 00:0DD9: 85 09        	sta	<R2
  2029 00:0DDB: B2 09        	lda	(<R2)
  2030 00:0DDD: 87 01        	sta	[<R0]
  2031 00:0DDF: A0 02 00     	ldy	#$2
  2032 00:0DE2: B1 09        	lda	(<R2),Y
  2033 00:0DE4: A0 02 00     	ldy	#$2
  2034 00:0DE7: 97 01        	sta	[<R0],Y
  2035 00:0DE9: A5 17        	lda	<L82+size_1
  2036 00:0DEB: 0A           	asl	A
  2037 00:0DEC: 0A           	asl	A
  2038 00:0DED: 85 01        	sta	<R0
  2039 00:0DEF: 18           	clc
  2040 00:0DF0: A9 xx xx     	lda	#<~~binlists
  2041 00:0DF3: 65 01        	adc	<R0
  2042 00:0DF5: 85 05        	sta	<R1
  2043 00:0DF7: A0 00 00     	ldy	#$0
  2044 00:0DFA: A5 11        	lda	<L82+n_1
  2045 00:0DFC: 10 01        	bpl	L130
  2046 00:0DFE: 88           	dey
  2047                        L130:
  2048 00:0DFF: 85 01        	sta	<R0
  2049 00:0E01: 84 03        	sty	<R0+2
  2050 00:0E03: F4 00 00     	pea	#^$6
  2051 00:0E06: F4 06 00     	pea	#<$6
  2052 00:0E09: D4 03        	pei	<R0+2
  2053 00:0E0B: D4 01        	pei	<R0
  2054                        	xref	~~~lmul
  2055 00:0E0D: 22 xx xx xx  	jsl	~~~lmul
  2056 00:0E11: 85 01        	sta	<R0
  2057 00:0E13: 86 03        	stx	<R0+2
  2058 00:0E15: 18           	clc
  2059 00:0E16: A5 1D        	lda	<L82+base_1
  2060 00:0E18: 65 01        	adc	<R0
  2061 00:0E1A: 85 09        	sta	<R2
  2062 00:0E1C: A5 1F        	lda	<L82+base_1+2
  Sun Jan  9 2022 20:52                                                Page 37


  2063 00:0E1E: 65 03        	adc	<R0+2
  2064 00:0E20: 85 0B        	sta	<R2+2
  2065 00:0E22: A7 09        	lda	[<R2]
  2066 00:0E24: 92 05        	sta	(<R1)
  2067 00:0E26: A0 02 00     	ldy	#$2
  2068 00:0E29: B7 09        	lda	[<R2],Y
  2069 00:0E2B: A0 02 00     	ldy	#$2
  2070 00:0E2E: 91 05        	sta	(<R1),Y
  2071 00:0E30: 82 F2 00     	brl	L10066
  2072                        L10065:
  2073 00:0E33: A0 00 00     	ldy	#$0
  2074 00:0E36: A5 11        	lda	<L82+n_1
  2075 00:0E38: 10 01        	bpl	L131
  2076 00:0E3A: 88           	dey
  2077                        L131:
  2078 00:0E3B: 85 01        	sta	<R0
  2079 00:0E3D: 84 03        	sty	<R0+2
  2080 00:0E3F: F4 00 00     	pea	#^$6
  2081 00:0E42: F4 06 00     	pea	#<$6
  2082 00:0E45: D4 03        	pei	<R0+2
  2083 00:0E47: D4 01        	pei	<R0
  2084                        	xref	~~~lmul
  2085 00:0E49: 22 xx xx xx  	jsl	~~~lmul
  2086 00:0E4D: 85 01        	sta	<R0
  2087 00:0E4F: 86 03        	stx	<R0+2
  2088 00:0E51: 18           	clc
  2089 00:0E52: A5 1D        	lda	<L82+base_1
  2090 00:0E54: 65 01        	adc	<R0
  2091 00:0E56: 85 05        	sta	<R1
  2092 00:0E58: A5 1F        	lda	<L82+base_1+2
  2093 00:0E5A: 65 03        	adc	<R0+2
  2094 00:0E5C: 85 07        	sta	<R1+2
  2095 00:0E5E: A7 05        	lda	[<R1]
  2096 00:0E60: 85 01        	sta	<R0
  2097 00:0E62: A0 02 00     	ldy	#$2
  2098 00:0E65: B7 05        	lda	[<R1],Y
  2099 00:0E67: 85 03        	sta	<R0+2
  2100 00:0E69: A0 00 00     	ldy	#$0
  2101 00:0E6C: A5 11        	lda	<L82+n_1
  2102 00:0E6E: 10 01        	bpl	L132
  2103 00:0E70: 88           	dey
  2104                        L132:
  2105 00:0E71: 85 05        	sta	<R1
  2106 00:0E73: 84 07        	sty	<R1+2
  2107 00:0E75: F4 00 00     	pea	#^$6
  2108 00:0E78: F4 06 00     	pea	#<$6
  2109 00:0E7B: D4 07        	pei	<R1+2
  2110 00:0E7D: D4 05        	pei	<R1
  2111                        	xref	~~~lmul
  2112 00:0E7F: 22 xx xx xx  	jsl	~~~lmul
  2113 00:0E83: 85 05        	sta	<R1
  2114 00:0E85: 86 07        	stx	<R1+2
  2115 00:0E87: 18           	clc
  2116 00:0E88: A9 04 00     	lda	#$4
  2117 00:0E8B: 65 1D        	adc	<L82+base_1
  2118 00:0E8D: 85 09        	sta	<R2
  2119 00:0E8F: A9 00 00     	lda	#$0
  2120 00:0E92: 65 1F        	adc	<L82+base_1+2
  Sun Jan  9 2022 20:52                                                Page 38


  2121 00:0E94: 85 0B        	sta	<R2+2
  2122 00:0E96: 18           	clc
  2123 00:0E97: A5 09        	lda	<R2
  2124 00:0E99: 65 05        	adc	<R1
  2125 00:0E9B: 85 0D        	sta	<R3
  2126 00:0E9D: A5 0B        	lda	<R2+2
  2127 00:0E9F: 65 07        	adc	<R1+2
  2128 00:0EA1: 85 0F        	sta	<R3+2
  2129 00:0EA3: A7 0D        	lda	[<R3]
  2130 00:0EA5: A0 04 00     	ldy	#$4
  2131 00:0EA8: 97 01        	sta	[<R0],Y
  2132 00:0EAA: A0 00 00     	ldy	#$0
  2133 00:0EAD: A5 11        	lda	<L82+n_1
  2134 00:0EAF: 10 01        	bpl	L133
  2135 00:0EB1: 88           	dey
  2136                        L133:
  2137 00:0EB2: 85 01        	sta	<R0
  2138 00:0EB4: 84 03        	sty	<R0+2
  2139 00:0EB6: F4 00 00     	pea	#^$6
  2140 00:0EB9: F4 06 00     	pea	#<$6
  2141 00:0EBC: D4 03        	pei	<R0+2
  2142 00:0EBE: D4 01        	pei	<R0
  2143                        	xref	~~~lmul
  2144 00:0EC0: 22 xx xx xx  	jsl	~~~lmul
  2145 00:0EC4: 85 01        	sta	<R0
  2146 00:0EC6: 86 03        	stx	<R0+2
  2147 00:0EC8: 18           	clc
  2148 00:0EC9: A5 1D        	lda	<L82+base_1
  2149 00:0ECB: 65 01        	adc	<R0
  2150 00:0ECD: 85 05        	sta	<R1
  2151 00:0ECF: A5 1F        	lda	<L82+base_1+2
  2152 00:0ED1: 65 03        	adc	<R0+2
  2153 00:0ED3: 85 07        	sta	<R1+2
  2154 00:0ED5: A7 05        	lda	[<R1]
  2155 00:0ED7: 85 01        	sta	<R0
  2156 00:0ED9: A0 02 00     	ldy	#$2
  2157 00:0EDC: B7 05        	lda	[<R1],Y
  2158 00:0EDE: 85 03        	sta	<R0+2
  2159 00:0EE0: AD xx xx     	lda	|~~freelist
  2160 00:0EE3: 87 01        	sta	[<R0]
  2161 00:0EE5: AD xx xx     	lda	|~~freelist+2
  2162 00:0EE8: A0 02 00     	ldy	#$2
  2163 00:0EEB: 97 01        	sta	[<R0],Y
  2164 00:0EED: A0 00 00     	ldy	#$0
  2165 00:0EF0: A5 11        	lda	<L82+n_1
  2166 00:0EF2: 10 01        	bpl	L134
  2167 00:0EF4: 88           	dey
  2168                        L134:
  2169 00:0EF5: 85 01        	sta	<R0
  2170 00:0EF7: 84 03        	sty	<R0+2
  2171 00:0EF9: F4 00 00     	pea	#^$6
  2172 00:0EFC: F4 06 00     	pea	#<$6
  2173 00:0EFF: D4 03        	pei	<R0+2
  2174 00:0F01: D4 01        	pei	<R0
  2175                        	xref	~~~lmul
  2176 00:0F03: 22 xx xx xx  	jsl	~~~lmul
  2177 00:0F07: 85 01        	sta	<R0
  2178 00:0F09: 86 03        	stx	<R0+2
  Sun Jan  9 2022 20:52                                                Page 39


  2179 00:0F0B: 18           	clc
  2180 00:0F0C: A5 1D        	lda	<L82+base_1
  2181 00:0F0E: 65 01        	adc	<R0
  2182 00:0F10: 85 05        	sta	<R1
  2183 00:0F12: A5 1F        	lda	<L82+base_1+2
  2184 00:0F14: 65 03        	adc	<R0+2
  2185 00:0F16: 85 07        	sta	<R1+2
  2186 00:0F18: A7 05        	lda	[<R1]
  2187 00:0F1A: 8D xx xx     	sta	|~~freelist
  2188 00:0F1D: A0 02 00     	ldy	#$2
  2189 00:0F20: B7 05        	lda	[<R1],Y
  2190 00:0F22: 8D xx xx     	sta	|~~freelist+2
  2191                        L10066:
  2192 00:0F25: EE xx xx     	inc	|~~freestrings
  2193                        L10062:
  2194 00:0F28: C6 11        	dec	<L82+n_1
  2195 00:0F2A: 82 3F FD     	brl	L10060
  2196                        L10061:
  2197 00:0F2D: D4 1F        	pei	<L82+base_1+2
  2198 00:0F2F: D4 1D        	pei	<L82+base_1
  2199 00:0F31: 22 xx xx xx  	jsl	~~free
  2200 00:0F35: A5 21        	lda	<L82+merged_1
  2201 00:0F37: 29 FF 00     	and	#$ff
  2202 00:0F3A: 82 25 F8     	brl	L84
  2203             00000021   L81	equ	33
  2204             00000011   L82	equ	17
  2205                        	ends
  2206                        	efunc
  2207                        	xref	~~error
  2208                        	xref	~~freemem
  2209                        	xref	~~returnable
  2210                        	xref	~~condalloc
  2211                        	xref	~~qsort
  2212                        	xref	~~free
  2213                        	xref	~~malloc
  2214                        	xref	~~memmove
  2215                        	udata
  2216                        	xdef	~~emptystring
  2217                        ~~emptystring
  2218 00:0000:              	ds	1
  2219 00:0001:              	ends
  2220                        	udata
  2221                        ~~freelist
  2222 00:0001:              	ds	4
  2223 00:0005:              	ends
  2224                        	udata
  2225                        ~~binlists
  2226 00:0005:              	ds	184
  2227 00:00BD:              	ends
  2228                        	udata
  2229                        ~~freestrings
  2230 00:00BD:              	ds	2
  2231 00:00BF:              	ends
  2232                        	xref	~~basicvars
  2233                        	end


      Lines assembled: 2233
  Sun Jan  9 2022 20:52                                                Page 40


      Errors: 0
