  Sun Jan  9 2022 20:52                                                Page 1


                     ***************************************
                     **      WDC 65C816 Macro Assembler   **
                     **                                   **
                     **     Version 3.49.1- Feb  6 2006    **
                     ***************************************

     1                        ;:ts=8
     2             00000001   R0	equ	1
     3             00000005   R1	equ	5
     4             00000009   R2	equ	9
     5             0000000D   R3	equ	13
     6                        	data
     7                        ~~tokens:
     8 00:0000: xx xx xx xx  	dl	L1+0
     9 00:0004: 03 00 02 00  	dw	$3,$2
    10 00:0008: FF 10 FF 10  	db	$FF,$10,$FF,$10,$0,$0
       00:000C: 00 00 
    11 00:000E: xx xx xx xx  	dl	L1+4
    12 00:0012: 03 00 02 00  	dw	$3,$2
    13 00:0016: FF 11 FF 11  	db	$FF,$11,$FF,$11,$0,$0
       00:001A: 00 00 
    14 00:001C: xx xx xx xx  	dl	L1+8
    15 00:0020: 05 00 02 00  	dw	$5,$2
    16 00:0024: FF 12 FF 12  	db	$FF,$12,$FF,$12,$0,$0
       00:0028: 00 00 
    17 00:002A: xx xx xx xx  	dl	L1+14
    18 00:002E: 03 00 01 00  	dw	$3,$1
    19 00:0032: 00 80 00 80  	db	$0,$80,$0,$80,$0,$0
       00:0036: 00 00 
    20 00:0038: xx xx xx xx  	dl	L1+18
    21 00:003C: 04 00 04 00  	dw	$4,$4
    22 00:0040: FF 13 FF 13  	db	$FF,$13,$FF,$13,$0,$0
       00:0044: 00 00 
    23 00:0046: xx xx xx xx  	dl	L1+23
    24 00:004A: 05 00 05 00  	dw	$5,$5
    25 00:004E: FF 14 FF 14  	db	$FF,$14,$FF,$14,$0,$0
       00:0052: 00 00 
    26 00:0054: xx xx xx xx  	dl	L1+29
    27 00:0058: 03 00 02 00  	dw	$3,$2
    28 00:005C: FF 15 FF 15  	db	$FF,$15,$FF,$15,$0,$0
       00:0060: 00 00 
    29 00:0062: xx xx xx xx  	dl	L1+33
    30 00:0066: 03 00 03 00  	dw	$3,$3
    31 00:006A: FF 16 FF 16  	db	$FF,$16,$FF,$16,$0,$0
       00:006E: 00 00 
    32 00:0070: xx xx xx xx  	dl	L1+37
    33 00:0074: 03 00 02 00  	dw	$3,$2
    34 00:0078: FF 17 FF 17  	db	$FF,$17,$FF,$17,$0,$0
       00:007C: 00 00 
    35 00:007E: xx xx xx xx  	dl	L1+41
    36 00:0082: 05 00 02 00  	dw	$5,$2
    37 00:0086: 00 8D 00 8D  	db	$0,$8D,$0,$8D,$0,$0
       00:008A: 00 00 
    38 00:008C: xx xx xx xx  	dl	L1+47
    39 00:0090: 04 00 04 00  	dw	$4,$4
    40 00:0094: FF 18 FF 18  	db	$FF,$18,$FF,$18,$0,$0
       00:0098: 00 00 
    41 00:009A: xx xx xx xx  	dl	L1+52
  Sun Jan  9 2022 20:52                                                Page 2


    42 00:009E: 04 00 01 00  	dw	$4,$1
    43 00:00A2: FF 19 FF 19  	db	$FF,$19,$FF,$19,$1,$0
       00:00A6: 01 00 
    44 00:00A8: xx xx xx xx  	dl	L1+57
    45 00:00AC: 04 00 02 00  	dw	$4,$2
    46 00:00B0: 00 8E 00 8E  	db	$0,$8E,$0,$8E,$1,$0
       00:00B4: 01 00 
    47 00:00B6: xx xx xx xx  	dl	L1+62
    48 00:00BA: 04 00 02 00  	dw	$4,$2
    49 00:00BE: 00 8F 00 8F  	db	$0,$8F,$0,$8F,$0,$0
       00:00C2: 00 00 
    50 00:00C4: xx xx xx xx  	dl	L1+67
    51 00:00C8: 04 00 03 00  	dw	$4,$3
    52 00:00CC: 00 90 00 90  	db	$0,$90,$0,$90,$0,$0
       00:00D0: 00 00 
    53 00:00D2: xx xx xx xx  	dl	L1+72
    54 00:00D6: 05 00 02 00  	dw	$5,$2
    55 00:00DA: 00 92 00 92  	db	$0,$92,$0,$92,$0,$0
       00:00DE: 00 00 
    56 00:00E0: xx xx xx xx  	dl	L1+78
    57 00:00E4: 04 00 04 00  	dw	$4,$4
    58 00:00E8: FF 1A FF 1A  	db	$FF,$1A,$FF,$1A,$0,$0
       00:00EC: 00 00 
    59 00:00EE: xx xx xx xx  	dl	L1+83
    60 00:00F2: 06 00 02 00  	dw	$6,$2
    61 00:00F6: 00 93 00 93  	db	$0,$93,$0,$93,$0,$0
       00:00FA: 00 00 
    62 00:00FC: xx xx xx xx  	dl	L1+90
    63 00:0100: 05 00 02 00  	dw	$5,$2
    64 00:0104: 00 95 00 95  	db	$0,$95,$0,$95,$1,$0
       00:0108: 01 00 
    65 00:010A: xx xx xx xx  	dl	L1+96
    66 00:010E: 05 00 03 00  	dw	$5,$3
    67 00:0112: 00 96 00 96  	db	$0,$96,$0,$96,$1,$0
       00:0116: 01 00 
    68 00:0118: xx xx xx xx  	dl	L1+102
    69 00:011C: 03 00 03 00  	dw	$3,$3
    70 00:0120: 00 94 00 94  	db	$0,$94,$0,$94,$1,$0
       00:0124: 01 00 
    71 00:0126: xx xx xx xx  	dl	L1+106
    72 00:012A: 03 00 03 00  	dw	$3,$3
    73 00:012E: 00 97 00 97  	db	$0,$97,$0,$97,$1,$0
       00:0132: 01 00 
    74 00:0134: xx xx xx xx  	dl	L1+110
    75 00:0138: 05 00 01 00  	dw	$5,$1
    76 00:013C: 00 98 00 98  	db	$0,$98,$0,$98,$0,$0
       00:0140: 00 00 
    77 00:0142: xx xx xx xx  	dl	L1+116
    78 00:0146: 06 00 01 00  	dw	$6,$1
    79 00:014A: 00 98 00 98  	db	$0,$98,$0,$98,$0,$0
       00:014E: 00 00 
    80 00:0150: xx xx xx xx  	dl	L1+123
    81 00:0154: 03 00 03 00  	dw	$3,$3
    82 00:0158: FF 1B FF 1B  	db	$FF,$1B,$FF,$1B,$0,$0
       00:015C: 00 00 
    83 00:015E: xx xx xx xx  	dl	L1+127
    84 00:0162: 05 00 03 00  	dw	$5,$3
    85 00:0166: FF 1C FF 1C  	db	$FF,$1C,$FF,$1C,$1,$0
  Sun Jan  9 2022 20:52                                                Page 3


       00:016A: 01 00 
    86 00:016C: xx xx xx xx  	dl	L1+133
    87 00:0170: 04 00 01 00  	dw	$4,$1
    88 00:0174: 00 99 00 99  	db	$0,$99,$0,$99,$0,$0
       00:0178: 00 00 
    89 00:017A: xx xx xx xx  	dl	L1+138
    90 00:017E: 03 00 03 00  	dw	$3,$3
    91 00:0182: 00 9A 00 9A  	db	$0,$9A,$0,$9A,$0,$0
       00:0186: 00 00 
    92 00:0188: xx xx xx xx  	dl	L1+142
    93 00:018C: 03 00 02 00  	dw	$3,$2
    94 00:0190: FF 1D FF 1D  	db	$FF,$1D,$FF,$1D,$0,$0
       00:0194: 00 00 
    95 00:0196: xx xx xx xx  	dl	L1+146
    96 00:019A: 03 00 03 00  	dw	$3,$3
    97 00:019E: 00 9B 00 9B  	db	$0,$9B,$0,$9B,$0,$0
       00:01A2: 00 00 
    98 00:01A4: xx xx xx xx  	dl	L1+150
    99 00:01A8: 03 00 02 00  	dw	$3,$2
   100 00:01AC: 00 82 00 82  	db	$0,$82,$0,$82,$0,$0
       00:01B0: 00 00 
   101 00:01B2: xx xx xx xx  	dl	L1+154
   102 00:01B6: 06 00 05 00  	dw	$6,$5
   103 00:01BA: 00 9D 00 9D  	db	$0,$9D,$0,$9D,$0,$0
       00:01BE: 00 00 
   104 00:01C0: xx xx xx xx  	dl	L1+161
   105 00:01C4: 04 00 02 00  	dw	$4,$2
   106 00:01C8: 00 9C 00 9C  	db	$0,$9C,$0,$9C,$0,$0
       00:01CC: 00 00 
   107 00:01CE: xx xx xx xx  	dl	L1+166
   108 00:01D2: 07 00 03 00  	dw	$7,$3
   109 00:01D6: 00 9E 00 9E  	db	$0,$9E,$0,$9E,$0,$0
       00:01DA: 00 00 
   110 00:01DC: xx xx xx xx  	dl	L1+174
   111 00:01E0: 04 00 02 00  	dw	$4,$2
   112 00:01E4: 00 9F 00 9F  	db	$0,$9F,$0,$9F,$0,$1
       00:01E8: 00 01 
   113 00:01EA: xx xx xx xx  	dl	L1+179
   114 00:01EE: 07 00 04 00  	dw	$7,$4
   115 00:01F2: 00 A4 00 A4  	db	$0,$A4,$0,$A4,$1,$0
       00:01F6: 01 00 
   116 00:01F8: xx xx xx xx  	dl	L1+187
   117 00:01FC: 05 00 04 00  	dw	$5,$4
   118 00:0200: 00 A5 00 A5  	db	$0,$A5,$0,$A5,$1,$0
       00:0204: 01 00 
   119 00:0206: xx xx xx xx  	dl	L1+193
   120 00:020A: 07 00 01 00  	dw	$7,$1
   121 00:020E: 00 A6 00 A6  	db	$0,$A6,$0,$A6,$1,$0
       00:0212: 01 00 
   122 00:0214: xx xx xx xx  	dl	L1+201
   123 00:0218: 08 00 04 00  	dw	$8,$4
   124 00:021C: 00 A7 00 A7  	db	$0,$A7,$0,$A7,$1,$0
       00:0220: 01 00 
   125 00:0222: xx xx xx xx  	dl	L1+210
   126 00:0226: 03 00 03 00  	dw	$3,$3
   127 00:022A: 00 A3 00 A3  	db	$0,$A3,$0,$A3,$1,$0
       00:022E: 01 00 
   128 00:0230: xx xx xx xx  	dl	L1+214
  Sun Jan  9 2022 20:52                                                Page 4


   129 00:0234: 08 00 03 00  	dw	$8,$3
   130 00:0238: 00 A8 00 A8  	db	$0,$A8,$0,$A8,$0,$0
       00:023C: 00 00 
   131 00:023E: xx xx xx xx  	dl	L1+223
   132 00:0242: 03 00 03 00  	dw	$3,$3
   133 00:0246: FF 1E FF 1E  	db	$FF,$1E,$FF,$1E,$1,$0
       00:024A: 01 00 
   134 00:024C: xx xx xx xx  	dl	L1+227
   135 00:0250: 03 00 03 00  	dw	$3,$3
   136 00:0254: 00 83 00 83  	db	$0,$83,$0,$83,$0,$0
       00:0258: 00 00 
   137 00:025A: xx xx xx xx  	dl	L1+231
   138 00:025E: 03 00 03 00  	dw	$3,$3
   139 00:0262: FF 1F FF 1F  	db	$FF,$1F,$FF,$1F,$1,$0
       00:0266: 01 00 
   140 00:0268: xx xx xx xx  	dl	L1+235
   141 00:026C: 05 00 03 00  	dw	$5,$3
   142 00:0270: 00 A9 00 A9  	db	$0,$A9,$0,$A9,$0,$0
       00:0274: 00 00 
   143 00:0276: xx xx xx xx  	dl	L1+241
   144 00:027A: 03 00 03 00  	dw	$3,$3
   145 00:027E: FF 20 FF 20  	db	$FF,$20,$FF,$20,$1,$0
       00:0282: 01 00 
   146 00:0284: xx xx xx xx  	dl	L1+245
   147 00:0288: 04 00 02 00  	dw	$4,$2
   148 00:028C: FF 21 FF 21  	db	$FF,$21,$FF,$21,$0,$0
       00:0290: 00 00 
   149 00:0292: xx xx xx xx  	dl	L1+250
   150 00:0296: 03 00 03 00  	dw	$3,$3
   151 00:029A: FF 22 FF 22  	db	$FF,$22,$FF,$22,$0,$0
       00:029E: 00 00 
   152 00:02A0: xx xx xx xx  	dl	L1+254
   153 00:02A4: 03 00 03 00  	dw	$3,$3
   154 00:02A8: FF 02 FF 02  	db	$FF,$2,$FF,$2,$1,$0
       00:02AC: 01 00 
   155 00:02AE: xx xx xx xx  	dl	L1+258
   156 00:02B2: 05 00 02 00  	dw	$5,$2
   157 00:02B6: 00 AA 00 AA  	db	$0,$AA,$0,$AA,$1,$0
       00:02BA: 01 00 
   158 00:02BC: xx xx xx xx  	dl	L1+264
   159 00:02C0: 09 00 04 00  	dw	$9,$4
   160 00:02C4: FF 03 FF 03  	db	$FF,$3,$FF,$3,$0,$0
       00:02C8: 00 00 
   161 00:02CA: xx xx xx xx  	dl	L1+274
   162 00:02CE: 04 00 02 00  	dw	$4,$2
   163 00:02D2: 00 AB 00 AB  	db	$0,$AB,$0,$AB,$0,$0
       00:02D6: 00 00 
   164 00:02D8: xx xx xx xx  	dl	L1+279
   165 00:02DC: 02 00 02 00  	dw	$2,$2
   166 00:02E0: 00 AD 00 AD  	db	$0,$AD,$0,$AD,$0,$0
       00:02E4: 00 00 
   167 00:02E6: xx xx xx xx  	dl	L1+282
   168 00:02EA: 03 00 01 00  	dw	$3,$1
   169 00:02EE: 00 AE 00 AE  	db	$0,$AE,$0,$AE,$0,$0
       00:02F2: 00 00 
   170 00:02F4: xx xx xx xx  	dl	L1+286
   171 00:02F8: 04 00 02 00  	dw	$4,$2
   172 00:02FC: 00 AF 00 AF  	db	$0,$AF,$0,$AF,$0,$0
  Sun Jan  9 2022 20:52                                                Page 5


       00:0300: 00 00 
   173 00:0302: xx xx xx xx  	dl	L1+291
   174 00:0306: 04 00 02 00  	dw	$4,$2
   175 00:030A: FF 24 FF 24  	db	$FF,$24,$FF,$24,$0,$0
       00:030E: 00 00 
   176 00:0310: xx xx xx xx  	dl	L1+296
   177 00:0314: 03 00 03 00  	dw	$3,$3
   178 00:0318: FF 23 FF 23  	db	$FF,$23,$FF,$23,$0,$0
       00:031C: 00 00 
   179 00:031E: xx xx xx xx  	dl	L1+300
   180 00:0322: 05 00 03 00  	dw	$5,$3
   181 00:0326: 00 B0 00 B0  	db	$0,$B0,$0,$B0,$0,$1
       00:032A: 00 01 
   182 00:032C: xx xx xx xx  	dl	L1+306
   183 00:0330: 04 00 01 00  	dw	$4,$1
   184 00:0334: 00 B1 00 B1  	db	$0,$B1,$0,$B1,$0,$1
       00:0338: 00 01 
   185 00:033A: xx xx xx xx  	dl	L1+311
   186 00:033E: 05 00 01 00  	dw	$5,$1
   187 00:0342: FF 01 FF 01  	db	$FF,$1,$FF,$1,$1,$0
       00:0346: 01 00 
   188 00:0348: xx xx xx xx  	dl	L1+317
   189 00:034C: 02 00 02 00  	dw	$2,$2
   190 00:0350: 00 B2 00 B2  	db	$0,$B2,$0,$B2,$0,$0
       00:0354: 00 00 
   191 00:0356: xx xx xx xx  	dl	L1+320
   192 00:035A: 06 00 03 00  	dw	$6,$3
   193 00:035E: FF 26 FF 26  	db	$FF,$26,$FF,$26,$0,$0
       00:0362: 00 00 
   194 00:0364: xx xx xx xx  	dl	L1+327
   195 00:0368: 05 00 05 00  	dw	$5,$5
   196 00:036C: FF 25 FF 25  	db	$FF,$25,$FF,$25,$0,$0
       00:0370: 00 00 
   197 00:0372: xx xx xx xx  	dl	L1+333
   198 00:0376: 05 00 01 00  	dw	$5,$1
   199 00:037A: 00 B5 00 B5  	db	$0,$B5,$0,$B5,$0,$0
       00:037E: 00 00 
   200 00:0380: xx xx xx xx  	dl	L1+339
   201 00:0384: 06 00 03 00  	dw	$6,$3
   202 00:0388: FF 27 FF 27  	db	$FF,$27,$FF,$27,$0,$0
       00:038C: 00 00 
   203 00:038E: xx xx xx xx  	dl	L1+346
   204 00:0392: 03 00 03 00  	dw	$3,$3
   205 00:0396: FF 28 FF 28  	db	$FF,$28,$FF,$28,$0,$0
       00:039A: 00 00 
   206 00:039C: xx xx xx xx  	dl	L1+350
   207 00:03A0: 06 00 02 00  	dw	$6,$2
   208 00:03A4: FF 04 FF 04  	db	$FF,$4,$FF,$4,$0,$0
       00:03A8: 00 00 
   209 00:03AA: xx xx xx xx  	dl	L1+357
   210 00:03AE: 03 00 03 00  	dw	$3,$3
   211 00:03B2: FF 29 FF 29  	db	$FF,$29,$FF,$29,$0,$0
       00:03B6: 00 00 
   212 00:03B8: xx xx xx xx  	dl	L1+361
   213 00:03BC: 03 00 03 00  	dw	$3,$3
   214 00:03C0: 00 B6 00 B6  	db	$0,$B6,$0,$B6,$0,$0
       00:03C4: 00 00 
   215 00:03C6: xx xx xx xx  	dl	L1+365
  Sun Jan  9 2022 20:52                                                Page 6


   216 00:03CA: 07 00 03 00  	dw	$7,$3
   217 00:03CE: 00 B7 00 B7  	db	$0,$B7,$0,$B7,$0,$0
       00:03D2: 00 00 
   218 00:03D4: xx xx xx xx  	dl	L1+373
   219 00:03D8: 04 00 03 00  	dw	$4,$3
   220 00:03DC: 00 B8 00 B8  	db	$0,$B8,$0,$B8,$0,$0
       00:03E0: 00 00 
   221 00:03E2: xx xx xx xx  	dl	L1+378
   222 00:03E6: 02 00 02 00  	dw	$2,$2
   223 00:03EA: FF 2B FF 2B  	db	$FF,$2B,$FF,$2B,$0,$0
       00:03EE: 00 00 
   224 00:03F0: xx xx xx xx  	dl	L1+381
   225 00:03F4: 05 00 03 00  	dw	$5,$3
   226 00:03F8: 00 B9 00 B9  	db	$0,$B9,$0,$B9,$0,$0
       00:03FC: 00 00 
   227 00:03FE: xx xx xx xx  	dl	L1+387
   228 00:0402: 03 00 03 00  	dw	$3,$3
   229 00:0406: FF 2C FF 2C  	db	$FF,$2C,$FF,$2C,$0,$0
       00:040A: 00 00 
   230 00:040C: xx xx xx xx  	dl	L1+391
   231 00:0410: 05 00 03 00  	dw	$5,$3
   232 00:0414: FF 05 FF 05  	db	$FF,$5,$FF,$5,$1,$0
       00:0418: 01 00 
   233 00:041A: xx xx xx xx  	dl	L1+397
   234 00:041E: 05 00 01 00  	dw	$5,$1
   235 00:0422: FF 06 FF 06  	db	$FF,$6,$FF,$6,$0,$0
       00:0426: 00 00 
   236 00:0428: xx xx xx xx  	dl	L1+403
   237 00:042C: 04 00 02 00  	dw	$4,$2
   238 00:0430: 00 BA 00 BA  	db	$0,$BA,$0,$BA,$0,$0
       00:0434: 00 00 
   239 00:0436: xx xx xx xx  	dl	L1+408
   240 00:043A: 03 00 03 00  	dw	$3,$3
   241 00:043E: 00 89 00 89  	db	$0,$89,$0,$89,$0,$0
       00:0442: 00 00 
   242 00:0444: xx xx xx xx  	dl	L1+412
   243 00:0448: 05 00 03 00  	dw	$5,$3
   244 00:044C: 00 BB 00 BB  	db	$0,$BB,$0,$BB,$0,$0
       00:0450: 00 00 
   245 00:0452: xx xx xx xx  	dl	L1+418
   246 00:0456: 06 00 06 00  	dw	$6,$6
   247 00:045A: 00 BD 00 BD  	db	$0,$BD,$0,$BD,$0,$0
       00:045E: 00 00 
   248 00:0460: xx xx xx xx  	dl	L1+425
   249 00:0464: 04 00 03 00  	dw	$4,$3
   250 00:0468: 00 BC 00 BC  	db	$0,$BC,$0,$BC,$0,$0
       00:046C: 00 00 
   251 00:046E: xx xx xx xx  	dl	L1+430
   252 00:0472: 04 00 01 00  	dw	$4,$1
   253 00:0476: 00 BE 00 BE  	db	$0,$BE,$0,$BE,$0,$0
       00:047A: 00 00 
   254 00:047C: xx xx xx xx  	dl	L1+435
   255 00:0480: 03 00 03 00  	dw	$3,$3
   256 00:0484: 00 BF 00 BF  	db	$0,$BF,$0,$BF,$0,$0
       00:0488: 00 00 
   257 00:048A: xx xx xx xx  	dl	L1+439
   258 00:048E: 03 00 03 00  	dw	$3,$3
   259 00:0492: 00 C1 00 C1  	db	$0,$C1,$0,$C1,$0,$0
  Sun Jan  9 2022 20:52                                                Page 7


       00:0496: 00 00 
   260 00:0498: xx xx xx xx  	dl	L1+443
   261 00:049C: 02 00 02 00  	dw	$2,$2
   262 00:04A0: 00 C0 00 C0  	db	$0,$C0,$0,$C0,$0,$0
       00:04A4: 00 00 
   263 00:04A6: xx xx xx xx  	dl	L1+446
   264 00:04AA: 02 00 02 00  	dw	$2,$2
   265 00:04AE: 00 C2 00 C2  	db	$0,$C2,$0,$C2,$0,$0
       00:04B2: 00 00 
   266 00:04B4: xx xx xx xx  	dl	L1+449
   267 00:04B8: 06 00 02 00  	dw	$6,$2
   268 00:04BC: FF 2D FF 2D  	db	$FF,$2D,$FF,$2D,$0,$0
       00:04C0: 00 00 
   269 00:04C2: xx xx xx xx  	dl	L1+456
   270 00:04C6: 07 00 05 00  	dw	$7,$5
   271 00:04CA: FF 2E FF 2E  	db	$FF,$2E,$FF,$2E,$0,$0
       00:04CE: 00 00 
   272 00:04D0: xx xx xx xx  	dl	L1+464
   273 00:04D4: 06 00 05 00  	dw	$6,$5
   274 00:04D8: FF 2F FF 2F  	db	$FF,$2F,$FF,$2F,$0,$0
       00:04DC: 00 00 
   275 00:04DE: xx xx xx xx  	dl	L1+471
   276 00:04E2: 06 00 02 00  	dw	$6,$2
   277 00:04E6: 00 C3 00 C3  	db	$0,$C3,$0,$C3,$0,$0
       00:04EA: 00 00 
   278 00:04EC: xx xx xx xx  	dl	L1+478
   279 00:04F0: 02 00 02 00  	dw	$2,$2
   280 00:04F4: 00 8B 00 8B  	db	$0,$8B,$0,$8B,$0,$0
       00:04F8: 00 00 
   281 00:04FA: xx xx xx xx  	dl	L1+481
   282 00:04FE: 05 00 02 00  	dw	$5,$2
   283 00:0502: 00 C4 00 C4  	db	$0,$C4,$0,$C4,$0,$0
       00:0506: 00 00 
   284 00:0508: xx xx xx xx  	dl	L1+487
   285 00:050C: 09 00 02 00  	dw	$9,$2
   286 00:0510: 00 C5 00 C5  	db	$0,$C5,$0,$C5,$0,$0
       00:0514: 00 00 
   287 00:0516: xx xx xx xx  	dl	L1+497
   288 00:051A: 07 00 02 00  	dw	$7,$2
   289 00:051E: 00 C7 00 C7  	db	$0,$C7,$0,$C7,$0,$0
       00:0522: 00 00 
   290 00:0524: xx xx xx xx  	dl	L1+505
   291 00:0528: 04 00 02 00  	dw	$4,$2
   292 00:052C: FF 07 FF 07  	db	$FF,$7,$FF,$7,$1,$0
       00:0530: 01 00 
   293 00:0532: xx xx xx xx  	dl	L1+510
   294 00:0536: 02 00 02 00  	dw	$2,$2
   295 00:053A: FF 30 FF 30  	db	$FF,$30,$FF,$30,$1,$0
       00:053E: 01 00 
   296 00:0540: xx xx xx xx  	dl	L1+513
   297 00:0544: 04 00 02 00  	dw	$4,$2
   298 00:0548: 00 C8 00 C8  	db	$0,$C8,$0,$C8,$0,$0
       00:054C: 00 00 
   299 00:054E: xx xx xx xx  	dl	L1+518
   300 00:0552: 07 00 07 00  	dw	$7,$7
   301 00:0556: 00 CB 00 CB  	db	$0,$CB,$0,$CB,$0,$0
       00:055A: 00 00 
   302 00:055C: xx xx xx xx  	dl	L1+526
  Sun Jan  9 2022 20:52                                                Page 8


   303 00:0560: 07 00 07 00  	dw	$7,$7
   304 00:0564: 00 CA 00 CA  	db	$0,$CA,$0,$CA,$0,$0
       00:0568: 00 00 
   305 00:056A: xx xx xx xx  	dl	L1+534
   306 00:056E: 06 00 02 00  	dw	$6,$2
   307 00:0572: FF 31 FF 31  	db	$FF,$31,$FF,$31,$0,$0
       00:0576: 00 00 
   308 00:0578: xx xx xx xx  	dl	L1+541
   309 00:057C: 05 00 05 00  	dw	$5,$5
   310 00:0580: 00 C9 00 C9  	db	$0,$C9,$0,$C9,$0,$0
       00:0584: 00 00 
   311 00:0586: xx xx xx xx  	dl	L1+547
   312 00:058A: 03 00 03 00  	dw	$3,$3
   313 00:058E: FF 32 FF 32  	db	$FF,$32,$FF,$32,$1,$0
       00:0592: 01 00 
   314 00:0594: xx xx xx xx  	dl	L1+551
   315 00:0598: 05 00 01 00  	dw	$5,$1
   316 00:059C: 00 CC 00 CC  	db	$0,$CC,$0,$CC,$0,$0
       00:05A0: 00 00 
   317 00:05A2: xx xx xx xx  	dl	L1+557
   318 00:05A6: 04 00 04 00  	dw	$4,$4
   319 00:05AA: 00 CD 00 CD  	db	$0,$CD,$0,$CD,$0,$0
       00:05AE: 00 00 
   320 00:05B0: xx xx xx xx  	dl	L1+562
   321 00:05B4: 03 00 03 00  	dw	$3,$3
   322 00:05B8: FF 08 FF 08  	db	$FF,$8,$FF,$8,$1,$0
       00:05BC: 01 00 
   323 00:05BE: xx xx xx xx  	dl	L1+566
   324 00:05C2: 04 00 01 00  	dw	$4,$1
   325 00:05C6: 00 CE 00 CE  	db	$0,$CE,$0,$CE,$1,$0
       00:05CA: 01 00 
   326 00:05CC: xx xx xx xx  	dl	L1+571
   327 00:05D0: 03 00 02 00  	dw	$3,$2
   328 00:05D4: FF 33 FF 33  	db	$FF,$33,$FF,$33,$0,$0
       00:05D8: 00 00 
   329 00:05DA: xx xx xx xx  	dl	L1+575
   330 00:05DE: 04 00 03 00  	dw	$4,$3
   331 00:05E2: 00 CF 00 CF  	db	$0,$CF,$0,$CF,$0,$0
       00:05E6: 00 00 
   332 00:05E8: xx xx xx xx  	dl	L1+580
   333 00:05EC: 09 00 03 00  	dw	$9,$3
   334 00:05F0: 00 D0 00 D0  	db	$0,$D0,$0,$D0,$0,$0
       00:05F4: 00 00 
   335 00:05F6: xx xx xx xx  	dl	L1+590
   336 00:05FA: 03 00 03 00  	dw	$3,$3
   337 00:05FE: 00 D1 00 D1  	db	$0,$D1,$0,$D1,$0,$0
       00:0602: 00 00 
   338 00:0604: xx xx xx xx  	dl	L1+594
   339 00:0608: 06 00 03 00  	dw	$6,$3
   340 00:060C: 00 D2 00 D2  	db	$0,$D2,$0,$D2,$0,$0
       00:0610: 00 00 
   341 00:0612: xx xx xx xx  	dl	L1+601
   342 00:0616: 07 00 07 00  	dw	$7,$7
   343 00:061A: FF 34 FF 34  	db	$FF,$34,$FF,$34,$0,$0
       00:061E: 00 00 
   344 00:0620: xx xx xx xx  	dl	L1+609
   345 00:0624: 06 00 04 00  	dw	$6,$4
   346 00:0628: 00 D3 00 D3  	db	$0,$D3,$0,$D3,$1,$0
  Sun Jan  9 2022 20:52                                                Page 9


       00:062C: 01 00 
   347 00:062E: xx xx xx xx  	dl	L1+616
   348 00:0632: 07 00 03 00  	dw	$7,$3
   349 00:0636: 00 D4 00 D4  	db	$0,$D4,$0,$D4,$0,$1
       00:063A: 00 01 
   350 00:063C: xx xx xx xx  	dl	L1+624
   351 00:0640: 06 00 01 00  	dw	$6,$1
   352 00:0644: 00 D5 00 D5  	db	$0,$D5,$0,$D5,$1,$0
       00:0648: 01 00 
   353 00:064A: xx xx xx xx  	dl	L1+631
   354 00:064E: 07 00 02 00  	dw	$7,$2
   355 00:0652: FF 09 FF 09  	db	$FF,$9,$FF,$9,$0,$0
       00:0656: 00 00 
   356 00:0658: xx xx xx xx  	dl	L1+639
   357 00:065C: 03 00 02 00  	dw	$3,$2
   358 00:0660: FF 36 FF 36  	db	$FF,$36,$FF,$36,$1,$0
       00:0664: 01 00 
   359 00:0666: xx xx xx xx  	dl	L1+643
   360 00:066A: 03 00 02 00  	dw	$3,$2
   361 00:066E: 00 D6 00 D6  	db	$0,$D6,$0,$D6,$1,$0
       00:0672: 01 00 
   362 00:0674: xx xx xx xx  	dl	L1+647
   363 00:0678: 03 00 02 00  	dw	$3,$2
   364 00:067C: FF 37 FF 37  	db	$FF,$37,$FF,$37,$0,$0
       00:0680: 00 00 
   365 00:0682: xx xx xx xx  	dl	L1+651
   366 00:0686: 03 00 02 00  	dw	$3,$2
   367 00:068A: FF 38 FF 38  	db	$FF,$38,$FF,$38,$0,$0
       00:068E: 00 00 
   368 00:0690: xx xx xx xx  	dl	L1+655
   369 00:0694: 05 00 02 00  	dw	$5,$2
   370 00:0698: 00 D7 00 D7  	db	$0,$D7,$0,$D7,$0,$0
       00:069C: 00 00 
   371 00:069E: xx xx xx xx  	dl	L1+661
   372 00:06A2: 03 00 03 00  	dw	$3,$3
   373 00:06A6: FE 01 FE 01  	db	$FE,$1,$FE,$1,$0,$0
       00:06AA: 00 00 
   374 00:06AC: xx xx xx xx  	dl	L1+665
   375 00:06B0: 03 00 03 00  	dw	$3,$3
   376 00:06B4: FF 39 FF 39  	db	$FF,$39,$FF,$39,$0,$0
       00:06B8: 00 00 
   377 00:06BA: xx xx xx xx  	dl	L1+669
   378 00:06BE: 04 00 01 00  	dw	$4,$1
   379 00:06C2: 00 D9 00 D9  	db	$0,$D9,$0,$D9,$0,$0
       00:06C6: 00 00 
   380 00:06C8: xx xx xx xx  	dl	L1+674
   381 00:06CC: 06 00 04 00  	dw	$6,$4
   382 00:06D0: 00 DA 00 DA  	db	$0,$DA,$0,$DA,$0,$0
       00:06D4: 00 00 
   383 00:06D6: xx xx xx xx  	dl	L1+681
   384 00:06DA: 04 00 03 00  	dw	$4,$3
   385 00:06DE: 00 DB 00 DB  	db	$0,$DB,$0,$DB,$1,$0
       00:06E2: 01 00 
   386 00:06E4: xx xx xx xx  	dl	L1+686
   387 00:06E8: 04 00 03 00  	dw	$4,$3
   388 00:06EC: FF 3A FF 3A  	db	$FF,$3A,$FF,$3A,$0,$0
       00:06F0: 00 00 
   389 00:06F2: xx xx xx xx  	dl	L1+691
  Sun Jan  9 2022 20:52                                                Page 10


   390 00:06F6: 08 00 04 00  	dw	$8,$4
   391 00:06FA: FF 3B FF 3B  	db	$FF,$3B,$FF,$3B,$0,$0
       00:06FE: 00 00 
   392 00:0700: xx xx xx xx  	dl	L1+700
   393 00:0704: 03 00 02 00  	dw	$3,$2
   394 00:0708: FF 3C FF 3C  	db	$FF,$3C,$FF,$3C,$0,$0
       00:070C: 00 00 
   395 00:070E: xx xx xx xx  	dl	L1+704
   396 00:0712: 04 00 02 00  	dw	$4,$2
   397 00:0716: 00 DC 00 DC  	db	$0,$DC,$0,$DC,$0,$0
       00:071A: 00 00 
   398 00:071C: xx xx xx xx  	dl	L1+709
   399 00:0720: 03 00 02 00  	dw	$3,$2
   400 00:0724: 00 DD 00 DD  	db	$0,$DD,$0,$DD,$0,$0
       00:0728: 00 00 
   401 00:072A: xx xx xx xx  	dl	L1+713
   402 00:072E: 04 00 04 00  	dw	$4,$4
   403 00:0732: FE 02 FE 02  	db	$FE,$2,$FE,$2,$0,$0
       00:0736: 00 00 
   404 00:0738: xx xx xx xx  	dl	L1+718
   405 00:073C: 03 00 01 00  	dw	$3,$1
   406 00:0740: FF 3D FF 3D  	db	$FF,$3D,$FF,$3D,$0,$0
       00:0744: 00 00 
   407 00:0746: xx xx xx xx  	dl	L1+722
   408 00:074A: 05 00 02 00  	dw	$5,$2
   409 00:074E: 00 DE FF 3E  	db	$0,$DE,$FF,$3E,$0,$0
       00:0752: 00 00 
   410 00:0754: xx xx xx xx  	dl	L1+728
   411 00:0758: 04 00 02 00  	dw	$4,$2
   412 00:075C: 00 DF 00 DF  	db	$0,$DF,$0,$DF,$0,$1
       00:0760: 00 01 
   413 00:0762: xx xx xx xx  	dl	L1+733
   414 00:0766: 05 00 05 00  	dw	$5,$5
   415 00:076A: FF 0B FF 0B  	db	$FF,$B,$FF,$B,$1,$0
       00:076E: 01 00 
   416 00:0770: xx xx xx xx  	dl	L1+739
   417 00:0774: 04 00 02 00  	dw	$4,$2
   418 00:0778: FF 0A FF 0A  	db	$FF,$A,$FF,$A,$1,$0
       00:077C: 01 00 
   419 00:077E: xx xx xx xx  	dl	L1+744
   420 00:0782: 04 00 03 00  	dw	$4,$3
   421 00:0786: 00 E0 00 E0  	db	$0,$E0,$0,$E0,$0,$0
       00:078A: 00 00 
   422 00:078C: xx xx xx xx  	dl	L1+749
   423 00:0790: 02 00 03 00  	dw	$2,$3
   424 00:0794: 00 E1 00 E1  	db	$0,$E1,$0,$E1,$0,$0
       00:0798: 00 00 
   425 00:079A: xx xx xx xx  	dl	L1+752
   426 00:079E: 05 00 02 00  	dw	$5,$2
   427 00:07A2: 00 E2 00 E2  	db	$0,$E2,$0,$E2,$0,$0
       00:07A6: 00 00 
   428 00:07A8: xx xx xx xx  	dl	L1+758
   429 00:07AC: 04 00 03 00  	dw	$4,$3
   430 00:07B0: 00 E3 00 E3  	db	$0,$E3,$0,$E3,$1,$0
       00:07B4: 01 00 
   431 00:07B6: xx xx xx xx  	dl	L1+763
   432 00:07BA: 05 00 01 00  	dw	$5,$1
   433 00:07BE: 00 E4 00 E4  	db	$0,$E4,$0,$E4,$0,$0
  Sun Jan  9 2022 20:52                                                Page 11


       00:07C2: 00 00 
   434 00:07C4: xx xx xx xx  	dl	L1+769
   435 00:07C8: 03 00 02 00  	dw	$3,$2
   436 00:07CC: FF 3F FF 3F  	db	$FF,$3F,$FF,$3F,$0,$0
       00:07D0: 00 00 
   437 00:07D2: xx xx xx xx  	dl	L1+773
   438 00:07D6: 03 00 02 00  	dw	$3,$2
   439 00:07DA: FF 40 FF 40  	db	$FF,$40,$FF,$40,$0,$0
       00:07DE: 00 00 
   440 00:07E0: xx xx xx xx  	dl	L1+777
   441 00:07E4: 03 00 01 00  	dw	$3,$1
   442 00:07E8: 00 E5 00 E5  	db	$0,$E5,$0,$E5,$0,$0
       00:07EC: 00 00 
   443 00:07EE: xx xx xx xx  	dl	L1+781
   444 00:07F2: 07 00 02 00  	dw	$7,$2
   445 00:07F6: FF 41 FF 41  	db	$FF,$41,$FF,$41,$0,$0
       00:07FA: 00 00 
   446 00:07FC: xx xx xx xx  	dl	L1+789
   447 00:0800: 06 00 02 00  	dw	$6,$2
   448 00:0804: 00 E7 00 E7  	db	$0,$E7,$0,$E7,$0,$0
       00:0808: 00 00 
   449 00:080A: xx xx xx xx  	dl	L1+796
   450 00:080E: 05 00 05 00  	dw	$5,$5
   451 00:0812: 00 E6 00 E6  	db	$0,$E6,$0,$E6,$0,$0
       00:0816: 00 00 
   452 00:0818: xx xx xx xx  	dl	L1+802
   453 00:081C: 04 00 02 00  	dw	$4,$2
   454 00:0820: FF 42 FF 42  	db	$FF,$42,$FF,$42,$1,$0
       00:0824: 01 00 
   455 00:0826: xx xx xx xx  	dl	L1+807
   456 00:082A: 04 00 02 00  	dw	$4,$2
   457 00:082E: 00 E8 00 E8  	db	$0,$E8,$0,$E8,$1,$0
       00:0832: 01 00 
   458 00:0834: xx xx xx xx  	dl	L1+812
   459 00:0838: 04 00 03 00  	dw	$4,$3
   460 00:083C: 00 E9 00 E9  	db	$0,$E9,$0,$E9,$0,$0
       00:0840: 00 00 
   461 00:0842: xx xx xx xx  	dl	L1+817
   462 00:0846: 05 00 01 00  	dw	$5,$1
   463 00:084A: 00 EB 00 EB  	db	$0,$EB,$0,$EB,$0,$0
       00:084E: 00 00 
   464 00:0850: xx xx xx xx  	dl	L1+823
   465 00:0854: 05 00 02 00  	dw	$5,$2
   466 00:0858: 00 ED 00 ED  	db	$0,$ED,$0,$ED,$0,$0
       00:085C: 00 00 
   467 00:085E: xx xx xx xx  	dl	L1+829
   468 00:0862: 07 00 02 00  	dw	$7,$2
   469 00:0866: FF 43 FF 43  	db	$FF,$43,$FF,$43,$0,$0
       00:086A: 00 00 
   470 00:086C: xx xx xx xx  	dl	L1+837
   471 00:0870: 06 00 02 00  	dw	$6,$2
   472 00:0874: FC 01 FC 01  	db	$FC,$1,$FC,$1,$0,$0
       00:0878: 00 00 
   473 00:087A: xx xx xx xx  	dl	L1+844
   474 00:087E: 04 00 02 00  	dw	$4,$2
   475 00:0882: FC 02 FC 02  	db	$FC,$2,$FC,$2,$0,$0
       00:0886: 00 00 
   476 00:0888: xx xx xx xx  	dl	L1+849
  Sun Jan  9 2022 20:52                                                Page 12


   477 00:088C: 06 00 02 00  	dw	$6,$2
   478 00:0890: FC 03 FC 03  	db	$FC,$3,$FC,$3,$0,$0
       00:0894: 00 00 
   479 00:0896: xx xx xx xx  	dl	L1+856
   480 00:089A: 06 00 03 00  	dw	$6,$3
   481 00:089E: FC 04 FC 04  	db	$FC,$4,$FC,$4,$0,$0
       00:08A2: 00 00 
   482 00:08A4: xx xx xx xx  	dl	L1+863
   483 00:08A8: 05 00 05 00  	dw	$5,$5
   484 00:08AC: FC 06 FC 06  	db	$FC,$6,$FC,$6,$0,$0
       00:08B0: 00 00 
   485 00:08B2: xx xx xx xx  	dl	L1+869
   486 00:08B6: 04 00 02 00  	dw	$4,$2
   487 00:08BA: FC 05 FC 05  	db	$FC,$5,$FC,$5,$0,$0
       00:08BE: 00 00 
   488 00:08C0: xx xx xx xx  	dl	L1+874
   489 00:08C4: 04 00 02 00  	dw	$4,$2
   490 00:08C8: FC 07 FC 07  	db	$FC,$7,$FC,$7,$1,$0
       00:08CC: 01 00 
   491 00:08CE: xx xx xx xx  	dl	L1+879
   492 00:08D2: 07 00 05 00  	dw	$7,$5
   493 00:08D6: FC 08 FC 08  	db	$FC,$8,$FC,$8,$0,$0
       00:08DA: 00 00 
   494 00:08DC: xx xx xx xx  	dl	L1+887
   495 00:08E0: 05 00 05 00  	dw	$5,$5
   496 00:08E4: FC 0A FC 0A  	db	$FC,$A,$FC,$A,$0,$0
       00:08E8: 00 00 
   497 00:08EA: xx xx xx xx  	dl	L1+893
   498 00:08EE: 06 00 06 00  	dw	$6,$6
   499 00:08F2: FC 0B FC 0B  	db	$FC,$B,$FC,$B,$0,$0
       00:08F6: 00 00 
   500 00:08F8: xx xx xx xx  	dl	L1+900
   501 00:08FC: 05 00 05 00  	dw	$5,$5
   502 00:0900: FC 0C FC 0C  	db	$FC,$C,$FC,$C,$0,$0
       00:0904: 00 00 
   503 00:0906: xx xx xx xx  	dl	L1+906
   504 00:090A: 05 00 05 00  	dw	$5,$5
   505 00:090E: FC 0D FF 2A  	db	$FC,$D,$FF,$2A,$0,$0
       00:0912: 00 00 
   506 00:0914: xx xx xx xx  	dl	L1+912
   507 00:0918: 05 00 05 00  	dw	$5,$5
   508 00:091C: FC 0E FC 0E  	db	$FC,$E,$FC,$E,$0,$0
       00:0920: 00 00 
   509 00:0922: xx xx xx xx  	dl	L1+918
   510 00:0926: 04 00 01 00  	dw	$4,$1
   511 00:092A: FC 09 FC 09  	db	$FC,$9,$FC,$9,$0,$0
       00:092E: 00 00 
   512 00:0930: xx xx xx xx  	dl	L1+923
   513 00:0934: 04 00 02 00  	dw	$4,$2
   514 00:0938: FC 0F FC 0F  	db	$FC,$F,$FC,$F,$0,$0
       00:093C: 00 00 
   515 00:093E: xx xx xx xx  	dl	L1+928
   516 00:0942: 04 00 03 00  	dw	$4,$3
   517 00:0946: FC 10 FC 10  	db	$FC,$10,$FC,$10,$1,$0
       00:094A: 01 00 
   518 00:094C: xx xx xx xx  	dl	L1+933
   519 00:0950: 03 00 03 00  	dw	$3,$3
   520 00:0954: FC 11 FC 11  	db	$FC,$11,$FC,$11,$1,$0
  Sun Jan  9 2022 20:52                                                Page 13


       00:0958: 01 00 
   521 00:095A: xx xx xx xx  	dl	L1+937
   522 00:095E: 03 00 01 00  	dw	$3,$1
   523 00:0962: FC 12 FC 12  	db	$FC,$12,$FC,$12,$1,$0
       00:0966: 01 00 
   524 00:0968: xx xx xx xx  	dl	L1+941
   525 00:096C: 04 00 01 00  	dw	$4,$1
   526 00:0970: 00 CE 00 CE  	db	$0,$CE,$0,$CE,$1,$0
       00:0974: 01 00 
   527 00:0976: xx xx xx xx  	dl	L1+946
   528 00:097A: 08 00 03 00  	dw	$8,$3
   529 00:097E: FC 13 FC 13  	db	$FC,$13,$FC,$13,$0,$0
       00:0982: 00 00 
   530 00:0984: xx xx xx xx  	dl	L1+955
   531 00:0988: 03 00 02 00  	dw	$3,$2
   532 00:098C: 00 D6 00 D6  	db	$0,$D6,$0,$D6,$1,$0
       00:0990: 01 00 
   533 00:0992: xx xx xx xx  	dl	L1+959
   534 00:0996: 05 00 05 00  	dw	$5,$5
   535 00:099A: FC 15 FC 15  	db	$FC,$15,$FC,$15,$0,$0
       00:099E: 00 00 
   536 00:09A0: xx xx xx xx  	dl	L1+965
   537 00:09A4: 04 00 02 00  	dw	$4,$2
   538 00:09A8: FC 14 FC 14  	db	$FC,$14,$FC,$14,$0,$0
       00:09AC: 00 00 
   539 00:09AE: xx xx xx xx  	dl	L1+970
   540 00:09B2: 08 00 03 00  	dw	$8,$3
   541 00:09B6: FC 16 FC 16  	db	$FC,$16,$FC,$16,$0,$0
       00:09BA: 00 00 
   542 00:09BC: xx xx xx xx  	dl	L1+979
   543 00:09C0: 09 00 09 00  	dw	$9,$9
   544 00:09C4: FC 18 FC 18  	db	$FC,$18,$FC,$18,$0,$0
       00:09C8: 00 00 
   545 00:09CA: xx xx xx xx  	dl	L1+989
   546 00:09CE: 08 00 05 00  	dw	$8,$5
   547 00:09D2: FC 17 FC 17  	db	$FC,$17,$FC,$17,$0,$0
       00:09D6: 00 00 
   548 00:09D8: xx xx xx xx  	dl	L1+998
   549 00:09DC: 05 00 02 00  	dw	$5,$2
   550 00:09E0: FC 1A FC 1A  	db	$FC,$1A,$FC,$1A,$1,$0
       00:09E4: 01 00 
   551 00:09E6: xx xx xx xx  	dl	L1+1004
   552 00:09EA: 04 00 04 00  	dw	$4,$4
   553 00:09EE: FC 19 FC 19  	db	$FC,$19,$FC,$19,$1,$0
       00:09F2: 01 00 
   554 00:09F4: xx xx xx xx  	dl	L1+1009
   555 00:09F8: 01 00 01 00  	dw	$1,$1
   556 00:09FC: 00 00 00 00  	db	$0,$0,$0,$0,$0,$0
       00:0A00: 00 00 
   557 00:0A02:              	ends
   558                        	data
   559                        L1:
   560 00:0A02: 41 42 53 00  	db	$41,$42,$53,$00,$41,$43,$53,$00,$41,$44,
                    $56,$41,$4C,$00,$41
       00:0A06: 41 43 53 00 
       00:0A0A: 41 44 56 41 
       00:0A0E: 4C 00 41 
   561 00:0A11: 4E 44 00 41  	db	$4E,$44,$00,$41,$52,$47,$43,$00,$41,$52,
  Sun Jan  9 2022 20:52                                                Page 14


                    $47,$56,$24,$00,$41
       00:0A15: 52 47 43 00 
       00:0A19: 41 52 47 56 
       00:0A1D: 24 00 41 
   562 00:0A20: 53 43 00 41  	db	$53,$43,$00,$41,$53,$4E,$00,$41,$54,$4E,
                    $00,$42,$45,$41,$54
       00:0A24: 53 4E 00 41 
       00:0A28: 54 4E 00 42 
       00:0A2C: 45 41 54 
   563 00:0A2F: 53 00 42 45  	db	$53,$00,$42,$45,$41,$54,$00,$42,$47,$45,
                    $54,$00,$42,$50,$55
       00:0A33: 41 54 00 42 
       00:0A37: 47 45 54 00 
       00:0A3B: 42 50 55 
   564 00:0A3E: 54 00 43 41  	db	$54,$00,$43,$41,$4C,$4C,$00,$43,$41,$53,
                    $45,$00,$43,$48,$41
       00:0A42: 4C 4C 00 43 
       00:0A46: 41 53 45 00 
       00:0A4A: 43 48 41 
   565 00:0A4D: 49 4E 00 43  	db	$49,$4E,$00,$43,$48,$52,$24,$00,$43,$49,
                    $52,$43,$4C,$45,$00
       00:0A51: 48 52 24 00 
       00:0A55: 43 49 52 43 
       00:0A59: 4C 45 00 
   566 00:0A5C: 43 4C 45 41  	db	$43,$4C,$45,$41,$52,$00,$43,$4C,$4F,$53,
                    $45,$00,$43,$4C,$47
       00:0A60: 52 00 43 4C 
       00:0A64: 4F 53 45 00 
       00:0A68: 43 4C 47 
   567 00:0A6B: 00 43 4C 53  	db	$00,$43,$4C,$53,$00,$43,$4F,$4C,$4F,$52,
                    $00,$43,$4F,$4C,$4F
       00:0A6F: 00 43 4F 4C 
       00:0A73: 4F 52 00 43 
       00:0A77: 4F 4C 4F 
   568 00:0A7A: 55 52 00 43  	db	$55,$52,$00,$43,$4F,$53,$00,$43,$4F,$55,
                    $4E,$54,$00,$44,$41
       00:0A7E: 4F 53 00 43 
       00:0A82: 4F 55 4E 54 
       00:0A86: 00 44 41 
   569 00:0A89: 54 41 00 44  	db	$54,$41,$00,$44,$45,$46,$00,$44,$45,$47,
                    $00,$44,$49,$4D,$00
       00:0A8D: 45 46 00 44 
       00:0A91: 45 47 00 44 
       00:0A95: 49 4D 00 
   570 00:0A98: 44 49 56 00  	db	$44,$49,$56,$00,$44,$52,$41,$57,$42,$59,
                    $00,$44,$52,$41,$57
       00:0A9C: 44 52 41 57 
       00:0AA0: 42 59 00 44 
       00:0AA4: 52 41 57 
   571 00:0AA7: 00 45 4C 4C  	db	$00,$45,$4C,$4C,$49,$50,$53,$45,$00,$45,
                    $4C,$53,$45,$00,$45
       00:0AAB: 49 50 53 45 
       00:0AAF: 00 45 4C 53 
       00:0AB3: 45 00 45 
   572 00:0AB6: 4E 44 43 41  	db	$4E,$44,$43,$41,$53,$45,$00,$45,$4E,$44,
                    $49,$46,$00,$45,$4E
       00:0ABA: 53 45 00 45 
       00:0ABE: 4E 44 49 46 
  Sun Jan  9 2022 20:52                                                Page 15


       00:0AC2: 00 45 4E 
   573 00:0AC5: 44 50 52 4F  	db	$44,$50,$52,$4F,$43,$00,$45,$4E,$44,$57,
                    $48,$49,$4C,$45,$00
       00:0AC9: 43 00 45 4E 
       00:0ACD: 44 57 48 49 
       00:0AD1: 4C 45 00 
   574 00:0AD4: 45 4E 44 00  	db	$45,$4E,$44,$00,$45,$4E,$56,$45,$4C,$4F,
                    $50,$45,$00,$45,$4F
       00:0AD8: 45 4E 56 45 
       00:0ADC: 4C 4F 50 45 
       00:0AE0: 00 45 4F 
   575 00:0AE3: 46 00 45 4F  	db	$46,$00,$45,$4F,$52,$00,$45,$52,$4C,$00,
                    $45,$52,$52,$4F,$52
       00:0AE7: 52 00 45 52 
       00:0AEB: 4C 00 45 52 
       00:0AEF: 52 4F 52 
   576 00:0AF2: 00 45 52 52  	db	$00,$45,$52,$52,$00,$45,$56,$41,$4C,$00,
                    $45,$58,$50,$00,$45
       00:0AF6: 00 45 56 41 
       00:0AFA: 4C 00 45 58 
       00:0AFE: 50 00 45 
   577 00:0B01: 58 54 00 46  	db	$58,$54,$00,$46,$41,$4C,$53,$45,$00,$46,
                    $49,$4C,$45,$50,$41
       00:0B05: 41 4C 53 45 
       00:0B09: 00 46 49 4C 
       00:0B0D: 45 50 41 
   578 00:0B10: 54 48 24 00  	db	$54,$48,$24,$00,$46,$49,$4C,$4C,$00,$46,
                    $4E,$00,$46,$4F,$52
       00:0B14: 46 49 4C 4C 
       00:0B18: 00 46 4E 00 
       00:0B1C: 46 4F 52 
   579 00:0B1F: 00 47 43 4F  	db	$00,$47,$43,$4F,$4C,$00,$47,$45,$54,$24,
                    $00,$47,$45,$54,$00
       00:0B23: 4C 00 47 45 
       00:0B27: 54 24 00 47 
       00:0B2B: 45 54 00 
   580 00:0B2E: 47 4F 53 55  	db	$47,$4F,$53,$55,$42,$00,$47,$4F,$54,$4F,
                    $00,$48,$49,$4D,$45
       00:0B32: 42 00 47 4F 
       00:0B36: 54 4F 00 48 
       00:0B3A: 49 4D 45 
   581 00:0B3D: 4D 00 49 46  	db	$4D,$00,$49,$46,$00,$49,$4E,$4B,$45,$59,
                    $24,$00,$49,$4E,$4B
       00:0B41: 00 49 4E 4B 
       00:0B45: 45 59 24 00 
       00:0B49: 49 4E 4B 
   582 00:0B4C: 45 59 00 49  	db	$45,$59,$00,$49,$4E,$50,$55,$54,$00,$49,
                    $4E,$53,$54,$52,$28
       00:0B50: 4E 50 55 54 
       00:0B54: 00 49 4E 53 
       00:0B58: 54 52 28 
   583 00:0B5B: 00 49 4E 54  	db	$00,$49,$4E,$54,$00,$4C,$45,$46,$54,$24,
                    $28,$00,$4C,$45,$4E
       00:0B5F: 00 4C 45 46 
       00:0B63: 54 24 28 00 
       00:0B67: 4C 45 4E 
   584 00:0B6A: 00 4C 45 54  	db	$00,$4C,$45,$54,$00,$4C,$49,$42,$52,$41,
                    $52,$59,$00,$4C,$49
  Sun Jan  9 2022 20:52                                                Page 16


       00:0B6E: 00 4C 49 42 
       00:0B72: 52 41 52 59 
       00:0B76: 00 4C 49 
   585 00:0B79: 4E 45 00 4C  	db	$4E,$45,$00,$4C,$4E,$00,$4C,$4F,$43,$41,
                    $4C,$00,$4C,$4F,$47
       00:0B7D: 4E 00 4C 4F 
       00:0B81: 43 41 4C 00 
       00:0B85: 4C 4F 47 
   586 00:0B88: 00 4C 4F 4D  	db	$00,$4C,$4F,$4D,$45,$4D,$00,$4D,$49,$44,
                    $24,$28,$00,$4D,$4F
       00:0B8C: 45 4D 00 4D 
       00:0B90: 49 44 24 28 
       00:0B94: 00 4D 4F 
   587 00:0B97: 44 45 00 4D  	db	$44,$45,$00,$4D,$4F,$44,$00,$4D,$4F,$55,
                    $53,$45,$00,$4D,$4F
       00:0B9B: 4F 44 00 4D 
       00:0B9F: 4F 55 53 45 
       00:0BA3: 00 4D 4F 
   588 00:0BA6: 56 45 42 59  	db	$56,$45,$42,$59,$00,$4D,$4F,$56,$45,$00,
                    $4E,$45,$58,$54,$00
       00:0BAA: 00 4D 4F 56 
       00:0BAE: 45 00 4E 45 
       00:0BB2: 58 54 00 
   589 00:0BB5: 4E 4F 54 00  	db	$4E,$4F,$54,$00,$4F,$46,$46,$00,$4F,$46,
                    $00,$4F,$4E,$00,$4F
       00:0BB9: 4F 46 46 00 
       00:0BBD: 4F 46 00 4F 
       00:0BC1: 4E 00 4F 
   590 00:0BC4: 50 45 4E 49  	db	$50,$45,$4E,$49,$4E,$00,$4F,$50,$45,$4E,
                    $4F,$55,$54,$00,$4F
       00:0BC8: 4E 00 4F 50 
       00:0BCC: 45 4E 4F 55 
       00:0BD0: 54 00 4F 
   591 00:0BD3: 50 45 4E 55  	db	$50,$45,$4E,$55,$50,$00,$4F,$52,$49,$47,
                    $49,$4E,$00,$4F,$52
       00:0BD7: 50 00 4F 52 
       00:0BDB: 49 47 49 4E 
       00:0BDF: 00 4F 52 
   592 00:0BE2: 00 4F 53 43  	db	$00,$4F,$53,$43,$4C,$49,$00,$4F,$54,$48,
                    $45,$52,$57,$49,$53
       00:0BE6: 4C 49 00 4F 
       00:0BEA: 54 48 45 52 
       00:0BEE: 57 49 53 
   593 00:0BF1: 45 00 4F 56  	db	$45,$00,$4F,$56,$45,$52,$4C,$41,$59,$00,
                    $50,$41,$47,$45,$00
       00:0BF5: 45 52 4C 41 
       00:0BF9: 59 00 50 41 
       00:0BFD: 47 45 00 
   594 00:0C00: 50 49 00 50  	db	$50,$49,$00,$50,$4C,$4F,$54,$00,$50,$4F,
                    $49,$4E,$54,$54,$4F
       00:0C04: 4C 4F 54 00 
       00:0C08: 50 4F 49 4E 
       00:0C0C: 54 54 4F 
   595 00:0C0F: 00 50 4F 49  	db	$00,$50,$4F,$49,$4E,$54,$42,$59,$00,$50,
                    $4F,$49,$4E,$54,$28
       00:0C13: 4E 54 42 59 
       00:0C17: 00 50 4F 49 
       00:0C1B: 4E 54 28 
  Sun Jan  9 2022 20:52                                                Page 17


   596 00:0C1E: 00 50 4F 49  	db	$00,$50,$4F,$49,$4E,$54,$00,$50,$4F,$53,
                    $00,$50,$52,$49,$4E
       00:0C22: 4E 54 00 50 
       00:0C26: 4F 53 00 50 
       00:0C2A: 52 49 4E 
   597 00:0C2D: 54 00 50 52  	db	$54,$00,$50,$52,$4F,$43,$00,$50,$54,$52,
                    $00,$51,$55,$49,$54
       00:0C31: 4F 43 00 50 
       00:0C35: 54 52 00 51 
       00:0C39: 55 49 54 
   598 00:0C3C: 00 52 41 44  	db	$00,$52,$41,$44,$00,$52,$45,$41,$44,$00,
                    $52,$45,$43,$54,$41
       00:0C40: 00 52 45 41 
       00:0C44: 44 00 52 45 
       00:0C48: 43 54 41 
   599 00:0C4B: 4E 47 4C 45  	db	$4E,$47,$4C,$45,$00,$52,$45,$4D,$00,$52,
                    $45,$50,$45,$41,$54
       00:0C4F: 00 52 45 4D 
       00:0C53: 00 52 45 50 
       00:0C57: 45 41 54 
   600 00:0C5A: 00 52 45 50  	db	$00,$52,$45,$50,$4F,$52,$54,$24,$00,$52,
                    $45,$50,$4F,$52,$54
       00:0C5E: 4F 52 54 24 
       00:0C62: 00 52 45 50 
       00:0C66: 4F 52 54 
   601 00:0C69: 00 52 45 53  	db	$00,$52,$45,$53,$54,$4F,$52,$45,$00,$52,
                    $45,$54,$55,$52,$4E
       00:0C6D: 54 4F 52 45 
       00:0C71: 00 52 45 54 
       00:0C75: 55 52 4E 
   602 00:0C78: 00 52 49 47  	db	$00,$52,$49,$47,$48,$54,$24,$28,$00,$52,
                    $4E,$44,$00,$52,$55
       00:0C7C: 48 54 24 28 
       00:0C80: 00 52 4E 44 
       00:0C84: 00 52 55 
   603 00:0C87: 4E 00 53 47  	db	$4E,$00,$53,$47,$4E,$00,$53,$49,$4E,$00,
                    $53,$4F,$55,$4E,$44
       00:0C8B: 4E 00 53 49 
       00:0C8F: 4E 00 53 4F 
       00:0C93: 55 4E 44 
   604 00:0C96: 00 53 50 43  	db	$00,$53,$50,$43,$00,$53,$51,$52,$00,$53,
                    $54,$45,$50,$00,$53
       00:0C9A: 00 53 51 52 
       00:0C9E: 00 53 54 45 
       00:0CA2: 50 00 53 
   605 00:0CA5: 54 45 52 45  	db	$54,$45,$52,$45,$4F,$00,$53,$54,$4F,$50,
                    $00,$53,$54,$52,$24
       00:0CA9: 4F 00 53 54 
       00:0CAD: 4F 50 00 53 
       00:0CB1: 54 52 24 
   606 00:0CB4: 00 53 54 52  	db	$00,$53,$54,$52,$49,$4E,$47,$24,$28,$00,
                    $53,$55,$4D,$00,$53
       00:0CB8: 49 4E 47 24 
       00:0CBC: 28 00 53 55 
       00:0CC0: 4D 00 53 
   607 00:0CC3: 57 41 50 00  	db	$57,$41,$50,$00,$53,$59,$53,$00,$54,$41,
                    $42,$28,$00,$54,$41
       00:0CC7: 53 59 53 00 
  Sun Jan  9 2022 20:52                                                Page 18


       00:0CCB: 54 41 42 28 
       00:0CCF: 00 54 41 
   608 00:0CD2: 4E 00 54 45  	db	$4E,$00,$54,$45,$4D,$50,$4F,$00,$54,$48,
                    $45,$4E,$00,$54,$49
       00:0CD6: 4D 50 4F 00 
       00:0CDA: 54 48 45 4E 
       00:0CDE: 00 54 49 
   609 00:0CE1: 4D 45 24 00  	db	$4D,$45,$24,$00,$54,$49,$4D,$45,$00,$54,
                    $49,$4E,$54,$00,$54
       00:0CE5: 54 49 4D 45 
       00:0CE9: 00 54 49 4E 
       00:0CED: 54 00 54 
   610 00:0CF0: 4F 00 54 52  	db	$4F,$00,$54,$52,$41,$43,$45,$00,$54,$52,
                    $55,$45,$00,$55,$4E
       00:0CF4: 41 43 45 00 
       00:0CF8: 54 52 55 45 
       00:0CFC: 00 55 4E 
   611 00:0CFF: 54 49 4C 00  	db	$54,$49,$4C,$00,$55,$53,$52,$00,$56,$41,
                    $4C,$00,$56,$44,$55
       00:0D03: 55 53 52 00 
       00:0D07: 56 41 4C 00 
       00:0D0B: 56 44 55 
   612 00:0D0E: 00 56 45 52  	db	$00,$56,$45,$52,$49,$46,$59,$28,$00,$56,
                    $4F,$49,$43,$45,$53
       00:0D12: 49 46 59 28 
       00:0D16: 00 56 4F 49 
       00:0D1A: 43 45 53 
   613 00:0D1D: 00 56 4F 49  	db	$00,$56,$4F,$49,$43,$45,$00,$56,$50,$4F,
                    $53,$00,$57,$41,$49
       00:0D21: 43 45 00 56 
       00:0D25: 50 4F 53 00 
       00:0D29: 57 41 49 
   614 00:0D2C: 54 00 57 48  	db	$54,$00,$57,$48,$45,$4E,$00,$57,$48,$49,
                    $4C,$45,$00,$57,$49
       00:0D30: 45 4E 00 57 
       00:0D34: 48 49 4C 45 
       00:0D38: 00 57 49 
   615 00:0D3B: 44 54 48 00  	db	$44,$54,$48,$00,$58,$4C,$41,$54,$45,$24,
                    $28,$00,$41,$50,$50
       00:0D3F: 58 4C 41 54 
       00:0D43: 45 24 28 00 
       00:0D47: 41 50 50 
   616 00:0D4A: 45 4E 44 00  	db	$45,$4E,$44,$00,$41,$55,$54,$4F,$00,$43,
                    $52,$55,$4E,$43,$48
       00:0D4E: 41 55 54 4F 
       00:0D52: 00 43 52 55 
       00:0D56: 4E 43 48 
   617 00:0D59: 00 44 45 4C  	db	$00,$44,$45,$4C,$45,$54,$45,$00,$45,$44,
                    $49,$54,$4F,$00,$45
       00:0D5D: 45 54 45 00 
       00:0D61: 45 44 49 54 
       00:0D65: 4F 00 45 
   618 00:0D68: 44 49 54 00  	db	$44,$49,$54,$00,$48,$45,$4C,$50,$00,$49,
                    $4E,$53,$54,$41,$4C
       00:0D6C: 48 45 4C 50 
       00:0D70: 00 49 4E 53 
       00:0D74: 54 41 4C 
   619 00:0D77: 4C 00 4C 49  	db	$4C,$00,$4C,$49,$53,$54,$42,$00,$4C,$49,
  Sun Jan  9 2022 20:52                                                Page 19


                    $53,$54,$49,$46,$00
       00:0D7B: 53 54 42 00 
       00:0D7F: 4C 49 53 54 
       00:0D83: 49 46 00 
   620 00:0D86: 4C 49 53 54  	db	$4C,$49,$53,$54,$4C,$00,$4C,$49,$53,$54,
                    $4F,$00,$4C,$49,$53
       00:0D8A: 4C 00 4C 49 
       00:0D8E: 53 54 4F 00 
       00:0D92: 4C 49 53 
   621 00:0D95: 54 57 00 4C  	db	$54,$57,$00,$4C,$49,$53,$54,$00,$4C,$4F,
                    $41,$44,$00,$4C,$56
       00:0D99: 49 53 54 00 
       00:0D9D: 4C 4F 41 44 
       00:0DA1: 00 4C 56 
   622 00:0DA4: 41 52 00 4E  	db	$41,$52,$00,$4E,$45,$57,$00,$4F,$4C,$44,
                    $00,$51,$55,$49,$54
       00:0DA8: 45 57 00 4F 
       00:0DAC: 4C 44 00 51 
       00:0DB0: 55 49 54 
   623 00:0DB3: 00 52 45 4E  	db	$00,$52,$45,$4E,$55,$4D,$42,$45,$52,$00,
                    $52,$55,$4E,$00,$53
       00:0DB7: 55 4D 42 45 
       00:0DBB: 52 00 52 55 
       00:0DBF: 4E 00 53 
   624 00:0DC2: 41 56 45 4F  	db	$41,$56,$45,$4F,$00,$53,$41,$56,$45,$00,
                    $54,$45,$58,$54,$4C
       00:0DC6: 00 53 41 56 
       00:0DCA: 45 00 54 45 
       00:0DCE: 58 54 4C 
   625 00:0DD1: 4F 41 44 00  	db	$4F,$41,$44,$00,$54,$45,$58,$54,$53,$41,
                    $56,$45,$4F,$00,$54
       00:0DD5: 54 45 58 54 
       00:0DD9: 53 41 56 45 
       00:0DDD: 4F 00 54 
   626 00:0DE0: 45 58 54 53  	db	$45,$58,$54,$53,$41,$56,$45,$00,$54,$57,
                    $49,$4E,$4F,$00,$54
       00:0DE4: 41 56 45 00 
       00:0DE8: 54 57 49 4E 
       00:0DEC: 4F 00 54 
   627 00:0DEF: 57 49 4E 00  	db	$57,$49,$4E,$00,$5A,$5A,$00
       00:0DF3: 5A 5A 00 
   628 00:0DF6:              	ends
   629                        	data
   630                        ~~start_letter:
   631 00:0DF6: 00 00 09 00  	dw	$0,$9,$D,$1A,$21,$31,$36,$3B,$3C,$FF
       00:0DFA: 0D 00 1A 00 
       00:0DFE: 21 00 31 00 
       00:0E02: 36 00 3B 00 
       00:0E06: 3C 00 FF 00 
   632 00:0E0A: FF 00 42 00  	dw	$FF,$42,$4B,$51,$53,$5E,$69,$6A,$76,$83
       00:0E0E: 4B 00 51 00 
       00:0E12: 53 00 5E 00 
       00:0E16: 69 00 6A 00 
       00:0E1A: 76 00 83 00 
   633 00:0E1E: 8D 00 8F 00  	dw	$8D,$8F,$95,$99,$FF,$FF
       00:0E22: 95 00 99 00 
       00:0E26: FF 00 FF 00 
   634 00:0E2A:              	ends
  Sun Jan  9 2022 20:52                                                Page 20


   635                        	data
   636                        ~~command_start:
   637 00:0E2A: 9A 00 FF 00  	dw	$9A,$FF,$9C,$9D,$9E,$FF,$FF,$A0,$A1,$FF
       00:0E2E: 9C 00 9D 00 
       00:0E32: 9E 00 FF 00 
       00:0E36: FF 00 A0 00 
       00:0E3A: A1 00 FF 00 
   638 00:0E3E: FF 00 A2 00  	dw	$FF,$A2,$FF,$AA,$AB,$FF,$AC,$AD,$AF,$B1
       00:0E42: FF 00 AA 00 
       00:0E46: AB 00 FF 00 
       00:0E4A: AC 00 AD 00 
       00:0E4E: AF 00 B1 00 
   639 00:0E52: FF 00 FF 00  	dw	$FF,$FF,$FF,$FF,$FF,$FF
       00:0E56: FF 00 FF 00 
       00:0E5A: FF 00 FF 00 
   640 00:0E5E:              	ends
   641                        	code
   642                        	xdef	~~isempty
   643                        	func
   644                        ~~isempty:
   645                        	longa	on
   646                        	longi	on
   647 00:0000: 3B           	tsc
   648 00:0001: 38           	sec
   649 00:0002: E9 04 00     	sbc	#L3
   650 00:0005: 1B           	tcs
   651 00:0006: 0B           	phd
   652 00:0007: 5B           	tcd
   653             00000004   line_0	set	4
   654 00:0008: 64 01        	stz	<R0
   655 00:000A: A0 06 00     	ldy	#$6
   656 00:000D: B7 08        	lda	[<L3+line_0],Y
   657 00:000F: 29 FF 00     	and	#$ff
   658 00:0012: F0 03        	beq	L6
   659 00:0014: 82 02 00     	brl	L5
   660                        L6:
   661 00:0017: E6 01        	inc	<R0
   662                        L5:
   663 00:0019: A5 01        	lda	<R0
   664 00:001B: 29 FF 00     	and	#$ff
   665                        L7:
   666 00:001E: A8           	tay
   667 00:001F: A5 06        	lda	<L3+2
   668 00:0021: 85 0A        	sta	<L3+2+4
   669 00:0023: A5 05        	lda	<L3+1
   670 00:0025: 85 09        	sta	<L3+1+4
   671 00:0027: 2B           	pld
   672 00:0028: 3B           	tsc
   673 00:0029: 18           	clc
   674 00:002A: 69 08 00     	adc	#L3+4
   675 00:002D: 1B           	tcs
   676 00:002E: 98           	tya
   677 00:002F: 6B           	rtl
   678             00000004   L3	equ	4
   679             00000005   L4	equ	5
   680                        	ends
   681                        	efunc
   682                        	code
  Sun Jan  9 2022 20:52                                                Page 21


   683                        	xdef	~~save_lineno
   684                        	func
   685                        ~~save_lineno:
   686                        	longa	on
   687                        	longi	on
   688 00:0030: 3B           	tsc
   689 00:0031: 38           	sec
   690 00:0032: E9 00 00     	sbc	#L8
   691 00:0035: 1B           	tcs
   692 00:0036: 0B           	phd
   693 00:0037: 5B           	tcd
   694             00000004   where_0	set	4
   695             00000008   number_0	set	8
   696 00:0038: E2 20        	sep	#$20
   697                        	longa	off
   698 00:003A: A5 08        	lda	<L8+number_0
   699 00:003C: 87 04        	sta	[<L8+where_0]
   700 00:003E: C2 20        	rep	#$20
   701                        	longa	on
   702 00:0040: A5 08        	lda	<L8+number_0
   703 00:0042: A2 08 00     	ldx	#<$8
   704                        	xref	~~~asr
   705 00:0045: 22 xx xx xx  	jsl	~~~asr
   706 00:0049: E2 20        	sep	#$20
   707                        	longa	off
   708 00:004B: A0 01 00     	ldy	#$1
   709 00:004E: 97 04        	sta	[<L8+where_0],Y
   710 00:0050: C2 20        	rep	#$20
   711                        	longa	on
   712                        L10:
   713 00:0052: A5 02        	lda	<L8+2
   714 00:0054: 85 08        	sta	<L8+2+6
   715 00:0056: A5 01        	lda	<L8+1
   716 00:0058: 85 07        	sta	<L8+1+6
   717 00:005A: 2B           	pld
   718 00:005B: 3B           	tsc
   719 00:005C: 18           	clc
   720 00:005D: 69 06 00     	adc	#L8+6
   721 00:0060: 1B           	tcs
   722 00:0061: 6B           	rtl
   723             00000000   L8	equ	0
   724             00000001   L9	equ	1
   725                        	ends
   726                        	efunc
   727                        	code
   728                        	func
   729                        ~~store_lineno:
   730                        	longa	on
   731                        	longi	on
   732 00:0062: 3B           	tsc
   733 00:0063: 38           	sec
   734 00:0064: E9 08 00     	sbc	#L11
   735 00:0067: 1B           	tcs
   736 00:0068: 0B           	phd
   737 00:0069: 5B           	tcd
   738             00000004   number_0	set	4
   739 00:006A: 18           	clc
   740 00:006B: A9 02 00     	lda	#$2
  Sun Jan  9 2022 20:52                                                Page 22


   741 00:006E: 6D xx xx     	adc	|~~next
   742 00:0071: 85 01        	sta	<R0
   743 00:0073: 38           	sec
   744 00:0074: A5 01        	lda	<R0
   745 00:0076: E9 00 04     	sbc	#<$400
   746 00:0079: 70 03        	bvs	L13
   747 00:007B: 49 00 80     	eor	#$8000
   748                        L13:
   749 00:007E: 30 03        	bmi	L14
   750 00:0080: 82 0A 00     	brl	L10001
   751                        L14:
   752 00:0083: F4 0A 00     	pea	#<$a
   753 00:0086: F4 04 00     	pea	#4
   754 00:0089: 22 xx xx xx  	jsl	~~error
   755                        L10001:
   756 00:008D: AD xx xx     	lda	|~~tokenbase
   757 00:0090: 85 01        	sta	<R0
   758 00:0092: AD xx xx     	lda	|~~tokenbase+2
   759 00:0095: 85 03        	sta	<R0+2
   760 00:0097: E2 20        	sep	#$20
   761                        	longa	off
   762 00:0099: A5 0C        	lda	<L11+number_0
   763 00:009B: AC xx xx     	ldy	|~~next
   764 00:009E: 97 01        	sta	[<R0],Y
   765 00:00A0: C2 20        	rep	#$20
   766                        	longa	on
   767 00:00A2: AD xx xx     	lda	|~~next
   768 00:00A5: 1A           	ina
   769 00:00A6: 85 01        	sta	<R0
   770 00:00A8: AD xx xx     	lda	|~~tokenbase
   771 00:00AB: 85 05        	sta	<R1
   772 00:00AD: AD xx xx     	lda	|~~tokenbase+2
   773 00:00B0: 85 07        	sta	<R1+2
   774 00:00B2: A5 0C        	lda	<L11+number_0
   775 00:00B4: A2 08 00     	ldx	#<$8
   776                        	xref	~~~asr
   777 00:00B7: 22 xx xx xx  	jsl	~~~asr
   778 00:00BB: E2 20        	sep	#$20
   779                        	longa	off
   780 00:00BD: A4 01        	ldy	<R0
   781 00:00BF: 97 05        	sta	[<R1],Y
   782 00:00C1: C2 20        	rep	#$20
   783                        	longa	on
   784 00:00C3: EE xx xx     	inc	|~~next
   785 00:00C6: EE xx xx     	inc	|~~next
   786                        L15:
   787 00:00C9: A5 0A        	lda	<L11+2
   788 00:00CB: 85 0C        	sta	<L11+2+2
   789 00:00CD: A5 09        	lda	<L11+1
   790 00:00CF: 85 0B        	sta	<L11+1+2
   791 00:00D1: 2B           	pld
   792 00:00D2: 3B           	tsc
   793 00:00D3: 18           	clc
   794 00:00D4: 69 0A 00     	adc	#L11+2
   795 00:00D7: 1B           	tcs
   796 00:00D8: 6B           	rtl
   797             00000008   L11	equ	8
   798             00000009   L12	equ	9
  Sun Jan  9 2022 20:52                                                Page 23


   799                        	ends
   800                        	efunc
   801                        	code
   802                        	func
   803                        ~~store_linelen:
   804                        	longa	on
   805                        	longi	on
   806 00:00D9: 3B           	tsc
   807 00:00DA: 38           	sec
   808 00:00DB: E9 04 00     	sbc	#L16
   809 00:00DE: 1B           	tcs
   810 00:00DF: 0B           	phd
   811 00:00E0: 5B           	tcd
   812             00000004   length_0	set	4
   813 00:00E1: AD xx xx     	lda	|~~tokenbase
   814 00:00E4: 85 01        	sta	<R0
   815 00:00E6: AD xx xx     	lda	|~~tokenbase+2
   816 00:00E9: 85 03        	sta	<R0+2
   817 00:00EB: E2 20        	sep	#$20
   818                        	longa	off
   819 00:00ED: A5 08        	lda	<L16+length_0
   820 00:00EF: A0 02 00     	ldy	#$2
   821 00:00F2: 97 01        	sta	[<R0],Y
   822 00:00F4: C2 20        	rep	#$20
   823                        	longa	on
   824 00:00F6: AD xx xx     	lda	|~~tokenbase
   825 00:00F9: 85 01        	sta	<R0
   826 00:00FB: AD xx xx     	lda	|~~tokenbase+2
   827 00:00FE: 85 03        	sta	<R0+2
   828 00:0100: A5 08        	lda	<L16+length_0
   829 00:0102: A2 08 00     	ldx	#<$8
   830                        	xref	~~~asr
   831 00:0105: 22 xx xx xx  	jsl	~~~asr
   832 00:0109: E2 20        	sep	#$20
   833                        	longa	off
   834 00:010B: A0 03 00     	ldy	#$3
   835 00:010E: 97 01        	sta	[<R0],Y
   836 00:0110: C2 20        	rep	#$20
   837                        	longa	on
   838                        L18:
   839 00:0112: A5 06        	lda	<L16+2
   840 00:0114: 85 08        	sta	<L16+2+2
   841 00:0116: A5 05        	lda	<L16+1
   842 00:0118: 85 07        	sta	<L16+1+2
   843 00:011A: 2B           	pld
   844 00:011B: 3B           	tsc
   845 00:011C: 18           	clc
   846 00:011D: 69 06 00     	adc	#L16+2
   847 00:0120: 1B           	tcs
   848 00:0121: 6B           	rtl
   849             00000004   L16	equ	4
   850             00000005   L17	equ	5
   851                        	ends
   852                        	efunc
   853                        	code
   854                        	func
   855                        ~~store_exec:
   856                        	longa	on
  Sun Jan  9 2022 20:52                                                Page 24


   857                        	longi	on
   858 00:0122: 3B           	tsc
   859 00:0123: 38           	sec
   860 00:0124: E9 04 00     	sbc	#L19
   861 00:0127: 1B           	tcs
   862 00:0128: 0B           	phd
   863 00:0129: 5B           	tcd
   864             00000004   offset_0	set	4
   865 00:012A: AD xx xx     	lda	|~~tokenbase
   866 00:012D: 85 01        	sta	<R0
   867 00:012F: AD xx xx     	lda	|~~tokenbase+2
   868 00:0132: 85 03        	sta	<R0+2
   869 00:0134: E2 20        	sep	#$20
   870                        	longa	off
   871 00:0136: A5 08        	lda	<L19+offset_0
   872 00:0138: A0 04 00     	ldy	#$4
   873 00:013B: 97 01        	sta	[<R0],Y
   874 00:013D: C2 20        	rep	#$20
   875                        	longa	on
   876 00:013F: AD xx xx     	lda	|~~tokenbase
   877 00:0142: 85 01        	sta	<R0
   878 00:0144: AD xx xx     	lda	|~~tokenbase+2
   879 00:0147: 85 03        	sta	<R0+2
   880 00:0149: A5 08        	lda	<L19+offset_0
   881 00:014B: A2 08 00     	ldx	#<$8
   882                        	xref	~~~asr
   883 00:014E: 22 xx xx xx  	jsl	~~~asr
   884 00:0152: E2 20        	sep	#$20
   885                        	longa	off
   886 00:0154: A0 05 00     	ldy	#$5
   887 00:0157: 97 01        	sta	[<R0],Y
   888 00:0159: C2 20        	rep	#$20
   889                        	longa	on
   890                        L21:
   891 00:015B: A5 06        	lda	<L19+2
   892 00:015D: 85 08        	sta	<L19+2+2
   893 00:015F: A5 05        	lda	<L19+1
   894 00:0161: 85 07        	sta	<L19+1+2
   895 00:0163: 2B           	pld
   896 00:0164: 3B           	tsc
   897 00:0165: 18           	clc
   898 00:0166: 69 06 00     	adc	#L19+2
   899 00:0169: 1B           	tcs
   900 00:016A: 6B           	rtl
   901             00000004   L19	equ	4
   902             00000005   L20	equ	5
   903                        	ends
   904                        	efunc
   905                        	code
   906                        	xdef	~~get_linelen
   907                        	func
   908                        ~~get_linelen:
   909                        	longa	on
   910                        	longi	on
   911 00:016B: 3B           	tsc
   912 00:016C: 38           	sec
   913 00:016D: E9 0C 00     	sbc	#L22
   914 00:0170: 1B           	tcs
  Sun Jan  9 2022 20:52                                                Page 25


   915 00:0171: 0B           	phd
   916 00:0172: 5B           	tcd
   917             00000004   p_0	set	4
   918 00:0173: A0 02 00     	ldy	#$2
   919 00:0176: B7 10        	lda	[<L22+p_0],Y
   920 00:0178: 29 FF 00     	and	#$ff
   921 00:017B: 85 01        	sta	<R0
   922 00:017D: A0 03 00     	ldy	#$3
   923 00:0180: B7 10        	lda	[<L22+p_0],Y
   924 00:0182: 29 FF 00     	and	#$ff
   925 00:0185: 85 09        	sta	<R2
   926 00:0187: A5 09        	lda	<R2
   927 00:0189: EB           	xba
   928 00:018A: 29 00 FF     	and	#$ff00
   929 00:018D: 85 05        	sta	<R1
   930 00:018F: A5 05        	lda	<R1
   931 00:0191: 05 01        	ora	<R0
   932                        L24:
   933 00:0193: A8           	tay
   934 00:0194: A5 0E        	lda	<L22+2
   935 00:0196: 85 12        	sta	<L22+2+4
   936 00:0198: A5 0D        	lda	<L22+1
   937 00:019A: 85 11        	sta	<L22+1+4
   938 00:019C: 2B           	pld
   939 00:019D: 3B           	tsc
   940 00:019E: 18           	clc
   941 00:019F: 69 10 00     	adc	#L22+4
   942 00:01A2: 1B           	tcs
   943 00:01A3: 98           	tya
   944 00:01A4: 6B           	rtl
   945             0000000C   L22	equ	12
   946             0000000D   L23	equ	13
   947                        	ends
   948                        	efunc
   949                        	code
   950                        	xdef	~~get_lineno
   951                        	func
   952                        ~~get_lineno:
   953                        	longa	on
   954                        	longi	on
   955 00:01A5: 3B           	tsc
   956 00:01A6: 38           	sec
   957 00:01A7: E9 0C 00     	sbc	#L25
   958 00:01AA: 1B           	tcs
   959 00:01AB: 0B           	phd
   960 00:01AC: 5B           	tcd
   961             00000004   p_0	set	4
   962 00:01AD: A7 10        	lda	[<L25+p_0]
   963 00:01AF: 29 FF 00     	and	#$ff
   964 00:01B2: 85 01        	sta	<R0
   965 00:01B4: A0 01 00     	ldy	#$1
   966 00:01B7: B7 10        	lda	[<L25+p_0],Y
   967 00:01B9: 29 FF 00     	and	#$ff
   968 00:01BC: 85 09        	sta	<R2
   969 00:01BE: A5 09        	lda	<R2
   970 00:01C0: EB           	xba
   971 00:01C1: 29 00 FF     	and	#$ff00
   972 00:01C4: 85 05        	sta	<R1
  Sun Jan  9 2022 20:52                                                Page 26


   973 00:01C6: A5 05        	lda	<R1
   974 00:01C8: 05 01        	ora	<R0
   975                        L27:
   976 00:01CA: A8           	tay
   977 00:01CB: A5 0E        	lda	<L25+2
   978 00:01CD: 85 12        	sta	<L25+2+4
   979 00:01CF: A5 0D        	lda	<L25+1
   980 00:01D1: 85 11        	sta	<L25+1+4
   981 00:01D3: 2B           	pld
   982 00:01D4: 3B           	tsc
   983 00:01D5: 18           	clc
   984 00:01D6: 69 10 00     	adc	#L25+4
   985 00:01D9: 1B           	tcs
   986 00:01DA: 98           	tya
   987 00:01DB: 6B           	rtl
   988             0000000C   L25	equ	12
   989             0000000D   L26	equ	13
   990                        	ends
   991                        	efunc
   992                        	code
   993                        	xdef	~~get_exec
   994                        	func
   995                        ~~get_exec:
   996                        	longa	on
   997                        	longi	on
   998 00:01DC: 3B           	tsc
   999 00:01DD: 38           	sec
  1000 00:01DE: E9 0C 00     	sbc	#L28
  1001 00:01E1: 1B           	tcs
  1002 00:01E2: 0B           	phd
  1003 00:01E3: 5B           	tcd
  1004             00000004   p_0	set	4
  1005 00:01E4: A0 04 00     	ldy	#$4
  1006 00:01E7: B7 10        	lda	[<L28+p_0],Y
  1007 00:01E9: 29 FF 00     	and	#$ff
  1008 00:01EC: 85 01        	sta	<R0
  1009 00:01EE: A0 05 00     	ldy	#$5
  1010 00:01F1: B7 10        	lda	[<L28+p_0],Y
  1011 00:01F3: 29 FF 00     	and	#$ff
  1012 00:01F6: 85 09        	sta	<R2
  1013 00:01F8: A5 09        	lda	<R2
  1014 00:01FA: EB           	xba
  1015 00:01FB: 29 00 FF     	and	#$ff00
  1016 00:01FE: 85 05        	sta	<R1
  1017 00:0200: A5 05        	lda	<R1
  1018 00:0202: 05 01        	ora	<R0
  1019                        L30:
  1020 00:0204: A8           	tay
  1021 00:0205: A5 0E        	lda	<L28+2
  1022 00:0207: 85 12        	sta	<L28+2+4
  1023 00:0209: A5 0D        	lda	<L28+1
  1024 00:020B: 85 11        	sta	<L28+1+4
  1025 00:020D: 2B           	pld
  1026 00:020E: 3B           	tsc
  1027 00:020F: 18           	clc
  1028 00:0210: 69 10 00     	adc	#L28+4
  1029 00:0213: 1B           	tcs
  1030 00:0214: 98           	tya
  Sun Jan  9 2022 20:52                                                Page 27


  1031 00:0215: 6B           	rtl
  1032             0000000C   L28	equ	12
  1033             0000000D   L29	equ	13
  1034                        	ends
  1035                        	efunc
  1036                        	code
  1037                        	func
  1038                        ~~store:
  1039                        	longa	on
  1040                        	longi	on
  1041 00:0216: 3B           	tsc
  1042 00:0217: 38           	sec
  1043 00:0218: E9 04 00     	sbc	#L31
  1044 00:021B: 1B           	tcs
  1045 00:021C: 0B           	phd
  1046 00:021D: 5B           	tcd
  1047             00000004   token_0	set	4
  1048 00:021E: AD xx xx     	lda	|~~next
  1049 00:0221: 1A           	ina
  1050 00:0222: 85 01        	sta	<R0
  1051 00:0224: 38           	sec
  1052 00:0225: A5 01        	lda	<R0
  1053 00:0227: E9 00 04     	sbc	#<$400
  1054 00:022A: 70 03        	bvs	L33
  1055 00:022C: 49 00 80     	eor	#$8000
  1056                        L33:
  1057 00:022F: 30 03        	bmi	L34
  1058 00:0231: 82 0A 00     	brl	L10002
  1059                        L34:
  1060 00:0234: F4 0A 00     	pea	#<$a
  1061 00:0237: F4 04 00     	pea	#4
  1062 00:023A: 22 xx xx xx  	jsl	~~error
  1063                        L10002:
  1064 00:023E: AD xx xx     	lda	|~~tokenbase
  1065 00:0241: 85 01        	sta	<R0
  1066 00:0243: AD xx xx     	lda	|~~tokenbase+2
  1067 00:0246: 85 03        	sta	<R0+2
  1068 00:0248: E2 20        	sep	#$20
  1069                        	longa	off
  1070 00:024A: A5 08        	lda	<L31+token_0
  1071 00:024C: AC xx xx     	ldy	|~~next
  1072 00:024F: 97 01        	sta	[<R0],Y
  1073 00:0251: C2 20        	rep	#$20
  1074                        	longa	on
  1075 00:0253: EE xx xx     	inc	|~~next
  1076                        L35:
  1077 00:0256: A5 06        	lda	<L31+2
  1078 00:0258: 85 08        	sta	<L31+2+2
  1079 00:025A: A5 05        	lda	<L31+1
  1080 00:025C: 85 07        	sta	<L31+1+2
  1081 00:025E: 2B           	pld
  1082 00:025F: 3B           	tsc
  1083 00:0260: 18           	clc
  1084 00:0261: 69 06 00     	adc	#L31+2
  1085 00:0264: 1B           	tcs
  1086 00:0265: 6B           	rtl
  1087             00000004   L31	equ	4
  1088             00000005   L32	equ	5
  Sun Jan  9 2022 20:52                                                Page 28


  1089                        	ends
  1090                        	efunc
  1091                        	code
  1092                        	func
  1093                        ~~store_size:
  1094                        	longa	on
  1095                        	longi	on
  1096 00:0266: 3B           	tsc
  1097 00:0267: 38           	sec
  1098 00:0268: E9 08 00     	sbc	#L36
  1099 00:026B: 1B           	tcs
  1100 00:026C: 0B           	phd
  1101 00:026D: 5B           	tcd
  1102             00000004   size_0	set	4
  1103 00:026E: 18           	clc
  1104 00:026F: A9 02 00     	lda	#$2
  1105 00:0272: 6D xx xx     	adc	|~~next
  1106 00:0275: 85 01        	sta	<R0
  1107 00:0277: 38           	sec
  1108 00:0278: A5 01        	lda	<R0
  1109 00:027A: E9 00 04     	sbc	#<$400
  1110 00:027D: 70 03        	bvs	L38
  1111 00:027F: 49 00 80     	eor	#$8000
  1112                        L38:
  1113 00:0282: 30 03        	bmi	L39
  1114 00:0284: 82 0A 00     	brl	L10003
  1115                        L39:
  1116 00:0287: F4 0A 00     	pea	#<$a
  1117 00:028A: F4 04 00     	pea	#4
  1118 00:028D: 22 xx xx xx  	jsl	~~error
  1119                        L10003:
  1120 00:0291: AD xx xx     	lda	|~~tokenbase
  1121 00:0294: 85 01        	sta	<R0
  1122 00:0296: AD xx xx     	lda	|~~tokenbase+2
  1123 00:0299: 85 03        	sta	<R0+2
  1124 00:029B: E2 20        	sep	#$20
  1125                        	longa	off
  1126 00:029D: A5 0C        	lda	<L36+size_0
  1127 00:029F: AC xx xx     	ldy	|~~next
  1128 00:02A2: 97 01        	sta	[<R0],Y
  1129 00:02A4: C2 20        	rep	#$20
  1130                        	longa	on
  1131 00:02A6: AD xx xx     	lda	|~~next
  1132 00:02A9: 1A           	ina
  1133 00:02AA: 85 01        	sta	<R0
  1134 00:02AC: AD xx xx     	lda	|~~tokenbase
  1135 00:02AF: 85 05        	sta	<R1
  1136 00:02B1: AD xx xx     	lda	|~~tokenbase+2
  1137 00:02B4: 85 07        	sta	<R1+2
  1138 00:02B6: A5 0C        	lda	<L36+size_0
  1139 00:02B8: A2 08 00     	ldx	#<$8
  1140                        	xref	~~~asr
  1141 00:02BB: 22 xx xx xx  	jsl	~~~asr
  1142 00:02BF: E2 20        	sep	#$20
  1143                        	longa	off
  1144 00:02C1: A4 01        	ldy	<R0
  1145 00:02C3: 97 05        	sta	[<R1],Y
  1146 00:02C5: C2 20        	rep	#$20
  Sun Jan  9 2022 20:52                                                Page 29


  1147                        	longa	on
  1148 00:02C7: EE xx xx     	inc	|~~next
  1149 00:02CA: EE xx xx     	inc	|~~next
  1150                        L40:
  1151 00:02CD: A5 0A        	lda	<L36+2
  1152 00:02CF: 85 0C        	sta	<L36+2+2
  1153 00:02D1: A5 09        	lda	<L36+1
  1154 00:02D3: 85 0B        	sta	<L36+1+2
  1155 00:02D5: 2B           	pld
  1156 00:02D6: 3B           	tsc
  1157 00:02D7: 18           	clc
  1158 00:02D8: 69 0A 00     	adc	#L36+2
  1159 00:02DB: 1B           	tcs
  1160 00:02DC: 6B           	rtl
  1161             00000008   L36	equ	8
  1162             00000009   L37	equ	9
  1163                        	ends
  1164                        	efunc
  1165                        	code
  1166                        	func
  1167                        ~~store_longoffset:
  1168                        	longa	on
  1169                        	longi	on
  1170 00:02DD: 3B           	tsc
  1171 00:02DE: 38           	sec
  1172 00:02DF: E9 06 00     	sbc	#L41
  1173 00:02E2: 1B           	tcs
  1174 00:02E3: 0B           	phd
  1175 00:02E4: 5B           	tcd
  1176             00000004   value_0	set	4
  1177             00000000   n_1	set	0
  1178 00:02E5: 18           	clc
  1179 00:02E6: A9 04 00     	lda	#$4
  1180 00:02E9: 6D xx xx     	adc	|~~next
  1181 00:02EC: 85 01        	sta	<R0
  1182 00:02EE: 38           	sec
  1183 00:02EF: A5 01        	lda	<R0
  1184 00:02F1: E9 00 04     	sbc	#<$400
  1185 00:02F4: 70 03        	bvs	L43
  1186 00:02F6: 49 00 80     	eor	#$8000
  1187                        L43:
  1188 00:02F9: 30 03        	bmi	L44
  1189 00:02FB: 82 0A 00     	brl	L10004
  1190                        L44:
  1191 00:02FE: F4 0A 00     	pea	#<$a
  1192 00:0301: F4 04 00     	pea	#4
  1193 00:0304: 22 xx xx xx  	jsl	~~error
  1194                        L10004:
  1195 00:0308: A9 01 00     	lda	#$1
  1196 00:030B: 85 05        	sta	<L42+n_1
  1197                        L10007:
  1198 00:030D: AD xx xx     	lda	|~~tokenbase
  1199 00:0310: 85 01        	sta	<R0
  1200 00:0312: AD xx xx     	lda	|~~tokenbase+2
  1201 00:0315: 85 03        	sta	<R0+2
  1202 00:0317: E2 20        	sep	#$20
  1203                        	longa	off
  1204 00:0319: A5 0A        	lda	<L41+value_0
  Sun Jan  9 2022 20:52                                                Page 30


  1205 00:031B: AC xx xx     	ldy	|~~next
  1206 00:031E: 97 01        	sta	[<R0],Y
  1207 00:0320: C2 20        	rep	#$20
  1208                        	longa	on
  1209 00:0322: A5 0A        	lda	<L41+value_0
  1210 00:0324: A2 08 00     	ldx	#<$8
  1211                        	xref	~~~asr
  1212 00:0327: 22 xx xx xx  	jsl	~~~asr
  1213 00:032B: 85 0A        	sta	<L41+value_0
  1214 00:032D: EE xx xx     	inc	|~~next
  1215                        L10005:
  1216 00:0330: E6 05        	inc	<L42+n_1
  1217 00:0332: A5 05        	lda	<L42+n_1
  1218 00:0334: 30 07        	bmi	L45
  1219 00:0336: 3A           	dea
  1220 00:0337: 3A           	dea
  1221 00:0338: 3A           	dea
  1222 00:0339: 3A           	dea
  1223 00:033A: 3A           	dea
  1224 00:033B: 10 03        	bpl	L46
  1225                        L45:
  1226 00:033D: 82 CD FF     	brl	L10007
  1227                        L46:
  1228                        L10006:
  1229                        L47:
  1230 00:0340: A5 08        	lda	<L41+2
  1231 00:0342: 85 0A        	sta	<L41+2+2
  1232 00:0344: A5 07        	lda	<L41+1
  1233 00:0346: 85 09        	sta	<L41+1+2
  1234 00:0348: 2B           	pld
  1235 00:0349: 3B           	tsc
  1236 00:034A: 18           	clc
  1237 00:034B: 69 08 00     	adc	#L41+2
  1238 00:034E: 1B           	tcs
  1239 00:034F: 6B           	rtl
  1240             00000006   L41	equ	6
  1241             00000005   L42	equ	5
  1242                        	ends
  1243                        	efunc
  1244                        	code
  1245                        	func
  1246                        ~~store_shortoffset:
  1247                        	longa	on
  1248                        	longi	on
  1249 00:0350: 3B           	tsc
  1250 00:0351: 38           	sec
  1251 00:0352: E9 08 00     	sbc	#L48
  1252 00:0355: 1B           	tcs
  1253 00:0356: 0B           	phd
  1254 00:0357: 5B           	tcd
  1255             00000004   value_0	set	4
  1256 00:0358: 18           	clc
  1257 00:0359: A9 02 00     	lda	#$2
  1258 00:035C: 6D xx xx     	adc	|~~next
  1259 00:035F: 85 01        	sta	<R0
  1260 00:0361: 38           	sec
  1261 00:0362: A5 01        	lda	<R0
  1262 00:0364: E9 00 04     	sbc	#<$400
  Sun Jan  9 2022 20:52                                                Page 31


  1263 00:0367: 70 03        	bvs	L50
  1264 00:0369: 49 00 80     	eor	#$8000
  1265                        L50:
  1266 00:036C: 30 03        	bmi	L51
  1267 00:036E: 82 0A 00     	brl	L10008
  1268                        L51:
  1269 00:0371: F4 0A 00     	pea	#<$a
  1270 00:0374: F4 04 00     	pea	#4
  1271 00:0377: 22 xx xx xx  	jsl	~~error
  1272                        L10008:
  1273 00:037B: AD xx xx     	lda	|~~tokenbase
  1274 00:037E: 85 01        	sta	<R0
  1275 00:0380: AD xx xx     	lda	|~~tokenbase+2
  1276 00:0383: 85 03        	sta	<R0+2
  1277 00:0385: E2 20        	sep	#$20
  1278                        	longa	off
  1279 00:0387: A5 0C        	lda	<L48+value_0
  1280 00:0389: AC xx xx     	ldy	|~~next
  1281 00:038C: 97 01        	sta	[<R0],Y
  1282 00:038E: C2 20        	rep	#$20
  1283                        	longa	on
  1284 00:0390: AD xx xx     	lda	|~~next
  1285 00:0393: 1A           	ina
  1286 00:0394: 85 01        	sta	<R0
  1287 00:0396: AD xx xx     	lda	|~~tokenbase
  1288 00:0399: 85 05        	sta	<R1
  1289 00:039B: AD xx xx     	lda	|~~tokenbase+2
  1290 00:039E: 85 07        	sta	<R1+2
  1291 00:03A0: A5 0C        	lda	<L48+value_0
  1292 00:03A2: A2 08 00     	ldx	#<$8
  1293                        	xref	~~~asr
  1294 00:03A5: 22 xx xx xx  	jsl	~~~asr
  1295 00:03A9: E2 20        	sep	#$20
  1296                        	longa	off
  1297 00:03AB: A4 01        	ldy	<R0
  1298 00:03AD: 97 05        	sta	[<R1],Y
  1299 00:03AF: C2 20        	rep	#$20
  1300                        	longa	on
  1301 00:03B1: EE xx xx     	inc	|~~next
  1302 00:03B4: EE xx xx     	inc	|~~next
  1303                        L52:
  1304 00:03B7: A5 0A        	lda	<L48+2
  1305 00:03B9: 85 0C        	sta	<L48+2+2
  1306 00:03BB: A5 09        	lda	<L48+1
  1307 00:03BD: 85 0B        	sta	<L48+1+2
  1308 00:03BF: 2B           	pld
  1309 00:03C0: 3B           	tsc
  1310 00:03C1: 18           	clc
  1311 00:03C2: 69 0A 00     	adc	#L48+2
  1312 00:03C5: 1B           	tcs
  1313 00:03C6: 6B           	rtl
  1314             00000008   L48	equ	8
  1315             00000009   L49	equ	9
  1316                        	ends
  1317                        	efunc
  1318                        	code
  1319                        	func
  1320                        ~~store_intconst:
  Sun Jan  9 2022 20:52                                                Page 32


  1321                        	longa	on
  1322                        	longi	on
  1323 00:03C7: 3B           	tsc
  1324 00:03C8: 38           	sec
  1325 00:03C9: E9 06 00     	sbc	#L53
  1326 00:03CC: 1B           	tcs
  1327 00:03CD: 0B           	phd
  1328 00:03CE: 5B           	tcd
  1329             00000004   value_0	set	4
  1330             00000000   n_1	set	0
  1331 00:03CF: 18           	clc
  1332 00:03D0: A9 04 00     	lda	#$4
  1333 00:03D3: 6D xx xx     	adc	|~~next
  1334 00:03D6: 85 01        	sta	<R0
  1335 00:03D8: 38           	sec
  1336 00:03D9: A5 01        	lda	<R0
  1337 00:03DB: E9 00 04     	sbc	#<$400
  1338 00:03DE: 70 03        	bvs	L55
  1339 00:03E0: 49 00 80     	eor	#$8000
  1340                        L55:
  1341 00:03E3: 30 03        	bmi	L56
  1342 00:03E5: 82 0A 00     	brl	L10009
  1343                        L56:
  1344 00:03E8: F4 0A 00     	pea	#<$a
  1345 00:03EB: F4 04 00     	pea	#4
  1346 00:03EE: 22 xx xx xx  	jsl	~~error
  1347                        L10009:
  1348 00:03F2: A9 01 00     	lda	#$1
  1349 00:03F5: 85 05        	sta	<L54+n_1
  1350                        L10012:
  1351 00:03F7: AD xx xx     	lda	|~~tokenbase
  1352 00:03FA: 85 01        	sta	<R0
  1353 00:03FC: AD xx xx     	lda	|~~tokenbase+2
  1354 00:03FF: 85 03        	sta	<R0+2
  1355 00:0401: E2 20        	sep	#$20
  1356                        	longa	off
  1357 00:0403: A5 0A        	lda	<L53+value_0
  1358 00:0405: AC xx xx     	ldy	|~~next
  1359 00:0408: 97 01        	sta	[<R0],Y
  1360 00:040A: C2 20        	rep	#$20
  1361                        	longa	on
  1362 00:040C: A5 0A        	lda	<L53+value_0
  1363 00:040E: A2 08 00     	ldx	#<$8
  1364                        	xref	~~~asr
  1365 00:0411: 22 xx xx xx  	jsl	~~~asr
  1366 00:0415: 85 0A        	sta	<L53+value_0
  1367 00:0417: EE xx xx     	inc	|~~next
  1368                        L10010:
  1369 00:041A: E6 05        	inc	<L54+n_1
  1370 00:041C: A5 05        	lda	<L54+n_1
  1371 00:041E: 30 07        	bmi	L57
  1372 00:0420: 3A           	dea
  1373 00:0421: 3A           	dea
  1374 00:0422: 3A           	dea
  1375 00:0423: 3A           	dea
  1376 00:0424: 3A           	dea
  1377 00:0425: 10 03        	bpl	L58
  1378                        L57:
  Sun Jan  9 2022 20:52                                                Page 33


  1379 00:0427: 82 CD FF     	brl	L10012
  1380                        L58:
  1381                        L10011:
  1382                        L59:
  1383 00:042A: A5 08        	lda	<L53+2
  1384 00:042C: 85 0A        	sta	<L53+2+2
  1385 00:042E: A5 07        	lda	<L53+1
  1386 00:0430: 85 09        	sta	<L53+1+2
  1387 00:0432: 2B           	pld
  1388 00:0433: 3B           	tsc
  1389 00:0434: 18           	clc
  1390 00:0435: 69 08 00     	adc	#L53+2
  1391 00:0438: 1B           	tcs
  1392 00:0439: 6B           	rtl
  1393             00000006   L53	equ	6
  1394             00000005   L54	equ	5
  1395                        	ends
  1396                        	efunc
  1397                        	code
  1398                        	func
  1399                        ~~store_fpvalue:
  1400                        	longa	on
  1401                        	longi	on
  1402 00:043A: 3B           	tsc
  1403 00:043B: 38           	sec
  1404 00:043C: E9 0A 00     	sbc	#L60
  1405 00:043F: 1B           	tcs
  1406 00:0440: 0B           	phd
  1407 00:0441: 5B           	tcd
  1408             00000004   fpvalue_0	set	4
  1409             00000000   temp_1	set	0
  1410             00000004   n_1	set	4
  1411 00:0442: 18           	clc
  1412 00:0443: A9 04 00     	lda	#$4
  1413 00:0446: 6D xx xx     	adc	|~~next
  1414 00:0449: 85 01        	sta	<R0
  1415 00:044B: 38           	sec
  1416 00:044C: A5 01        	lda	<R0
  1417 00:044E: E9 00 04     	sbc	#<$400
  1418 00:0451: 70 03        	bvs	L62
  1419 00:0453: 49 00 80     	eor	#$8000
  1420                        L62:
  1421 00:0456: 30 03        	bmi	L63
  1422 00:0458: 82 0A 00     	brl	L10013
  1423                        L63:
  1424 00:045B: F4 0A 00     	pea	#<$a
  1425 00:045E: F4 04 00     	pea	#4
  1426 00:0461: 22 xx xx xx  	jsl	~~error
  1427                        L10013:
  1428 00:0465: F4 00 00     	pea	#^$4
  1429 00:0468: F4 04 00     	pea	#<$4
  1430 00:046B: F4 00 00     	pea	#0
  1431 00:046E: 18           	clc
  1432 00:046F: 7B           	tdc
  1433 00:0470: 69 0E 00     	adc	#<L60+fpvalue_0
  1434 00:0473: 48           	pha
  1435 00:0474: F4 00 00     	pea	#0
  1436 00:0477: 18           	clc
  Sun Jan  9 2022 20:52                                                Page 34


  1437 00:0478: 7B           	tdc
  1438 00:0479: 69 05 00     	adc	#<L61+temp_1
  1439 00:047C: 48           	pha
  1440 00:047D: 22 xx xx xx  	jsl	~~memcpy
  1441 00:0481: 64 09        	stz	<L61+n_1
  1442 00:0483: 82 1C 00     	brl	L10017
  1443                        L10016:
  1444 00:0486: AD xx xx     	lda	|~~tokenbase
  1445 00:0489: 85 01        	sta	<R0
  1446 00:048B: AD xx xx     	lda	|~~tokenbase+2
  1447 00:048E: 85 03        	sta	<R0+2
  1448 00:0490: E2 20        	sep	#$20
  1449                        	longa	off
  1450 00:0492: A6 09        	ldx	<L61+n_1
  1451 00:0494: B5 05        	lda	<L61+temp_1,X
  1452 00:0496: AC xx xx     	ldy	|~~next
  1453 00:0499: 97 01        	sta	[<R0],Y
  1454 00:049B: C2 20        	rep	#$20
  1455                        	longa	on
  1456 00:049D: EE xx xx     	inc	|~~next
  1457                        L10014:
  1458 00:04A0: E6 09        	inc	<L61+n_1
  1459                        L10017:
  1460 00:04A2: A5 09        	lda	<L61+n_1
  1461 00:04A4: C9 04 00     	cmp	#<$4
  1462 00:04A7: B0 03        	bcs	L64
  1463 00:04A9: 82 DA FF     	brl	L10016
  1464                        L64:
  1465                        L10015:
  1466                        L65:
  1467 00:04AC: A5 0C        	lda	<L60+2
  1468 00:04AE: 85 10        	sta	<L60+2+4
  1469 00:04B0: A5 0B        	lda	<L60+1
  1470 00:04B2: 85 0F        	sta	<L60+1+4
  1471 00:04B4: 2B           	pld
  1472 00:04B5: 3B           	tsc
  1473 00:04B6: 18           	clc
  1474 00:04B7: 69 0E 00     	adc	#L60+4
  1475 00:04BA: 1B           	tcs
  1476 00:04BB: 6B           	rtl
  1477             0000000A   L60	equ	10
  1478             00000005   L61	equ	5
  1479                        	ends
  1480                        	efunc
  1481                        	code
  1482                        	func
  1483                        ~~convert_lineno:
  1484                        	longa	on
  1485                        	longi	on
  1486 00:04BC: 3B           	tsc
  1487 00:04BD: 38           	sec
  1488 00:04BE: E9 0E 00     	sbc	#L66
  1489 00:04C1: 1B           	tcs
  1490 00:04C2: 0B           	phd
  1491 00:04C3: 5B           	tcd
  1492             00000000   line_1	set	0
  1493 00:04C4: 64 0D        	stz	<L67+line_1
  1494                        L10018:
  Sun Jan  9 2022 20:52                                                Page 35


  1495 00:04C6: AD xx xx     	lda	|~~lp
  1496 00:04C9: 85 01        	sta	<R0
  1497 00:04CB: AD xx xx     	lda	|~~lp+2
  1498 00:04CE: 85 03        	sta	<R0+2
  1499 00:04D0: E2 20        	sep	#$20
  1500                        	longa	off
  1501 00:04D2: A7 01        	lda	[<R0]
  1502 00:04D4: C9 30        	cmp	#<$30
  1503 00:04D6: C2 20        	rep	#$20
  1504                        	longa	on
  1505 00:04D8: B0 03        	bcs	L68
  1506 00:04DA: 82 6C 00     	brl	L10019
  1507                        L68:
  1508 00:04DD: AD xx xx     	lda	|~~lp
  1509 00:04E0: 85 01        	sta	<R0
  1510 00:04E2: AD xx xx     	lda	|~~lp+2
  1511 00:04E5: 85 03        	sta	<R0+2
  1512 00:04E7: E2 20        	sep	#$20
  1513                        	longa	off
  1514 00:04E9: A9 39        	lda	#$39
  1515 00:04EB: C7 01        	cmp	[<R0]
  1516 00:04ED: C2 20        	rep	#$20
  1517                        	longa	on
  1518 00:04EF: B0 03        	bcs	L69
  1519 00:04F1: 82 55 00     	brl	L10019
  1520                        L69:
  1521 00:04F4: A0 00 00     	ldy	#$0
  1522 00:04F7: A5 0D        	lda	<L67+line_1
  1523 00:04F9: 10 01        	bpl	L70
  1524 00:04FB: 88           	dey
  1525                        L70:
  1526 00:04FC: 85 01        	sta	<R0
  1527 00:04FE: 84 03        	sty	<R0+2
  1528 00:0500: 38           	sec
  1529 00:0501: A9 FF FE     	lda	#$feff
  1530 00:0504: E5 01        	sbc	<R0
  1531 00:0506: A9 00 00     	lda	#$0
  1532 00:0509: E5 03        	sbc	<R0+2
  1533 00:050B: 70 03        	bvs	L71
  1534 00:050D: 49 00 80     	eor	#$8000
  1535                        L71:
  1536 00:0510: 30 03        	bmi	L72
  1537 00:0512: 82 34 00     	brl	L10019
  1538                        L72:
  1539 00:0515: AD xx xx     	lda	|~~lp
  1540 00:0518: 85 01        	sta	<R0
  1541 00:051A: AD xx xx     	lda	|~~lp+2
  1542 00:051D: 85 03        	sta	<R0+2
  1543 00:051F: A7 01        	lda	[<R0]
  1544 00:0521: 29 FF 00     	and	#$ff
  1545 00:0524: 85 01        	sta	<R0
  1546 00:0526: A5 0D        	lda	<L67+line_1
  1547 00:0528: 0A           	asl	A
  1548 00:0529: 0A           	asl	A
  1549 00:052A: 65 0D        	adc	<L67+line_1
  1550 00:052C: 0A           	asl	A
  1551 00:052D: 85 05        	sta	<R1
  1552 00:052F: 18           	clc
  Sun Jan  9 2022 20:52                                                Page 36


  1553 00:0530: A5 05        	lda	<R1
  1554 00:0532: 65 01        	adc	<R0
  1555 00:0534: 85 09        	sta	<R2
  1556 00:0536: 18           	clc
  1557 00:0537: A9 D0 FF     	lda	#$ffd0
  1558 00:053A: 65 09        	adc	<R2
  1559 00:053C: 85 0D        	sta	<L67+line_1
  1560 00:053E: EE xx xx     	inc	|~~lp
  1561 00:0541: D0 03        	bne	L73
  1562 00:0543: EE xx xx     	inc	|~~lp+2
  1563                        L73:
  1564 00:0546: 82 7D FF     	brl	L10018
  1565                        L10019:
  1566 00:0549: A0 00 00     	ldy	#$0
  1567 00:054C: A5 0D        	lda	<L67+line_1
  1568 00:054E: 10 01        	bpl	L74
  1569 00:0550: 88           	dey
  1570                        L74:
  1571 00:0551: 85 01        	sta	<R0
  1572 00:0553: 84 03        	sty	<R0+2
  1573 00:0555: 38           	sec
  1574 00:0556: A9 FF FE     	lda	#$feff
  1575 00:0559: E5 01        	sbc	<R0
  1576 00:055B: A9 00 00     	lda	#$0
  1577 00:055E: E5 03        	sbc	<R0+2
  1578 00:0560: 70 03        	bvs	L75
  1579 00:0562: 49 00 80     	eor	#$8000
  1580                        L75:
  1581 00:0565: 10 03        	bpl	L76
  1582 00:0567: 82 4B 00     	brl	L10020
  1583                        L76:
  1584 00:056A: A9 0B 00     	lda	#$b
  1585 00:056D: 8D xx xx     	sta	|~~lasterror
  1586 00:0570: F4 85 00     	pea	#<$85
  1587 00:0573: F4 04 00     	pea	#4
  1588 00:0576: 22 xx xx xx  	jsl	~~error
  1589 00:057A: 64 0D        	stz	<L67+line_1
  1590                        L10021:
  1591 00:057C: AD xx xx     	lda	|~~lp
  1592 00:057F: 85 01        	sta	<R0
  1593 00:0581: AD xx xx     	lda	|~~lp+2
  1594 00:0584: 85 03        	sta	<R0+2
  1595 00:0586: E2 20        	sep	#$20
  1596                        	longa	off
  1597 00:0588: A7 01        	lda	[<R0]
  1598 00:058A: C9 30        	cmp	#<$30
  1599 00:058C: C2 20        	rep	#$20
  1600                        	longa	on
  1601 00:058E: B0 03        	bcs	L77
  1602 00:0590: 82 22 00     	brl	L10022
  1603                        L77:
  1604 00:0593: AD xx xx     	lda	|~~lp
  1605 00:0596: 85 01        	sta	<R0
  1606 00:0598: AD xx xx     	lda	|~~lp+2
  1607 00:059B: 85 03        	sta	<R0+2
  1608 00:059D: E2 20        	sep	#$20
  1609                        	longa	off
  1610 00:059F: A9 39        	lda	#$39
  Sun Jan  9 2022 20:52                                                Page 37


  1611 00:05A1: C7 01        	cmp	[<R0]
  1612 00:05A3: C2 20        	rep	#$20
  1613                        	longa	on
  1614 00:05A5: B0 03        	bcs	L78
  1615 00:05A7: 82 0B 00     	brl	L10022
  1616                        L78:
  1617 00:05AA: EE xx xx     	inc	|~~lp
  1618 00:05AD: D0 03        	bne	L79
  1619 00:05AF: EE xx xx     	inc	|~~lp+2
  1620                        L79:
  1621 00:05B2: 82 C7 FF     	brl	L10021
  1622                        L10022:
  1623                        L10020:
  1624 00:05B5: A5 0D        	lda	<L67+line_1
  1625                        L80:
  1626 00:05B7: A8           	tay
  1627 00:05B8: 2B           	pld
  1628 00:05B9: 3B           	tsc
  1629 00:05BA: 18           	clc
  1630 00:05BB: 69 0E 00     	adc	#L66
  1631 00:05BE: 1B           	tcs
  1632 00:05BF: 98           	tya
  1633 00:05C0: 6B           	rtl
  1634             0000000E   L66	equ	14
  1635             0000000D   L67	equ	13
  1636                        	ends
  1637                        	efunc
  1638                        	code
  1639                        	func
  1640                        ~~copy_line:
  1641                        	longa	on
  1642                        	longi	on
  1643 00:05C1: 3B           	tsc
  1644 00:05C2: 38           	sec
  1645 00:05C3: E9 00 00     	sbc	#L81
  1646 00:05C6: 1B           	tcs
  1647 00:05C7: 0B           	phd
  1648 00:05C8: 5B           	tcd
  1649             00000004   lp_0	set	4
  1650                        L10023:
  1651 00:05C9: A7 04        	lda	[<L81+lp_0]
  1652 00:05CB: 29 FF 00     	and	#$ff
  1653 00:05CE: D0 03        	bne	L83
  1654 00:05D0: 82 10 00     	brl	L10024
  1655                        L83:
  1656 00:05D3: A7 04        	lda	[<L81+lp_0]
  1657 00:05D5: 48           	pha
  1658 00:05D6: 22 xx xx xx  	jsl	~~store
  1659 00:05DA: E6 04        	inc	<L81+lp_0
  1660 00:05DC: D0 02        	bne	L84
  1661 00:05DE: E6 06        	inc	<L81+lp_0+2
  1662                        L84:
  1663 00:05E0: 82 E6 FF     	brl	L10023
  1664                        L10024:
  1665 00:05E3: A6 06        	ldx	<L81+lp_0+2
  1666 00:05E5: A5 04        	lda	<L81+lp_0
  1667                        L85:
  1668 00:05E7: A8           	tay
  Sun Jan  9 2022 20:52                                                Page 38


  1669 00:05E8: A5 02        	lda	<L81+2
  1670 00:05EA: 85 06        	sta	<L81+2+4
  1671 00:05EC: A5 01        	lda	<L81+1
  1672 00:05EE: 85 05        	sta	<L81+1+4
  1673 00:05F0: 2B           	pld
  1674 00:05F1: 3B           	tsc
  1675 00:05F2: 18           	clc
  1676 00:05F3: 69 04 00     	adc	#L81+4
  1677 00:05F6: 1B           	tcs
  1678 00:05F7: 98           	tya
  1679 00:05F8: 6B           	rtl
  1680             00000000   L81	equ	0
  1681             00000001   L82	equ	1
  1682                        	ends
  1683                        	efunc
  1684                        	code
  1685                        	func
  1686                        ~~nextis:
  1687                        	longa	on
  1688                        	longi	on
  1689 00:05F9: 3B           	tsc
  1690 00:05FA: 38           	sec
  1691 00:05FB: E9 0C 00     	sbc	#L86
  1692 00:05FE: 1B           	tcs
  1693 00:05FF: 0B           	phd
  1694 00:0600: 5B           	tcd
  1695             00000004   string_0	set	4
  1696             00000000   cp_1	set	0
  1697 00:0601: AD xx xx     	lda	|~~lp+2
  1698 00:0604: 48           	pha
  1699 00:0605: AD xx xx     	lda	|~~lp
  1700 00:0608: 48           	pha
  1701 00:0609: 22 xx xx xx  	jsl	~~skip_blanks
  1702 00:060D: 85 09        	sta	<L87+cp_1
  1703 00:060F: 86 0B        	stx	<L87+cp_1+2
  1704 00:0611: 64 01        	stz	<R0
  1705 00:0613: A7 09        	lda	[<L87+cp_1]
  1706 00:0615: 29 FF 00     	and	#$ff
  1707 00:0618: D0 03        	bne	L89
  1708 00:061A: 82 22 00     	brl	L88
  1709                        L89:
  1710 00:061D: D4 12        	pei	<L86+string_0+2
  1711 00:061F: D4 10        	pei	<L86+string_0
  1712 00:0621: 22 xx xx xx  	jsl	~~strlen
  1713 00:0625: 85 05        	sta	<R1
  1714 00:0627: 86 07        	stx	<R1+2
  1715 00:0629: DA           	phx
  1716 00:062A: 48           	pha
  1717 00:062B: D4 12        	pei	<L86+string_0+2
  1718 00:062D: D4 10        	pei	<L86+string_0
  1719 00:062F: D4 0B        	pei	<L87+cp_1+2
  1720 00:0631: D4 09        	pei	<L87+cp_1
  1721 00:0633: 22 xx xx xx  	jsl	~~strncmp
  1722 00:0637: AA           	tax
  1723 00:0638: F0 03        	beq	L90
  1724 00:063A: 82 02 00     	brl	L88
  1725                        L90:
  1726 00:063D: E6 01        	inc	<R0
  Sun Jan  9 2022 20:52                                                Page 39


  1727                        L88:
  1728 00:063F: A5 01        	lda	<R0
  1729 00:0641: 29 FF 00     	and	#$ff
  1730                        L91:
  1731 00:0644: A8           	tay
  1732 00:0645: A5 0E        	lda	<L86+2
  1733 00:0647: 85 12        	sta	<L86+2+4
  1734 00:0649: A5 0D        	lda	<L86+1
  1735 00:064B: 85 11        	sta	<L86+1+4
  1736 00:064D: 2B           	pld
  1737 00:064E: 3B           	tsc
  1738 00:064F: 18           	clc
  1739 00:0650: 69 10 00     	adc	#L86+4
  1740 00:0653: 1B           	tcs
  1741 00:0654: 98           	tya
  1742 00:0655: 6B           	rtl
  1743             0000000C   L86	equ	12
  1744             00000009   L87	equ	9
  1745                        	ends
  1746                        	efunc
  1747                        	code
  1748                        	func
  1749                        ~~kwsearch:
  1750                        	longa	on
  1751                        	longi	on
  1752 00:0656: 3B           	tsc
  1753 00:0657: 38           	sec
  1754 00:0658: E9 24 00     	sbc	#L92
  1755 00:065B: 1B           	tcs
  1756 00:065C: 0B           	phd
  1757 00:065D: 5B           	tcd
  1758             00000000   n_1	set	0
  1759             00000002   count_1	set	2
  1760             00000004   kwlength_1	set	4
  1761             00000006   first_1	set	6
  1762             00000007   cp_1	set	7
  1763             0000000B   nomatch_1	set	11
  1764             0000000C   abbreviated_1	set	12
  1765             0000000D   keyword_1	set	13
  1766 00:065E: AD xx xx     	lda	|~~lp
  1767 00:0661: 85 14        	sta	<L93+cp_1
  1768 00:0663: AD xx xx     	lda	|~~lp+2
  1769 00:0666: 85 16        	sta	<L93+cp_1+2
  1770 00:0668: 64 0D        	stz	<L93+n_1
  1771 00:066A: 82 12 00     	brl	L10028
  1772                        L10027:
  1773 00:066D: E2 20        	sep	#$20
  1774                        	longa	off
  1775 00:066F: A7 14        	lda	[<L93+cp_1]
  1776 00:0671: A6 0D        	ldx	<L93+n_1
  1777 00:0673: 95 1A        	sta	<L93+keyword_1,X
  1778 00:0675: C2 20        	rep	#$20
  1779                        	longa	on
  1780 00:0677: E6 14        	inc	<L93+cp_1
  1781 00:0679: D0 02        	bne	L94
  1782 00:067B: E6 16        	inc	<L93+cp_1+2
  1783                        L94:
  1784                        L10025:
  Sun Jan  9 2022 20:52                                                Page 40


  1785 00:067D: E6 0D        	inc	<L93+n_1
  1786                        L10028:
  1787 00:067F: 38           	sec
  1788 00:0680: A5 0D        	lda	<L93+n_1
  1789 00:0682: E9 0A 00     	sbc	#<$a
  1790 00:0685: 70 03        	bvs	L96
  1791 00:0687: 49 00 80     	eor	#$8000
  1792                        L96:
  1793 00:068A: 10 03        	bpl	L97
  1794 00:068C: 82 2A 00     	brl	L95
  1795                        L97:
  1796 00:068F: A7 14        	lda	[<L93+cp_1]
  1797 00:0691: 29 FF 00     	and	#$ff
  1798 00:0694: 48           	pha
  1799 00:0695: 22 xx xx xx  	jsl	~~isalpha
  1800 00:0699: AA           	tax
  1801 00:069A: F0 03        	beq	L98
  1802 00:069C: 82 CE FF     	brl	L10027
  1803                        L98:
  1804 00:069F: E2 20        	sep	#$20
  1805                        	longa	off
  1806 00:06A1: A7 14        	lda	[<L93+cp_1]
  1807 00:06A3: C9 24        	cmp	#<$24
  1808 00:06A5: C2 20        	rep	#$20
  1809                        	longa	on
  1810 00:06A7: D0 03        	bne	L99
  1811 00:06A9: 82 C1 FF     	brl	L10027
  1812                        L99:
  1813 00:06AC: E2 20        	sep	#$20
  1814                        	longa	off
  1815 00:06AE: A7 14        	lda	[<L93+cp_1]
  1816 00:06B0: C9 28        	cmp	#<$28
  1817 00:06B2: C2 20        	rep	#$20
  1818                        	longa	on
  1819 00:06B4: D0 03        	bne	L100
  1820 00:06B6: 82 B4 FF     	brl	L10027
  1821                        L100:
  1822                        L95:
  1823                        L10026:
  1824 00:06B9: 64 01        	stz	<R0
  1825 00:06BB: 38           	sec
  1826 00:06BC: A5 0D        	lda	<L93+n_1
  1827 00:06BE: E9 0A 00     	sbc	#<$a
  1828 00:06C1: 70 03        	bvs	L102
  1829 00:06C3: 49 00 80     	eor	#$8000
  1830                        L102:
  1831 00:06C6: 10 03        	bpl	L103
  1832 00:06C8: 82 0F 00     	brl	L101
  1833                        L103:
  1834 00:06CB: E2 20        	sep	#$20
  1835                        	longa	off
  1836 00:06CD: A7 14        	lda	[<L93+cp_1]
  1837 00:06CF: C9 2E        	cmp	#<$2e
  1838 00:06D1: C2 20        	rep	#$20
  1839                        	longa	on
  1840 00:06D3: F0 03        	beq	L104
  1841 00:06D5: 82 02 00     	brl	L101
  1842                        L104:
  Sun Jan  9 2022 20:52                                                Page 41


  1843 00:06D8: E6 01        	inc	<R0
  1844                        L101:
  1845 00:06DA: E2 20        	sep	#$20
  1846                        	longa	off
  1847 00:06DC: A5 01        	lda	<R0
  1848 00:06DE: 85 19        	sta	<L93+abbreviated_1
  1849 00:06E0: C2 20        	rep	#$20
  1850                        	longa	on
  1851 00:06E2: A5 19        	lda	<L93+abbreviated_1
  1852 00:06E4: 29 FF 00     	and	#$ff
  1853 00:06E7: F0 03        	beq	L105
  1854 00:06E9: 82 17 00     	brl	L10029
  1855                        L105:
  1856 00:06EC: A5 0D        	lda	<L93+n_1
  1857 00:06EE: C9 01 00     	cmp	#<$1
  1858 00:06F1: F0 03        	beq	L106
  1859 00:06F3: 82 0D 00     	brl	L10029
  1860                        L106:
  1861 00:06F6: A9 FF 00     	lda	#$ff
  1862                        L107:
  1863 00:06F9: A8           	tay
  1864 00:06FA: 2B           	pld
  1865 00:06FB: 3B           	tsc
  1866 00:06FC: 18           	clc
  1867 00:06FD: 69 24 00     	adc	#L92
  1868 00:0700: 1B           	tcs
  1869 00:0701: 98           	tya
  1870 00:0702: 6B           	rtl
  1871                        L10029:
  1872 00:0703: E2 20        	sep	#$20
  1873                        	longa	off
  1874 00:0705: A9 00        	lda	#$0
  1875 00:0707: A6 0D        	ldx	<L93+n_1
  1876 00:0709: 95 1A        	sta	<L93+keyword_1,X
  1877 00:070B: C2 20        	rep	#$20
  1878                        	longa	on
  1879 00:070D: A5 0D        	lda	<L93+n_1
  1880 00:070F: 85 11        	sta	<L93+kwlength_1
  1881 00:0711: E2 20        	sep	#$20
  1882                        	longa	off
  1883 00:0713: A5 1A        	lda	<L93+keyword_1
  1884 00:0715: 85 13        	sta	<L93+first_1
  1885 00:0717: C2 20        	rep	#$20
  1886                        	longa	on
  1887 00:0719: A5 13        	lda	<L93+first_1
  1888 00:071B: 29 FF 00     	and	#$ff
  1889 00:071E: 48           	pha
  1890 00:071F: 22 xx xx xx  	jsl	~~islower
  1891 00:0723: AA           	tax
  1892 00:0724: D0 03        	bne	L108
  1893 00:0726: 82 0B 00     	brl	L10030
  1894                        L108:
  1895 00:0729: E2 20        	sep	#$20
  1896                        	longa	off
  1897 00:072B: A9 01        	lda	#$1
  1898 00:072D: 85 18        	sta	<L93+nomatch_1
  1899 00:072F: C2 20        	rep	#$20
  1900                        	longa	on
  Sun Jan  9 2022 20:52                                                Page 42


  1901 00:0731: 82 61 01     	brl	L10031
  1902                        L10030:
  1903 00:0734: A5 13        	lda	<L93+first_1
  1904 00:0736: 29 FF 00     	and	#$ff
  1905 00:0739: 85 05        	sta	<R1
  1906 00:073B: A5 05        	lda	<R1
  1907 00:073D: 0A           	asl	A
  1908 00:073E: 85 01        	sta	<R0
  1909 00:0740: A6 01        	ldx	<R0
  1910 00:0742: BD xx xx     	lda	|~~start_letter-130,X
  1911 00:0745: 85 0D        	sta	<L93+n_1
  1912 00:0747: A5 0D        	lda	<L93+n_1
  1913 00:0749: C9 FF 00     	cmp	#<$ff
  1914 00:074C: F0 03        	beq	L109
  1915 00:074E: 82 06 00     	brl	L10032
  1916                        L109:
  1917 00:0751: A9 FF 00     	lda	#$ff
  1918 00:0754: 82 A2 FF     	brl	L107
  1919                        L10032:
  1920                        L10035:
  1921 00:0757: A5 0D        	lda	<L93+n_1
  1922 00:0759: A2 0E 00     	ldx	#<$e
  1923                        	xref	~~~mul
  1924 00:075C: 22 xx xx xx  	jsl	~~~mul
  1925 00:0760: 85 01        	sta	<R0
  1926 00:0762: A6 01        	ldx	<R0
  1927 00:0764: BD xx xx     	lda	|~~tokens+4,X
  1928 00:0767: 85 0F        	sta	<L93+count_1
  1929 00:0769: A5 19        	lda	<L93+abbreviated_1
  1930 00:076B: 29 FF 00     	and	#$ff
  1931 00:076E: D0 03        	bne	L110
  1932 00:0770: 82 42 00     	brl	L10036
  1933                        L110:
  1934 00:0773: 38           	sec
  1935 00:0774: A5 11        	lda	<L93+kwlength_1
  1936 00:0776: E5 0F        	sbc	<L93+count_1
  1937 00:0778: 70 03        	bvs	L111
  1938 00:077A: 49 00 80     	eor	#$8000
  1939                        L111:
  1940 00:077D: 10 03        	bpl	L112
  1941 00:077F: 82 33 00     	brl	L10036
  1942                        L112:
  1943 00:0782: A5 11        	lda	<L93+kwlength_1
  1944 00:0784: 85 0F        	sta	<L93+count_1
  1945 00:0786: A5 0D        	lda	<L93+n_1
  1946 00:0788: A2 0E 00     	ldx	#<$e
  1947                        	xref	~~~mul
  1948 00:078B: 22 xx xx xx  	jsl	~~~mul
  1949 00:078F: 85 01        	sta	<R0
  1950 00:0791: 38           	sec
  1951 00:0792: A5 11        	lda	<L93+kwlength_1
  1952 00:0794: A6 01        	ldx	<R0
  1953 00:0796: FD xx xx     	sbc	|~~tokens+6,X
  1954 00:0799: 70 03        	bvs	L113
  1955 00:079B: 49 00 80     	eor	#$8000
  1956                        L113:
  1957 00:079E: 10 03        	bpl	L114
  1958 00:07A0: 82 12 00     	brl	L10037
  Sun Jan  9 2022 20:52                                                Page 43


  1959                        L114:
  1960 00:07A3: A5 0D        	lda	<L93+n_1
  1961 00:07A5: A2 0E 00     	ldx	#<$e
  1962                        	xref	~~~mul
  1963 00:07A8: 22 xx xx xx  	jsl	~~~mul
  1964 00:07AC: 85 01        	sta	<R0
  1965 00:07AE: A6 01        	ldx	<R0
  1966 00:07B0: BD xx xx     	lda	|~~tokens+6,X
  1967 00:07B3: 85 0F        	sta	<L93+count_1
  1968                        L10037:
  1969                        L10036:
  1970 00:07B5: A0 00 00     	ldy	#$0
  1971 00:07B8: A5 0F        	lda	<L93+count_1
  1972 00:07BA: 10 01        	bpl	L115
  1973 00:07BC: 88           	dey
  1974                        L115:
  1975 00:07BD: 85 01        	sta	<R0
  1976 00:07BF: 84 03        	sty	<R0+2
  1977 00:07C1: D4 03        	pei	<R0+2
  1978 00:07C3: D4 01        	pei	<R0
  1979 00:07C5: A5 0D        	lda	<L93+n_1
  1980 00:07C7: A2 0E 00     	ldx	#<$e
  1981                        	xref	~~~mul
  1982 00:07CA: 22 xx xx xx  	jsl	~~~mul
  1983 00:07CE: 85 05        	sta	<R1
  1984 00:07D0: 18           	clc
  1985 00:07D1: A9 xx xx     	lda	#<~~tokens
  1986 00:07D4: 65 05        	adc	<R1
  1987 00:07D6: 85 09        	sta	<R2
  1988 00:07D8: A0 02 00     	ldy	#$2
  1989 00:07DB: B1 09        	lda	(<R2),Y
  1990 00:07DD: 48           	pha
  1991 00:07DE: B2 09        	lda	(<R2)
  1992 00:07E0: 48           	pha
  1993 00:07E1: F4 00 00     	pea	#0
  1994 00:07E4: 18           	clc
  1995 00:07E5: 7B           	tdc
  1996 00:07E6: 69 1A 00     	adc	#<L93+keyword_1
  1997 00:07E9: 48           	pha
  1998 00:07EA: 22 xx xx xx  	jsl	~~strncmp
  1999 00:07EE: AA           	tax
  2000 00:07EF: D0 03        	bne	L116
  2001 00:07F1: 82 2D 00     	brl	L10034
  2002                        L116:
  2003 00:07F4: E6 0D        	inc	<L93+n_1
  2004                        L10033:
  2005 00:07F6: A5 0D        	lda	<L93+n_1
  2006 00:07F8: A2 0E 00     	ldx	#<$e
  2007                        	xref	~~~mul
  2008 00:07FB: 22 xx xx xx  	jsl	~~~mul
  2009 00:07FF: 85 01        	sta	<R0
  2010 00:0801: 18           	clc
  2011 00:0802: A9 xx xx     	lda	#<~~tokens
  2012 00:0805: 65 01        	adc	<R0
  2013 00:0807: 85 05        	sta	<R1
  2014 00:0809: B2 05        	lda	(<R1)
  2015 00:080B: 85 01        	sta	<R0
  2016 00:080D: A0 02 00     	ldy	#$2
  Sun Jan  9 2022 20:52                                                Page 44


  2017 00:0810: B1 05        	lda	(<R1),Y
  2018 00:0812: 85 03        	sta	<R0+2
  2019 00:0814: E2 20        	sep	#$20
  2020                        	longa	off
  2021 00:0816: A7 01        	lda	[<R0]
  2022 00:0818: C5 13        	cmp	<L93+first_1
  2023 00:081A: C2 20        	rep	#$20
  2024                        	longa	on
  2025 00:081C: D0 03        	bne	L117
  2026 00:081E: 82 36 FF     	brl	L10035
  2027                        L117:
  2028                        L10034:
  2029 00:0821: 64 01        	stz	<R0
  2030 00:0823: A5 0D        	lda	<L93+n_1
  2031 00:0825: A2 0E 00     	ldx	#<$e
  2032                        	xref	~~~mul
  2033 00:0828: 22 xx xx xx  	jsl	~~~mul
  2034 00:082C: 85 05        	sta	<R1
  2035 00:082E: 18           	clc
  2036 00:082F: A9 xx xx     	lda	#<~~tokens
  2037 00:0832: 65 05        	adc	<R1
  2038 00:0834: 85 09        	sta	<R2
  2039 00:0836: B2 09        	lda	(<R2)
  2040 00:0838: 85 05        	sta	<R1
  2041 00:083A: A0 02 00     	ldy	#$2
  2042 00:083D: B1 09        	lda	(<R2),Y
  2043 00:083F: 85 07        	sta	<R1+2
  2044 00:0841: E2 20        	sep	#$20
  2045                        	longa	off
  2046 00:0843: A7 05        	lda	[<R1]
  2047 00:0845: C5 13        	cmp	<L93+first_1
  2048 00:0847: C2 20        	rep	#$20
  2049                        	longa	on
  2050 00:0849: D0 03        	bne	L119
  2051 00:084B: 82 02 00     	brl	L118
  2052                        L119:
  2053 00:084E: E6 01        	inc	<R0
  2054                        L118:
  2055 00:0850: E2 20        	sep	#$20
  2056                        	longa	off
  2057 00:0852: A5 01        	lda	<R0
  2058 00:0854: 85 18        	sta	<L93+nomatch_1
  2059 00:0856: C2 20        	rep	#$20
  2060                        	longa	on
  2061 00:0858: A5 18        	lda	<L93+nomatch_1
  2062 00:085A: 29 FF 00     	and	#$ff
  2063 00:085D: F0 03        	beq	L120
  2064 00:085F: 82 33 00     	brl	L10038
  2065                        L120:
  2066 00:0862: A5 19        	lda	<L93+abbreviated_1
  2067 00:0864: 29 FF 00     	and	#$ff
  2068 00:0867: D0 03        	bne	L121
  2069 00:0869: 82 29 00     	brl	L10038
  2070                        L121:
  2071 00:086C: 64 01        	stz	<R0
  2072 00:086E: A5 0D        	lda	<L93+n_1
  2073 00:0870: A2 0E 00     	ldx	#<$e
  2074                        	xref	~~~mul
  Sun Jan  9 2022 20:52                                                Page 45


  2075 00:0873: 22 xx xx xx  	jsl	~~~mul
  2076 00:0877: 85 05        	sta	<R1
  2077 00:0879: 38           	sec
  2078 00:087A: A5 11        	lda	<L93+kwlength_1
  2079 00:087C: A6 05        	ldx	<R1
  2080 00:087E: FD xx xx     	sbc	|~~tokens+4,X
  2081 00:0881: 70 03        	bvs	L123
  2082 00:0883: 49 00 80     	eor	#$8000
  2083                        L123:
  2084 00:0886: 10 03        	bpl	L124
  2085 00:0888: 82 02 00     	brl	L122
  2086                        L124:
  2087 00:088B: E6 01        	inc	<R0
  2088                        L122:
  2089 00:088D: E2 20        	sep	#$20
  2090                        	longa	off
  2091 00:088F: A5 01        	lda	<R0
  2092 00:0891: 85 19        	sta	<L93+abbreviated_1
  2093 00:0893: C2 20        	rep	#$20
  2094                        	longa	on
  2095                        L10038:
  2096                        L10031:
  2097 00:0895: A5 18        	lda	<L93+nomatch_1
  2098 00:0897: 29 FF 00     	and	#$ff
  2099 00:089A: D0 03        	bne	L125
  2100 00:089C: 82 BC 01     	brl	L10039
  2101                        L125:
  2102 00:089F: AD xx xx     	lda	|~~numbered
  2103 00:08A2: 29 FF 00     	and	#$ff
  2104 00:08A5: D0 03        	bne	L126
  2105 00:08A7: 82 16 00     	brl	L10040
  2106                        L126:
  2107 00:08AA: A5 13        	lda	<L93+first_1
  2108 00:08AC: 29 FF 00     	and	#$ff
  2109 00:08AF: 48           	pha
  2110 00:08B0: 22 xx xx xx  	jsl	~~islower
  2111 00:08B4: AA           	tax
  2112 00:08B5: D0 03        	bne	L127
  2113 00:08B7: 82 06 00     	brl	L10040
  2114                        L127:
  2115 00:08BA: A9 FF 00     	lda	#$ff
  2116 00:08BD: 82 39 FE     	brl	L107
  2117                        L10040:
  2118 00:08C0: AD xx xx     	lda	|~~numbered
  2119 00:08C3: 29 FF 00     	and	#$ff
  2120 00:08C6: F0 03        	beq	L128
  2121 00:08C8: 82 2F 00     	brl	L10041
  2122                        L128:
  2123 00:08CB: 64 0D        	stz	<L93+n_1
  2124 00:08CD: 82 16 00     	brl	L10045
  2125                        L10044:
  2126 00:08D0: A6 0D        	ldx	<L93+n_1
  2127 00:08D2: B5 1A        	lda	<L93+keyword_1,X
  2128 00:08D4: 29 FF 00     	and	#$ff
  2129 00:08D7: 48           	pha
  2130 00:08D8: 22 xx xx xx  	jsl	~~toupper
  2131 00:08DC: E2 20        	sep	#$20
  2132                        	longa	off
  Sun Jan  9 2022 20:52                                                Page 46


  2133 00:08DE: A6 0D        	ldx	<L93+n_1
  2134 00:08E0: 95 1A        	sta	<L93+keyword_1,X
  2135 00:08E2: C2 20        	rep	#$20
  2136                        	longa	on
  2137                        L10042:
  2138 00:08E4: E6 0D        	inc	<L93+n_1
  2139                        L10045:
  2140 00:08E6: A6 0D        	ldx	<L93+n_1
  2141 00:08E8: B5 1A        	lda	<L93+keyword_1,X
  2142 00:08EA: 29 FF 00     	and	#$ff
  2143 00:08ED: F0 03        	beq	L129
  2144 00:08EF: 82 DE FF     	brl	L10044
  2145                        L129:
  2146                        L10043:
  2147 00:08F2: E2 20        	sep	#$20
  2148                        	longa	off
  2149 00:08F4: A5 1A        	lda	<L93+keyword_1
  2150 00:08F6: 85 13        	sta	<L93+first_1
  2151 00:08F8: C2 20        	rep	#$20
  2152                        	longa	on
  2153                        L10041:
  2154 00:08FA: A5 13        	lda	<L93+first_1
  2155 00:08FC: 29 FF 00     	and	#$ff
  2156 00:08FF: 85 05        	sta	<R1
  2157 00:0901: A5 05        	lda	<R1
  2158 00:0903: 0A           	asl	A
  2159 00:0904: 85 01        	sta	<R0
  2160 00:0906: A6 01        	ldx	<R0
  2161 00:0908: BD xx xx     	lda	|~~command_start-130,X
  2162 00:090B: 85 0D        	sta	<L93+n_1
  2163 00:090D: A5 0D        	lda	<L93+n_1
  2164 00:090F: C9 FF 00     	cmp	#<$ff
  2165 00:0912: F0 03        	beq	L130
  2166 00:0914: 82 06 00     	brl	L10046
  2167                        L130:
  2168 00:0917: A9 FF 00     	lda	#$ff
  2169 00:091A: 82 DC FD     	brl	L107
  2170                        L10046:
  2171                        L10049:
  2172 00:091D: A5 0D        	lda	<L93+n_1
  2173 00:091F: A2 0E 00     	ldx	#<$e
  2174                        	xref	~~~mul
  2175 00:0922: 22 xx xx xx  	jsl	~~~mul
  2176 00:0926: 85 01        	sta	<R0
  2177 00:0928: A6 01        	ldx	<R0
  2178 00:092A: BD xx xx     	lda	|~~tokens+4,X
  2179 00:092D: 85 0F        	sta	<L93+count_1
  2180 00:092F: A5 19        	lda	<L93+abbreviated_1
  2181 00:0931: 29 FF 00     	and	#$ff
  2182 00:0934: D0 03        	bne	L131
  2183 00:0936: 82 42 00     	brl	L10050
  2184                        L131:
  2185 00:0939: 38           	sec
  2186 00:093A: A5 11        	lda	<L93+kwlength_1
  2187 00:093C: E5 0F        	sbc	<L93+count_1
  2188 00:093E: 70 03        	bvs	L132
  2189 00:0940: 49 00 80     	eor	#$8000
  2190                        L132:
  Sun Jan  9 2022 20:52                                                Page 47


  2191 00:0943: 10 03        	bpl	L133
  2192 00:0945: 82 33 00     	brl	L10050
  2193                        L133:
  2194 00:0948: A5 11        	lda	<L93+kwlength_1
  2195 00:094A: 85 0F        	sta	<L93+count_1
  2196 00:094C: A5 0D        	lda	<L93+n_1
  2197 00:094E: A2 0E 00     	ldx	#<$e
  2198                        	xref	~~~mul
  2199 00:0951: 22 xx xx xx  	jsl	~~~mul
  2200 00:0955: 85 01        	sta	<R0
  2201 00:0957: 38           	sec
  2202 00:0958: A5 11        	lda	<L93+kwlength_1
  2203 00:095A: A6 01        	ldx	<R0
  2204 00:095C: FD xx xx     	sbc	|~~tokens+6,X
  2205 00:095F: 70 03        	bvs	L134
  2206 00:0961: 49 00 80     	eor	#$8000
  2207                        L134:
  2208 00:0964: 10 03        	bpl	L135
  2209 00:0966: 82 12 00     	brl	L10051
  2210                        L135:
  2211 00:0969: A5 0D        	lda	<L93+n_1
  2212 00:096B: A2 0E 00     	ldx	#<$e
  2213                        	xref	~~~mul
  2214 00:096E: 22 xx xx xx  	jsl	~~~mul
  2215 00:0972: 85 01        	sta	<R0
  2216 00:0974: A6 01        	ldx	<R0
  2217 00:0976: BD xx xx     	lda	|~~tokens+6,X
  2218 00:0979: 85 0F        	sta	<L93+count_1
  2219                        L10051:
  2220                        L10050:
  2221 00:097B: A0 00 00     	ldy	#$0
  2222 00:097E: A5 0F        	lda	<L93+count_1
  2223 00:0980: 10 01        	bpl	L136
  2224 00:0982: 88           	dey
  2225                        L136:
  2226 00:0983: 85 01        	sta	<R0
  2227 00:0985: 84 03        	sty	<R0+2
  2228 00:0987: D4 03        	pei	<R0+2
  2229 00:0989: D4 01        	pei	<R0
  2230 00:098B: A5 0D        	lda	<L93+n_1
  2231 00:098D: A2 0E 00     	ldx	#<$e
  2232                        	xref	~~~mul
  2233 00:0990: 22 xx xx xx  	jsl	~~~mul
  2234 00:0994: 85 05        	sta	<R1
  2235 00:0996: 18           	clc
  2236 00:0997: A9 xx xx     	lda	#<~~tokens
  2237 00:099A: 65 05        	adc	<R1
  2238 00:099C: 85 09        	sta	<R2
  2239 00:099E: A0 02 00     	ldy	#$2
  2240 00:09A1: B1 09        	lda	(<R2),Y
  2241 00:09A3: 48           	pha
  2242 00:09A4: B2 09        	lda	(<R2)
  2243 00:09A6: 48           	pha
  2244 00:09A7: F4 00 00     	pea	#0
  2245 00:09AA: 18           	clc
  2246 00:09AB: 7B           	tdc
  2247 00:09AC: 69 1A 00     	adc	#<L93+keyword_1
  2248 00:09AF: 48           	pha
  Sun Jan  9 2022 20:52                                                Page 48


  2249 00:09B0: 22 xx xx xx  	jsl	~~strncmp
  2250 00:09B4: AA           	tax
  2251 00:09B5: D0 03        	bne	L137
  2252 00:09B7: 82 2D 00     	brl	L10048
  2253                        L137:
  2254 00:09BA: E6 0D        	inc	<L93+n_1
  2255                        L10047:
  2256 00:09BC: A5 0D        	lda	<L93+n_1
  2257 00:09BE: A2 0E 00     	ldx	#<$e
  2258                        	xref	~~~mul
  2259 00:09C1: 22 xx xx xx  	jsl	~~~mul
  2260 00:09C5: 85 01        	sta	<R0
  2261 00:09C7: 18           	clc
  2262 00:09C8: A9 xx xx     	lda	#<~~tokens
  2263 00:09CB: 65 01        	adc	<R0
  2264 00:09CD: 85 05        	sta	<R1
  2265 00:09CF: B2 05        	lda	(<R1)
  2266 00:09D1: 85 01        	sta	<R0
  2267 00:09D3: A0 02 00     	ldy	#$2
  2268 00:09D6: B1 05        	lda	(<R1),Y
  2269 00:09D8: 85 03        	sta	<R0+2
  2270 00:09DA: E2 20        	sep	#$20
  2271                        	longa	off
  2272 00:09DC: A7 01        	lda	[<R0]
  2273 00:09DE: C5 13        	cmp	<L93+first_1
  2274 00:09E0: C2 20        	rep	#$20
  2275                        	longa	on
  2276 00:09E2: D0 03        	bne	L138
  2277 00:09E4: 82 36 FF     	brl	L10049
  2278                        L138:
  2279                        L10048:
  2280 00:09E7: 64 01        	stz	<R0
  2281 00:09E9: A5 0D        	lda	<L93+n_1
  2282 00:09EB: A2 0E 00     	ldx	#<$e
  2283                        	xref	~~~mul
  2284 00:09EE: 22 xx xx xx  	jsl	~~~mul
  2285 00:09F2: 85 05        	sta	<R1
  2286 00:09F4: 18           	clc
  2287 00:09F5: A9 xx xx     	lda	#<~~tokens
  2288 00:09F8: 65 05        	adc	<R1
  2289 00:09FA: 85 09        	sta	<R2
  2290 00:09FC: B2 09        	lda	(<R2)
  2291 00:09FE: 85 05        	sta	<R1
  2292 00:0A00: A0 02 00     	ldy	#$2
  2293 00:0A03: B1 09        	lda	(<R2),Y
  2294 00:0A05: 85 07        	sta	<R1+2
  2295 00:0A07: E2 20        	sep	#$20
  2296                        	longa	off
  2297 00:0A09: A7 05        	lda	[<R1]
  2298 00:0A0B: C5 13        	cmp	<L93+first_1
  2299 00:0A0D: C2 20        	rep	#$20
  2300                        	longa	on
  2301 00:0A0F: D0 03        	bne	L140
  2302 00:0A11: 82 02 00     	brl	L139
  2303                        L140:
  2304 00:0A14: E6 01        	inc	<R0
  2305                        L139:
  2306 00:0A16: E2 20        	sep	#$20
  Sun Jan  9 2022 20:52                                                Page 49


  2307                        	longa	off
  2308 00:0A18: A5 01        	lda	<R0
  2309 00:0A1A: 85 18        	sta	<L93+nomatch_1
  2310 00:0A1C: C2 20        	rep	#$20
  2311                        	longa	on
  2312 00:0A1E: A5 18        	lda	<L93+nomatch_1
  2313 00:0A20: 29 FF 00     	and	#$ff
  2314 00:0A23: F0 03        	beq	L141
  2315 00:0A25: 82 33 00     	brl	L10052
  2316                        L141:
  2317 00:0A28: A5 19        	lda	<L93+abbreviated_1
  2318 00:0A2A: 29 FF 00     	and	#$ff
  2319 00:0A2D: D0 03        	bne	L142
  2320 00:0A2F: 82 29 00     	brl	L10052
  2321                        L142:
  2322 00:0A32: 64 01        	stz	<R0
  2323 00:0A34: A5 0D        	lda	<L93+n_1
  2324 00:0A36: A2 0E 00     	ldx	#<$e
  2325                        	xref	~~~mul
  2326 00:0A39: 22 xx xx xx  	jsl	~~~mul
  2327 00:0A3D: 85 05        	sta	<R1
  2328 00:0A3F: 38           	sec
  2329 00:0A40: A5 11        	lda	<L93+kwlength_1
  2330 00:0A42: A6 05        	ldx	<R1
  2331 00:0A44: FD xx xx     	sbc	|~~tokens+4,X
  2332 00:0A47: 70 03        	bvs	L144
  2333 00:0A49: 49 00 80     	eor	#$8000
  2334                        L144:
  2335 00:0A4C: 10 03        	bpl	L145
  2336 00:0A4E: 82 02 00     	brl	L143
  2337                        L145:
  2338 00:0A51: E6 01        	inc	<R0
  2339                        L143:
  2340 00:0A53: E2 20        	sep	#$20
  2341                        	longa	off
  2342 00:0A55: A5 01        	lda	<R0
  2343 00:0A57: 85 19        	sta	<L93+abbreviated_1
  2344 00:0A59: C2 20        	rep	#$20
  2345                        	longa	on
  2346                        L10052:
  2347                        L10039:
  2348 00:0A5B: A5 18        	lda	<L93+nomatch_1
  2349 00:0A5D: 29 FF 00     	and	#$ff
  2350 00:0A60: F0 03        	beq	L147
  2351 00:0A62: 82 33 00     	brl	L146
  2352                        L147:
  2353 00:0A65: A5 19        	lda	<L93+abbreviated_1
  2354 00:0A67: 29 FF 00     	and	#$ff
  2355 00:0A6A: F0 03        	beq	L148
  2356 00:0A6C: 82 2F 00     	brl	L10053
  2357                        L148:
  2358 00:0A6F: A5 0D        	lda	<L93+n_1
  2359 00:0A71: A2 0E 00     	ldx	#<$e
  2360                        	xref	~~~mul
  2361 00:0A74: 22 xx xx xx  	jsl	~~~mul
  2362 00:0A78: 85 01        	sta	<R0
  2363 00:0A7A: A6 01        	ldx	<R0
  2364 00:0A7C: BD xx xx     	lda	|~~tokens+12,X
  Sun Jan  9 2022 20:52                                                Page 50


  2365 00:0A7F: 29 FF 00     	and	#$ff
  2366 00:0A82: D0 03        	bne	L149
  2367 00:0A84: 82 17 00     	brl	L10053
  2368                        L149:
  2369 00:0A87: A6 0F        	ldx	<L93+count_1
  2370 00:0A89: B5 1A        	lda	<L93+keyword_1,X
  2371 00:0A8B: 48           	pha
  2372 00:0A8C: 22 xx xx xx  	jsl	~~isidchar
  2373 00:0A90: 29 FF 00     	and	#$ff
  2374 00:0A93: D0 03        	bne	L150
  2375 00:0A95: 82 06 00     	brl	L10053
  2376                        L150:
  2377                        L146:
  2378 00:0A98: A9 FF 00     	lda	#$ff
  2379 00:0A9B: 82 5B FC     	brl	L107
  2380                        L10053:
  2381 00:0A9E: A0 00 00     	ldy	#$0
  2382 00:0AA1: A5 0F        	lda	<L93+count_1
  2383 00:0AA3: 10 01        	bpl	L151
  2384 00:0AA5: 88           	dey
  2385                        L151:
  2386 00:0AA6: 85 01        	sta	<R0
  2387 00:0AA8: 84 03        	sty	<R0+2
  2388 00:0AAA: 18           	clc
  2389 00:0AAB: AD xx xx     	lda	|~~lp
  2390 00:0AAE: 65 01        	adc	<R0
  2391 00:0AB0: 8D xx xx     	sta	|~~lp
  2392 00:0AB3: AD xx xx     	lda	|~~lp+2
  2393 00:0AB6: 65 03        	adc	<R0+2
  2394 00:0AB8: 8D xx xx     	sta	|~~lp+2
  2395 00:0ABB: A5 19        	lda	<L93+abbreviated_1
  2396 00:0ABD: 29 FF 00     	and	#$ff
  2397 00:0AC0: D0 03        	bne	L152
  2398 00:0AC2: 82 1F 00     	brl	L10054
  2399                        L152:
  2400 00:0AC5: AD xx xx     	lda	|~~lp
  2401 00:0AC8: 85 01        	sta	<R0
  2402 00:0ACA: AD xx xx     	lda	|~~lp+2
  2403 00:0ACD: 85 03        	sta	<R0+2
  2404 00:0ACF: E2 20        	sep	#$20
  2405                        	longa	off
  2406 00:0AD1: A7 01        	lda	[<R0]
  2407 00:0AD3: C9 2E        	cmp	#<$2e
  2408 00:0AD5: C2 20        	rep	#$20
  2409                        	longa	on
  2410 00:0AD7: F0 03        	beq	L153
  2411 00:0AD9: 82 08 00     	brl	L10054
  2412                        L153:
  2413 00:0ADC: EE xx xx     	inc	|~~lp
  2414 00:0ADF: D0 03        	bne	L154
  2415 00:0AE1: EE xx xx     	inc	|~~lp+2
  2416                        L154:
  2417                        L10054:
  2418 00:0AE4: A5 0D        	lda	<L93+n_1
  2419 00:0AE6: 82 10 FC     	brl	L107
  2420             00000024   L92	equ	36
  2421             0000000D   L93	equ	13
  2422                        	ends
  Sun Jan  9 2022 20:52                                                Page 51


  2423                        	efunc
  2424                        	code
  2425                        	func
  2426                        ~~copy_keyword:
  2427                        	longa	on
  2428                        	longi	on
  2429 00:0AE9: 3B           	tsc
  2430 00:0AEA: 38           	sec
  2431 00:0AEB: E9 12 00     	sbc	#L155
  2432 00:0AEE: 1B           	tcs
  2433 00:0AEF: 0B           	phd
  2434 00:0AF0: 5B           	tcd
  2435             00000004   token_0	set	4
  2436             00000000   toktype_1	set	0
  2437             00000001   tokvalue_1	set	1
  2438 00:0AF1: AD xx xx     	lda	|~~firstitem
  2439 00:0AF4: 29 FF 00     	and	#$ff
  2440 00:0AF7: D0 03        	bne	L157
  2441 00:0AF9: 82 59 00     	brl	L10055
  2442                        L157:
  2443 00:0AFC: A5 16        	lda	<L155+token_0
  2444 00:0AFE: A2 0E 00     	ldx	#<$e
  2445                        	xref	~~~mul
  2446 00:0B01: 22 xx xx xx  	jsl	~~~mul
  2447 00:0B05: 85 01        	sta	<R0
  2448 00:0B07: E2 20        	sep	#$20
  2449                        	longa	off
  2450 00:0B09: A6 01        	ldx	<R0
  2451 00:0B0B: BD xx xx     	lda	|~~tokens+8,X
  2452 00:0B0E: 85 11        	sta	<L156+toktype_1
  2453 00:0B10: C2 20        	rep	#$20
  2454                        	longa	on
  2455 00:0B12: A5 16        	lda	<L155+token_0
  2456 00:0B14: A2 0E 00     	ldx	#<$e
  2457                        	xref	~~~mul
  2458 00:0B17: 22 xx xx xx  	jsl	~~~mul
  2459 00:0B1B: 85 01        	sta	<R0
  2460 00:0B1D: E2 20        	sep	#$20
  2461                        	longa	off
  2462 00:0B1F: A6 01        	ldx	<R0
  2463 00:0B21: BD xx xx     	lda	|~~tokens+9,X
  2464 00:0B24: 85 12        	sta	<L156+tokvalue_1
  2465 00:0B26: C2 20        	rep	#$20
  2466                        	longa	on
  2467 00:0B28: AD xx xx     	lda	|~~linestart
  2468 00:0B2B: 29 FF 00     	and	#$ff
  2469 00:0B2E: D0 03        	bne	L158
  2470 00:0B30: 82 1F 00     	brl	L10056
  2471                        L158:
  2472 00:0B33: A5 11        	lda	<L156+toktype_1
  2473 00:0B35: 29 FF 00     	and	#$ff
  2474 00:0B38: F0 03        	beq	L159
  2475 00:0B3A: 82 15 00     	brl	L10056
  2476                        L159:
  2477 00:0B3D: E2 20        	sep	#$20
  2478                        	longa	off
  2479 00:0B3F: A5 12        	lda	<L156+tokvalue_1
  2480 00:0B41: C9 9F        	cmp	#<$9f
  Sun Jan  9 2022 20:52                                                Page 52


  2481 00:0B43: C2 20        	rep	#$20
  2482                        	longa	on
  2483 00:0B45: F0 03        	beq	L160
  2484 00:0B47: 82 08 00     	brl	L10056
  2485                        L160:
  2486 00:0B4A: E2 20        	sep	#$20
  2487                        	longa	off
  2488 00:0B4C: A9 A1        	lda	#$a1
  2489 00:0B4E: 85 12        	sta	<L156+tokvalue_1
  2490 00:0B50: C2 20        	rep	#$20
  2491                        	longa	on
  2492                        L10056:
  2493 00:0B52: 82 2C 00     	brl	L10057
  2494                        L10055:
  2495 00:0B55: A5 16        	lda	<L155+token_0
  2496 00:0B57: A2 0E 00     	ldx	#<$e
  2497                        	xref	~~~mul
  2498 00:0B5A: 22 xx xx xx  	jsl	~~~mul
  2499 00:0B5E: 85 01        	sta	<R0
  2500 00:0B60: E2 20        	sep	#$20
  2501                        	longa	off
  2502 00:0B62: A6 01        	ldx	<R0
  2503 00:0B64: BD xx xx     	lda	|~~tokens+10,X
  2504 00:0B67: 85 11        	sta	<L156+toktype_1
  2505 00:0B69: C2 20        	rep	#$20
  2506                        	longa	on
  2507 00:0B6B: A5 16        	lda	<L155+token_0
  2508 00:0B6D: A2 0E 00     	ldx	#<$e
  2509                        	xref	~~~mul
  2510 00:0B70: 22 xx xx xx  	jsl	~~~mul
  2511 00:0B74: 85 01        	sta	<R0
  2512 00:0B76: E2 20        	sep	#$20
  2513                        	longa	off
  2514 00:0B78: A6 01        	ldx	<R0
  2515 00:0B7A: BD xx xx     	lda	|~~tokens+11,X
  2516 00:0B7D: 85 12        	sta	<L156+tokvalue_1
  2517 00:0B7F: C2 20        	rep	#$20
  2518                        	longa	on
  2519                        L10057:
  2520 00:0B81: E2 20        	sep	#$20
  2521                        	longa	off
  2522 00:0B83: 9C xx xx     	stz	|~~firstitem
  2523 00:0B86: C2 20        	rep	#$20
  2524                        	longa	on
  2525 00:0B88: A5 11        	lda	<L156+toktype_1
  2526 00:0B8A: 29 FF 00     	and	#$ff
  2527 00:0B8D: F0 03        	beq	L161
  2528 00:0B8F: 82 AB 00     	brl	L10058
  2529                        L161:
  2530 00:0B92: E2 20        	sep	#$20
  2531                        	longa	off
  2532 00:0B94: A5 12        	lda	<L156+tokvalue_1
  2533 00:0B96: C9 9C        	cmp	#<$9c
  2534 00:0B98: C2 20        	rep	#$20
  2535                        	longa	on
  2536 00:0B9A: D0 03        	bne	L163
  2537 00:0B9C: 82 1A 00     	brl	L162
  2538                        L163:
  Sun Jan  9 2022 20:52                                                Page 53


  2539 00:0B9F: E2 20        	sep	#$20
  2540                        	longa	off
  2541 00:0BA1: A5 12        	lda	<L156+tokvalue_1
  2542 00:0BA3: C9 BC        	cmp	#<$bc
  2543 00:0BA5: C2 20        	rep	#$20
  2544                        	longa	on
  2545 00:0BA7: D0 03        	bne	L164
  2546 00:0BA9: 82 0D 00     	brl	L162
  2547                        L164:
  2548 00:0BAC: E2 20        	sep	#$20
  2549                        	longa	off
  2550 00:0BAE: A5 12        	lda	<L156+tokvalue_1
  2551 00:0BB0: C9 C9        	cmp	#<$c9
  2552 00:0BB2: C2 20        	rep	#$20
  2553                        	longa	on
  2554 00:0BB4: F0 03        	beq	L165
  2555 00:0BB6: 82 3C 00     	brl	L10059
  2556                        L165:
  2557                        L162:
  2558 00:0BB9: F4 xx xx     	pea	#^L2
  2559 00:0BBC: F4 xx xx     	pea	#<L2
  2560 00:0BBF: 22 xx xx xx  	jsl	~~nextis
  2561 00:0BC3: 29 FF 00     	and	#$ff
  2562 00:0BC6: D0 03        	bne	L166
  2563 00:0BC8: 82 2A 00     	brl	L10059
  2564                        L166:
  2565 00:0BCB: E2 20        	sep	#$20
  2566                        	longa	off
  2567 00:0BCD: E6 12        	inc	<L156+tokvalue_1
  2568 00:0BCF: C2 20        	rep	#$20
  2569                        	longa	on
  2570 00:0BD1: AD xx xx     	lda	|~~lp+2
  2571 00:0BD4: 48           	pha
  2572 00:0BD5: AD xx xx     	lda	|~~lp
  2573 00:0BD8: 48           	pha
  2574 00:0BD9: 22 xx xx xx  	jsl	~~skip_blanks
  2575 00:0BDD: 85 01        	sta	<R0
  2576 00:0BDF: 86 03        	stx	<R0+2
  2577 00:0BE1: 18           	clc
  2578 00:0BE2: A9 02 00     	lda	#$2
  2579 00:0BE5: 65 01        	adc	<R0
  2580 00:0BE7: 8D xx xx     	sta	|~~lp
  2581 00:0BEA: A9 00 00     	lda	#$0
  2582 00:0BED: 65 03        	adc	<R0+2
  2583 00:0BEF: 8D xx xx     	sta	|~~lp+2
  2584 00:0BF2: 82 48 00     	brl	L10060
  2585                        L10059:
  2586 00:0BF5: E2 20        	sep	#$20
  2587                        	longa	off
  2588 00:0BF7: A5 12        	lda	<L156+tokvalue_1
  2589 00:0BF9: C9 C9        	cmp	#<$c9
  2590 00:0BFB: C2 20        	rep	#$20
  2591                        	longa	on
  2592 00:0BFD: F0 03        	beq	L167
  2593 00:0BFF: 82 3B 00     	brl	L10061
  2594                        L167:
  2595 00:0C02: F4 xx xx     	pea	#^L2+3
  2596 00:0C05: F4 xx xx     	pea	#<L2+3
  Sun Jan  9 2022 20:52                                                Page 54


  2597 00:0C08: 22 xx xx xx  	jsl	~~nextis
  2598 00:0C0C: 29 FF 00     	and	#$ff
  2599 00:0C0F: D0 03        	bne	L168
  2600 00:0C11: 82 29 00     	brl	L10061
  2601                        L168:
  2602 00:0C14: E2 20        	sep	#$20
  2603                        	longa	off
  2604 00:0C16: A9 CB        	lda	#$cb
  2605 00:0C18: 85 12        	sta	<L156+tokvalue_1
  2606 00:0C1A: C2 20        	rep	#$20
  2607                        	longa	on
  2608 00:0C1C: AD xx xx     	lda	|~~lp+2
  2609 00:0C1F: 48           	pha
  2610 00:0C20: AD xx xx     	lda	|~~lp
  2611 00:0C23: 48           	pha
  2612 00:0C24: 22 xx xx xx  	jsl	~~skip_blanks
  2613 00:0C28: 85 01        	sta	<R0
  2614 00:0C2A: 86 03        	stx	<R0+2
  2615 00:0C2C: 18           	clc
  2616 00:0C2D: A9 02 00     	lda	#$2
  2617 00:0C30: 65 01        	adc	<R0
  2618 00:0C32: 8D xx xx     	sta	|~~lp
  2619 00:0C35: A9 00 00     	lda	#$0
  2620 00:0C38: 65 03        	adc	<R0+2
  2621 00:0C3A: 8D xx xx     	sta	|~~lp+2
  2622                        L10061:
  2623                        L10060:
  2624                        L10058:
  2625 00:0C3D: A5 11        	lda	<L156+toktype_1
  2626 00:0C3F: 29 FF 00     	and	#$ff
  2627 00:0C42: D0 03        	bne	L169
  2628 00:0C44: 82 06 00     	brl	L10062
  2629                        L169:
  2630 00:0C47: D4 11        	pei	<L156+toktype_1
  2631 00:0C49: 22 xx xx xx  	jsl	~~store
  2632                        L10062:
  2633 00:0C4D: D4 12        	pei	<L156+tokvalue_1
  2634 00:0C4F: 22 xx xx xx  	jsl	~~store
  2635 00:0C53: A5 16        	lda	<L155+token_0
  2636 00:0C55: A2 0E 00     	ldx	#<$e
  2637                        	xref	~~~mul
  2638 00:0C58: 22 xx xx xx  	jsl	~~~mul
  2639 00:0C5C: 85 01        	sta	<R0
  2640 00:0C5E: 18           	clc
  2641 00:0C5F: A9 xx xx     	lda	#<~~tokens
  2642 00:0C62: 65 01        	adc	<R0
  2643 00:0C64: 85 05        	sta	<R1
  2644 00:0C66: A5 16        	lda	<L155+token_0
  2645 00:0C68: A2 0E 00     	ldx	#<$e
  2646                        	xref	~~~mul
  2647 00:0C6B: 22 xx xx xx  	jsl	~~~mul
  2648 00:0C6F: 85 01        	sta	<R0
  2649 00:0C71: 18           	clc
  2650 00:0C72: A9 FF FF     	lda	#$ffff
  2651 00:0C75: A6 01        	ldx	<R0
  2652 00:0C77: 7D xx xx     	adc	|~~tokens+4,X
  2653 00:0C7A: 85 09        	sta	<R2
  2654 00:0C7C: B2 05        	lda	(<R1)
  Sun Jan  9 2022 20:52                                                Page 55


  2655 00:0C7E: 85 0D        	sta	<R3
  2656 00:0C80: A0 02 00     	ldy	#$2
  2657 00:0C83: B1 05        	lda	(<R1),Y
  2658 00:0C85: 85 0F        	sta	<R3+2
  2659 00:0C87: E2 20        	sep	#$20
  2660                        	longa	off
  2661 00:0C89: A4 09        	ldy	<R2
  2662 00:0C8B: B7 0D        	lda	[<R3],Y
  2663 00:0C8D: C9 28        	cmp	#<$28
  2664 00:0C8F: C2 20        	rep	#$20
  2665                        	longa	on
  2666 00:0C91: F0 03        	beq	L170
  2667 00:0C93: 82 03 00     	brl	L10063
  2668                        L170:
  2669 00:0C96: EE xx xx     	inc	|~~brackets
  2670                        L10063:
  2671 00:0C99: A5 11        	lda	<L156+toktype_1
  2672 00:0C9B: 29 FF 00     	and	#$ff
  2673 00:0C9E: F0 03        	beq	L171
  2674 00:0CA0: 82 8C 00     	brl	L10064
  2675                        L171:
  2676 00:0CA3: A5 12        	lda	<L156+tokvalue_1
  2677 00:0CA5: 29 FF 00     	and	#$ff
  2678 00:0CA8: 82 59 00     	brl	L10065
  2679                        L10067:
  2680                        L10068:
  2681 00:0CAB: AD xx xx     	lda	|~~lp+2
  2682 00:0CAE: 48           	pha
  2683 00:0CAF: AD xx xx     	lda	|~~lp
  2684 00:0CB2: 48           	pha
  2685 00:0CB3: 22 xx xx xx  	jsl	~~copy_line
  2686 00:0CB7: 8D xx xx     	sta	|~~lp
  2687 00:0CBA: 8E xx xx     	stx	|~~lp+2
  2688 00:0CBD: 82 6C 00     	brl	L10066
  2689                        L10069:
  2690                        L10070:
  2691                        L10071:
  2692                        L10072:
  2693 00:0CC0: E2 20        	sep	#$20
  2694                        	longa	off
  2695 00:0CC2: A9 01        	lda	#$1
  2696 00:0CC4: 8D xx xx     	sta	|~~firstitem
  2697 00:0CC7: C2 20        	rep	#$20
  2698                        	longa	on
  2699 00:0CC9: 82 60 00     	brl	L10066
  2700                        L10073:
  2701                        L10074:
  2702                        L10075:
  2703 00:0CCC: AD xx xx     	lda	|~~lp
  2704 00:0CCF: 85 01        	sta	<R0
  2705 00:0CD1: AD xx xx     	lda	|~~lp+2
  2706 00:0CD4: 85 03        	sta	<R0+2
  2707 00:0CD6: A7 01        	lda	[<R0]
  2708 00:0CD8: 48           	pha
  2709 00:0CD9: 22 xx xx xx  	jsl	~~isidchar
  2710 00:0CDD: 29 FF 00     	and	#$ff
  2711 00:0CE0: D0 03        	bne	L172
  2712 00:0CE2: 82 1C 00     	brl	L10076
  Sun Jan  9 2022 20:52                                                Page 56


  2713                        L172:
  2714 00:0CE5: AD xx xx     	lda	|~~lp
  2715 00:0CE8: 85 01        	sta	<R0
  2716 00:0CEA: AD xx xx     	lda	|~~lp+2
  2717 00:0CED: 85 03        	sta	<R0+2
  2718 00:0CEF: A7 01        	lda	[<R0]
  2719 00:0CF1: 48           	pha
  2720 00:0CF2: 22 xx xx xx  	jsl	~~store
  2721 00:0CF6: EE xx xx     	inc	|~~lp
  2722 00:0CF9: D0 03        	bne	L173
  2723 00:0CFB: EE xx xx     	inc	|~~lp+2
  2724                        L173:
  2725 00:0CFE: 82 CB FF     	brl	L10075
  2726                        L10076:
  2727 00:0D01: 82 28 00     	brl	L10066
  2728                        L10065:
  2729                        	xref	~~~swt
  2730 00:0D04: 22 xx xx xx  	jsl	~~~swt
  2731 00:0D08: 08 00        	dw	8
  2732 00:0D0A: 99 00        	dw	153
  2733 00:0D0C: xx xx        	dw	L10068-1
  2734 00:0D0E: 9F 00        	dw	159
  2735 00:0D10: xx xx        	dw	L10071-1
  2736 00:0D12: AD 00        	dw	173
  2737 00:0D14: xx xx        	dw	L10073-1
  2738 00:0D16: C5 00        	dw	197
  2739 00:0D18: xx xx        	dw	L10072-1
  2740 00:0D1A: CD 00        	dw	205
  2741 00:0D1C: xx xx        	dw	L10074-1
  2742 00:0D1E: D1 00        	dw	209
  2743 00:0D20: xx xx        	dw	L10067-1
  2744 00:0D22: D2 00        	dw	210
  2745 00:0D24: xx xx        	dw	L10070-1
  2746 00:0D26: DF 00        	dw	223
  2747 00:0D28: xx xx        	dw	L10069-1
  2748 00:0D2A: xx xx        	dw	L10066-1
  2749                        L10066:
  2750 00:0D2C: 82 39 00     	brl	L10077
  2751                        L10064:
  2752 00:0D2F: E2 20        	sep	#$20
  2753                        	longa	off
  2754 00:0D31: A5 11        	lda	<L156+toktype_1
  2755 00:0D33: C9 FC        	cmp	#<$fc
  2756 00:0D35: C2 20        	rep	#$20
  2757                        	longa	on
  2758 00:0D37: F0 03        	beq	L174
  2759 00:0D39: 82 2C 00     	brl	L10078
  2760                        L174:
  2761 00:0D3C: E2 20        	sep	#$20
  2762                        	longa	off
  2763 00:0D3E: A5 12        	lda	<L156+tokvalue_1
  2764 00:0D40: C9 0B        	cmp	#<$b
  2765 00:0D42: C2 20        	rep	#$20
  2766                        	longa	on
  2767 00:0D44: D0 03        	bne	L176
  2768 00:0D46: 82 0D 00     	brl	L175
  2769                        L176:
  2770 00:0D49: E2 20        	sep	#$20
  Sun Jan  9 2022 20:52                                                Page 57


  2771                        	longa	off
  2772 00:0D4B: A5 12        	lda	<L156+tokvalue_1
  2773 00:0D4D: C9 10        	cmp	#<$10
  2774 00:0D4F: C2 20        	rep	#$20
  2775                        	longa	on
  2776 00:0D51: F0 03        	beq	L177
  2777 00:0D53: 82 12 00     	brl	L10079
  2778                        L177:
  2779                        L175:
  2780 00:0D56: AD xx xx     	lda	|~~lp+2
  2781 00:0D59: 48           	pha
  2782 00:0D5A: AD xx xx     	lda	|~~lp
  2783 00:0D5D: 48           	pha
  2784 00:0D5E: 22 xx xx xx  	jsl	~~copy_line
  2785 00:0D62: 8D xx xx     	sta	|~~lp
  2786 00:0D65: 8E xx xx     	stx	|~~lp+2
  2787                        L10079:
  2788                        L10078:
  2789                        L10077:
  2790                        L178:
  2791 00:0D68: A5 14        	lda	<L155+2
  2792 00:0D6A: 85 16        	sta	<L155+2+2
  2793 00:0D6C: A5 13        	lda	<L155+1
  2794 00:0D6E: 85 15        	sta	<L155+1+2
  2795 00:0D70: 2B           	pld
  2796 00:0D71: 3B           	tsc
  2797 00:0D72: 18           	clc
  2798 00:0D73: 69 14 00     	adc	#L155+2
  2799 00:0D76: 1B           	tcs
  2800 00:0D77: 6B           	rtl
  2801             00000012   L155	equ	18
  2802             00000011   L156	equ	17
  2803                        	ends
  2804                        	efunc
  2805                        	data
  2806                        L2:
  2807 00:0E5E: 42 59 00 54  	db	$42,$59,$00,$54,$4F,$00
       00:0E62: 4F 00 
  2808 00:0E64:              	ends
  2809                        	code
  2810                        	func
  2811                        ~~copy_token:
  2812                        	longa	on
  2813                        	longi	on
  2814 00:0D78: 3B           	tsc
  2815 00:0D79: 38           	sec
  2816 00:0D7A: E9 0C 00     	sbc	#L180
  2817 00:0D7D: 1B           	tcs
  2818 00:0D7E: 0B           	phd
  2819 00:0D7F: 5B           	tcd
  2820             00000000   n_1	set	0
  2821             00000002   toktype_1	set	2
  2822             00000003   tokvalue_1	set	3
  2823 00:0D80: E2 20        	sep	#$20
  2824                        	longa	off
  2825 00:0D82: 64 0B        	stz	<L181+toktype_1
  2826 00:0D84: C2 20        	rep	#$20
  2827                        	longa	on
  Sun Jan  9 2022 20:52                                                Page 58


  2828 00:0D86: AD xx xx     	lda	|~~lp
  2829 00:0D89: 85 01        	sta	<R0
  2830 00:0D8B: AD xx xx     	lda	|~~lp+2
  2831 00:0D8E: 85 03        	sta	<R0+2
  2832 00:0D90: E2 20        	sep	#$20
  2833                        	longa	off
  2834 00:0D92: A7 01        	lda	[<R0]
  2835 00:0D94: 85 0C        	sta	<L181+tokvalue_1
  2836 00:0D96: C2 20        	rep	#$20
  2837                        	longa	on
  2838 00:0D98: E2 20        	sep	#$20
  2839                        	longa	off
  2840 00:0D9A: A5 0C        	lda	<L181+tokvalue_1
  2841 00:0D9C: C9 FC        	cmp	#<$fc
  2842 00:0D9E: C2 20        	rep	#$20
  2843                        	longa	on
  2844 00:0DA0: B0 03        	bcs	L182
  2845 00:0DA2: 82 22 00     	brl	L10080
  2846                        L182:
  2847 00:0DA5: E2 20        	sep	#$20
  2848                        	longa	off
  2849 00:0DA7: A5 0C        	lda	<L181+tokvalue_1
  2850 00:0DA9: 85 0B        	sta	<L181+toktype_1
  2851 00:0DAB: C2 20        	rep	#$20
  2852                        	longa	on
  2853 00:0DAD: EE xx xx     	inc	|~~lp
  2854 00:0DB0: D0 03        	bne	L183
  2855 00:0DB2: EE xx xx     	inc	|~~lp+2
  2856                        L183:
  2857 00:0DB5: AD xx xx     	lda	|~~lp
  2858 00:0DB8: 85 01        	sta	<R0
  2859 00:0DBA: AD xx xx     	lda	|~~lp+2
  2860 00:0DBD: 85 03        	sta	<R0+2
  2861 00:0DBF: E2 20        	sep	#$20
  2862                        	longa	off
  2863 00:0DC1: A7 01        	lda	[<R0]
  2864 00:0DC3: 85 0C        	sta	<L181+tokvalue_1
  2865 00:0DC5: C2 20        	rep	#$20
  2866                        	longa	on
  2867                        L10080:
  2868 00:0DC7: EE xx xx     	inc	|~~lp
  2869 00:0DCA: D0 03        	bne	L184
  2870 00:0DCC: EE xx xx     	inc	|~~lp+2
  2871                        L184:
  2872 00:0DCF: AD xx xx     	lda	|~~firstitem
  2873 00:0DD2: 29 FF 00     	and	#$ff
  2874 00:0DD5: D0 03        	bne	L185
  2875 00:0DD7: 82 4A 00     	brl	L10081
  2876                        L185:
  2877 00:0DDA: 64 09        	stz	<L181+n_1
  2878 00:0DDC: 82 38 00     	brl	L10085
  2879                        L10084:
  2880 00:0DDF: A5 09        	lda	<L181+n_1
  2881 00:0DE1: A2 0E 00     	ldx	#<$e
  2882                        	xref	~~~mul
  2883 00:0DE4: 22 xx xx xx  	jsl	~~~mul
  2884 00:0DE8: 85 01        	sta	<R0
  2885 00:0DEA: E2 20        	sep	#$20
  Sun Jan  9 2022 20:52                                                Page 59


  2886                        	longa	off
  2887 00:0DEC: A6 01        	ldx	<R0
  2888 00:0DEE: BD xx xx     	lda	|~~tokens+8,X
  2889 00:0DF1: C5 0B        	cmp	<L181+toktype_1
  2890 00:0DF3: C2 20        	rep	#$20
  2891                        	longa	on
  2892 00:0DF5: F0 03        	beq	L187
  2893 00:0DF7: 82 1B 00     	brl	L186
  2894                        L187:
  2895 00:0DFA: A5 09        	lda	<L181+n_1
  2896 00:0DFC: A2 0E 00     	ldx	#<$e
  2897                        	xref	~~~mul
  2898 00:0DFF: 22 xx xx xx  	jsl	~~~mul
  2899 00:0E03: 85 05        	sta	<R1
  2900 00:0E05: E2 20        	sep	#$20
  2901                        	longa	off
  2902 00:0E07: A6 05        	ldx	<R1
  2903 00:0E09: BD xx xx     	lda	|~~tokens+9,X
  2904 00:0E0C: C5 0C        	cmp	<L181+tokvalue_1
  2905 00:0E0E: C2 20        	rep	#$20
  2906                        	longa	on
  2907 00:0E10: D0 03        	bne	L188
  2908 00:0E12: 82 0C 00     	brl	L10083
  2909                        L188:
  2910                        L186:
  2911                        L10082:
  2912 00:0E15: E6 09        	inc	<L181+n_1
  2913                        L10085:
  2914 00:0E17: A5 09        	lda	<L181+n_1
  2915 00:0E19: C9 B7 00     	cmp	#<$b7
  2916 00:0E1C: B0 03        	bcs	L189
  2917 00:0E1E: 82 BE FF     	brl	L10084
  2918                        L189:
  2919                        L10083:
  2920 00:0E21: 82 47 00     	brl	L10086
  2921                        L10081:
  2922 00:0E24: 64 09        	stz	<L181+n_1
  2923 00:0E26: 82 38 00     	brl	L10090
  2924                        L10089:
  2925 00:0E29: A5 09        	lda	<L181+n_1
  2926 00:0E2B: A2 0E 00     	ldx	#<$e
  2927                        	xref	~~~mul
  2928 00:0E2E: 22 xx xx xx  	jsl	~~~mul
  2929 00:0E32: 85 01        	sta	<R0
  2930 00:0E34: E2 20        	sep	#$20
  2931                        	longa	off
  2932 00:0E36: A6 01        	ldx	<R0
  2933 00:0E38: BD xx xx     	lda	|~~tokens+10,X
  2934 00:0E3B: C5 0B        	cmp	<L181+toktype_1
  2935 00:0E3D: C2 20        	rep	#$20
  2936                        	longa	on
  2937 00:0E3F: F0 03        	beq	L191
  2938 00:0E41: 82 1B 00     	brl	L190
  2939                        L191:
  2940 00:0E44: A5 09        	lda	<L181+n_1
  2941 00:0E46: A2 0E 00     	ldx	#<$e
  2942                        	xref	~~~mul
  2943 00:0E49: 22 xx xx xx  	jsl	~~~mul
  Sun Jan  9 2022 20:52                                                Page 60


  2944 00:0E4D: 85 05        	sta	<R1
  2945 00:0E4F: E2 20        	sep	#$20
  2946                        	longa	off
  2947 00:0E51: A6 05        	ldx	<R1
  2948 00:0E53: BD xx xx     	lda	|~~tokens+11,X
  2949 00:0E56: C5 0C        	cmp	<L181+tokvalue_1
  2950 00:0E58: C2 20        	rep	#$20
  2951                        	longa	on
  2952 00:0E5A: D0 03        	bne	L192
  2953 00:0E5C: 82 0C 00     	brl	L10088
  2954                        L192:
  2955                        L190:
  2956                        L10087:
  2957 00:0E5F: E6 09        	inc	<L181+n_1
  2958                        L10090:
  2959 00:0E61: A5 09        	lda	<L181+n_1
  2960 00:0E63: C9 B7 00     	cmp	#<$b7
  2961 00:0E66: B0 03        	bcs	L193
  2962 00:0E68: 82 BE FF     	brl	L10089
  2963                        L193:
  2964                        L10088:
  2965                        L10086:
  2966 00:0E6B: A5 09        	lda	<L181+n_1
  2967 00:0E6D: C9 B7 00     	cmp	#<$b7
  2968 00:0E70: 90 03        	bcc	L194
  2969 00:0E72: 82 09 00     	brl	L10091
  2970                        L194:
  2971 00:0E75: D4 09        	pei	<L181+n_1
  2972 00:0E77: 22 xx xx xx  	jsl	~~copy_keyword
  2973 00:0E7B: 82 10 00     	brl	L10092
  2974                        L10091:
  2975 00:0E7E: A9 05 00     	lda	#$5
  2976 00:0E81: 8D xx xx     	sta	|~~lasterror
  2977 00:0E84: F4 21 00     	pea	#<$21
  2978 00:0E87: F4 04 00     	pea	#4
  2979 00:0E8A: 22 xx xx xx  	jsl	~~error
  2980                        L10092:
  2981                        L195:
  2982 00:0E8E: 2B           	pld
  2983 00:0E8F: 3B           	tsc
  2984 00:0E90: 18           	clc
  2985 00:0E91: 69 0C 00     	adc	#L180
  2986 00:0E94: 1B           	tcs
  2987 00:0E95: 6B           	rtl
  2988             0000000C   L180	equ	12
  2989             00000009   L181	equ	9
  2990                        	ends
  2991                        	efunc
  2992                        	code
  2993                        	func
  2994                        ~~copy_variable:
  2995                        	longa	on
  2996                        	longi	on
  2997 00:0E96: 3B           	tsc
  2998 00:0E97: 38           	sec
  2999 00:0E98: E9 04 00     	sbc	#L196
  3000 00:0E9B: 1B           	tcs
  3001 00:0E9C: 0B           	phd
  Sun Jan  9 2022 20:52                                                Page 61


  3002 00:0E9D: 5B           	tcd
  3003 00:0E9E: AD xx xx     	lda	|~~lp
  3004 00:0EA1: 85 01        	sta	<R0
  3005 00:0EA3: AD xx xx     	lda	|~~lp+2
  3006 00:0EA6: 85 03        	sta	<R0+2
  3007 00:0EA8: E2 20        	sep	#$20
  3008                        	longa	off
  3009 00:0EAA: A7 01        	lda	[<R0]
  3010 00:0EAC: C9 40        	cmp	#<$40
  3011 00:0EAE: C2 20        	rep	#$20
  3012                        	longa	on
  3013 00:0EB0: B0 03        	bcs	L198
  3014 00:0EB2: 82 81 00     	brl	L10093
  3015                        L198:
  3016 00:0EB5: AD xx xx     	lda	|~~lp
  3017 00:0EB8: 85 01        	sta	<R0
  3018 00:0EBA: AD xx xx     	lda	|~~lp+2
  3019 00:0EBD: 85 03        	sta	<R0+2
  3020 00:0EBF: E2 20        	sep	#$20
  3021                        	longa	off
  3022 00:0EC1: A9 5A        	lda	#$5a
  3023 00:0EC3: C7 01        	cmp	[<R0]
  3024 00:0EC5: C2 20        	rep	#$20
  3025                        	longa	on
  3026 00:0EC7: B0 03        	bcs	L199
  3027 00:0EC9: 82 6A 00     	brl	L10093
  3028                        L199:
  3029 00:0ECC: AD xx xx     	lda	|~~lp
  3030 00:0ECF: 85 01        	sta	<R0
  3031 00:0ED1: AD xx xx     	lda	|~~lp+2
  3032 00:0ED4: 85 03        	sta	<R0+2
  3033 00:0ED6: E2 20        	sep	#$20
  3034                        	longa	off
  3035 00:0ED8: A0 01 00     	ldy	#$1
  3036 00:0EDB: B7 01        	lda	[<R0],Y
  3037 00:0EDD: C9 25        	cmp	#<$25
  3038 00:0EDF: C2 20        	rep	#$20
  3039                        	longa	on
  3040 00:0EE1: F0 03        	beq	L200
  3041 00:0EE3: 82 50 00     	brl	L10093
  3042                        L200:
  3043 00:0EE6: AD xx xx     	lda	|~~lp
  3044 00:0EE9: 85 01        	sta	<R0
  3045 00:0EEB: AD xx xx     	lda	|~~lp+2
  3046 00:0EEE: 85 03        	sta	<R0+2
  3047 00:0EF0: E2 20        	sep	#$20
  3048                        	longa	off
  3049 00:0EF2: A0 02 00     	ldy	#$2
  3050 00:0EF5: B7 01        	lda	[<R0],Y
  3051 00:0EF7: C9 28        	cmp	#<$28
  3052 00:0EF9: C2 20        	rep	#$20
  3053                        	longa	on
  3054 00:0EFB: D0 03        	bne	L201
  3055 00:0EFD: 82 36 00     	brl	L10093
  3056                        L201:
  3057 00:0F00: AD xx xx     	lda	|~~lp
  3058 00:0F03: 85 01        	sta	<R0
  3059 00:0F05: AD xx xx     	lda	|~~lp+2
  Sun Jan  9 2022 20:52                                                Page 62


  3060 00:0F08: 85 03        	sta	<R0+2
  3061 00:0F0A: E2 20        	sep	#$20
  3062                        	longa	off
  3063 00:0F0C: A0 02 00     	ldy	#$2
  3064 00:0F0F: B7 01        	lda	[<R0],Y
  3065 00:0F11: C9 5B        	cmp	#<$5b
  3066 00:0F13: C2 20        	rep	#$20
  3067                        	longa	on
  3068 00:0F15: D0 03        	bne	L202
  3069 00:0F17: 82 1C 00     	brl	L10093
  3070                        L202:
  3071 00:0F1A: AD xx xx     	lda	|~~lp
  3072 00:0F1D: 85 01        	sta	<R0
  3073 00:0F1F: AD xx xx     	lda	|~~lp+2
  3074 00:0F22: 85 03        	sta	<R0+2
  3075 00:0F24: A7 01        	lda	[<R0]
  3076 00:0F26: 48           	pha
  3077 00:0F27: 22 xx xx xx  	jsl	~~store
  3078 00:0F2B: EE xx xx     	inc	|~~lp
  3079 00:0F2E: D0 03        	bne	L203
  3080 00:0F30: EE xx xx     	inc	|~~lp+2
  3081                        L203:
  3082 00:0F33: 82 3C 00     	brl	L10094
  3083                        L10093:
  3084 00:0F36: F4 01 00     	pea	#<$1
  3085 00:0F39: 22 xx xx xx  	jsl	~~store
  3086                        L10095:
  3087 00:0F3D: AD xx xx     	lda	|~~lp
  3088 00:0F40: 85 01        	sta	<R0
  3089 00:0F42: AD xx xx     	lda	|~~lp+2
  3090 00:0F45: 85 03        	sta	<R0+2
  3091 00:0F47: A7 01        	lda	[<R0]
  3092 00:0F49: 48           	pha
  3093 00:0F4A: 22 xx xx xx  	jsl	~~isidchar
  3094 00:0F4E: 29 FF 00     	and	#$ff
  3095 00:0F51: D0 03        	bne	L204
  3096 00:0F53: 82 1C 00     	brl	L10096
  3097                        L204:
  3098 00:0F56: AD xx xx     	lda	|~~lp
  3099 00:0F59: 85 01        	sta	<R0
  3100 00:0F5B: AD xx xx     	lda	|~~lp+2
  3101 00:0F5E: 85 03        	sta	<R0+2
  3102 00:0F60: A7 01        	lda	[<R0]
  3103 00:0F62: 48           	pha
  3104 00:0F63: 22 xx xx xx  	jsl	~~store
  3105 00:0F67: EE xx xx     	inc	|~~lp
  3106 00:0F6A: D0 03        	bne	L205
  3107 00:0F6C: EE xx xx     	inc	|~~lp+2
  3108                        L205:
  3109 00:0F6F: 82 CB FF     	brl	L10095
  3110                        L10096:
  3111                        L10094:
  3112 00:0F72: AD xx xx     	lda	|~~lp
  3113 00:0F75: 85 01        	sta	<R0
  3114 00:0F77: AD xx xx     	lda	|~~lp+2
  3115 00:0F7A: 85 03        	sta	<R0+2
  3116 00:0F7C: E2 20        	sep	#$20
  3117                        	longa	off
  Sun Jan  9 2022 20:52                                                Page 63


  3118 00:0F7E: A7 01        	lda	[<R0]
  3119 00:0F80: C9 25        	cmp	#<$25
  3120 00:0F82: C2 20        	rep	#$20
  3121                        	longa	on
  3122 00:0F84: D0 03        	bne	L207
  3123 00:0F86: 82 17 00     	brl	L206
  3124                        L207:
  3125 00:0F89: AD xx xx     	lda	|~~lp
  3126 00:0F8C: 85 01        	sta	<R0
  3127 00:0F8E: AD xx xx     	lda	|~~lp+2
  3128 00:0F91: 85 03        	sta	<R0+2
  3129 00:0F93: E2 20        	sep	#$20
  3130                        	longa	off
  3131 00:0F95: A7 01        	lda	[<R0]
  3132 00:0F97: C9 24        	cmp	#<$24
  3133 00:0F99: C2 20        	rep	#$20
  3134                        	longa	on
  3135 00:0F9B: F0 03        	beq	L208
  3136 00:0F9D: 82 19 00     	brl	L10097
  3137                        L208:
  3138                        L206:
  3139 00:0FA0: AD xx xx     	lda	|~~lp
  3140 00:0FA3: 85 01        	sta	<R0
  3141 00:0FA5: AD xx xx     	lda	|~~lp+2
  3142 00:0FA8: 85 03        	sta	<R0+2
  3143 00:0FAA: A7 01        	lda	[<R0]
  3144 00:0FAC: 48           	pha
  3145 00:0FAD: 22 xx xx xx  	jsl	~~store
  3146 00:0FB1: EE xx xx     	inc	|~~lp
  3147 00:0FB4: D0 03        	bne	L209
  3148 00:0FB6: EE xx xx     	inc	|~~lp+2
  3149                        L209:
  3150                        L10097:
  3151                        L210:
  3152 00:0FB9: 2B           	pld
  3153 00:0FBA: 3B           	tsc
  3154 00:0FBB: 18           	clc
  3155 00:0FBC: 69 04 00     	adc	#L196
  3156 00:0FBF: 1B           	tcs
  3157 00:0FC0: 6B           	rtl
  3158             00000004   L196	equ	4
  3159             00000005   L197	equ	5
  3160                        	ends
  3161                        	efunc
  3162                        	code
  3163                        	func
  3164                        ~~copy_lineno:
  3165                        	longa	on
  3166                        	longi	on
  3167 00:0FC1: 3B           	tsc
  3168 00:0FC2: 38           	sec
  3169 00:0FC3: E9 00 00     	sbc	#L211
  3170 00:0FC6: 1B           	tcs
  3171 00:0FC7: 0B           	phd
  3172 00:0FC8: 5B           	tcd
  3173 00:0FC9: F4 1E 00     	pea	#<$1e
  3174 00:0FCC: 22 xx xx xx  	jsl	~~store
  3175 00:0FD0: 22 xx xx xx  	jsl	~~convert_lineno
  Sun Jan  9 2022 20:52                                                Page 64


  3176 00:0FD4: 48           	pha
  3177 00:0FD5: 22 xx xx xx  	jsl	~~store_lineno
  3178                        L213:
  3179 00:0FD9: 2B           	pld
  3180 00:0FDA: 3B           	tsc
  3181 00:0FDB: 18           	clc
  3182 00:0FDC: 69 00 00     	adc	#L211
  3183 00:0FDF: 1B           	tcs
  3184 00:0FE0: 6B           	rtl
  3185             00000000   L211	equ	0
  3186             00000001   L212	equ	1
  3187                        	ends
  3188                        	efunc
  3189                        	code
  3190                        	func
  3191                        ~~copy_number:
  3192                        	longa	on
  3193                        	longi	on
  3194 00:0FE1: 3B           	tsc
  3195 00:0FE2: 38           	sec
  3196 00:0FE3: E9 07 00     	sbc	#L214
  3197 00:0FE6: 1B           	tcs
  3198 00:0FE7: 0B           	phd
  3199 00:0FE8: 5B           	tcd
  3200             00000000   ch_1	set	0
  3201             00000001   digits_1	set	1
  3202 00:0FE9: AD xx xx     	lda	|~~lp
  3203 00:0FEC: 85 01        	sta	<R0
  3204 00:0FEE: AD xx xx     	lda	|~~lp+2
  3205 00:0FF1: 85 03        	sta	<R0+2
  3206 00:0FF3: E2 20        	sep	#$20
  3207                        	longa	off
  3208 00:0FF5: A7 01        	lda	[<R0]
  3209 00:0FF7: 85 05        	sta	<L215+ch_1
  3210 00:0FF9: C2 20        	rep	#$20
  3211                        	longa	on
  3212 00:0FFB: EE xx xx     	inc	|~~lp
  3213 00:0FFE: D0 03        	bne	L216
  3214 00:1000: EE xx xx     	inc	|~~lp+2
  3215                        L216:
  3216 00:1003: D4 05        	pei	<L215+ch_1
  3217 00:1005: 22 xx xx xx  	jsl	~~store
  3218 00:1009: 64 06        	stz	<L215+digits_1
  3219 00:100B: A5 05        	lda	<L215+ch_1
  3220 00:100D: 29 FF 00     	and	#$ff
  3221 00:1010: 82 6C 02     	brl	L10098
  3222                        L10100:
  3223                        L10101:
  3224 00:1013: AD xx xx     	lda	|~~lp
  3225 00:1016: 85 01        	sta	<R0
  3226 00:1018: AD xx xx     	lda	|~~lp+2
  3227 00:101B: 85 03        	sta	<R0+2
  3228 00:101D: A7 01        	lda	[<R0]
  3229 00:101F: 29 FF 00     	and	#$ff
  3230 00:1022: 48           	pha
  3231 00:1023: 22 xx xx xx  	jsl	~~isxdigit
  3232 00:1027: AA           	tax
  3233 00:1028: D0 03        	bne	L217
  Sun Jan  9 2022 20:52                                                Page 65


  3234 00:102A: 82 1E 00     	brl	L10102
  3235                        L217:
  3236 00:102D: AD xx xx     	lda	|~~lp
  3237 00:1030: 85 01        	sta	<R0
  3238 00:1032: AD xx xx     	lda	|~~lp+2
  3239 00:1035: 85 03        	sta	<R0+2
  3240 00:1037: A7 01        	lda	[<R0]
  3241 00:1039: 48           	pha
  3242 00:103A: 22 xx xx xx  	jsl	~~store
  3243 00:103E: EE xx xx     	inc	|~~lp
  3244 00:1041: D0 03        	bne	L218
  3245 00:1043: EE xx xx     	inc	|~~lp+2
  3246                        L218:
  3247 00:1046: E6 06        	inc	<L215+digits_1
  3248 00:1048: 82 C8 FF     	brl	L10101
  3249                        L10102:
  3250 00:104B: A5 06        	lda	<L215+digits_1
  3251 00:104D: F0 03        	beq	L219
  3252 00:104F: 82 10 00     	brl	L10103
  3253                        L219:
  3254 00:1052: A9 05 00     	lda	#$5
  3255 00:1055: 8D xx xx     	sta	|~~lasterror
  3256 00:1058: F4 22 00     	pea	#<$22
  3257 00:105B: F4 04 00     	pea	#4
  3258 00:105E: 22 xx xx xx  	jsl	~~error
  3259                        L10103:
  3260 00:1062: 82 2A 02     	brl	L10099
  3261                        L10104:
  3262                        L10105:
  3263 00:1065: AD xx xx     	lda	|~~lp
  3264 00:1068: 85 01        	sta	<R0
  3265 00:106A: AD xx xx     	lda	|~~lp+2
  3266 00:106D: 85 03        	sta	<R0+2
  3267 00:106F: E2 20        	sep	#$20
  3268                        	longa	off
  3269 00:1071: A7 01        	lda	[<R0]
  3270 00:1073: C9 30        	cmp	#<$30
  3271 00:1075: C2 20        	rep	#$20
  3272                        	longa	on
  3273 00:1077: D0 03        	bne	L221
  3274 00:1079: 82 17 00     	brl	L220
  3275                        L221:
  3276 00:107C: AD xx xx     	lda	|~~lp
  3277 00:107F: 85 01        	sta	<R0
  3278 00:1081: AD xx xx     	lda	|~~lp+2
  3279 00:1084: 85 03        	sta	<R0+2
  3280 00:1086: E2 20        	sep	#$20
  3281                        	longa	off
  3282 00:1088: A7 01        	lda	[<R0]
  3283 00:108A: C9 31        	cmp	#<$31
  3284 00:108C: C2 20        	rep	#$20
  3285                        	longa	on
  3286 00:108E: F0 03        	beq	L222
  3287 00:1090: 82 1E 00     	brl	L10106
  3288                        L222:
  3289                        L220:
  3290 00:1093: AD xx xx     	lda	|~~lp
  3291 00:1096: 85 01        	sta	<R0
  Sun Jan  9 2022 20:52                                                Page 66


  3292 00:1098: AD xx xx     	lda	|~~lp+2
  3293 00:109B: 85 03        	sta	<R0+2
  3294 00:109D: A7 01        	lda	[<R0]
  3295 00:109F: 48           	pha
  3296 00:10A0: 22 xx xx xx  	jsl	~~store
  3297 00:10A4: EE xx xx     	inc	|~~lp
  3298 00:10A7: D0 03        	bne	L223
  3299 00:10A9: EE xx xx     	inc	|~~lp+2
  3300                        L223:
  3301 00:10AC: E6 06        	inc	<L215+digits_1
  3302 00:10AE: 82 B4 FF     	brl	L10105
  3303                        L10106:
  3304 00:10B1: A5 06        	lda	<L215+digits_1
  3305 00:10B3: F0 03        	beq	L224
  3306 00:10B5: 82 10 00     	brl	L10107
  3307                        L224:
  3308 00:10B8: A9 05 00     	lda	#$5
  3309 00:10BB: 8D xx xx     	sta	|~~lasterror
  3310 00:10BE: F4 23 00     	pea	#<$23
  3311 00:10C1: F4 04 00     	pea	#4
  3312 00:10C4: 22 xx xx xx  	jsl	~~error
  3313                        L10107:
  3314 00:10C8: 82 C4 01     	brl	L10099
  3315                        L10108:
  3316                        L10109:
  3317 00:10CB: AD xx xx     	lda	|~~lp
  3318 00:10CE: 85 01        	sta	<R0
  3319 00:10D0: AD xx xx     	lda	|~~lp+2
  3320 00:10D3: 85 03        	sta	<R0+2
  3321 00:10D5: E2 20        	sep	#$20
  3322                        	longa	off
  3323 00:10D7: A7 01        	lda	[<R0]
  3324 00:10D9: C9 30        	cmp	#<$30
  3325 00:10DB: C2 20        	rep	#$20
  3326                        	longa	on
  3327 00:10DD: B0 03        	bcs	L225
  3328 00:10DF: 82 33 00     	brl	L10110
  3329                        L225:
  3330 00:10E2: AD xx xx     	lda	|~~lp
  3331 00:10E5: 85 01        	sta	<R0
  3332 00:10E7: AD xx xx     	lda	|~~lp+2
  3333 00:10EA: 85 03        	sta	<R0+2
  3334 00:10EC: E2 20        	sep	#$20
  3335                        	longa	off
  3336 00:10EE: A9 39        	lda	#$39
  3337 00:10F0: C7 01        	cmp	[<R0]
  3338 00:10F2: C2 20        	rep	#$20
  3339                        	longa	on
  3340 00:10F4: B0 03        	bcs	L226
  3341 00:10F6: 82 1C 00     	brl	L10110
  3342                        L226:
  3343 00:10F9: AD xx xx     	lda	|~~lp
  3344 00:10FC: 85 01        	sta	<R0
  3345 00:10FE: AD xx xx     	lda	|~~lp+2
  3346 00:1101: 85 03        	sta	<R0+2
  3347 00:1103: A7 01        	lda	[<R0]
  3348 00:1105: 48           	pha
  3349 00:1106: 22 xx xx xx  	jsl	~~store
  Sun Jan  9 2022 20:52                                                Page 67


  3350 00:110A: EE xx xx     	inc	|~~lp
  3351 00:110D: D0 03        	bne	L227
  3352 00:110F: EE xx xx     	inc	|~~lp+2
  3353                        L227:
  3354 00:1112: 82 B6 FF     	brl	L10109
  3355                        L10110:
  3356 00:1115: AD xx xx     	lda	|~~lp
  3357 00:1118: 85 01        	sta	<R0
  3358 00:111A: AD xx xx     	lda	|~~lp+2
  3359 00:111D: 85 03        	sta	<R0+2
  3360 00:111F: E2 20        	sep	#$20
  3361                        	longa	off
  3362 00:1121: A7 01        	lda	[<R0]
  3363 00:1123: C9 2E        	cmp	#<$2e
  3364 00:1125: C2 20        	rep	#$20
  3365                        	longa	on
  3366 00:1127: F0 03        	beq	L228
  3367 00:1129: 82 59 00     	brl	L10111
  3368                        L228:
  3369 00:112C: F4 2E 00     	pea	#<$2e
  3370 00:112F: 22 xx xx xx  	jsl	~~store
  3371 00:1133: EE xx xx     	inc	|~~lp
  3372 00:1136: D0 03        	bne	L229
  3373 00:1138: EE xx xx     	inc	|~~lp+2
  3374                        L229:
  3375                        L10112:
  3376 00:113B: AD xx xx     	lda	|~~lp
  3377 00:113E: 85 01        	sta	<R0
  3378 00:1140: AD xx xx     	lda	|~~lp+2
  3379 00:1143: 85 03        	sta	<R0+2
  3380 00:1145: E2 20        	sep	#$20
  3381                        	longa	off
  3382 00:1147: A7 01        	lda	[<R0]
  3383 00:1149: C9 30        	cmp	#<$30
  3384 00:114B: C2 20        	rep	#$20
  3385                        	longa	on
  3386 00:114D: B0 03        	bcs	L230
  3387 00:114F: 82 33 00     	brl	L10113
  3388                        L230:
  3389 00:1152: AD xx xx     	lda	|~~lp
  3390 00:1155: 85 01        	sta	<R0
  3391 00:1157: AD xx xx     	lda	|~~lp+2
  3392 00:115A: 85 03        	sta	<R0+2
  3393 00:115C: E2 20        	sep	#$20
  3394                        	longa	off
  3395 00:115E: A9 39        	lda	#$39
  3396 00:1160: C7 01        	cmp	[<R0]
  3397 00:1162: C2 20        	rep	#$20
  3398                        	longa	on
  3399 00:1164: B0 03        	bcs	L231
  3400 00:1166: 82 1C 00     	brl	L10113
  3401                        L231:
  3402 00:1169: AD xx xx     	lda	|~~lp
  3403 00:116C: 85 01        	sta	<R0
  3404 00:116E: AD xx xx     	lda	|~~lp+2
  3405 00:1171: 85 03        	sta	<R0+2
  3406 00:1173: A7 01        	lda	[<R0]
  3407 00:1175: 48           	pha
  Sun Jan  9 2022 20:52                                                Page 68


  3408 00:1176: 22 xx xx xx  	jsl	~~store
  3409 00:117A: EE xx xx     	inc	|~~lp
  3410 00:117D: D0 03        	bne	L232
  3411 00:117F: EE xx xx     	inc	|~~lp+2
  3412                        L232:
  3413 00:1182: 82 B6 FF     	brl	L10112
  3414                        L10113:
  3415                        L10111:
  3416 00:1185: AD xx xx     	lda	|~~lp
  3417 00:1188: 85 01        	sta	<R0
  3418 00:118A: AD xx xx     	lda	|~~lp+2
  3419 00:118D: 85 03        	sta	<R0+2
  3420 00:118F: E2 20        	sep	#$20
  3421                        	longa	off
  3422 00:1191: A7 01        	lda	[<R0]
  3423 00:1193: C9 65        	cmp	#<$65
  3424 00:1195: C2 20        	rep	#$20
  3425                        	longa	on
  3426 00:1197: D0 03        	bne	L234
  3427 00:1199: 82 17 00     	brl	L233
  3428                        L234:
  3429 00:119C: AD xx xx     	lda	|~~lp
  3430 00:119F: 85 01        	sta	<R0
  3431 00:11A1: AD xx xx     	lda	|~~lp+2
  3432 00:11A4: 85 03        	sta	<R0+2
  3433 00:11A6: E2 20        	sep	#$20
  3434                        	longa	off
  3435 00:11A8: A7 01        	lda	[<R0]
  3436 00:11AA: C9 45        	cmp	#<$45
  3437 00:11AC: C2 20        	rep	#$20
  3438                        	longa	on
  3439 00:11AE: F0 03        	beq	L235
  3440 00:11B0: 82 C9 00     	brl	L10114
  3441                        L235:
  3442                        L233:
  3443 00:11B3: AD xx xx     	lda	|~~lp
  3444 00:11B6: 85 01        	sta	<R0
  3445 00:11B8: AD xx xx     	lda	|~~lp+2
  3446 00:11BB: 85 03        	sta	<R0+2
  3447 00:11BD: A0 01 00     	ldy	#$1
  3448 00:11C0: B7 01        	lda	[<R0],Y
  3449 00:11C2: 29 FF 00     	and	#$ff
  3450 00:11C5: 48           	pha
  3451 00:11C6: 22 xx xx xx  	jsl	~~isalpha
  3452 00:11CA: AA           	tax
  3453 00:11CB: F0 03        	beq	L236
  3454 00:11CD: 82 AC 00     	brl	L10114
  3455                        L236:
  3456 00:11D0: AD xx xx     	lda	|~~lp
  3457 00:11D3: 85 01        	sta	<R0
  3458 00:11D5: AD xx xx     	lda	|~~lp+2
  3459 00:11D8: 85 03        	sta	<R0+2
  3460 00:11DA: A7 01        	lda	[<R0]
  3461 00:11DC: 48           	pha
  3462 00:11DD: 22 xx xx xx  	jsl	~~store
  3463 00:11E1: EE xx xx     	inc	|~~lp
  3464 00:11E4: D0 03        	bne	L237
  3465 00:11E6: EE xx xx     	inc	|~~lp+2
  Sun Jan  9 2022 20:52                                                Page 69


  3466                        L237:
  3467 00:11E9: AD xx xx     	lda	|~~lp
  3468 00:11EC: 85 01        	sta	<R0
  3469 00:11EE: AD xx xx     	lda	|~~lp+2
  3470 00:11F1: 85 03        	sta	<R0+2
  3471 00:11F3: E2 20        	sep	#$20
  3472                        	longa	off
  3473 00:11F5: A7 01        	lda	[<R0]
  3474 00:11F7: C9 2B        	cmp	#<$2b
  3475 00:11F9: C2 20        	rep	#$20
  3476                        	longa	on
  3477 00:11FB: D0 03        	bne	L239
  3478 00:11FD: 82 17 00     	brl	L238
  3479                        L239:
  3480 00:1200: AD xx xx     	lda	|~~lp
  3481 00:1203: 85 01        	sta	<R0
  3482 00:1205: AD xx xx     	lda	|~~lp+2
  3483 00:1208: 85 03        	sta	<R0+2
  3484 00:120A: E2 20        	sep	#$20
  3485                        	longa	off
  3486 00:120C: A7 01        	lda	[<R0]
  3487 00:120E: C9 2D        	cmp	#<$2d
  3488 00:1210: C2 20        	rep	#$20
  3489                        	longa	on
  3490 00:1212: F0 03        	beq	L240
  3491 00:1214: 82 19 00     	brl	L10115
  3492                        L240:
  3493                        L238:
  3494 00:1217: AD xx xx     	lda	|~~lp
  3495 00:121A: 85 01        	sta	<R0
  3496 00:121C: AD xx xx     	lda	|~~lp+2
  3497 00:121F: 85 03        	sta	<R0+2
  3498 00:1221: A7 01        	lda	[<R0]
  3499 00:1223: 48           	pha
  3500 00:1224: 22 xx xx xx  	jsl	~~store
  3501 00:1228: EE xx xx     	inc	|~~lp
  3502 00:122B: D0 03        	bne	L241
  3503 00:122D: EE xx xx     	inc	|~~lp+2
  3504                        L241:
  3505                        L10115:
  3506                        L10116:
  3507 00:1230: AD xx xx     	lda	|~~lp
  3508 00:1233: 85 01        	sta	<R0
  3509 00:1235: AD xx xx     	lda	|~~lp+2
  3510 00:1238: 85 03        	sta	<R0+2
  3511 00:123A: E2 20        	sep	#$20
  3512                        	longa	off
  3513 00:123C: A7 01        	lda	[<R0]
  3514 00:123E: C9 30        	cmp	#<$30
  3515 00:1240: C2 20        	rep	#$20
  3516                        	longa	on
  3517 00:1242: B0 03        	bcs	L242
  3518 00:1244: 82 35 00     	brl	L10117
  3519                        L242:
  3520 00:1247: AD xx xx     	lda	|~~lp
  3521 00:124A: 85 01        	sta	<R0
  3522 00:124C: AD xx xx     	lda	|~~lp+2
  3523 00:124F: 85 03        	sta	<R0+2
  Sun Jan  9 2022 20:52                                                Page 70


  3524 00:1251: E2 20        	sep	#$20
  3525                        	longa	off
  3526 00:1253: A9 39        	lda	#$39
  3527 00:1255: C7 01        	cmp	[<R0]
  3528 00:1257: C2 20        	rep	#$20
  3529                        	longa	on
  3530 00:1259: B0 03        	bcs	L243
  3531 00:125B: 82 1E 00     	brl	L10117
  3532                        L243:
  3533 00:125E: AD xx xx     	lda	|~~lp
  3534 00:1261: 85 01        	sta	<R0
  3535 00:1263: AD xx xx     	lda	|~~lp+2
  3536 00:1266: 85 03        	sta	<R0+2
  3537 00:1268: A7 01        	lda	[<R0]
  3538 00:126A: 48           	pha
  3539 00:126B: 22 xx xx xx  	jsl	~~store
  3540 00:126F: EE xx xx     	inc	|~~lp
  3541 00:1272: D0 03        	bne	L244
  3542 00:1274: EE xx xx     	inc	|~~lp+2
  3543                        L244:
  3544 00:1277: E6 06        	inc	<L215+digits_1
  3545 00:1279: 82 B4 FF     	brl	L10116
  3546                        L10117:
  3547                        L10114:
  3548 00:127C: 82 10 00     	brl	L10099
  3549                        L10098:
  3550                        	xref	~~~swt
  3551 00:127F: 22 xx xx xx  	jsl	~~~swt
  3552 00:1283: 02 00        	dw	2
  3553 00:1285: 25 00        	dw	37
  3554 00:1287: xx xx        	dw	L10104-1
  3555 00:1289: 26 00        	dw	38
  3556 00:128B: xx xx        	dw	L10100-1
  3557 00:128D: xx xx        	dw	L10108-1
  3558                        L10099:
  3559                        L245:
  3560 00:128F: 2B           	pld
  3561 00:1290: 3B           	tsc
  3562 00:1291: 18           	clc
  3563 00:1292: 69 07 00     	adc	#L214
  3564 00:1295: 1B           	tcs
  3565 00:1296: 6B           	rtl
  3566             00000007   L214	equ	7
  3567             00000005   L215	equ	5
  3568                        	ends
  3569                        	efunc
  3570                        	code
  3571                        	func
  3572                        ~~copy_string:
  3573                        	longa	on
  3574                        	longi	on
  3575 00:1297: 3B           	tsc
  3576 00:1298: 38           	sec
  3577 00:1299: E9 04 00     	sbc	#L246
  3578 00:129C: 1B           	tcs
  3579 00:129D: 0B           	phd
  3580 00:129E: 5B           	tcd
  3581 00:129F: F4 22 00     	pea	#<$22
  Sun Jan  9 2022 20:52                                                Page 71


  3582 00:12A2: 22 xx xx xx  	jsl	~~store
  3583 00:12A6: EE xx xx     	inc	|~~lp
  3584 00:12A9: D0 03        	bne	L248
  3585 00:12AB: EE xx xx     	inc	|~~lp+2
  3586                        L248:
  3587                        L10118:
  3588 00:12AE: AD xx xx     	lda	|~~lp
  3589 00:12B1: 85 01        	sta	<R0
  3590 00:12B3: AD xx xx     	lda	|~~lp+2
  3591 00:12B6: 85 03        	sta	<R0+2
  3592 00:12B8: A7 01        	lda	[<R0]
  3593 00:12BA: 29 FF 00     	and	#$ff
  3594 00:12BD: D0 03        	bne	L249
  3595 00:12BF: 82 66 00     	brl	L10119
  3596                        L249:
  3597 00:12C2: AD xx xx     	lda	|~~lp
  3598 00:12C5: 85 01        	sta	<R0
  3599 00:12C7: AD xx xx     	lda	|~~lp+2
  3600 00:12CA: 85 03        	sta	<R0+2
  3601 00:12CC: A7 01        	lda	[<R0]
  3602 00:12CE: 48           	pha
  3603 00:12CF: 22 xx xx xx  	jsl	~~store
  3604 00:12D3: AD xx xx     	lda	|~~lp
  3605 00:12D6: 85 01        	sta	<R0
  3606 00:12D8: AD xx xx     	lda	|~~lp+2
  3607 00:12DB: 85 03        	sta	<R0+2
  3608 00:12DD: E2 20        	sep	#$20
  3609                        	longa	off
  3610 00:12DF: A7 01        	lda	[<R0]
  3611 00:12E1: C9 22        	cmp	#<$22
  3612 00:12E3: C2 20        	rep	#$20
  3613                        	longa	on
  3614 00:12E5: F0 03        	beq	L250
  3615 00:12E7: 82 33 00     	brl	L10120
  3616                        L250:
  3617 00:12EA: AD xx xx     	lda	|~~lp
  3618 00:12ED: 85 01        	sta	<R0
  3619 00:12EF: AD xx xx     	lda	|~~lp+2
  3620 00:12F2: 85 03        	sta	<R0+2
  3621 00:12F4: E2 20        	sep	#$20
  3622                        	longa	off
  3623 00:12F6: A0 01 00     	ldy	#$1
  3624 00:12F9: B7 01        	lda	[<R0],Y
  3625 00:12FB: C9 22        	cmp	#<$22
  3626 00:12FD: C2 20        	rep	#$20
  3627                        	longa	on
  3628 00:12FF: F0 03        	beq	L251
  3629 00:1301: 82 24 00     	brl	L10119
  3630                        L251:
  3631 00:1304: F4 22 00     	pea	#<$22
  3632 00:1307: 22 xx xx xx  	jsl	~~store
  3633 00:130B: 18           	clc
  3634 00:130C: A9 02 00     	lda	#$2
  3635 00:130F: 6D xx xx     	adc	|~~lp
  3636 00:1312: 8D xx xx     	sta	|~~lp
  3637 00:1315: 90 03        	bcc	L252
  3638 00:1317: EE xx xx     	inc	|~~lp+2
  3639                        L252:
  Sun Jan  9 2022 20:52                                                Page 72


  3640 00:131A: 82 08 00     	brl	L10121
  3641                        L10120:
  3642 00:131D: EE xx xx     	inc	|~~lp
  3643 00:1320: D0 03        	bne	L253
  3644 00:1322: EE xx xx     	inc	|~~lp+2
  3645                        L253:
  3646                        L10121:
  3647 00:1325: 82 86 FF     	brl	L10118
  3648                        L10119:
  3649 00:1328: AD xx xx     	lda	|~~lp
  3650 00:132B: 85 01        	sta	<R0
  3651 00:132D: AD xx xx     	lda	|~~lp+2
  3652 00:1330: 85 03        	sta	<R0+2
  3653 00:1332: E2 20        	sep	#$20
  3654                        	longa	off
  3655 00:1334: A7 01        	lda	[<R0]
  3656 00:1336: C9 22        	cmp	#<$22
  3657 00:1338: C2 20        	rep	#$20
  3658                        	longa	on
  3659 00:133A: F0 03        	beq	L254
  3660 00:133C: 82 0B 00     	brl	L10122
  3661                        L254:
  3662 00:133F: EE xx xx     	inc	|~~lp
  3663 00:1342: D0 03        	bne	L255
  3664 00:1344: EE xx xx     	inc	|~~lp+2
  3665                        L255:
  3666 00:1347: 82 17 00     	brl	L10123
  3667                        L10122:
  3668 00:134A: A9 2B 00     	lda	#$2b
  3669 00:134D: 8D xx xx     	sta	|~~lasterror
  3670 00:1350: F4 2A 00     	pea	#<$2a
  3671 00:1353: F4 04 00     	pea	#4
  3672 00:1356: 22 xx xx xx  	jsl	~~error
  3673 00:135A: F4 22 00     	pea	#<$22
  3674 00:135D: 22 xx xx xx  	jsl	~~store
  3675                        L10123:
  3676                        L256:
  3677 00:1361: 2B           	pld
  3678 00:1362: 3B           	tsc
  3679 00:1363: 18           	clc
  3680 00:1364: 69 04 00     	adc	#L246
  3681 00:1367: 1B           	tcs
  3682 00:1368: 6B           	rtl
  3683             00000004   L246	equ	4
  3684             00000005   L247	equ	5
  3685                        	ends
  3686                        	efunc
  3687                        	code
  3688                        	func
  3689                        ~~copy_other:
  3690                        	longa	on
  3691                        	longi	on
  3692 00:1369: 3B           	tsc
  3693 00:136A: 38           	sec
  3694 00:136B: E9 06 00     	sbc	#L257
  3695 00:136E: 1B           	tcs
  3696 00:136F: 0B           	phd
  3697 00:1370: 5B           	tcd
  Sun Jan  9 2022 20:52                                                Page 73


  3698             00000000   tclass_1	set	0
  3699             00000001   token_1	set	1
  3700 00:1371: E2 20        	sep	#$20
  3701                        	longa	off
  3702 00:1373: 64 05        	stz	<L258+tclass_1
  3703 00:1375: C2 20        	rep	#$20
  3704                        	longa	on
  3705 00:1377: AD xx xx     	lda	|~~lp
  3706 00:137A: 85 01        	sta	<R0
  3707 00:137C: AD xx xx     	lda	|~~lp+2
  3708 00:137F: 85 03        	sta	<R0+2
  3709 00:1381: E2 20        	sep	#$20
  3710                        	longa	off
  3711 00:1383: A7 01        	lda	[<R0]
  3712 00:1385: 85 06        	sta	<L258+token_1
  3713 00:1387: C2 20        	rep	#$20
  3714                        	longa	on
  3715 00:1389: A5 06        	lda	<L258+token_1
  3716 00:138B: 29 FF 00     	and	#$ff
  3717 00:138E: 82 D7 01     	brl	L10124
  3718                        L10126:
  3719 00:1391: EE xx xx     	inc	|~~brackets
  3720 00:1394: 82 FD 01     	brl	L10125
  3721                        L10127:
  3722 00:1397: AD xx xx     	lda	|~~firstitem
  3723 00:139A: 29 FF 00     	and	#$ff
  3724 00:139D: F0 03        	beq	L259
  3725 00:139F: 82 03 00     	brl	L10128
  3726                        L259:
  3727 00:13A2: EE xx xx     	inc	|~~brackets
  3728                        L10128:
  3729 00:13A5: 82 EC 01     	brl	L10125
  3730                        L10129:
  3731 00:13A8: CE xx xx     	dec	|~~brackets
  3732 00:13AB: AD xx xx     	lda	|~~brackets
  3733 00:13AE: 30 03        	bmi	L260
  3734 00:13B0: 82 10 00     	brl	L10130
  3735                        L260:
  3736 00:13B3: A9 28 00     	lda	#$28
  3737 00:13B6: 8D xx xx     	sta	|~~lasterror
  3738 00:13B9: F4 8A 00     	pea	#<$8a
  3739 00:13BC: F4 04 00     	pea	#4
  3740 00:13BF: 22 xx xx xx  	jsl	~~error
  3741                        L10130:
  3742 00:13C3: 82 CE 01     	brl	L10125
  3743                        L10131:
  3744 00:13C6: AD xx xx     	lda	|~~firstitem
  3745 00:13C9: 29 FF 00     	and	#$ff
  3746 00:13CC: F0 03        	beq	L261
  3747 00:13CE: 82 1B 00     	brl	L10132
  3748                        L261:
  3749 00:13D1: CE xx xx     	dec	|~~brackets
  3750 00:13D4: AD xx xx     	lda	|~~brackets
  3751 00:13D7: 30 03        	bmi	L262
  3752 00:13D9: 82 10 00     	brl	L10133
  3753                        L262:
  3754 00:13DC: A9 28 00     	lda	#$28
  3755 00:13DF: 8D xx xx     	sta	|~~lasterror
  Sun Jan  9 2022 20:52                                                Page 74


  3756 00:13E2: F4 8A 00     	pea	#<$8a
  3757 00:13E5: F4 04 00     	pea	#4
  3758 00:13E8: 22 xx xx xx  	jsl	~~error
  3759                        L10133:
  3760                        L10132:
  3761 00:13EC: 82 A5 01     	brl	L10125
  3762                        L10134:
  3763 00:13EF: E2 20        	sep	#$20
  3764                        	longa	off
  3765 00:13F1: A9 FF        	lda	#$ff
  3766 00:13F3: 85 05        	sta	<L258+tclass_1
  3767 00:13F5: C2 20        	rep	#$20
  3768                        	longa	on
  3769 00:13F7: E2 20        	sep	#$20
  3770                        	longa	off
  3771 00:13F9: A9 BF        	lda	#$bf
  3772 00:13FB: 85 06        	sta	<L258+token_1
  3773 00:13FD: C2 20        	rep	#$20
  3774                        	longa	on
  3775 00:13FF: 82 92 01     	brl	L10125
  3776                        L10135:
  3777 00:1402: AD xx xx     	lda	|~~lp
  3778 00:1405: 85 01        	sta	<R0
  3779 00:1407: AD xx xx     	lda	|~~lp+2
  3780 00:140A: 85 03        	sta	<R0+2
  3781 00:140C: E2 20        	sep	#$20
  3782                        	longa	off
  3783 00:140E: A0 01 00     	ldy	#$1
  3784 00:1411: B7 01        	lda	[<R0],Y
  3785 00:1413: C9 3D        	cmp	#<$3d
  3786 00:1415: C2 20        	rep	#$20
  3787                        	longa	on
  3788 00:1417: F0 03        	beq	L263
  3789 00:1419: 82 10 00     	brl	L10136
  3790                        L263:
  3791 00:141C: E2 20        	sep	#$20
  3792                        	longa	off
  3793 00:141E: A9 8C        	lda	#$8c
  3794 00:1420: 85 06        	sta	<L258+token_1
  3795 00:1422: C2 20        	rep	#$20
  3796                        	longa	on
  3797 00:1424: EE xx xx     	inc	|~~lp
  3798 00:1427: D0 03        	bne	L264
  3799 00:1429: EE xx xx     	inc	|~~lp+2
  3800                        L264:
  3801                        L10136:
  3802 00:142C: 82 65 01     	brl	L10125
  3803                        L10137:
  3804 00:142F: AD xx xx     	lda	|~~lp
  3805 00:1432: 85 01        	sta	<R0
  3806 00:1434: AD xx xx     	lda	|~~lp+2
  3807 00:1437: 85 03        	sta	<R0+2
  3808 00:1439: E2 20        	sep	#$20
  3809                        	longa	off
  3810 00:143B: A0 01 00     	ldy	#$1
  3811 00:143E: B7 01        	lda	[<R0],Y
  3812 00:1440: C9 3D        	cmp	#<$3d
  3813 00:1442: C2 20        	rep	#$20
  Sun Jan  9 2022 20:52                                                Page 75


  3814                        	longa	on
  3815 00:1444: F0 03        	beq	L265
  3816 00:1446: 82 10 00     	brl	L10138
  3817                        L265:
  3818 00:1449: E2 20        	sep	#$20
  3819                        	longa	off
  3820 00:144B: A9 88        	lda	#$88
  3821 00:144D: 85 06        	sta	<L258+token_1
  3822 00:144F: C2 20        	rep	#$20
  3823                        	longa	on
  3824 00:1451: EE xx xx     	inc	|~~lp
  3825 00:1454: D0 03        	bne	L266
  3826 00:1456: EE xx xx     	inc	|~~lp+2
  3827                        L266:
  3828                        L10138:
  3829 00:1459: 82 38 01     	brl	L10125
  3830                        L10139:
  3831 00:145C: AD xx xx     	lda	|~~lp
  3832 00:145F: 85 01        	sta	<R0
  3833 00:1461: AD xx xx     	lda	|~~lp+2
  3834 00:1464: 85 03        	sta	<R0+2
  3835 00:1466: A0 01 00     	ldy	#$1
  3836 00:1469: B7 01        	lda	[<R0],Y
  3837 00:146B: 29 FF 00     	and	#$ff
  3838 00:146E: 82 5A 00     	brl	L10140
  3839                        L10142:
  3840 00:1471: E2 20        	sep	#$20
  3841                        	longa	off
  3842 00:1473: A9 84        	lda	#$84
  3843 00:1475: 85 06        	sta	<L258+token_1
  3844 00:1477: C2 20        	rep	#$20
  3845                        	longa	on
  3846 00:1479: EE xx xx     	inc	|~~lp
  3847 00:147C: D0 03        	bne	L267
  3848 00:147E: EE xx xx     	inc	|~~lp+2
  3849                        L267:
  3850 00:1481: 82 57 00     	brl	L10141
  3851                        L10143:
  3852 00:1484: AD xx xx     	lda	|~~lp
  3853 00:1487: 85 01        	sta	<R0
  3854 00:1489: AD xx xx     	lda	|~~lp+2
  3855 00:148C: 85 03        	sta	<R0+2
  3856 00:148E: E2 20        	sep	#$20
  3857                        	longa	off
  3858 00:1490: A0 02 00     	ldy	#$2
  3859 00:1493: B7 01        	lda	[<R0],Y
  3860 00:1495: C9 3E        	cmp	#<$3e
  3861 00:1497: C2 20        	rep	#$20
  3862                        	longa	on
  3863 00:1499: F0 03        	beq	L268
  3864 00:149B: 82 1A 00     	brl	L10144
  3865                        L268:
  3866 00:149E: E2 20        	sep	#$20
  3867                        	longa	off
  3868 00:14A0: A9 87        	lda	#$87
  3869 00:14A2: 85 06        	sta	<L258+token_1
  3870 00:14A4: C2 20        	rep	#$20
  3871                        	longa	on
  Sun Jan  9 2022 20:52                                                Page 76


  3872 00:14A6: 18           	clc
  3873 00:14A7: A9 02 00     	lda	#$2
  3874 00:14AA: 6D xx xx     	adc	|~~lp
  3875 00:14AD: 8D xx xx     	sta	|~~lp
  3876 00:14B0: 90 03        	bcc	L269
  3877 00:14B2: EE xx xx     	inc	|~~lp+2
  3878                        L269:
  3879 00:14B5: 82 10 00     	brl	L10145
  3880                        L10144:
  3881 00:14B8: E2 20        	sep	#$20
  3882                        	longa	off
  3883 00:14BA: A9 81        	lda	#$81
  3884 00:14BC: 85 06        	sta	<L258+token_1
  3885 00:14BE: C2 20        	rep	#$20
  3886                        	longa	on
  3887 00:14C0: EE xx xx     	inc	|~~lp
  3888 00:14C3: D0 03        	bne	L270
  3889 00:14C5: EE xx xx     	inc	|~~lp+2
  3890                        L270:
  3891                        L10145:
  3892 00:14C8: 82 10 00     	brl	L10141
  3893                        L10140:
  3894                        	xref	~~~swt
  3895 00:14CB: 22 xx xx xx  	jsl	~~~swt
  3896 00:14CF: 02 00        	dw	2
  3897 00:14D1: 3D 00        	dw	61
  3898 00:14D3: xx xx        	dw	L10142-1
  3899 00:14D5: 3E 00        	dw	62
  3900 00:14D7: xx xx        	dw	L10143-1
  3901 00:14D9: xx xx        	dw	L10141-1
  3902                        L10141:
  3903 00:14DB: 82 B6 00     	brl	L10125
  3904                        L10146:
  3905 00:14DE: AD xx xx     	lda	|~~lp
  3906 00:14E1: 85 01        	sta	<R0
  3907 00:14E3: AD xx xx     	lda	|~~lp+2
  3908 00:14E6: 85 03        	sta	<R0+2
  3909 00:14E8: A0 01 00     	ldy	#$1
  3910 00:14EB: B7 01        	lda	[<R0],Y
  3911 00:14ED: 29 FF 00     	and	#$ff
  3912 00:14F0: 82 39 00     	brl	L10147
  3913                        L10149:
  3914 00:14F3: E2 20        	sep	#$20
  3915                        	longa	off
  3916 00:14F5: A9 85        	lda	#$85
  3917 00:14F7: 85 06        	sta	<L258+token_1
  3918 00:14F9: C2 20        	rep	#$20
  3919                        	longa	on
  3920 00:14FB: EE xx xx     	inc	|~~lp
  3921 00:14FE: D0 03        	bne	L271
  3922 00:1500: EE xx xx     	inc	|~~lp+2
  3923                        L271:
  3924 00:1503: 82 3A 00     	brl	L10148
  3925                        L10150:
  3926 00:1506: E2 20        	sep	#$20
  3927                        	longa	off
  3928 00:1508: A9 8A        	lda	#$8a
  3929 00:150A: 85 06        	sta	<L258+token_1
  Sun Jan  9 2022 20:52                                                Page 77


  3930 00:150C: C2 20        	rep	#$20
  3931                        	longa	on
  3932 00:150E: EE xx xx     	inc	|~~lp
  3933 00:1511: D0 03        	bne	L272
  3934 00:1513: EE xx xx     	inc	|~~lp+2
  3935                        L272:
  3936 00:1516: 82 27 00     	brl	L10148
  3937                        L10151:
  3938 00:1519: E2 20        	sep	#$20
  3939                        	longa	off
  3940 00:151B: A9 86        	lda	#$86
  3941 00:151D: 85 06        	sta	<L258+token_1
  3942 00:151F: C2 20        	rep	#$20
  3943                        	longa	on
  3944 00:1521: EE xx xx     	inc	|~~lp
  3945 00:1524: D0 03        	bne	L273
  3946 00:1526: EE xx xx     	inc	|~~lp+2
  3947                        L273:
  3948 00:1529: 82 14 00     	brl	L10148
  3949                        L10147:
  3950                        	xref	~~~swt
  3951 00:152C: 22 xx xx xx  	jsl	~~~swt
  3952 00:1530: 03 00        	dw	3
  3953 00:1532: 3C 00        	dw	60
  3954 00:1534: xx xx        	dw	L10151-1
  3955 00:1536: 3D 00        	dw	61
  3956 00:1538: xx xx        	dw	L10149-1
  3957 00:153A: 3E 00        	dw	62
  3958 00:153C: xx xx        	dw	L10150-1
  3959 00:153E: xx xx        	dw	L10148-1
  3960                        L10148:
  3961 00:1540: 82 51 00     	brl	L10125
  3962                        L10152:
  3963 00:1543: E2 20        	sep	#$20
  3964                        	longa	off
  3965 00:1545: A5 06        	lda	<L258+token_1
  3966 00:1547: C9 20        	cmp	#<$20
  3967 00:1549: C2 20        	rep	#$20
  3968                        	longa	on
  3969 00:154B: 90 03        	bcc	L274
  3970 00:154D: 82 15 00     	brl	L10153
  3971                        L274:
  3972 00:1550: E2 20        	sep	#$20
  3973                        	longa	off
  3974 00:1552: A5 06        	lda	<L258+token_1
  3975 00:1554: C9 09        	cmp	#<$9
  3976 00:1556: C2 20        	rep	#$20
  3977                        	longa	on
  3978 00:1558: D0 03        	bne	L275
  3979 00:155A: 82 08 00     	brl	L10153
  3980                        L275:
  3981 00:155D: E2 20        	sep	#$20
  3982                        	longa	off
  3983 00:155F: A9 20        	lda	#$20
  3984 00:1561: 85 06        	sta	<L258+token_1
  3985 00:1563: C2 20        	rep	#$20
  3986                        	longa	on
  3987                        L10153:
  Sun Jan  9 2022 20:52                                                Page 78


  3988 00:1565: 82 2C 00     	brl	L10125
  3989                        L10124:
  3990                        	xref	~~~swt
  3991 00:1568: 22 xx xx xx  	jsl	~~~swt
  3992 00:156C: 09 00        	dw	9
  3993 00:156E: 28 00        	dw	40
  3994 00:1570: xx xx        	dw	L10126-1
  3995 00:1572: 29 00        	dw	41
  3996 00:1574: xx xx        	dw	L10129-1
  3997 00:1576: 2B 00        	dw	43
  3998 00:1578: xx xx        	dw	L10135-1
  3999 00:157A: 2D 00        	dw	45
  4000 00:157C: xx xx        	dw	L10137-1
  4001 00:157E: 3C 00        	dw	60
  4002 00:1580: xx xx        	dw	L10146-1
  4003 00:1582: 3E 00        	dw	62
  4004 00:1584: xx xx        	dw	L10139-1
  4005 00:1586: 5B 00        	dw	91
  4006 00:1588: xx xx        	dw	L10127-1
  4007 00:158A: 5D 00        	dw	93
  4008 00:158C: xx xx        	dw	L10131-1
  4009 00:158E: AC 00        	dw	172
  4010 00:1590: xx xx        	dw	L10134-1
  4011 00:1592: xx xx        	dw	L10152-1
  4012                        L10125:
  4013 00:1594: A5 05        	lda	<L258+tclass_1
  4014 00:1596: 29 FF 00     	and	#$ff
  4015 00:1599: D0 03        	bne	L276
  4016 00:159B: 82 06 00     	brl	L10154
  4017                        L276:
  4018 00:159E: D4 05        	pei	<L258+tclass_1
  4019 00:15A0: 22 xx xx xx  	jsl	~~store
  4020                        L10154:
  4021 00:15A4: D4 06        	pei	<L258+token_1
  4022 00:15A6: 22 xx xx xx  	jsl	~~store
  4023 00:15AA: E2 20        	sep	#$20
  4024                        	longa	off
  4025 00:15AC: A5 06        	lda	<L258+token_1
  4026 00:15AE: C9 3A        	cmp	#<$3a
  4027 00:15B0: C2 20        	rep	#$20
  4028                        	longa	on
  4029 00:15B2: F0 03        	beq	L277
  4030 00:15B4: 82 0C 00     	brl	L10155
  4031                        L277:
  4032 00:15B7: E2 20        	sep	#$20
  4033                        	longa	off
  4034 00:15B9: A9 01        	lda	#$1
  4035 00:15BB: 8D xx xx     	sta	|~~firstitem
  4036 00:15BE: C2 20        	rep	#$20
  4037                        	longa	on
  4038 00:15C0: 82 21 00     	brl	L10156
  4039                        L10155:
  4040 00:15C3: E2 20        	sep	#$20
  4041                        	longa	off
  4042 00:15C5: A5 06        	lda	<L258+token_1
  4043 00:15C7: C9 20        	cmp	#<$20
  4044 00:15C9: C2 20        	rep	#$20
  4045                        	longa	on
  Sun Jan  9 2022 20:52                                                Page 79


  4046 00:15CB: D0 03        	bne	L278
  4047 00:15CD: 82 14 00     	brl	L10157
  4048                        L278:
  4049 00:15D0: E2 20        	sep	#$20
  4050                        	longa	off
  4051 00:15D2: A5 06        	lda	<L258+token_1
  4052 00:15D4: C9 09        	cmp	#<$9
  4053 00:15D6: C2 20        	rep	#$20
  4054                        	longa	on
  4055 00:15D8: D0 03        	bne	L279
  4056 00:15DA: 82 07 00     	brl	L10157
  4057                        L279:
  4058 00:15DD: E2 20        	sep	#$20
  4059                        	longa	off
  4060 00:15DF: 9C xx xx     	stz	|~~firstitem
  4061 00:15E2: C2 20        	rep	#$20
  4062                        	longa	on
  4063                        L10157:
  4064                        L10156:
  4065 00:15E4: EE xx xx     	inc	|~~lp
  4066 00:15E7: D0 03        	bne	L280
  4067 00:15E9: EE xx xx     	inc	|~~lp+2
  4068                        L280:
  4069                        L281:
  4070 00:15EC: 2B           	pld
  4071 00:15ED: 3B           	tsc
  4072 00:15EE: 18           	clc
  4073 00:15EF: 69 06 00     	adc	#L257
  4074 00:15F2: 1B           	tcs
  4075 00:15F3: 6B           	rtl
  4076             00000006   L257	equ	6
  4077             00000005   L258	equ	5
  4078                        	ends
  4079                        	efunc
  4080                        	code
  4081                        	func
  4082                        ~~tokenise_source:
  4083                        	longa	on
  4084                        	longi	on
  4085 00:15F4: 3B           	tsc
  4086 00:15F5: 38           	sec
  4087 00:15F6: E9 0C 00     	sbc	#L282
  4088 00:15F9: 1B           	tcs
  4089 00:15FA: 0B           	phd
  4090 00:15FB: 5B           	tcd
  4091             00000004   start_0	set	4
  4092             00000008   haslineno_0	set	8
  4093             00000000   token_1	set	0
  4094             00000002   ch_1	set	2
  4095             00000003   linenoposs_1	set	3
  4096 00:15FC: 9C xx xx     	stz	|~~next
  4097 00:15FF: F4 FF FF     	pea	#<$ffff
  4098 00:1602: 22 xx xx xx  	jsl	~~store_lineno
  4099 00:1606: F4 00 00     	pea	#<$0
  4100 00:1609: 22 xx xx xx  	jsl	~~store_linelen
  4101 00:160D: F4 00 00     	pea	#<$0
  4102 00:1610: 22 xx xx xx  	jsl	~~store_exec
  4103 00:1614: 9C xx xx     	stz	|~~brackets
  Sun Jan  9 2022 20:52                                                Page 80


  4104 00:1617: 9C xx xx     	stz	|~~lasterror
  4105 00:161A: E2 20        	sep	#$20
  4106                        	longa	off
  4107 00:161C: 64 0C        	stz	<L283+linenoposs_1
  4108 00:161E: C2 20        	rep	#$20
  4109                        	longa	on
  4110 00:1620: E2 20        	sep	#$20
  4111                        	longa	off
  4112 00:1622: 9C xx xx     	stz	|~~numbered
  4113 00:1625: C2 20        	rep	#$20
  4114                        	longa	on
  4115 00:1627: D4 12        	pei	<L282+start_0+2
  4116 00:1629: D4 10        	pei	<L282+start_0
  4117 00:162B: 22 xx xx xx  	jsl	~~skip_blanks
  4118 00:162F: 8D xx xx     	sta	|~~lp
  4119 00:1632: 8E xx xx     	stx	|~~lp+2
  4120 00:1635: A5 14        	lda	<L282+haslineno_0
  4121 00:1637: 29 FF 00     	and	#$ff
  4122 00:163A: D0 03        	bne	L284
  4123 00:163C: 82 BC 00     	brl	L10158
  4124                        L284:
  4125 00:163F: 9C xx xx     	stz	|~~next
  4126 00:1642: 64 01        	stz	<R0
  4127 00:1644: AD xx xx     	lda	|~~lp
  4128 00:1647: 85 05        	sta	<R1
  4129 00:1649: AD xx xx     	lda	|~~lp+2
  4130 00:164C: 85 07        	sta	<R1+2
  4131 00:164E: E2 20        	sep	#$20
  4132                        	longa	off
  4133 00:1650: A7 05        	lda	[<R1]
  4134 00:1652: C9 30        	cmp	#<$30
  4135 00:1654: C2 20        	rep	#$20
  4136                        	longa	on
  4137 00:1656: B0 03        	bcs	L286
  4138 00:1658: 82 19 00     	brl	L285
  4139                        L286:
  4140 00:165B: AD xx xx     	lda	|~~lp
  4141 00:165E: 85 05        	sta	<R1
  4142 00:1660: AD xx xx     	lda	|~~lp+2
  4143 00:1663: 85 07        	sta	<R1+2
  4144 00:1665: E2 20        	sep	#$20
  4145                        	longa	off
  4146 00:1667: A9 39        	lda	#$39
  4147 00:1669: C7 05        	cmp	[<R1]
  4148 00:166B: C2 20        	rep	#$20
  4149                        	longa	on
  4150 00:166D: B0 03        	bcs	L287
  4151 00:166F: 82 02 00     	brl	L285
  4152                        L287:
  4153 00:1672: E6 01        	inc	<R0
  4154                        L285:
  4155 00:1674: E2 20        	sep	#$20
  4156                        	longa	off
  4157 00:1676: A5 01        	lda	<R0
  4158 00:1678: 8D xx xx     	sta	|~~numbered
  4159 00:167B: C2 20        	rep	#$20
  4160                        	longa	on
  4161 00:167D: AD xx xx     	lda	|~~numbered
  Sun Jan  9 2022 20:52                                                Page 81


  4162 00:1680: 29 FF 00     	and	#$ff
  4163 00:1683: D0 03        	bne	L288
  4164 00:1685: 82 09 00     	brl	L10159
  4165                        L288:
  4166 00:1688: 22 xx xx xx  	jsl	~~convert_lineno
  4167 00:168C: 48           	pha
  4168 00:168D: 22 xx xx xx  	jsl	~~store_lineno
  4169                        L10159:
  4170 00:1691: AD xx xx     	lda	|~~basicvars+429
  4171 00:1694: 89 02 00     	bit	#$2
  4172 00:1697: D0 03        	bne	L289
  4173 00:1699: 82 15 00     	brl	L10160
  4174                        L289:
  4175 00:169C: AD xx xx     	lda	|~~lp+2
  4176 00:169F: 48           	pha
  4177 00:16A0: AD xx xx     	lda	|~~lp
  4178 00:16A3: 48           	pha
  4179 00:16A4: 22 xx xx xx  	jsl	~~skip_blanks
  4180 00:16A8: 8D xx xx     	sta	|~~lp
  4181 00:16AB: 8E xx xx     	stx	|~~lp+2
  4182 00:16AE: 82 4A 00     	brl	L10161
  4183                        L10160:
  4184                        L10162:
  4185 00:16B1: AD xx xx     	lda	|~~lp
  4186 00:16B4: 85 01        	sta	<R0
  4187 00:16B6: AD xx xx     	lda	|~~lp+2
  4188 00:16B9: 85 03        	sta	<R0+2
  4189 00:16BB: E2 20        	sep	#$20
  4190                        	longa	off
  4191 00:16BD: A7 01        	lda	[<R0]
  4192 00:16BF: C9 20        	cmp	#<$20
  4193 00:16C1: C2 20        	rep	#$20
  4194                        	longa	on
  4195 00:16C3: D0 03        	bne	L291
  4196 00:16C5: 82 17 00     	brl	L290
  4197                        L291:
  4198 00:16C8: AD xx xx     	lda	|~~lp
  4199 00:16CB: 85 01        	sta	<R0
  4200 00:16CD: AD xx xx     	lda	|~~lp+2
  4201 00:16D0: 85 03        	sta	<R0+2
  4202 00:16D2: E2 20        	sep	#$20
  4203                        	longa	off
  4204 00:16D4: A7 01        	lda	[<R0]
  4205 00:16D6: C9 09        	cmp	#<$9
  4206 00:16D8: C2 20        	rep	#$20
  4207                        	longa	on
  4208 00:16DA: F0 03        	beq	L292
  4209 00:16DC: 82 1C 00     	brl	L10163
  4210                        L292:
  4211                        L290:
  4212 00:16DF: AD xx xx     	lda	|~~lp
  4213 00:16E2: 85 01        	sta	<R0
  4214 00:16E4: AD xx xx     	lda	|~~lp+2
  4215 00:16E7: 85 03        	sta	<R0+2
  4216 00:16E9: A7 01        	lda	[<R0]
  4217 00:16EB: 48           	pha
  4218 00:16EC: 22 xx xx xx  	jsl	~~store
  4219 00:16F0: EE xx xx     	inc	|~~lp
  Sun Jan  9 2022 20:52                                                Page 82


  4220 00:16F3: D0 03        	bne	L293
  4221 00:16F5: EE xx xx     	inc	|~~lp+2
  4222                        L293:
  4223 00:16F8: 82 B6 FF     	brl	L10162
  4224                        L10163:
  4225                        L10161:
  4226                        L10158:
  4227 00:16FB: A9 06 00     	lda	#$6
  4228 00:16FE: 8D xx xx     	sta	|~~next
  4229 00:1701: AD xx xx     	lda	|~~lp
  4230 00:1704: 85 01        	sta	<R0
  4231 00:1706: AD xx xx     	lda	|~~lp+2
  4232 00:1709: 85 03        	sta	<R0+2
  4233 00:170B: E2 20        	sep	#$20
  4234                        	longa	off
  4235 00:170D: A7 01        	lda	[<R0]
  4236 00:170F: 85 0B        	sta	<L283+ch_1
  4237 00:1711: C2 20        	rep	#$20
  4238                        	longa	on
  4239 00:1713: E2 20        	sep	#$20
  4240                        	longa	off
  4241 00:1715: A9 01        	lda	#$1
  4242 00:1717: 8D xx xx     	sta	|~~firstitem
  4243 00:171A: C2 20        	rep	#$20
  4244                        	longa	on
  4245 00:171C: E2 20        	sep	#$20
  4246                        	longa	off
  4247 00:171E: A9 01        	lda	#$1
  4248 00:1720: 8D xx xx     	sta	|~~linestart
  4249 00:1723: C2 20        	rep	#$20
  4250                        	longa	on
  4251                        L10164:
  4252 00:1725: A5 0B        	lda	<L283+ch_1
  4253 00:1727: 29 FF 00     	and	#$ff
  4254 00:172A: D0 03        	bne	L294
  4255 00:172C: 82 26 02     	brl	L10165
  4256                        L294:
  4257 00:172F: D4 0B        	pei	<L283+ch_1
  4258 00:1731: 22 xx xx xx  	jsl	~~isidstart
  4259 00:1735: 29 FF 00     	and	#$ff
  4260 00:1738: D0 03        	bne	L295
  4261 00:173A: 82 83 00     	brl	L10166
  4262                        L295:
  4263 00:173D: A5 0B        	lda	<L283+ch_1
  4264 00:173F: 29 FF 00     	and	#$ff
  4265 00:1742: 48           	pha
  4266 00:1743: 22 xx xx xx  	jsl	~~toupper
  4267 00:1747: 85 01        	sta	<R0
  4268 00:1749: 38           	sec
  4269 00:174A: A5 01        	lda	<R0
  4270 00:174C: E9 41 00     	sbc	#<$41
  4271 00:174F: 70 03        	bvs	L296
  4272 00:1751: 49 00 80     	eor	#$8000
  4273                        L296:
  4274 00:1754: 30 03        	bmi	L297
  4275 00:1756: 82 25 00     	brl	L10167
  4276                        L297:
  4277 00:1759: A5 0B        	lda	<L283+ch_1
  Sun Jan  9 2022 20:52                                                Page 83


  4278 00:175B: 29 FF 00     	and	#$ff
  4279 00:175E: 48           	pha
  4280 00:175F: 22 xx xx xx  	jsl	~~toupper
  4281 00:1763: 85 01        	sta	<R0
  4282 00:1765: 38           	sec
  4283 00:1766: A9 58 00     	lda	#$58
  4284 00:1769: E5 01        	sbc	<R0
  4285 00:176B: 70 03        	bvs	L298
  4286 00:176D: 49 00 80     	eor	#$8000
  4287                        L298:
  4288 00:1770: 30 03        	bmi	L299
  4289 00:1772: 82 09 00     	brl	L10167
  4290                        L299:
  4291 00:1775: 22 xx xx xx  	jsl	~~kwsearch
  4292 00:1779: 85 09        	sta	<L283+token_1
  4293 00:177B: 82 05 00     	brl	L10168
  4294                        L10167:
  4295 00:177E: A9 FF 00     	lda	#$ff
  4296 00:1781: 85 09        	sta	<L283+token_1
  4297                        L10168:
  4298 00:1783: A5 09        	lda	<L283+token_1
  4299 00:1785: C9 FF 00     	cmp	#<$ff
  4300 00:1788: D0 03        	bne	L300
  4301 00:178A: 82 1F 00     	brl	L10169
  4302                        L300:
  4303 00:178D: D4 09        	pei	<L283+token_1
  4304 00:178F: 22 xx xx xx  	jsl	~~copy_keyword
  4305 00:1793: A5 09        	lda	<L283+token_1
  4306 00:1795: A2 0E 00     	ldx	#<$e
  4307                        	xref	~~~mul
  4308 00:1798: 22 xx xx xx  	jsl	~~~mul
  4309 00:179C: 85 01        	sta	<R0
  4310 00:179E: E2 20        	sep	#$20
  4311                        	longa	off
  4312 00:17A0: A6 01        	ldx	<R0
  4313 00:17A2: BD xx xx     	lda	|~~tokens+13,X
  4314 00:17A5: 85 0C        	sta	<L283+linenoposs_1
  4315 00:17A7: C2 20        	rep	#$20
  4316                        	longa	on
  4317 00:17A9: 82 11 00     	brl	L10170
  4318                        L10169:
  4319 00:17AC: 22 xx xx xx  	jsl	~~copy_variable
  4320 00:17B0: E2 20        	sep	#$20
  4321                        	longa	off
  4322 00:17B2: 9C xx xx     	stz	|~~firstitem
  4323 00:17B5: C2 20        	rep	#$20
  4324                        	longa	on
  4325 00:17B7: E2 20        	sep	#$20
  4326                        	longa	off
  4327 00:17B9: 64 0C        	stz	<L283+linenoposs_1
  4328 00:17BB: C2 20        	rep	#$20
  4329                        	longa	on
  4330                        L10170:
  4331 00:17BD: 82 79 01     	brl	L10171
  4332                        L10166:
  4333 00:17C0: E2 20        	sep	#$20
  4334                        	longa	off
  4335 00:17C2: A5 0B        	lda	<L283+ch_1
  Sun Jan  9 2022 20:52                                                Page 84


  4336 00:17C4: C9 40        	cmp	#<$40
  4337 00:17C6: C2 20        	rep	#$20
  4338                        	longa	on
  4339 00:17C8: F0 03        	beq	L301
  4340 00:17CA: 82 2E 00     	brl	L10172
  4341                        L301:
  4342 00:17CD: AD xx xx     	lda	|~~lp
  4343 00:17D0: 85 01        	sta	<R0
  4344 00:17D2: AD xx xx     	lda	|~~lp+2
  4345 00:17D5: 85 03        	sta	<R0+2
  4346 00:17D7: E2 20        	sep	#$20
  4347                        	longa	off
  4348 00:17D9: A0 01 00     	ldy	#$1
  4349 00:17DC: B7 01        	lda	[<R0],Y
  4350 00:17DE: C9 25        	cmp	#<$25
  4351 00:17E0: C2 20        	rep	#$20
  4352                        	longa	on
  4353 00:17E2: F0 03        	beq	L302
  4354 00:17E4: 82 14 00     	brl	L10172
  4355                        L302:
  4356 00:17E7: 22 xx xx xx  	jsl	~~copy_variable
  4357 00:17EB: E2 20        	sep	#$20
  4358                        	longa	off
  4359 00:17ED: 9C xx xx     	stz	|~~firstitem
  4360 00:17F0: C2 20        	rep	#$20
  4361                        	longa	on
  4362 00:17F2: E2 20        	sep	#$20
  4363                        	longa	off
  4364 00:17F4: 64 0C        	stz	<L283+linenoposs_1
  4365 00:17F6: C2 20        	rep	#$20
  4366                        	longa	on
  4367 00:17F8: 82 3E 01     	brl	L10173
  4368                        L10172:
  4369 00:17FB: A5 0C        	lda	<L283+linenoposs_1
  4370 00:17FD: 29 FF 00     	and	#$ff
  4371 00:1800: D0 03        	bne	L303
  4372 00:1802: 82 28 00     	brl	L10174
  4373                        L303:
  4374 00:1805: E2 20        	sep	#$20
  4375                        	longa	off
  4376 00:1807: A5 0B        	lda	<L283+ch_1
  4377 00:1809: C9 30        	cmp	#<$30
  4378 00:180B: C2 20        	rep	#$20
  4379                        	longa	on
  4380 00:180D: B0 03        	bcs	L304
  4381 00:180F: 82 1B 00     	brl	L10174
  4382                        L304:
  4383 00:1812: E2 20        	sep	#$20
  4384                        	longa	off
  4385 00:1814: A9 39        	lda	#$39
  4386 00:1816: C5 0B        	cmp	<L283+ch_1
  4387 00:1818: C2 20        	rep	#$20
  4388                        	longa	on
  4389 00:181A: B0 03        	bcs	L305
  4390 00:181C: 82 0E 00     	brl	L10174
  4391                        L305:
  4392 00:181F: 22 xx xx xx  	jsl	~~copy_lineno
  4393 00:1823: E2 20        	sep	#$20
  Sun Jan  9 2022 20:52                                                Page 85


  4394                        	longa	off
  4395 00:1825: 9C xx xx     	stz	|~~firstitem
  4396 00:1828: C2 20        	rep	#$20
  4397                        	longa	on
  4398 00:182A: 82 0C 01     	brl	L10175
  4399                        L10174:
  4400 00:182D: E2 20        	sep	#$20
  4401                        	longa	off
  4402 00:182F: A5 0B        	lda	<L283+ch_1
  4403 00:1831: C9 30        	cmp	#<$30
  4404 00:1833: C2 20        	rep	#$20
  4405                        	longa	on
  4406 00:1835: B0 03        	bcs	L308
  4407 00:1837: 82 0D 00     	brl	L307
  4408                        L308:
  4409 00:183A: E2 20        	sep	#$20
  4410                        	longa	off
  4411 00:183C: A9 39        	lda	#$39
  4412 00:183E: C5 0B        	cmp	<L283+ch_1
  4413 00:1840: C2 20        	rep	#$20
  4414                        	longa	on
  4415 00:1842: 90 03        	bcc	L309
  4416 00:1844: 82 27 00     	brl	L306
  4417                        L309:
  4418                        L307:
  4419 00:1847: E2 20        	sep	#$20
  4420                        	longa	off
  4421 00:1849: A5 0B        	lda	<L283+ch_1
  4422 00:184B: C9 26        	cmp	#<$26
  4423 00:184D: C2 20        	rep	#$20
  4424                        	longa	on
  4425 00:184F: D0 03        	bne	L310
  4426 00:1851: 82 1A 00     	brl	L306
  4427                        L310:
  4428 00:1854: E2 20        	sep	#$20
  4429                        	longa	off
  4430 00:1856: A5 0B        	lda	<L283+ch_1
  4431 00:1858: C9 25        	cmp	#<$25
  4432 00:185A: C2 20        	rep	#$20
  4433                        	longa	on
  4434 00:185C: D0 03        	bne	L311
  4435 00:185E: 82 0D 00     	brl	L306
  4436                        L311:
  4437 00:1861: E2 20        	sep	#$20
  4438                        	longa	off
  4439 00:1863: A5 0B        	lda	<L283+ch_1
  4440 00:1865: C9 2E        	cmp	#<$2e
  4441 00:1867: C2 20        	rep	#$20
  4442                        	longa	on
  4443 00:1869: F0 03        	beq	L312
  4444 00:186B: 82 14 00     	brl	L10176
  4445                        L312:
  4446                        L306:
  4447 00:186E: 22 xx xx xx  	jsl	~~copy_number
  4448 00:1872: E2 20        	sep	#$20
  4449                        	longa	off
  4450 00:1874: 9C xx xx     	stz	|~~firstitem
  4451 00:1877: C2 20        	rep	#$20
  Sun Jan  9 2022 20:52                                                Page 86


  4452                        	longa	on
  4453 00:1879: E2 20        	sep	#$20
  4454                        	longa	off
  4455 00:187B: 64 0C        	stz	<L283+linenoposs_1
  4456 00:187D: C2 20        	rep	#$20
  4457                        	longa	on
  4458 00:187F: 82 B7 00     	brl	L10177
  4459                        L10176:
  4460 00:1882: E2 20        	sep	#$20
  4461                        	longa	off
  4462 00:1884: A5 0B        	lda	<L283+ch_1
  4463 00:1886: C9 22        	cmp	#<$22
  4464 00:1888: C2 20        	rep	#$20
  4465                        	longa	on
  4466 00:188A: F0 03        	beq	L313
  4467 00:188C: 82 14 00     	brl	L10178
  4468                        L313:
  4469 00:188F: 22 xx xx xx  	jsl	~~copy_string
  4470 00:1893: E2 20        	sep	#$20
  4471                        	longa	off
  4472 00:1895: 9C xx xx     	stz	|~~firstitem
  4473 00:1898: C2 20        	rep	#$20
  4474                        	longa	on
  4475 00:189A: E2 20        	sep	#$20
  4476                        	longa	off
  4477 00:189C: 64 0C        	stz	<L283+linenoposs_1
  4478 00:189E: C2 20        	rep	#$20
  4479                        	longa	on
  4480 00:18A0: 82 96 00     	brl	L10179
  4481                        L10178:
  4482 00:18A3: AD xx xx     	lda	|~~firstitem
  4483 00:18A6: 29 FF 00     	and	#$ff
  4484 00:18A9: D0 03        	bne	L314
  4485 00:18AB: 82 36 00     	brl	L10180
  4486                        L314:
  4487 00:18AE: E2 20        	sep	#$20
  4488                        	longa	off
  4489 00:18B0: A5 0B        	lda	<L283+ch_1
  4490 00:18B2: C9 2A        	cmp	#<$2a
  4491 00:18B4: C2 20        	rep	#$20
  4492                        	longa	on
  4493 00:18B6: F0 03        	beq	L315
  4494 00:18B8: 82 29 00     	brl	L10180
  4495                        L315:
  4496 00:18BB: F4 D8 00     	pea	#<$d8
  4497 00:18BE: 22 xx xx xx  	jsl	~~store
  4498 00:18C2: 18           	clc
  4499 00:18C3: A9 01 00     	lda	#$1
  4500 00:18C6: 6D xx xx     	adc	|~~lp
  4501 00:18C9: 85 01        	sta	<R0
  4502 00:18CB: A9 00 00     	lda	#$0
  4503 00:18CE: 6D xx xx     	adc	|~~lp+2
  4504 00:18D1: 85 03        	sta	<R0+2
  4505 00:18D3: D4 03        	pei	<R0+2
  4506 00:18D5: D4 01        	pei	<R0
  4507 00:18D7: 22 xx xx xx  	jsl	~~copy_line
  4508 00:18DB: 8D xx xx     	sta	|~~lp
  4509 00:18DE: 8E xx xx     	stx	|~~lp+2
  Sun Jan  9 2022 20:52                                                Page 87


  4510 00:18E1: 82 55 00     	brl	L10181
  4511                        L10180:
  4512 00:18E4: E2 20        	sep	#$20
  4513                        	longa	off
  4514 00:18E6: A5 0B        	lda	<L283+ch_1
  4515 00:18E8: C9 80        	cmp	#<$80
  4516 00:18EA: C2 20        	rep	#$20
  4517                        	longa	on
  4518 00:18EC: B0 03        	bcs	L316
  4519 00:18EE: 82 07 00     	brl	L10182
  4520                        L316:
  4521 00:18F1: 22 xx xx xx  	jsl	~~copy_token
  4522 00:18F5: 82 41 00     	brl	L10183
  4523                        L10182:
  4524 00:18F8: 22 xx xx xx  	jsl	~~copy_other
  4525 00:18FC: 64 01        	stz	<R0
  4526 00:18FE: A5 0C        	lda	<L283+linenoposs_1
  4527 00:1900: 29 FF 00     	and	#$ff
  4528 00:1903: D0 03        	bne	L318
  4529 00:1905: 82 29 00     	brl	L317
  4530                        L318:
  4531 00:1908: E2 20        	sep	#$20
  4532                        	longa	off
  4533 00:190A: A5 0B        	lda	<L283+ch_1
  4534 00:190C: C9 20        	cmp	#<$20
  4535 00:190E: C2 20        	rep	#$20
  4536                        	longa	on
  4537 00:1910: D0 03        	bne	L320
  4538 00:1912: 82 1A 00     	brl	L319
  4539                        L320:
  4540 00:1915: E2 20        	sep	#$20
  4541                        	longa	off
  4542 00:1917: A5 0B        	lda	<L283+ch_1
  4543 00:1919: C9 09        	cmp	#<$9
  4544 00:191B: C2 20        	rep	#$20
  4545                        	longa	on
  4546 00:191D: D0 03        	bne	L321
  4547 00:191F: 82 0D 00     	brl	L319
  4548                        L321:
  4549 00:1922: E2 20        	sep	#$20
  4550                        	longa	off
  4551 00:1924: A5 0B        	lda	<L283+ch_1
  4552 00:1926: C9 2C        	cmp	#<$2c
  4553 00:1928: C2 20        	rep	#$20
  4554                        	longa	on
  4555 00:192A: F0 03        	beq	L322
  4556 00:192C: 82 02 00     	brl	L317
  4557                        L322:
  4558                        L319:
  4559 00:192F: E6 01        	inc	<R0
  4560                        L317:
  4561 00:1931: E2 20        	sep	#$20
  4562                        	longa	off
  4563 00:1933: A5 01        	lda	<R0
  4564 00:1935: 85 0C        	sta	<L283+linenoposs_1
  4565 00:1937: C2 20        	rep	#$20
  4566                        	longa	on
  4567                        L10183:
  Sun Jan  9 2022 20:52                                                Page 88


  4568                        L10181:
  4569                        L10179:
  4570                        L10177:
  4571                        L10175:
  4572                        L10173:
  4573                        L10171:
  4574 00:1939: E2 20        	sep	#$20
  4575                        	longa	off
  4576 00:193B: 9C xx xx     	stz	|~~linestart
  4577 00:193E: C2 20        	rep	#$20
  4578                        	longa	on
  4579 00:1940: AD xx xx     	lda	|~~lp
  4580 00:1943: 85 01        	sta	<R0
  4581 00:1945: AD xx xx     	lda	|~~lp+2
  4582 00:1948: 85 03        	sta	<R0+2
  4583 00:194A: E2 20        	sep	#$20
  4584                        	longa	off
  4585 00:194C: A7 01        	lda	[<R0]
  4586 00:194E: 85 0B        	sta	<L283+ch_1
  4587 00:1950: C2 20        	rep	#$20
  4588                        	longa	on
  4589 00:1952: 82 D0 FD     	brl	L10164
  4590                        L10165:
  4591 00:1955: F4 00 00     	pea	#<$0
  4592 00:1958: 22 xx xx xx  	jsl	~~store
  4593 00:195C: AD xx xx     	lda	|~~next
  4594 00:195F: 48           	pha
  4595 00:1960: 22 xx xx xx  	jsl	~~store_exec
  4596 00:1964: F4 00 00     	pea	#<$0
  4597 00:1967: 22 xx xx xx  	jsl	~~store
  4598 00:196B: AD xx xx     	lda	|~~next
  4599 00:196E: 48           	pha
  4600 00:196F: 22 xx xx xx  	jsl	~~store_linelen
  4601 00:1973: CE xx xx     	dec	|~~next
  4602 00:1976: AD xx xx     	lda	|~~brackets
  4603 00:1979: 30 03        	bmi	L323
  4604 00:197B: 82 13 00     	brl	L10184
  4605                        L323:
  4606 00:197E: A9 28 00     	lda	#$28
  4607 00:1981: 8D xx xx     	sta	|~~lasterror
  4608 00:1984: F4 89 00     	pea	#<$89
  4609 00:1987: F4 04 00     	pea	#4
  4610 00:198A: 22 xx xx xx  	jsl	~~error
  4611 00:198E: 82 21 00     	brl	L10185
  4612                        L10184:
  4613 00:1991: 38           	sec
  4614 00:1992: A9 00 00     	lda	#$0
  4615 00:1995: ED xx xx     	sbc	|~~brackets
  4616 00:1998: 70 03        	bvs	L324
  4617 00:199A: 49 00 80     	eor	#$8000
  4618                        L324:
  4619 00:199D: 10 03        	bpl	L325
  4620 00:199F: 82 10 00     	brl	L10186
  4621                        L325:
  4622 00:19A2: A9 29 00     	lda	#$29
  4623 00:19A5: 8D xx xx     	sta	|~~lasterror
  4624 00:19A8: F4 88 00     	pea	#<$88
  4625 00:19AB: F4 04 00     	pea	#4
  Sun Jan  9 2022 20:52                                                Page 89


  4626 00:19AE: 22 xx xx xx  	jsl	~~error
  4627                        L10186:
  4628                        L10185:
  4629                        L326:
  4630 00:19B2: A5 0E        	lda	<L282+2
  4631 00:19B4: 85 14        	sta	<L282+2+6
  4632 00:19B6: A5 0D        	lda	<L282+1
  4633 00:19B8: 85 13        	sta	<L282+1+6
  4634 00:19BA: 2B           	pld
  4635 00:19BB: 3B           	tsc
  4636 00:19BC: 18           	clc
  4637 00:19BD: 69 12 00     	adc	#L282+6
  4638 00:19C0: 1B           	tcs
  4639 00:19C1: 6B           	rtl
  4640             0000000C   L282	equ	12
  4641             00000009   L283	equ	9
  4642                        	ends
  4643                        	efunc
  4644                        	code
  4645                        	func
  4646                        ~~do_keyword:
  4647                        	longa	on
  4648                        	longi	on
  4649 00:19C2: 3B           	tsc
  4650 00:19C3: 38           	sec
  4651 00:19C4: E9 05 00     	sbc	#L327
  4652 00:19C7: 1B           	tcs
  4653 00:19C8: 0B           	phd
  4654 00:19C9: 5B           	tcd
  4655             00000000   token_1	set	0
  4656 00:19CA: AD xx xx     	lda	|~~tokenbase
  4657 00:19CD: 85 01        	sta	<R0
  4658 00:19CF: AD xx xx     	lda	|~~tokenbase+2
  4659 00:19D2: 85 03        	sta	<R0+2
  4660 00:19D4: E2 20        	sep	#$20
  4661                        	longa	off
  4662 00:19D6: AC xx xx     	ldy	|~~source
  4663 00:19D9: B7 01        	lda	[<R0],Y
  4664 00:19DB: 85 05        	sta	<L328+token_1
  4665 00:19DD: C2 20        	rep	#$20
  4666                        	longa	on
  4667 00:19DF: EE xx xx     	inc	|~~source
  4668 00:19E2: E2 20        	sep	#$20
  4669                        	longa	off
  4670 00:19E4: A5 05        	lda	<L328+token_1
  4671 00:19E6: C9 FC        	cmp	#<$fc
  4672 00:19E8: C2 20        	rep	#$20
  4673                        	longa	on
  4674 00:19EA: B0 03        	bcs	L329
  4675 00:19EC: 82 BC 00     	brl	L10187
  4676                        L329:
  4677 00:19EF: D4 05        	pei	<L328+token_1
  4678 00:19F1: 22 xx xx xx  	jsl	~~store
  4679 00:19F5: AD xx xx     	lda	|~~tokenbase
  4680 00:19F8: 85 01        	sta	<R0
  4681 00:19FA: AD xx xx     	lda	|~~tokenbase+2
  4682 00:19FD: 85 03        	sta	<R0+2
  4683 00:19FF: AC xx xx     	ldy	|~~source
  Sun Jan  9 2022 20:52                                                Page 90


  4684 00:1A02: B7 01        	lda	[<R0],Y
  4685 00:1A04: 48           	pha
  4686 00:1A05: 22 xx xx xx  	jsl	~~store
  4687 00:1A09: E2 20        	sep	#$20
  4688                        	longa	off
  4689 00:1A0B: A5 05        	lda	<L328+token_1
  4690 00:1A0D: C9 FC        	cmp	#<$fc
  4691 00:1A0F: C2 20        	rep	#$20
  4692                        	longa	on
  4693 00:1A11: F0 03        	beq	L330
  4694 00:1A13: 82 88 00     	brl	L10188
  4695                        L330:
  4696 00:1A16: AD xx xx     	lda	|~~tokenbase
  4697 00:1A19: 85 01        	sta	<R0
  4698 00:1A1B: AD xx xx     	lda	|~~tokenbase+2
  4699 00:1A1E: 85 03        	sta	<R0+2
  4700 00:1A20: E2 20        	sep	#$20
  4701                        	longa	off
  4702 00:1A22: AC xx xx     	ldy	|~~source
  4703 00:1A25: B7 01        	lda	[<R0],Y
  4704 00:1A27: C9 0B        	cmp	#<$b
  4705 00:1A29: C2 20        	rep	#$20
  4706                        	longa	on
  4707 00:1A2B: D0 03        	bne	L332
  4708 00:1A2D: 82 1A 00     	brl	L331
  4709                        L332:
  4710 00:1A30: AD xx xx     	lda	|~~tokenbase
  4711 00:1A33: 85 01        	sta	<R0
  4712 00:1A35: AD xx xx     	lda	|~~tokenbase+2
  4713 00:1A38: 85 03        	sta	<R0+2
  4714 00:1A3A: E2 20        	sep	#$20
  4715                        	longa	off
  4716 00:1A3C: AC xx xx     	ldy	|~~source
  4717 00:1A3F: B7 01        	lda	[<R0],Y
  4718 00:1A41: C9 10        	cmp	#<$10
  4719 00:1A43: C2 20        	rep	#$20
  4720                        	longa	on
  4721 00:1A45: F0 03        	beq	L333
  4722 00:1A47: 82 54 00     	brl	L10188
  4723                        L333:
  4724                        L331:
  4725                        L10191:
  4726 00:1A4A: EE xx xx     	inc	|~~source
  4727                        L10189:
  4728 00:1A4D: AD xx xx     	lda	|~~tokenbase
  4729 00:1A50: 85 01        	sta	<R0
  4730 00:1A52: AD xx xx     	lda	|~~tokenbase+2
  4731 00:1A55: 85 03        	sta	<R0+2
  4732 00:1A57: E2 20        	sep	#$20
  4733                        	longa	off
  4734 00:1A59: AC xx xx     	ldy	|~~source
  4735 00:1A5C: B7 01        	lda	[<R0],Y
  4736 00:1A5E: C9 20        	cmp	#<$20
  4737 00:1A60: C2 20        	rep	#$20
  4738                        	longa	on
  4739 00:1A62: D0 03        	bne	L334
  4740 00:1A64: 82 E3 FF     	brl	L10191
  4741                        L334:
  Sun Jan  9 2022 20:52                                                Page 91


  4742 00:1A67: AD xx xx     	lda	|~~tokenbase
  4743 00:1A6A: 85 01        	sta	<R0
  4744 00:1A6C: AD xx xx     	lda	|~~tokenbase+2
  4745 00:1A6F: 85 03        	sta	<R0+2
  4746 00:1A71: E2 20        	sep	#$20
  4747                        	longa	off
  4748 00:1A73: AC xx xx     	ldy	|~~source
  4749 00:1A76: B7 01        	lda	[<R0],Y
  4750 00:1A78: C9 09        	cmp	#<$9
  4751 00:1A7A: C2 20        	rep	#$20
  4752                        	longa	on
  4753 00:1A7C: D0 03        	bne	L335
  4754 00:1A7E: 82 C9 FF     	brl	L10191
  4755                        L335:
  4756                        L10190:
  4757 00:1A81: 18           	clc
  4758 00:1A82: A9 FF FF     	lda	#$ffff
  4759 00:1A85: 6D xx xx     	adc	|~~next
  4760 00:1A88: 85 01        	sta	<R0
  4761 00:1A8A: 38           	sec
  4762 00:1A8B: A5 01        	lda	<R0
  4763 00:1A8D: ED xx xx     	sbc	|~~source
  4764 00:1A90: 48           	pha
  4765 00:1A91: 22 xx xx xx  	jsl	~~store_shortoffset
  4766 00:1A95: A9 FF FF     	lda	#$ffff
  4767 00:1A98: 8D xx xx     	sta	|~~source
  4768 00:1A9B: 82 0A 00     	brl	L10192
  4769                        L10188:
  4770 00:1A9E: EE xx xx     	inc	|~~source
  4771 00:1AA1: E2 20        	sep	#$20
  4772                        	longa	off
  4773 00:1AA3: 9C xx xx     	stz	|~~firstitem
  4774 00:1AA6: C2 20        	rep	#$20
  4775                        	longa	on
  4776                        L10192:
  4777 00:1AA8: 82 7E 01     	brl	L10193
  4778                        L10187:
  4779 00:1AAB: D4 05        	pei	<L328+token_1
  4780 00:1AAD: 22 xx xx xx  	jsl	~~store
  4781 00:1AB1: 64 01        	stz	<R0
  4782 00:1AB3: E2 20        	sep	#$20
  4783                        	longa	off
  4784 00:1AB5: A5 05        	lda	<L328+token_1
  4785 00:1AB7: C9 D2        	cmp	#<$d2
  4786 00:1AB9: C2 20        	rep	#$20
  4787                        	longa	on
  4788 00:1ABB: D0 03        	bne	L338
  4789 00:1ABD: 82 27 00     	brl	L337
  4790                        L338:
  4791 00:1AC0: E2 20        	sep	#$20
  4792                        	longa	off
  4793 00:1AC2: A5 05        	lda	<L328+token_1
  4794 00:1AC4: C9 DF        	cmp	#<$df
  4795 00:1AC6: C2 20        	rep	#$20
  4796                        	longa	on
  4797 00:1AC8: D0 03        	bne	L339
  4798 00:1ACA: 82 1A 00     	brl	L337
  4799                        L339:
  Sun Jan  9 2022 20:52                                                Page 92


  4800 00:1ACD: E2 20        	sep	#$20
  4801                        	longa	off
  4802 00:1ACF: A5 05        	lda	<L328+token_1
  4803 00:1AD1: C9 9F        	cmp	#<$9f
  4804 00:1AD3: C2 20        	rep	#$20
  4805                        	longa	on
  4806 00:1AD5: D0 03        	bne	L340
  4807 00:1AD7: 82 0D 00     	brl	L337
  4808                        L340:
  4809 00:1ADA: E2 20        	sep	#$20
  4810                        	longa	off
  4811 00:1ADC: A5 05        	lda	<L328+token_1
  4812 00:1ADE: C9 C5        	cmp	#<$c5
  4813 00:1AE0: C2 20        	rep	#$20
  4814                        	longa	on
  4815 00:1AE2: F0 03        	beq	L341
  4816 00:1AE4: 82 02 00     	brl	L336
  4817                        L341:
  4818                        L337:
  4819 00:1AE7: E6 01        	inc	<R0
  4820                        L336:
  4821 00:1AE9: E2 20        	sep	#$20
  4822                        	longa	off
  4823 00:1AEB: A5 01        	lda	<R0
  4824 00:1AED: 8D xx xx     	sta	|~~firstitem
  4825 00:1AF0: C2 20        	rep	#$20
  4826                        	longa	on
  4827 00:1AF2: A5 05        	lda	<L328+token_1
  4828 00:1AF4: 29 FF 00     	and	#$ff
  4829 00:1AF7: 82 F7 00     	brl	L10194
  4830                        L10196:
  4831 00:1AFA: F4 00 00     	pea	#<$0
  4832 00:1AFD: 22 xx xx xx  	jsl	~~store_shortoffset
  4833 00:1B01: F4 00 00     	pea	#<$0
  4834 00:1B04: 22 xx xx xx  	jsl	~~store_shortoffset
  4835 00:1B08: 82 1E 01     	brl	L10195
  4836                        L10197:
  4837                        L10198:
  4838                        L10199:
  4839                        L10200:
  4840                        L10201:
  4841 00:1B0B: F4 00 00     	pea	#<$0
  4842 00:1B0E: 22 xx xx xx  	jsl	~~store_shortoffset
  4843 00:1B12: 82 14 01     	brl	L10195
  4844                        L10202:
  4845 00:1B15: F4 00 00     	pea	#<$0
  4846 00:1B18: 22 xx xx xx  	jsl	~~store_longoffset
  4847 00:1B1C: 82 0A 01     	brl	L10195
  4848                        L10203:
  4849                        L10204:
  4850 00:1B1F: CE xx xx     	dec	|~~next
  4851 00:1B22: F4 0C 00     	pea	#<$c
  4852 00:1B25: 22 xx xx xx  	jsl	~~store
  4853 00:1B29: 38           	sec
  4854 00:1B2A: AD xx xx     	lda	|~~next
  4855 00:1B2D: ED xx xx     	sbc	|~~source
  4856 00:1B30: 48           	pha
  4857 00:1B31: 22 xx xx xx  	jsl	~~store_longoffset
  Sun Jan  9 2022 20:52                                                Page 93


  4858                        L10205:
  4859 00:1B35: AD xx xx     	lda	|~~tokenbase
  4860 00:1B38: 85 01        	sta	<R0
  4861 00:1B3A: AD xx xx     	lda	|~~tokenbase+2
  4862 00:1B3D: 85 03        	sta	<R0+2
  4863 00:1B3F: AC xx xx     	ldy	|~~source
  4864 00:1B42: B7 01        	lda	[<R0],Y
  4865 00:1B44: 48           	pha
  4866 00:1B45: 22 xx xx xx  	jsl	~~isident
  4867 00:1B49: 29 FF 00     	and	#$ff
  4868 00:1B4C: D0 03        	bne	L342
  4869 00:1B4E: 82 06 00     	brl	L10206
  4870                        L342:
  4871 00:1B51: EE xx xx     	inc	|~~source
  4872 00:1B54: 82 DE FF     	brl	L10205
  4873                        L10206:
  4874 00:1B57: 82 CF 00     	brl	L10195
  4875                        L10207:
  4876 00:1B5A: CE xx xx     	dec	|~~next
  4877 00:1B5D: A9 FF FF     	lda	#$ffff
  4878 00:1B60: 8D xx xx     	sta	|~~source
  4879 00:1B63: 82 C3 00     	brl	L10195
  4880                        L10208:
  4881 00:1B66: 18           	clc
  4882 00:1B67: A9 FF FF     	lda	#$ffff
  4883 00:1B6A: 6D xx xx     	adc	|~~next
  4884 00:1B6D: 85 01        	sta	<R0
  4885 00:1B6F: 38           	sec
  4886 00:1B70: A5 01        	lda	<R0
  4887 00:1B72: ED xx xx     	sbc	|~~source
  4888 00:1B75: 48           	pha
  4889 00:1B76: 22 xx xx xx  	jsl	~~store_shortoffset
  4890 00:1B7A: A9 FF FF     	lda	#$ffff
  4891 00:1B7D: 8D xx xx     	sta	|~~source
  4892 00:1B80: 82 A6 00     	brl	L10195
  4893                        L10209:
  4894                        L10210:
  4895 00:1B83: AD xx xx     	lda	|~~tokenbase
  4896 00:1B86: 85 01        	sta	<R0
  4897 00:1B88: AD xx xx     	lda	|~~tokenbase+2
  4898 00:1B8B: 85 03        	sta	<R0+2
  4899 00:1B8D: E2 20        	sep	#$20
  4900                        	longa	off
  4901 00:1B8F: AC xx xx     	ldy	|~~source
  4902 00:1B92: B7 01        	lda	[<R0],Y
  4903 00:1B94: C9 20        	cmp	#<$20
  4904 00:1B96: C2 20        	rep	#$20
  4905                        	longa	on
  4906 00:1B98: D0 03        	bne	L344
  4907 00:1B9A: 82 1A 00     	brl	L343
  4908                        L344:
  4909 00:1B9D: AD xx xx     	lda	|~~tokenbase
  4910 00:1BA0: 85 01        	sta	<R0
  4911 00:1BA2: AD xx xx     	lda	|~~tokenbase+2
  4912 00:1BA5: 85 03        	sta	<R0+2
  4913 00:1BA7: E2 20        	sep	#$20
  4914                        	longa	off
  4915 00:1BA9: AC xx xx     	ldy	|~~source
  Sun Jan  9 2022 20:52                                                Page 94


  4916 00:1BAC: B7 01        	lda	[<R0],Y
  4917 00:1BAE: C9 09        	cmp	#<$9
  4918 00:1BB0: C2 20        	rep	#$20
  4919                        	longa	on
  4920 00:1BB2: F0 03        	beq	L345
  4921 00:1BB4: 82 06 00     	brl	L10211
  4922                        L345:
  4923                        L343:
  4924 00:1BB7: EE xx xx     	inc	|~~source
  4925 00:1BBA: 82 C6 FF     	brl	L10210
  4926                        L10211:
  4927 00:1BBD: AD xx xx     	lda	|~~tokenbase
  4928 00:1BC0: 85 01        	sta	<R0
  4929 00:1BC2: AD xx xx     	lda	|~~tokenbase+2
  4930 00:1BC5: 85 03        	sta	<R0+2
  4931 00:1BC7: E2 20        	sep	#$20
  4932                        	longa	off
  4933 00:1BC9: A9 80        	lda	#$80
  4934 00:1BCB: AC xx xx     	ldy	|~~source
  4935 00:1BCE: D7 01        	cmp	[<R0],Y
  4936 00:1BD0: C2 20        	rep	#$20
  4937                        	longa	on
  4938 00:1BD2: 90 03        	bcc	L346
  4939 00:1BD4: 82 17 00     	brl	L10212
  4940                        L346:
  4941 00:1BD7: AD xx xx     	lda	|~~tokenbase
  4942 00:1BDA: 85 01        	sta	<R0
  4943 00:1BDC: AD xx xx     	lda	|~~tokenbase+2
  4944 00:1BDF: 85 03        	sta	<R0+2
  4945 00:1BE1: AC xx xx     	ldy	|~~source
  4946 00:1BE4: B7 01        	lda	[<R0],Y
  4947 00:1BE6: 48           	pha
  4948 00:1BE7: 22 xx xx xx  	jsl	~~store
  4949 00:1BEB: EE xx xx     	inc	|~~source
  4950                        L10212:
  4951 00:1BEE: 82 38 00     	brl	L10195
  4952                        L10194:
  4953                        	xref	~~~swt
  4954 00:1BF1: 22 xx xx xx  	jsl	~~~swt
  4955 00:1BF5: 0C 00        	dw	12
  4956 00:1BF7: 90 00        	dw	144
  4957 00:1BF9: xx xx        	dw	L10202-1
  4958 00:1BFB: 99 00        	dw	153
  4959 00:1BFD: xx xx        	dw	L10208-1
  4960 00:1BFF: 9F 00        	dw	159
  4961 00:1C01: xx xx        	dw	L10197-1
  4962 00:1C03: A1 00        	dw	161
  4963 00:1C05: xx xx        	dw	L10198-1
  4964 00:1C07: AD 00        	dw	173
  4965 00:1C09: xx xx        	dw	L10203-1
  4966 00:1C0B: B2 00        	dw	178
  4967 00:1C0D: xx xx        	dw	L10196-1
  4968 00:1C0F: C5 00        	dw	197
  4969 00:1C11: xx xx        	dw	L10200-1
  4970 00:1C13: CD 00        	dw	205
  4971 00:1C15: xx xx        	dw	L10204-1
  4972 00:1C17: D1 00        	dw	209
  4973 00:1C19: xx xx        	dw	L10207-1
  Sun Jan  9 2022 20:52                                                Page 95


  4974 00:1C1B: E2 00        	dw	226
  4975 00:1C1D: xx xx        	dw	L10209-1
  4976 00:1C1F: E9 00        	dw	233
  4977 00:1C21: xx xx        	dw	L10199-1
  4978 00:1C23: EB 00        	dw	235
  4979 00:1C25: xx xx        	dw	L10201-1
  4980 00:1C27: xx xx        	dw	L10195-1
  4981                        L10195:
  4982                        L10193:
  4983                        L347:
  4984 00:1C29: 2B           	pld
  4985 00:1C2A: 3B           	tsc
  4986 00:1C2B: 18           	clc
  4987 00:1C2C: 69 05 00     	adc	#L327
  4988 00:1C2F: 1B           	tcs
  4989 00:1C30: 6B           	rtl
  4990             00000005   L327	equ	5
  4991             00000005   L328	equ	5
  4992                        	ends
  4993                        	efunc
  4994                        	code
  4995                        	func
  4996                        ~~do_statvar:
  4997                        	longa	on
  4998                        	longi	on
  4999 00:1C31: 3B           	tsc
  5000 00:1C32: 38           	sec
  5001 00:1C33: E9 0D 00     	sbc	#L348
  5002 00:1C36: 1B           	tcs
  5003 00:1C37: 0B           	phd
  5004 00:1C38: 5B           	tcd
  5005             00000000   first_1	set	0
  5006 00:1C39: AD xx xx     	lda	|~~tokenbase
  5007 00:1C3C: 85 01        	sta	<R0
  5008 00:1C3E: AD xx xx     	lda	|~~tokenbase+2
  5009 00:1C41: 85 03        	sta	<R0+2
  5010 00:1C43: E2 20        	sep	#$20
  5011                        	longa	off
  5012 00:1C45: AC xx xx     	ldy	|~~source
  5013 00:1C48: B7 01        	lda	[<R0],Y
  5014 00:1C4A: 85 0D        	sta	<L349+first_1
  5015 00:1C4C: C2 20        	rep	#$20
  5016                        	longa	on
  5017 00:1C4E: 18           	clc
  5018 00:1C4F: A9 02 00     	lda	#$2
  5019 00:1C52: 6D xx xx     	adc	|~~source
  5020 00:1C55: 85 01        	sta	<R0
  5021 00:1C57: AD xx xx     	lda	|~~tokenbase
  5022 00:1C5A: 85 05        	sta	<R1
  5023 00:1C5C: AD xx xx     	lda	|~~tokenbase+2
  5024 00:1C5F: 85 07        	sta	<R1+2
  5025 00:1C61: E2 20        	sep	#$20
  5026                        	longa	off
  5027 00:1C63: A4 01        	ldy	<R0
  5028 00:1C65: B7 05        	lda	[<R1],Y
  5029 00:1C67: C9 3F        	cmp	#<$3f
  5030 00:1C69: C2 20        	rep	#$20
  5031                        	longa	on
  Sun Jan  9 2022 20:52                                                Page 96


  5032 00:1C6B: D0 03        	bne	L351
  5033 00:1C6D: 82 22 00     	brl	L350
  5034                        L351:
  5035 00:1C70: 18           	clc
  5036 00:1C71: A9 02 00     	lda	#$2
  5037 00:1C74: 6D xx xx     	adc	|~~source
  5038 00:1C77: 85 05        	sta	<R1
  5039 00:1C79: AD xx xx     	lda	|~~tokenbase
  5040 00:1C7C: 85 09        	sta	<R2
  5041 00:1C7E: AD xx xx     	lda	|~~tokenbase+2
  5042 00:1C81: 85 0B        	sta	<R2+2
  5043 00:1C83: E2 20        	sep	#$20
  5044                        	longa	off
  5045 00:1C85: A4 05        	ldy	<R1
  5046 00:1C87: B7 09        	lda	[<R2],Y
  5047 00:1C89: C9 21        	cmp	#<$21
  5048 00:1C8B: C2 20        	rep	#$20
  5049                        	longa	on
  5050 00:1C8D: F0 03        	beq	L352
  5051 00:1C8F: 82 0A 00     	brl	L10213
  5052                        L352:
  5053                        L350:
  5054 00:1C92: F4 0B 00     	pea	#<$b
  5055 00:1C95: 22 xx xx xx  	jsl	~~store
  5056 00:1C99: 82 07 00     	brl	L10214
  5057                        L10213:
  5058 00:1C9C: F4 02 00     	pea	#<$2
  5059 00:1C9F: 22 xx xx xx  	jsl	~~store
  5060                        L10214:
  5061 00:1CA3: A5 0D        	lda	<L349+first_1
  5062 00:1CA5: 29 FF 00     	and	#$ff
  5063 00:1CA8: 85 01        	sta	<R0
  5064 00:1CAA: 18           	clc
  5065 00:1CAB: A9 C0 FF     	lda	#$ffc0
  5066 00:1CAE: 65 01        	adc	<R0
  5067 00:1CB0: 48           	pha
  5068 00:1CB1: 22 xx xx xx  	jsl	~~store
  5069 00:1CB5: EE xx xx     	inc	|~~source
  5070 00:1CB8: EE xx xx     	inc	|~~source
  5071 00:1CBB: E2 20        	sep	#$20
  5072                        	longa	off
  5073 00:1CBD: 9C xx xx     	stz	|~~firstitem
  5074 00:1CC0: C2 20        	rep	#$20
  5075                        	longa	on
  5076                        L353:
  5077 00:1CC2: 2B           	pld
  5078 00:1CC3: 3B           	tsc
  5079 00:1CC4: 18           	clc
  5080 00:1CC5: 69 0D 00     	adc	#L348
  5081 00:1CC8: 1B           	tcs
  5082 00:1CC9: 6B           	rtl
  5083             0000000D   L348	equ	13
  5084             0000000D   L349	equ	13
  5085                        	ends
  5086                        	efunc
  5087                        	code
  5088                        	func
  5089                        ~~do_dynamvar:
  Sun Jan  9 2022 20:52                                                Page 97


  5090                        	longa	on
  5091                        	longi	on
  5092 00:1CCA: 3B           	tsc
  5093 00:1CCB: 38           	sec
  5094 00:1CCC: E9 04 00     	sbc	#L354
  5095 00:1CCF: 1B           	tcs
  5096 00:1CD0: 0B           	phd
  5097 00:1CD1: 5B           	tcd
  5098 00:1CD2: EE xx xx     	inc	|~~source
  5099 00:1CD5: F4 01 00     	pea	#<$1
  5100 00:1CD8: 22 xx xx xx  	jsl	~~store
  5101 00:1CDC: 18           	clc
  5102 00:1CDD: A9 FF FF     	lda	#$ffff
  5103 00:1CE0: 6D xx xx     	adc	|~~next
  5104 00:1CE3: 85 01        	sta	<R0
  5105 00:1CE5: 38           	sec
  5106 00:1CE6: A5 01        	lda	<R0
  5107 00:1CE8: ED xx xx     	sbc	|~~source
  5108 00:1CEB: 48           	pha
  5109 00:1CEC: 22 xx xx xx  	jsl	~~store_longoffset
  5110                        L10215:
  5111 00:1CF0: AD xx xx     	lda	|~~tokenbase
  5112 00:1CF3: 85 01        	sta	<R0
  5113 00:1CF5: AD xx xx     	lda	|~~tokenbase+2
  5114 00:1CF8: 85 03        	sta	<R0+2
  5115 00:1CFA: AC xx xx     	ldy	|~~source
  5116 00:1CFD: B7 01        	lda	[<R0],Y
  5117 00:1CFF: 48           	pha
  5118 00:1D00: 22 xx xx xx  	jsl	~~isident
  5119 00:1D04: 29 FF 00     	and	#$ff
  5120 00:1D07: D0 03        	bne	L356
  5121 00:1D09: 82 06 00     	brl	L10216
  5122                        L356:
  5123 00:1D0C: EE xx xx     	inc	|~~source
  5124 00:1D0F: 82 DE FF     	brl	L10215
  5125                        L10216:
  5126 00:1D12: AD xx xx     	lda	|~~tokenbase
  5127 00:1D15: 85 01        	sta	<R0
  5128 00:1D17: AD xx xx     	lda	|~~tokenbase+2
  5129 00:1D1A: 85 03        	sta	<R0+2
  5130 00:1D1C: E2 20        	sep	#$20
  5131                        	longa	off
  5132 00:1D1E: AC xx xx     	ldy	|~~source
  5133 00:1D21: B7 01        	lda	[<R0],Y
  5134 00:1D23: C9 25        	cmp	#<$25
  5135 00:1D25: C2 20        	rep	#$20
  5136                        	longa	on
  5137 00:1D27: D0 03        	bne	L358
  5138 00:1D29: 82 1A 00     	brl	L357
  5139                        L358:
  5140 00:1D2C: AD xx xx     	lda	|~~tokenbase
  5141 00:1D2F: 85 01        	sta	<R0
  5142 00:1D31: AD xx xx     	lda	|~~tokenbase+2
  5143 00:1D34: 85 03        	sta	<R0+2
  5144 00:1D36: E2 20        	sep	#$20
  5145                        	longa	off
  5146 00:1D38: AC xx xx     	ldy	|~~source
  5147 00:1D3B: B7 01        	lda	[<R0],Y
  Sun Jan  9 2022 20:52                                                Page 98


  5148 00:1D3D: C9 24        	cmp	#<$24
  5149 00:1D3F: C2 20        	rep	#$20
  5150                        	longa	on
  5151 00:1D41: F0 03        	beq	L359
  5152 00:1D43: 82 03 00     	brl	L10217
  5153                        L359:
  5154                        L357:
  5155 00:1D46: EE xx xx     	inc	|~~source
  5156                        L10217:
  5157 00:1D49: AD xx xx     	lda	|~~tokenbase
  5158 00:1D4C: 85 01        	sta	<R0
  5159 00:1D4E: AD xx xx     	lda	|~~tokenbase+2
  5160 00:1D51: 85 03        	sta	<R0+2
  5161 00:1D53: E2 20        	sep	#$20
  5162                        	longa	off
  5163 00:1D55: AC xx xx     	ldy	|~~source
  5164 00:1D58: B7 01        	lda	[<R0],Y
  5165 00:1D5A: C9 28        	cmp	#<$28
  5166 00:1D5C: C2 20        	rep	#$20
  5167                        	longa	on
  5168 00:1D5E: D0 03        	bne	L361
  5169 00:1D60: 82 1A 00     	brl	L360
  5170                        L361:
  5171 00:1D63: AD xx xx     	lda	|~~tokenbase
  5172 00:1D66: 85 01        	sta	<R0
  5173 00:1D68: AD xx xx     	lda	|~~tokenbase+2
  5174 00:1D6B: 85 03        	sta	<R0+2
  5175 00:1D6D: E2 20        	sep	#$20
  5176                        	longa	off
  5177 00:1D6F: AC xx xx     	ldy	|~~source
  5178 00:1D72: B7 01        	lda	[<R0],Y
  5179 00:1D74: C9 5B        	cmp	#<$5b
  5180 00:1D76: C2 20        	rep	#$20
  5181                        	longa	on
  5182 00:1D78: F0 03        	beq	L362
  5183 00:1D7A: 82 03 00     	brl	L10218
  5184                        L362:
  5185                        L360:
  5186 00:1D7D: EE xx xx     	inc	|~~source
  5187                        L10218:
  5188 00:1D80: E2 20        	sep	#$20
  5189                        	longa	off
  5190 00:1D82: 9C xx xx     	stz	|~~firstitem
  5191 00:1D85: C2 20        	rep	#$20
  5192                        	longa	on
  5193                        L363:
  5194 00:1D87: 2B           	pld
  5195 00:1D88: 3B           	tsc
  5196 00:1D89: 18           	clc
  5197 00:1D8A: 69 04 00     	adc	#L354
  5198 00:1D8D: 1B           	tcs
  5199 00:1D8E: 6B           	rtl
  5200             00000004   L354	equ	4
  5201             00000005   L355	equ	5
  5202                        	ends
  5203                        	efunc
  5204                        	code
  5205                        	func
  Sun Jan  9 2022 20:52                                                Page 99


  5206                        ~~do_linenumber:
  5207                        	longa	on
  5208                        	longi	on
  5209 00:1D8F: 3B           	tsc
  5210 00:1D90: 38           	sec
  5211 00:1D91: E9 12 00     	sbc	#L364
  5212 00:1D94: 1B           	tcs
  5213 00:1D95: 0B           	phd
  5214 00:1D96: 5B           	tcd
  5215             00000000   line_1	set	0
  5216 00:1D97: 18           	clc
  5217 00:1D98: A9 02 00     	lda	#$2
  5218 00:1D9B: 6D xx xx     	adc	|~~source
  5219 00:1D9E: 85 05        	sta	<R1
  5220 00:1DA0: AD xx xx     	lda	|~~tokenbase
  5221 00:1DA3: 85 09        	sta	<R2
  5222 00:1DA5: AD xx xx     	lda	|~~tokenbase+2
  5223 00:1DA8: 85 0B        	sta	<R2+2
  5224 00:1DAA: A4 05        	ldy	<R1
  5225 00:1DAC: B7 09        	lda	[<R2],Y
  5226 00:1DAE: 29 FF 00     	and	#$ff
  5227 00:1DB1: 85 09        	sta	<R2
  5228 00:1DB3: A5 09        	lda	<R2
  5229 00:1DB5: EB           	xba
  5230 00:1DB6: 29 00 FF     	and	#$ff00
  5231 00:1DB9: 85 01        	sta	<R0
  5232 00:1DBB: AD xx xx     	lda	|~~source
  5233 00:1DBE: 1A           	ina
  5234 00:1DBF: 85 09        	sta	<R2
  5235 00:1DC1: AD xx xx     	lda	|~~tokenbase
  5236 00:1DC4: 85 0D        	sta	<R3
  5237 00:1DC6: AD xx xx     	lda	|~~tokenbase+2
  5238 00:1DC9: 85 0F        	sta	<R3+2
  5239 00:1DCB: A4 09        	ldy	<R2
  5240 00:1DCD: B7 0D        	lda	[<R3],Y
  5241 00:1DCF: 29 FF 00     	and	#$ff
  5242 00:1DD2: 85 0D        	sta	<R3
  5243 00:1DD4: 18           	clc
  5244 00:1DD5: A5 0D        	lda	<R3
  5245 00:1DD7: 65 01        	adc	<R0
  5246 00:1DD9: 85 11        	sta	<L365+line_1
  5247 00:1DDB: F4 1E 00     	pea	#<$1e
  5248 00:1DDE: 22 xx xx xx  	jsl	~~store
  5249 00:1DE2: D4 11        	pei	<L365+line_1
  5250 00:1DE4: 22 xx xx xx  	jsl	~~store_longoffset
  5251 00:1DE8: EE xx xx     	inc	|~~source
  5252 00:1DEB: EE xx xx     	inc	|~~source
  5253 00:1DEE: EE xx xx     	inc	|~~source
  5254 00:1DF1: E2 20        	sep	#$20
  5255                        	longa	off
  5256 00:1DF3: 9C xx xx     	stz	|~~firstitem
  5257 00:1DF6: C2 20        	rep	#$20
  5258                        	longa	on
  5259                        L366:
  5260 00:1DF8: 2B           	pld
  5261 00:1DF9: 3B           	tsc
  5262 00:1DFA: 18           	clc
  5263 00:1DFB: 69 12 00     	adc	#L364
  Sun Jan  9 2022 20:52                                                Page 100


  5264 00:1DFE: 1B           	tcs
  5265 00:1DFF: 6B           	rtl
  5266             00000012   L364	equ	18
  5267             00000011   L365	equ	17
  5268                        	ends
  5269                        	efunc
  5270                        	code
  5271                        	func
  5272                        ~~do_number:
  5273                        	longa	on
  5274                        	longi	on
  5275 00:1E00: 3B           	tsc
  5276 00:1E01: 38           	sec
  5277 00:1E02: E9 13 00     	sbc	#L367
  5278 00:1E05: 1B           	tcs
  5279 00:1E06: 0B           	phd
  5280 00:1E07: 5B           	tcd
  5281                        	udata
  5282                        L10219:
  5283 00:0000:              	ds	4
  5284 00:0004:              	ends
  5285             00000000   value_1	set	0
  5286             00000002   isintvalue_1	set	2
  5287             00000003   p_1	set	3
  5288 00:1E08: 64 0D        	stz	<L368+value_1
  5289 00:1E0A: E2 20        	sep	#$20
  5290                        	longa	off
  5291 00:1E0C: A9 01        	lda	#$1
  5292 00:1E0E: 85 0F        	sta	<L368+isintvalue_1
  5293 00:1E10: C2 20        	rep	#$20
  5294                        	longa	on
  5295 00:1E12: AD xx xx     	lda	|~~tokenbase
  5296 00:1E15: 85 01        	sta	<R0
  5297 00:1E17: AD xx xx     	lda	|~~tokenbase+2
  5298 00:1E1A: 85 03        	sta	<R0+2
  5299 00:1E1C: AC xx xx     	ldy	|~~source
  5300 00:1E1F: B7 01        	lda	[<R0],Y
  5301 00:1E21: 29 FF 00     	and	#$ff
  5302 00:1E24: 82 35 01     	brl	L10220
  5303                        L10222:
  5304 00:1E27: EE xx xx     	inc	|~~source
  5305                        L10223:
  5306 00:1E2A: AD xx xx     	lda	|~~tokenbase
  5307 00:1E2D: 85 01        	sta	<R0
  5308 00:1E2F: AD xx xx     	lda	|~~tokenbase+2
  5309 00:1E32: 85 03        	sta	<R0+2
  5310 00:1E34: AC xx xx     	ldy	|~~source
  5311 00:1E37: B7 01        	lda	[<R0],Y
  5312 00:1E39: 29 FF 00     	and	#$ff
  5313 00:1E3C: 48           	pha
  5314 00:1E3D: 22 xx xx xx  	jsl	~~isxdigit
  5315 00:1E41: AA           	tax
  5316 00:1E42: D0 03        	bne	L369
  5317 00:1E44: 82 2B 00     	brl	L10224
  5318                        L369:
  5319 00:1E47: A5 0D        	lda	<L368+value_1
  5320 00:1E49: 0A           	asl	A
  5321 00:1E4A: 0A           	asl	A
  Sun Jan  9 2022 20:52                                                Page 101


  5322 00:1E4B: 0A           	asl	A
  5323 00:1E4C: 0A           	asl	A
  5324 00:1E4D: 85 01        	sta	<R0
  5325 00:1E4F: AD xx xx     	lda	|~~tokenbase
  5326 00:1E52: 85 05        	sta	<R1
  5327 00:1E54: AD xx xx     	lda	|~~tokenbase+2
  5328 00:1E57: 85 07        	sta	<R1+2
  5329 00:1E59: AC xx xx     	ldy	|~~source
  5330 00:1E5C: B7 05        	lda	[<R1],Y
  5331 00:1E5E: 48           	pha
  5332 00:1E5F: 22 xx xx xx  	jsl	~~todigit
  5333 00:1E63: 85 05        	sta	<R1
  5334 00:1E65: 18           	clc
  5335 00:1E66: A5 05        	lda	<R1
  5336 00:1E68: 65 01        	adc	<R0
  5337 00:1E6A: 85 0D        	sta	<L368+value_1
  5338 00:1E6C: EE xx xx     	inc	|~~source
  5339 00:1E6F: 82 B8 FF     	brl	L10223
  5340                        L10224:
  5341 00:1E72: 82 F7 00     	brl	L10221
  5342                        L10225:
  5343 00:1E75: EE xx xx     	inc	|~~source
  5344                        L10226:
  5345 00:1E78: AD xx xx     	lda	|~~tokenbase
  5346 00:1E7B: 85 01        	sta	<R0
  5347 00:1E7D: AD xx xx     	lda	|~~tokenbase+2
  5348 00:1E80: 85 03        	sta	<R0+2
  5349 00:1E82: E2 20        	sep	#$20
  5350                        	longa	off
  5351 00:1E84: AC xx xx     	ldy	|~~source
  5352 00:1E87: B7 01        	lda	[<R0],Y
  5353 00:1E89: C9 30        	cmp	#<$30
  5354 00:1E8B: C2 20        	rep	#$20
  5355                        	longa	on
  5356 00:1E8D: D0 03        	bne	L371
  5357 00:1E8F: 82 1A 00     	brl	L370
  5358                        L371:
  5359 00:1E92: AD xx xx     	lda	|~~tokenbase
  5360 00:1E95: 85 01        	sta	<R0
  5361 00:1E97: AD xx xx     	lda	|~~tokenbase+2
  5362 00:1E9A: 85 03        	sta	<R0+2
  5363 00:1E9C: E2 20        	sep	#$20
  5364                        	longa	off
  5365 00:1E9E: AC xx xx     	ldy	|~~source
  5366 00:1EA1: B7 01        	lda	[<R0],Y
  5367 00:1EA3: C9 31        	cmp	#<$31
  5368 00:1EA5: C2 20        	rep	#$20
  5369                        	longa	on
  5370 00:1EA7: F0 03        	beq	L372
  5371 00:1EA9: 82 2E 00     	brl	L10227
  5372                        L372:
  5373                        L370:
  5374 00:1EAC: A5 0D        	lda	<L368+value_1
  5375 00:1EAE: 0A           	asl	A
  5376 00:1EAF: 85 01        	sta	<R0
  5377 00:1EB1: AD xx xx     	lda	|~~tokenbase
  5378 00:1EB4: 85 05        	sta	<R1
  5379 00:1EB6: AD xx xx     	lda	|~~tokenbase+2
  Sun Jan  9 2022 20:52                                                Page 102


  5380 00:1EB9: 85 07        	sta	<R1+2
  5381 00:1EBB: AC xx xx     	ldy	|~~source
  5382 00:1EBE: B7 05        	lda	[<R1],Y
  5383 00:1EC0: 29 FF 00     	and	#$ff
  5384 00:1EC3: 85 05        	sta	<R1
  5385 00:1EC5: 18           	clc
  5386 00:1EC6: A5 05        	lda	<R1
  5387 00:1EC8: 65 01        	adc	<R0
  5388 00:1ECA: 85 09        	sta	<R2
  5389 00:1ECC: 18           	clc
  5390 00:1ECD: A9 D0 FF     	lda	#$ffd0
  5391 00:1ED0: 65 09        	adc	<R2
  5392 00:1ED2: 85 0D        	sta	<L368+value_1
  5393 00:1ED4: EE xx xx     	inc	|~~source
  5394 00:1ED7: 82 9E FF     	brl	L10226
  5395                        L10227:
  5396 00:1EDA: 82 8F 00     	brl	L10221
  5397                        L10228:
  5398 00:1EDD: A9 xx xx     	lda	#<L10219
  5399 00:1EE0: 85 01        	sta	<R0
  5400                        	xref	_BEG_DATA
  5401 00:1EE2: A9 xx xx     	lda	#_BEG_DATA>>16
  5402 00:1EE5: 85 03        	sta	<R0+2
  5403 00:1EE7: D4 03        	pei	<R0+2
  5404 00:1EE9: D4 01        	pei	<R0
  5405 00:1EEB: F4 00 00     	pea	#0
  5406 00:1EEE: 18           	clc
  5407 00:1EEF: 7B           	tdc
  5408 00:1EF0: 69 0D 00     	adc	#<L368+value_1
  5409 00:1EF3: 48           	pha
  5410 00:1EF4: F4 00 00     	pea	#0
  5411 00:1EF7: 18           	clc
  5412 00:1EF8: 7B           	tdc
  5413 00:1EF9: 69 0F 00     	adc	#<L368+isintvalue_1
  5414 00:1EFC: 48           	pha
  5415 00:1EFD: A0 00 00     	ldy	#$0
  5416 00:1F00: AD xx xx     	lda	|~~source
  5417 00:1F03: 10 01        	bpl	L373
  5418 00:1F05: 88           	dey
  5419                        L373:
  5420 00:1F06: 85 05        	sta	<R1
  5421 00:1F08: 84 07        	sty	<R1+2
  5422 00:1F0A: 18           	clc
  5423 00:1F0B: AD xx xx     	lda	|~~tokenbase
  5424 00:1F0E: 65 05        	adc	<R1
  5425 00:1F10: 85 09        	sta	<R2
  5426 00:1F12: AD xx xx     	lda	|~~tokenbase+2
  5427 00:1F15: 65 07        	adc	<R1+2
  5428 00:1F17: 85 0B        	sta	<R2+2
  5429 00:1F19: D4 0B        	pei	<R2+2
  5430 00:1F1B: D4 09        	pei	<R2
  5431 00:1F1D: 22 xx xx xx  	jsl	~~tonumber
  5432 00:1F21: 85 10        	sta	<L368+p_1
  5433 00:1F23: 86 12        	stx	<L368+p_1+2
  5434 00:1F25: A5 10        	lda	<L368+p_1
  5435 00:1F27: 05 12        	ora	<L368+p_1+2
  5436 00:1F29: F0 03        	beq	L374
  5437 00:1F2B: 82 17 00     	brl	L10229
  Sun Jan  9 2022 20:52                                                Page 103


  5438                        L374:
  5439 00:1F2E: A9 51 00     	lda	#$51
  5440 00:1F31: 8D xx xx     	sta	|~~lasterror
  5441 00:1F34: D4 0D        	pei	<L368+value_1
  5442 00:1F36: F4 04 00     	pea	#4
  5443 00:1F39: 22 xx xx xx  	jsl	~~error
  5444                        L375:
  5445 00:1F3D: 2B           	pld
  5446 00:1F3E: 3B           	tsc
  5447 00:1F3F: 18           	clc
  5448 00:1F40: 69 13 00     	adc	#L367
  5449 00:1F43: 1B           	tcs
  5450 00:1F44: 6B           	rtl
  5451                        L10229:
  5452 00:1F45: 38           	sec
  5453 00:1F46: A5 10        	lda	<L368+p_1
  5454 00:1F48: ED xx xx     	sbc	|~~tokenbase
  5455 00:1F4B: 85 01        	sta	<R0
  5456 00:1F4D: A5 12        	lda	<L368+p_1+2
  5457 00:1F4F: ED xx xx     	sbc	|~~tokenbase+2
  5458 00:1F52: 85 03        	sta	<R0+2
  5459 00:1F54: A5 01        	lda	<R0
  5460 00:1F56: 8D xx xx     	sta	|~~source
  5461 00:1F59: 82 10 00     	brl	L10221
  5462                        L10220:
  5463                        	xref	~~~swt
  5464 00:1F5C: 22 xx xx xx  	jsl	~~~swt
  5465 00:1F60: 02 00        	dw	2
  5466 00:1F62: 25 00        	dw	37
  5467 00:1F64: xx xx        	dw	L10225-1
  5468 00:1F66: 26 00        	dw	38
  5469 00:1F68: xx xx        	dw	L10222-1
  5470 00:1F6A: xx xx        	dw	L10228-1
  5471                        L10221:
  5472 00:1F6C: E2 20        	sep	#$20
  5473                        	longa	off
  5474 00:1F6E: 9C xx xx     	stz	|~~firstitem
  5475 00:1F71: C2 20        	rep	#$20
  5476                        	longa	on
  5477 00:1F73: A5 0F        	lda	<L368+isintvalue_1
  5478 00:1F75: 29 FF 00     	and	#$ff
  5479 00:1F78: D0 03        	bne	L376
  5480 00:1F7A: 82 6A 00     	brl	L10230
  5481                        L376:
  5482 00:1F7D: A5 0D        	lda	<L368+value_1
  5483 00:1F7F: F0 03        	beq	L377
  5484 00:1F81: 82 0A 00     	brl	L10231
  5485                        L377:
  5486 00:1F84: F4 10 00     	pea	#<$10
  5487 00:1F87: 22 xx xx xx  	jsl	~~store
  5488 00:1F8B: 82 56 00     	brl	L10232
  5489                        L10231:
  5490 00:1F8E: A5 0D        	lda	<L368+value_1
  5491 00:1F90: C9 01 00     	cmp	#<$1
  5492 00:1F93: F0 03        	beq	L378
  5493 00:1F95: 82 0A 00     	brl	L10233
  5494                        L378:
  5495 00:1F98: F4 11 00     	pea	#<$11
  Sun Jan  9 2022 20:52                                                Page 104


  5496 00:1F9B: 22 xx xx xx  	jsl	~~store
  5497 00:1F9F: 82 42 00     	brl	L10234
  5498                        L10233:
  5499 00:1FA2: 38           	sec
  5500 00:1FA3: A9 01 00     	lda	#$1
  5501 00:1FA6: E5 0D        	sbc	<L368+value_1
  5502 00:1FA8: 70 03        	bvs	L379
  5503 00:1FAA: 49 00 80     	eor	#$8000
  5504                        L379:
  5505 00:1FAD: 10 03        	bpl	L380
  5506 00:1FAF: 82 25 00     	brl	L10235
  5507                        L380:
  5508 00:1FB2: 38           	sec
  5509 00:1FB3: A9 00 01     	lda	#$100
  5510 00:1FB6: E5 0D        	sbc	<L368+value_1
  5511 00:1FB8: 70 03        	bvs	L381
  5512 00:1FBA: 49 00 80     	eor	#$8000
  5513                        L381:
  5514 00:1FBD: 30 03        	bmi	L382
  5515 00:1FBF: 82 15 00     	brl	L10235
  5516                        L382:
  5517 00:1FC2: F4 12 00     	pea	#<$12
  5518 00:1FC5: 22 xx xx xx  	jsl	~~store
  5519 00:1FC9: 18           	clc
  5520 00:1FCA: A9 FF FF     	lda	#$ffff
  5521 00:1FCD: 65 0D        	adc	<L368+value_1
  5522 00:1FCF: 48           	pha
  5523 00:1FD0: 22 xx xx xx  	jsl	~~store
  5524 00:1FD4: 82 0D 00     	brl	L10236
  5525                        L10235:
  5526 00:1FD7: F4 13 00     	pea	#<$13
  5527 00:1FDA: 22 xx xx xx  	jsl	~~store
  5528 00:1FDE: D4 0D        	pei	<L368+value_1
  5529 00:1FE0: 22 xx xx xx  	jsl	~~store_intconst
  5530                        L10236:
  5531                        L10234:
  5532                        L10232:
  5533 00:1FE4: 82 5D 00     	brl	L10237
  5534                        L10230:
  5535 00:1FE7: AD xx xx     	lda	|L10219+2
  5536 00:1FEA: 48           	pha
  5537 00:1FEB: AD xx xx     	lda	|L10219
  5538 00:1FEE: 48           	pha
  5539                        	xref	~~~ftod
  5540 00:1FEF: 22 xx xx xx  	jsl	~~~ftod
  5541                        	xref	~~~dtst
  5542 00:1FF3: 22 xx xx xx  	jsl	~~~dtst
  5543 00:1FF7: F0 03        	beq	L383
  5544 00:1FF9: 82 0A 00     	brl	L10238
  5545                        L383:
  5546 00:1FFC: F4 14 00     	pea	#<$14
  5547 00:1FFF: 22 xx xx xx  	jsl	~~store
  5548 00:2003: 82 3E 00     	brl	L10239
  5549                        L10238:
  5550 00:2006: F4 F0 3F     	pea	#$3FF0
  5551 00:2009: F4 00 00     	pea	#$0000
  5552 00:200C: F4 00 00     	pea	#$0000
  5553 00:200F: F4 00 00     	pea	#$0000
  Sun Jan  9 2022 20:52                                                Page 105


  5554 00:2012: AD xx xx     	lda	|L10219+2
  5555 00:2015: 48           	pha
  5556 00:2016: AD xx xx     	lda	|L10219
  5557 00:2019: 48           	pha
  5558                        	xref	~~~ftod
  5559 00:201A: 22 xx xx xx  	jsl	~~~ftod
  5560                        	xref	~~~dcmp
  5561 00:201E: 22 xx xx xx  	jsl	~~~dcmp
  5562 00:2022: F0 03        	beq	L384
  5563 00:2024: 82 0A 00     	brl	L10240
  5564                        L384:
  5565 00:2027: F4 15 00     	pea	#<$15
  5566 00:202A: 22 xx xx xx  	jsl	~~store
  5567 00:202E: 82 13 00     	brl	L10241
  5568                        L10240:
  5569 00:2031: F4 16 00     	pea	#<$16
  5570 00:2034: 22 xx xx xx  	jsl	~~store
  5571 00:2038: AD xx xx     	lda	|L10219+2
  5572 00:203B: 48           	pha
  5573 00:203C: AD xx xx     	lda	|L10219
  5574 00:203F: 48           	pha
  5575 00:2040: 22 xx xx xx  	jsl	~~store_fpvalue
  5576                        L10241:
  5577                        L10239:
  5578                        L10237:
  5579 00:2044: 82 F6 FE     	brl	L375
  5580             00000013   L367	equ	19
  5581             0000000D   L368	equ	13
  5582                        	ends
  5583                        	efunc
  5584                        	code
  5585                        	func
  5586                        ~~do_string:
  5587                        	longa	on
  5588                        	longi	on
  5589 00:2047: 3B           	tsc
  5590 00:2048: 38           	sec
  5591 00:2049: E9 09 00     	sbc	#L385
  5592 00:204C: 1B           	tcs
  5593 00:204D: 0B           	phd
  5594 00:204E: 5B           	tcd
  5595             00000000   start_1	set	0
  5596             00000002   length_1	set	2
  5597             00000004   quotes_1	set	4
  5598 00:204F: EE xx xx     	inc	|~~source
  5599 00:2052: AD xx xx     	lda	|~~source
  5600 00:2055: 85 05        	sta	<L386+start_1
  5601 00:2057: E2 20        	sep	#$20
  5602                        	longa	off
  5603 00:2059: 64 09        	stz	<L386+quotes_1
  5604 00:205B: C2 20        	rep	#$20
  5605                        	longa	on
  5606 00:205D: 64 07        	stz	<L386+length_1
  5607                        L10242:
  5608 00:205F: AD xx xx     	lda	|~~tokenbase
  5609 00:2062: 85 01        	sta	<R0
  5610 00:2064: AD xx xx     	lda	|~~tokenbase+2
  5611 00:2067: 85 03        	sta	<R0+2
  Sun Jan  9 2022 20:52                                                Page 106


  5612 00:2069: E2 20        	sep	#$20
  5613                        	longa	off
  5614 00:206B: AC xx xx     	ldy	|~~source
  5615 00:206E: B7 01        	lda	[<R0],Y
  5616 00:2070: C9 22        	cmp	#<$22
  5617 00:2072: C2 20        	rep	#$20
  5618                        	longa	on
  5619 00:2074: F0 03        	beq	L387
  5620 00:2076: 82 25 00     	brl	L10244
  5621                        L387:
  5622 00:2079: EE xx xx     	inc	|~~source
  5623 00:207C: AD xx xx     	lda	|~~tokenbase
  5624 00:207F: 85 01        	sta	<R0
  5625 00:2081: AD xx xx     	lda	|~~tokenbase+2
  5626 00:2084: 85 03        	sta	<R0+2
  5627 00:2086: E2 20        	sep	#$20
  5628                        	longa	off
  5629 00:2088: AC xx xx     	ldy	|~~source
  5630 00:208B: B7 01        	lda	[<R0],Y
  5631 00:208D: C9 22        	cmp	#<$22
  5632 00:208F: C2 20        	rep	#$20
  5633                        	longa	on
  5634 00:2091: F0 03        	beq	L388
  5635 00:2093: 82 10 00     	brl	L10243
  5636                        L388:
  5637 00:2096: E2 20        	sep	#$20
  5638                        	longa	off
  5639 00:2098: A9 01        	lda	#$1
  5640 00:209A: 85 09        	sta	<L386+quotes_1
  5641 00:209C: C2 20        	rep	#$20
  5642                        	longa	on
  5643                        L10244:
  5644 00:209E: EE xx xx     	inc	|~~source
  5645 00:20A1: E6 07        	inc	<L386+length_1
  5646 00:20A3: 82 B9 FF     	brl	L10242
  5647                        L10243:
  5648 00:20A6: A5 09        	lda	<L386+quotes_1
  5649 00:20A8: 29 FF 00     	and	#$ff
  5650 00:20AB: D0 03        	bne	L389
  5651 00:20AD: 82 0A 00     	brl	L10245
  5652                        L389:
  5653 00:20B0: F4 18 00     	pea	#<$18
  5654 00:20B3: 22 xx xx xx  	jsl	~~store
  5655 00:20B7: 82 07 00     	brl	L10246
  5656                        L10245:
  5657 00:20BA: F4 17 00     	pea	#<$17
  5658 00:20BD: 22 xx xx xx  	jsl	~~store
  5659                        L10246:
  5660 00:20C1: 18           	clc
  5661 00:20C2: A9 FF FF     	lda	#$ffff
  5662 00:20C5: 6D xx xx     	adc	|~~next
  5663 00:20C8: 85 01        	sta	<R0
  5664 00:20CA: 38           	sec
  5665 00:20CB: A5 01        	lda	<R0
  5666 00:20CD: E5 05        	sbc	<L386+start_1
  5667 00:20CF: 48           	pha
  5668 00:20D0: 22 xx xx xx  	jsl	~~store_shortoffset
  5669 00:20D4: D4 07        	pei	<L386+length_1
  Sun Jan  9 2022 20:52                                                Page 107


  5670 00:20D6: 22 xx xx xx  	jsl	~~store_size
  5671 00:20DA: E2 20        	sep	#$20
  5672                        	longa	off
  5673 00:20DC: 9C xx xx     	stz	|~~firstitem
  5674 00:20DF: C2 20        	rep	#$20
  5675                        	longa	on
  5676                        L390:
  5677 00:20E1: 2B           	pld
  5678 00:20E2: 3B           	tsc
  5679 00:20E3: 18           	clc
  5680 00:20E4: 69 09 00     	adc	#L385
  5681 00:20E7: 1B           	tcs
  5682 00:20E8: 6B           	rtl
  5683             00000009   L385	equ	9
  5684             00000005   L386	equ	5
  5685                        	ends
  5686                        	efunc
  5687                        	code
  5688                        	func
  5689                        ~~do_star:
  5690                        	longa	on
  5691                        	longi	on
  5692 00:20E9: 3B           	tsc
  5693 00:20EA: 38           	sec
  5694 00:20EB: E9 04 00     	sbc	#L391
  5695 00:20EE: 1B           	tcs
  5696 00:20EF: 0B           	phd
  5697 00:20F0: 5B           	tcd
  5698                        L10249:
  5699 00:20F1: EE xx xx     	inc	|~~source
  5700                        L10247:
  5701 00:20F4: AD xx xx     	lda	|~~tokenbase
  5702 00:20F7: 85 01        	sta	<R0
  5703 00:20F9: AD xx xx     	lda	|~~tokenbase+2
  5704 00:20FC: 85 03        	sta	<R0+2
  5705 00:20FE: E2 20        	sep	#$20
  5706                        	longa	off
  5707 00:2100: AC xx xx     	ldy	|~~source
  5708 00:2103: B7 01        	lda	[<R0],Y
  5709 00:2105: C9 20        	cmp	#<$20
  5710 00:2107: C2 20        	rep	#$20
  5711                        	longa	on
  5712 00:2109: D0 03        	bne	L393
  5713 00:210B: 82 E3 FF     	brl	L10249
  5714                        L393:
  5715 00:210E: AD xx xx     	lda	|~~tokenbase
  5716 00:2111: 85 01        	sta	<R0
  5717 00:2113: AD xx xx     	lda	|~~tokenbase+2
  5718 00:2116: 85 03        	sta	<R0+2
  5719 00:2118: E2 20        	sep	#$20
  5720                        	longa	off
  5721 00:211A: AC xx xx     	ldy	|~~source
  5722 00:211D: B7 01        	lda	[<R0],Y
  5723 00:211F: C9 09        	cmp	#<$9
  5724 00:2121: C2 20        	rep	#$20
  5725                        	longa	on
  5726 00:2123: D0 03        	bne	L394
  5727 00:2125: 82 C9 FF     	brl	L10249
  Sun Jan  9 2022 20:52                                                Page 108


  5728                        L394:
  5729 00:2128: AD xx xx     	lda	|~~tokenbase
  5730 00:212B: 85 01        	sta	<R0
  5731 00:212D: AD xx xx     	lda	|~~tokenbase+2
  5732 00:2130: 85 03        	sta	<R0+2
  5733 00:2132: E2 20        	sep	#$20
  5734                        	longa	off
  5735 00:2134: AC xx xx     	ldy	|~~source
  5736 00:2137: B7 01        	lda	[<R0],Y
  5737 00:2139: C9 2A        	cmp	#<$2a
  5738 00:213B: C2 20        	rep	#$20
  5739                        	longa	on
  5740 00:213D: D0 03        	bne	L395
  5741 00:213F: 82 AF FF     	brl	L10249
  5742                        L395:
  5743                        L10248:
  5744 00:2142: AD xx xx     	lda	|~~tokenbase
  5745 00:2145: 85 01        	sta	<R0
  5746 00:2147: AD xx xx     	lda	|~~tokenbase+2
  5747 00:214A: 85 03        	sta	<R0+2
  5748 00:214C: AC xx xx     	ldy	|~~source
  5749 00:214F: B7 01        	lda	[<R0],Y
  5750 00:2151: 29 FF 00     	and	#$ff
  5751 00:2154: D0 03        	bne	L396
  5752 00:2156: 82 21 00     	brl	L10250
  5753                        L396:
  5754 00:2159: F4 D8 00     	pea	#<$d8
  5755 00:215C: 22 xx xx xx  	jsl	~~store
  5756 00:2160: 18           	clc
  5757 00:2161: A9 FF FF     	lda	#$ffff
  5758 00:2164: 6D xx xx     	adc	|~~next
  5759 00:2167: 85 01        	sta	<R0
  5760 00:2169: 38           	sec
  5761 00:216A: A5 01        	lda	<R0
  5762 00:216C: ED xx xx     	sbc	|~~source
  5763 00:216F: 48           	pha
  5764 00:2170: 22 xx xx xx  	jsl	~~store_shortoffset
  5765 00:2174: A9 FF FF     	lda	#$ffff
  5766 00:2177: 8D xx xx     	sta	|~~source
  5767                        L10250:
  5768                        L397:
  5769 00:217A: 2B           	pld
  5770 00:217B: 3B           	tsc
  5771 00:217C: 18           	clc
  5772 00:217D: 69 04 00     	adc	#L391
  5773 00:2180: 1B           	tcs
  5774 00:2181: 6B           	rtl
  5775             00000004   L391	equ	4
  5776             00000005   L392	equ	5
  5777                        	ends
  5778                        	efunc
  5779                        	code
  5780                        	func
  5781                        ~~translate:
  5782                        	longa	on
  5783                        	longi	on
  5784 00:2182: 3B           	tsc
  5785 00:2183: 38           	sec
  Sun Jan  9 2022 20:52                                                Page 109


  5786 00:2184: E9 09 00     	sbc	#L398
  5787 00:2187: 1B           	tcs
  5788 00:2188: 0B           	phd
  5789 00:2189: 5B           	tcd
  5790             00000000   token_1	set	0
  5791 00:218A: A9 06 00     	lda	#$6
  5792 00:218D: 8D xx xx     	sta	|~~source
  5793 00:2190: AD xx xx     	lda	|~~tokenbase
  5794 00:2193: 85 01        	sta	<R0
  5795 00:2195: AD xx xx     	lda	|~~tokenbase+2
  5796 00:2198: 85 03        	sta	<R0+2
  5797 00:219A: E2 20        	sep	#$20
  5798                        	longa	off
  5799 00:219C: AC xx xx     	ldy	|~~source
  5800 00:219F: B7 01        	lda	[<R0],Y
  5801 00:21A1: 85 09        	sta	<L399+token_1
  5802 00:21A3: C2 20        	rep	#$20
  5803                        	longa	on
  5804 00:21A5: E2 20        	sep	#$20
  5805                        	longa	off
  5806 00:21A7: A9 01        	lda	#$1
  5807 00:21A9: 8D xx xx     	sta	|~~firstitem
  5808 00:21AC: C2 20        	rep	#$20
  5809                        	longa	on
  5810                        L10251:
  5811 00:21AE: A5 09        	lda	<L399+token_1
  5812 00:21B0: 29 FF 00     	and	#$ff
  5813 00:21B3: D0 03        	bne	L400
  5814 00:21B5: 82 79 02     	brl	L10252
  5815                        L400:
  5816 00:21B8: E2 20        	sep	#$20
  5817                        	longa	off
  5818 00:21BA: A5 09        	lda	<L399+token_1
  5819 00:21BC: C9 D8        	cmp	#<$d8
  5820 00:21BE: C2 20        	rep	#$20
  5821                        	longa	on
  5822 00:21C0: F0 03        	beq	L401
  5823 00:21C2: 82 07 00     	brl	L10253
  5824                        L401:
  5825 00:21C5: 22 xx xx xx  	jsl	~~do_star
  5826 00:21C9: 82 31 02     	brl	L10254
  5827                        L10253:
  5828 00:21CC: E2 20        	sep	#$20
  5829                        	longa	off
  5830 00:21CE: A5 09        	lda	<L399+token_1
  5831 00:21D0: C9 80        	cmp	#<$80
  5832 00:21D2: C2 20        	rep	#$20
  5833                        	longa	on
  5834 00:21D4: B0 03        	bcs	L402
  5835 00:21D6: 82 07 00     	brl	L10255
  5836                        L402:
  5837 00:21D9: 22 xx xx xx  	jsl	~~do_keyword
  5838 00:21DD: 82 1D 02     	brl	L10256
  5839                        L10255:
  5840 00:21E0: E2 20        	sep	#$20
  5841                        	longa	off
  5842 00:21E2: A5 09        	lda	<L399+token_1
  5843 00:21E4: C9 40        	cmp	#<$40
  Sun Jan  9 2022 20:52                                                Page 110


  5844 00:21E6: C2 20        	rep	#$20
  5845                        	longa	on
  5846 00:21E8: B0 03        	bcs	L403
  5847 00:21EA: 82 33 00     	brl	L10257
  5848                        L403:
  5849 00:21ED: E2 20        	sep	#$20
  5850                        	longa	off
  5851 00:21EF: A9 5A        	lda	#$5a
  5852 00:21F1: C5 09        	cmp	<L399+token_1
  5853 00:21F3: C2 20        	rep	#$20
  5854                        	longa	on
  5855 00:21F5: B0 03        	bcs	L404
  5856 00:21F7: 82 26 00     	brl	L10257
  5857                        L404:
  5858 00:21FA: AD xx xx     	lda	|~~source
  5859 00:21FD: 1A           	ina
  5860 00:21FE: 85 01        	sta	<R0
  5861 00:2200: AD xx xx     	lda	|~~tokenbase
  5862 00:2203: 85 05        	sta	<R1
  5863 00:2205: AD xx xx     	lda	|~~tokenbase+2
  5864 00:2208: 85 07        	sta	<R1+2
  5865 00:220A: E2 20        	sep	#$20
  5866                        	longa	off
  5867 00:220C: A4 01        	ldy	<R0
  5868 00:220E: B7 05        	lda	[<R1],Y
  5869 00:2210: C9 25        	cmp	#<$25
  5870 00:2212: C2 20        	rep	#$20
  5871                        	longa	on
  5872 00:2214: F0 03        	beq	L405
  5873 00:2216: 82 07 00     	brl	L10257
  5874                        L405:
  5875 00:2219: 22 xx xx xx  	jsl	~~do_statvar
  5876 00:221D: 82 DD 01     	brl	L10258
  5877                        L10257:
  5878 00:2220: E2 20        	sep	#$20
  5879                        	longa	off
  5880 00:2222: A5 09        	lda	<L399+token_1
  5881 00:2224: C9 01        	cmp	#<$1
  5882 00:2226: C2 20        	rep	#$20
  5883                        	longa	on
  5884 00:2228: F0 03        	beq	L406
  5885 00:222A: 82 07 00     	brl	L10259
  5886                        L406:
  5887 00:222D: 22 xx xx xx  	jsl	~~do_dynamvar
  5888 00:2231: 82 C9 01     	brl	L10260
  5889                        L10259:
  5890 00:2234: E2 20        	sep	#$20
  5891                        	longa	off
  5892 00:2236: A5 09        	lda	<L399+token_1
  5893 00:2238: C9 29        	cmp	#<$29
  5894 00:223A: C2 20        	rep	#$20
  5895                        	longa	on
  5896 00:223C: D0 03        	bne	L408
  5897 00:223E: 82 0D 00     	brl	L407
  5898                        L408:
  5899 00:2241: E2 20        	sep	#$20
  5900                        	longa	off
  5901 00:2243: A5 09        	lda	<L399+token_1
  Sun Jan  9 2022 20:52                                                Page 111


  5902 00:2245: C9 5D        	cmp	#<$5d
  5903 00:2247: C2 20        	rep	#$20
  5904                        	longa	on
  5905 00:2249: F0 03        	beq	L409
  5906 00:224B: 82 9E 00     	brl	L10261
  5907                        L409:
  5908                        L407:
  5909 00:224E: AD xx xx     	lda	|~~firstitem
  5910 00:2251: 29 FF 00     	and	#$ff
  5911 00:2254: F0 03        	beq	L410
  5912 00:2256: 82 15 00     	brl	L10262
  5913                        L410:
  5914 00:2259: E2 20        	sep	#$20
  5915                        	longa	off
  5916 00:225B: A5 09        	lda	<L399+token_1
  5917 00:225D: C9 5D        	cmp	#<$5d
  5918 00:225F: C2 20        	rep	#$20
  5919                        	longa	on
  5920 00:2261: F0 03        	beq	L411
  5921 00:2263: 82 08 00     	brl	L10262
  5922                        L411:
  5923 00:2266: E2 20        	sep	#$20
  5924                        	longa	off
  5925 00:2268: A9 29        	lda	#$29
  5926 00:226A: 85 09        	sta	<L399+token_1
  5927 00:226C: C2 20        	rep	#$20
  5928                        	longa	on
  5929                        L10262:
  5930 00:226E: D4 09        	pei	<L399+token_1
  5931 00:2270: 22 xx xx xx  	jsl	~~store
  5932 00:2274: E2 20        	sep	#$20
  5933                        	longa	off
  5934 00:2276: 9C xx xx     	stz	|~~firstitem
  5935 00:2279: C2 20        	rep	#$20
  5936                        	longa	on
  5937 00:227B: EE xx xx     	inc	|~~source
  5938 00:227E: E2 20        	sep	#$20
  5939                        	longa	off
  5940 00:2280: A5 09        	lda	<L399+token_1
  5941 00:2282: C9 29        	cmp	#<$29
  5942 00:2284: C2 20        	rep	#$20
  5943                        	longa	on
  5944 00:2286: F0 03        	beq	L412
  5945 00:2288: 82 5E 00     	brl	L10263
  5946                        L412:
  5947                        L10264:
  5948 00:228B: AD xx xx     	lda	|~~tokenbase
  5949 00:228E: 85 01        	sta	<R0
  5950 00:2290: AD xx xx     	lda	|~~tokenbase+2
  5951 00:2293: 85 03        	sta	<R0+2
  5952 00:2295: E2 20        	sep	#$20
  5953                        	longa	off
  5954 00:2297: AC xx xx     	ldy	|~~source
  5955 00:229A: B7 01        	lda	[<R0],Y
  5956 00:229C: C9 20        	cmp	#<$20
  5957 00:229E: C2 20        	rep	#$20
  5958                        	longa	on
  5959 00:22A0: D0 03        	bne	L414
  Sun Jan  9 2022 20:52                                                Page 112


  5960 00:22A2: 82 1A 00     	brl	L413
  5961                        L414:
  5962 00:22A5: AD xx xx     	lda	|~~tokenbase
  5963 00:22A8: 85 01        	sta	<R0
  5964 00:22AA: AD xx xx     	lda	|~~tokenbase+2
  5965 00:22AD: 85 03        	sta	<R0+2
  5966 00:22AF: E2 20        	sep	#$20
  5967                        	longa	off
  5968 00:22B1: AC xx xx     	ldy	|~~source
  5969 00:22B4: B7 01        	lda	[<R0],Y
  5970 00:22B6: C9 09        	cmp	#<$9
  5971 00:22B8: C2 20        	rep	#$20
  5972                        	longa	on
  5973 00:22BA: F0 03        	beq	L415
  5974 00:22BC: 82 06 00     	brl	L10265
  5975                        L415:
  5976                        L413:
  5977 00:22BF: EE xx xx     	inc	|~~source
  5978 00:22C2: 82 C6 FF     	brl	L10264
  5979                        L10265:
  5980 00:22C5: AD xx xx     	lda	|~~tokenbase
  5981 00:22C8: 85 01        	sta	<R0
  5982 00:22CA: AD xx xx     	lda	|~~tokenbase+2
  5983 00:22CD: 85 03        	sta	<R0+2
  5984 00:22CF: E2 20        	sep	#$20
  5985                        	longa	off
  5986 00:22D1: AC xx xx     	ldy	|~~source
  5987 00:22D4: B7 01        	lda	[<R0],Y
  5988 00:22D6: C9 2E        	cmp	#<$2e
  5989 00:22D8: C2 20        	rep	#$20
  5990                        	longa	on
  5991 00:22DA: F0 03        	beq	L416
  5992 00:22DC: 82 0A 00     	brl	L10266
  5993                        L416:
  5994 00:22DF: F4 2E 00     	pea	#<$2e
  5995 00:22E2: 22 xx xx xx  	jsl	~~store
  5996 00:22E6: EE xx xx     	inc	|~~source
  5997                        L10266:
  5998                        L10263:
  5999 00:22E9: 82 11 01     	brl	L10267
  6000                        L10261:
  6001 00:22EC: E2 20        	sep	#$20
  6002                        	longa	off
  6003 00:22EE: A5 09        	lda	<L399+token_1
  6004 00:22F0: C9 1E        	cmp	#<$1e
  6005 00:22F2: C2 20        	rep	#$20
  6006                        	longa	on
  6007 00:22F4: F0 03        	beq	L417
  6008 00:22F6: 82 07 00     	brl	L10268
  6009                        L417:
  6010 00:22F9: 22 xx xx xx  	jsl	~~do_linenumber
  6011 00:22FD: 82 FD 00     	brl	L10269
  6012                        L10268:
  6013 00:2300: E2 20        	sep	#$20
  6014                        	longa	off
  6015 00:2302: A5 09        	lda	<L399+token_1
  6016 00:2304: C9 30        	cmp	#<$30
  6017 00:2306: C2 20        	rep	#$20
  Sun Jan  9 2022 20:52                                                Page 113


  6018                        	longa	on
  6019 00:2308: B0 03        	bcs	L420
  6020 00:230A: 82 0D 00     	brl	L419
  6021                        L420:
  6022 00:230D: E2 20        	sep	#$20
  6023                        	longa	off
  6024 00:230F: A9 39        	lda	#$39
  6025 00:2311: C5 09        	cmp	<L399+token_1
  6026 00:2313: C2 20        	rep	#$20
  6027                        	longa	on
  6028 00:2315: 90 03        	bcc	L421
  6029 00:2317: 82 27 00     	brl	L418
  6030                        L421:
  6031                        L419:
  6032 00:231A: E2 20        	sep	#$20
  6033                        	longa	off
  6034 00:231C: A5 09        	lda	<L399+token_1
  6035 00:231E: C9 2E        	cmp	#<$2e
  6036 00:2320: C2 20        	rep	#$20
  6037                        	longa	on
  6038 00:2322: D0 03        	bne	L422
  6039 00:2324: 82 1A 00     	brl	L418
  6040                        L422:
  6041 00:2327: E2 20        	sep	#$20
  6042                        	longa	off
  6043 00:2329: A5 09        	lda	<L399+token_1
  6044 00:232B: C9 26        	cmp	#<$26
  6045 00:232D: C2 20        	rep	#$20
  6046                        	longa	on
  6047 00:232F: D0 03        	bne	L423
  6048 00:2331: 82 0D 00     	brl	L418
  6049                        L423:
  6050 00:2334: E2 20        	sep	#$20
  6051                        	longa	off
  6052 00:2336: A5 09        	lda	<L399+token_1
  6053 00:2338: C9 25        	cmp	#<$25
  6054 00:233A: C2 20        	rep	#$20
  6055                        	longa	on
  6056 00:233C: F0 03        	beq	L424
  6057 00:233E: 82 07 00     	brl	L10270
  6058                        L424:
  6059                        L418:
  6060 00:2341: 22 xx xx xx  	jsl	~~do_number
  6061 00:2345: 82 B5 00     	brl	L10271
  6062                        L10270:
  6063 00:2348: E2 20        	sep	#$20
  6064                        	longa	off
  6065 00:234A: A5 09        	lda	<L399+token_1
  6066 00:234C: C9 22        	cmp	#<$22
  6067 00:234E: C2 20        	rep	#$20
  6068                        	longa	on
  6069 00:2350: F0 03        	beq	L425
  6070 00:2352: 82 07 00     	brl	L10272
  6071                        L425:
  6072 00:2355: 22 xx xx xx  	jsl	~~do_string
  6073 00:2359: 82 A1 00     	brl	L10273
  6074                        L10272:
  6075 00:235C: E2 20        	sep	#$20
  Sun Jan  9 2022 20:52                                                Page 114


  6076                        	longa	off
  6077 00:235E: A5 09        	lda	<L399+token_1
  6078 00:2360: C9 20        	cmp	#<$20
  6079 00:2362: C2 20        	rep	#$20
  6080                        	longa	on
  6081 00:2364: D0 03        	bne	L427
  6082 00:2366: 82 0D 00     	brl	L426
  6083                        L427:
  6084 00:2369: E2 20        	sep	#$20
  6085                        	longa	off
  6086 00:236B: A5 09        	lda	<L399+token_1
  6087 00:236D: C9 09        	cmp	#<$9
  6088 00:236F: C2 20        	rep	#$20
  6089                        	longa	on
  6090 00:2371: F0 03        	beq	L428
  6091 00:2373: 82 06 00     	brl	L10274
  6092                        L428:
  6093                        L426:
  6094 00:2376: EE xx xx     	inc	|~~source
  6095 00:2379: 82 81 00     	brl	L10275
  6096                        L10274:
  6097 00:237C: E2 20        	sep	#$20
  6098                        	longa	off
  6099 00:237E: A5 09        	lda	<L399+token_1
  6100 00:2380: C9 3A        	cmp	#<$3a
  6101 00:2382: C2 20        	rep	#$20
  6102                        	longa	on
  6103 00:2384: F0 03        	beq	L429
  6104 00:2386: 82 64 00     	brl	L10276
  6105                        L429:
  6106 00:2389: F4 3A 00     	pea	#<$3a
  6107 00:238C: 22 xx xx xx  	jsl	~~store
  6108                        L10279:
  6109 00:2390: EE xx xx     	inc	|~~source
  6110                        L10277:
  6111 00:2393: AD xx xx     	lda	|~~tokenbase
  6112 00:2396: 85 01        	sta	<R0
  6113 00:2398: AD xx xx     	lda	|~~tokenbase+2
  6114 00:239B: 85 03        	sta	<R0+2
  6115 00:239D: E2 20        	sep	#$20
  6116                        	longa	off
  6117 00:239F: AC xx xx     	ldy	|~~source
  6118 00:23A2: B7 01        	lda	[<R0],Y
  6119 00:23A4: C9 3A        	cmp	#<$3a
  6120 00:23A6: C2 20        	rep	#$20
  6121                        	longa	on
  6122 00:23A8: D0 03        	bne	L430
  6123 00:23AA: 82 E3 FF     	brl	L10279
  6124                        L430:
  6125 00:23AD: AD xx xx     	lda	|~~tokenbase
  6126 00:23B0: 85 01        	sta	<R0
  6127 00:23B2: AD xx xx     	lda	|~~tokenbase+2
  6128 00:23B5: 85 03        	sta	<R0+2
  6129 00:23B7: E2 20        	sep	#$20
  6130                        	longa	off
  6131 00:23B9: AC xx xx     	ldy	|~~source
  6132 00:23BC: B7 01        	lda	[<R0],Y
  6133 00:23BE: C9 20        	cmp	#<$20
  Sun Jan  9 2022 20:52                                                Page 115


  6134 00:23C0: C2 20        	rep	#$20
  6135                        	longa	on
  6136 00:23C2: D0 03        	bne	L431
  6137 00:23C4: 82 C9 FF     	brl	L10279
  6138                        L431:
  6139 00:23C7: AD xx xx     	lda	|~~tokenbase
  6140 00:23CA: 85 01        	sta	<R0
  6141 00:23CC: AD xx xx     	lda	|~~tokenbase+2
  6142 00:23CF: 85 03        	sta	<R0+2
  6143 00:23D1: E2 20        	sep	#$20
  6144                        	longa	off
  6145 00:23D3: AC xx xx     	ldy	|~~source
  6146 00:23D6: B7 01        	lda	[<R0],Y
  6147 00:23D8: C9 09        	cmp	#<$9
  6148 00:23DA: C2 20        	rep	#$20
  6149                        	longa	on
  6150 00:23DC: D0 03        	bne	L432
  6151 00:23DE: 82 AF FF     	brl	L10279
  6152                        L432:
  6153                        L10278:
  6154 00:23E1: E2 20        	sep	#$20
  6155                        	longa	off
  6156 00:23E3: A9 01        	lda	#$1
  6157 00:23E5: 8D xx xx     	sta	|~~firstitem
  6158 00:23E8: C2 20        	rep	#$20
  6159                        	longa	on
  6160 00:23EA: 82 10 00     	brl	L10280
  6161                        L10276:
  6162 00:23ED: D4 09        	pei	<L399+token_1
  6163 00:23EF: 22 xx xx xx  	jsl	~~store
  6164 00:23F3: EE xx xx     	inc	|~~source
  6165 00:23F6: E2 20        	sep	#$20
  6166                        	longa	off
  6167 00:23F8: 9C xx xx     	stz	|~~firstitem
  6168 00:23FB: C2 20        	rep	#$20
  6169                        	longa	on
  6170                        L10280:
  6171                        L10275:
  6172                        L10273:
  6173                        L10271:
  6174                        L10269:
  6175                        L10267:
  6176                        L10260:
  6177                        L10258:
  6178                        L10256:
  6179                        L10254:
  6180 00:23FD: AD xx xx     	lda	|~~source
  6181 00:2400: C9 FF FF     	cmp	#<$ffffffff
  6182 00:2403: D0 03        	bne	L433
  6183 00:2405: 82 29 00     	brl	L10252
  6184                        L433:
  6185 00:2408: 38           	sec
  6186 00:2409: A9 00 00     	lda	#$0
  6187 00:240C: ED xx xx     	sbc	|~~lasterror
  6188 00:240F: 70 03        	bvs	L434
  6189 00:2411: 49 00 80     	eor	#$8000
  6190                        L434:
  6191 00:2414: 30 03        	bmi	L435
  Sun Jan  9 2022 20:52                                                Page 116


  6192 00:2416: 82 18 00     	brl	L10252
  6193                        L435:
  6194 00:2419: AD xx xx     	lda	|~~tokenbase
  6195 00:241C: 85 01        	sta	<R0
  6196 00:241E: AD xx xx     	lda	|~~tokenbase+2
  6197 00:2421: 85 03        	sta	<R0+2
  6198 00:2423: E2 20        	sep	#$20
  6199                        	longa	off
  6200 00:2425: AC xx xx     	ldy	|~~source
  6201 00:2428: B7 01        	lda	[<R0],Y
  6202 00:242A: 85 09        	sta	<L399+token_1
  6203 00:242C: C2 20        	rep	#$20
  6204                        	longa	on
  6205 00:242E: 82 7D FD     	brl	L10251
  6206                        L10252:
  6207 00:2431: F4 00 00     	pea	#<$0
  6208 00:2434: 22 xx xx xx  	jsl	~~store
  6209 00:2438: AD xx xx     	lda	|~~next
  6210 00:243B: 48           	pha
  6211 00:243C: 22 xx xx xx  	jsl	~~store_linelen
  6212                        L436:
  6213 00:2440: 2B           	pld
  6214 00:2441: 3B           	tsc
  6215 00:2442: 18           	clc
  6216 00:2443: 69 09 00     	adc	#L398
  6217 00:2446: 1B           	tcs
  6218 00:2447: 6B           	rtl
  6219             00000009   L398	equ	9
  6220             00000009   L399	equ	9
  6221                        	ends
  6222                        	efunc
  6223                        	code
  6224                        	func
  6225                        ~~mark_badline:
  6226                        	longa	on
  6227                        	longi	on
  6228 00:2448: 3B           	tsc
  6229 00:2449: 38           	sec
  6230 00:244A: E9 04 00     	sbc	#L437
  6231 00:244D: 1B           	tcs
  6232 00:244E: 0B           	phd
  6233 00:244F: 5B           	tcd
  6234 00:2450: AD xx xx     	lda	|~~tokenbase+2
  6235 00:2453: 48           	pha
  6236 00:2454: AD xx xx     	lda	|~~tokenbase
  6237 00:2457: 48           	pha
  6238 00:2458: 22 xx xx xx  	jsl	~~get_lineno
  6239 00:245C: 85 01        	sta	<R0
  6240 00:245E: A5 01        	lda	<R0
  6241 00:2460: C9 FF FF     	cmp	#<$ffff
  6242 00:2463: F0 03        	beq	L439
  6243 00:2465: 82 0A 00     	brl	L10281
  6244                        L439:
  6245 00:2468: F4 A3 00     	pea	#<$a3
  6246 00:246B: 22 xx xx xx  	jsl	~~store
  6247 00:246F: 82 0F 00     	brl	L10282
  6248                        L10281:
  6249 00:2472: F4 FD 00     	pea	#<$fd
  Sun Jan  9 2022 20:52                                                Page 117


  6250 00:2475: 22 xx xx xx  	jsl	~~store
  6251 00:2479: AD xx xx     	lda	|~~lasterror
  6252 00:247C: 48           	pha
  6253 00:247D: 22 xx xx xx  	jsl	~~store
  6254                        L10282:
  6255 00:2481: F4 00 00     	pea	#<$0
  6256 00:2484: 22 xx xx xx  	jsl	~~store
  6257 00:2488: AD xx xx     	lda	|~~next
  6258 00:248B: 48           	pha
  6259 00:248C: 22 xx xx xx  	jsl	~~store_linelen
  6260                        L440:
  6261 00:2490: 2B           	pld
  6262 00:2491: 3B           	tsc
  6263 00:2492: 18           	clc
  6264 00:2493: 69 04 00     	adc	#L437
  6265 00:2496: 1B           	tcs
  6266 00:2497: 6B           	rtl
  6267             00000004   L437	equ	4
  6268             00000005   L438	equ	5
  6269                        	ends
  6270                        	efunc
  6271                        	code
  6272                        	xdef	~~tokenize
  6273                        	func
  6274                        ~~tokenize:
  6275                        	longa	on
  6276                        	longi	on
  6277 00:2498: 3B           	tsc
  6278 00:2499: 38           	sec
  6279 00:249A: E9 00 00     	sbc	#L441
  6280 00:249D: 1B           	tcs
  6281 00:249E: 0B           	phd
  6282 00:249F: 5B           	tcd
  6283             00000004   start_0	set	4
  6284             00000008   tokenbuf_0	set	8
  6285             0000000C   haslineno_0	set	12
  6286 00:24A0: A5 08        	lda	<L441+tokenbuf_0
  6287 00:24A2: 8D xx xx     	sta	|~~tokenbase
  6288 00:24A5: A5 0A        	lda	<L441+tokenbuf_0+2
  6289 00:24A7: 8D xx xx     	sta	|~~tokenbase+2
  6290 00:24AA: D4 0C        	pei	<L441+haslineno_0
  6291 00:24AC: D4 06        	pei	<L441+start_0+2
  6292 00:24AE: D4 04        	pei	<L441+start_0
  6293 00:24B0: 22 xx xx xx  	jsl	~~tokenise_source
  6294 00:24B4: 38           	sec
  6295 00:24B5: A9 00 00     	lda	#$0
  6296 00:24B8: ED xx xx     	sbc	|~~lasterror
  6297 00:24BB: 70 03        	bvs	L443
  6298 00:24BD: 49 00 80     	eor	#$8000
  6299                        L443:
  6300 00:24C0: 10 03        	bpl	L444
  6301 00:24C2: 82 07 00     	brl	L10283
  6302                        L444:
  6303 00:24C5: 22 xx xx xx  	jsl	~~mark_badline
  6304 00:24C9: 82 04 00     	brl	L10284
  6305                        L10283:
  6306 00:24CC: 22 xx xx xx  	jsl	~~translate
  6307                        L10284:
  Sun Jan  9 2022 20:52                                                Page 118


  6308                        L445:
  6309 00:24D0: A5 02        	lda	<L441+2
  6310 00:24D2: 85 0C        	sta	<L441+2+10
  6311 00:24D4: A5 01        	lda	<L441+1
  6312 00:24D6: 85 0B        	sta	<L441+1+10
  6313 00:24D8: 2B           	pld
  6314 00:24D9: 3B           	tsc
  6315 00:24DA: 18           	clc
  6316 00:24DB: 69 0A 00     	adc	#L441+10
  6317 00:24DE: 1B           	tcs
  6318 00:24DF: 6B           	rtl
  6319             00000000   L441	equ	0
  6320             00000001   L442	equ	1
  6321                        	ends
  6322                        	efunc
  6323                        	data
  6324                        ~~skiptable:
  6325 00:0E64: 00 00 04 00  	dw	$0,$4,$1,$4,$4,$4,$4,$4,$4,$4
       00:0E68: 01 00 04 00 
       00:0E6C: 04 00 04 00 
       00:0E70: 04 00 04 00 
       00:0E74: 04 00 04 00 
  6326 00:0E78: 04 00 01 00  	dw	$4,$1,$4,$4,$FFFF,$FFFF,$0,$0,$1,$4
       00:0E7C: 04 00 04 00 
       00:0E80: FF FF FF FF 
       00:0E84: 00 00 00 00 
       00:0E88: 01 00 04 00 
  6327 00:0E8C: 00 00 00 00  	dw	$0,$0,$4,$4,$4,$FFFF,$FFFF,$FFFF,$FFFF,$
                    FFFF
       00:0E90: 04 00 04 00 
       00:0E94: 04 00 FF FF 
       00:0E98: FF FF FF FF 
       00:0E9C: FF FF FF FF 
  6328 00:0EA0: 04 00 04 00  	dw	$4,$4,$FFFF,$0,$FFFF,$0,$0,$0,$0,$0
       00:0EA4: FF FF 00 00 
       00:0EA8: FF FF 00 00 
       00:0EAC: 00 00 00 00 
       00:0EB0: 00 00 00 00 
  6329 00:0EB4: 00 00 00 00  	dw	$0,$0,$0,$0,$0,$0,$0,$0,$FFFF,$FFFF
       00:0EB8: 00 00 00 00 
       00:0EBC: 00 00 00 00 
       00:0EC0: 00 00 00 00 
       00:0EC4: FF FF FF FF 
  6330 00:0EC8: FF FF FF FF  	dw	$FFFF,$FFFF,$FFFF,$FFFF,$FFFF,$FFFF,$FFF
                    F,$FFFF,$0,$0
       00:0ECC: FF FF FF FF 
       00:0ED0: FF FF FF FF 
       00:0ED4: FF FF FF FF 
       00:0ED8: 00 00 00 00 
  6331 00:0EDC: 00 00 00 00  	dw	$0,$0,$0,$0,$0,$FFFF,$FFFF,$FFFF,$FFFF,$
                    FFFF
       00:0EE0: 00 00 00 00 
       00:0EE4: 00 00 FF FF 
       00:0EE8: FF FF FF FF 
       00:0EEC: FF FF FF FF 
  6332 00:0EF0: FF FF FF FF  	dw	$FFFF,$FFFF,$FFFF,$FFFF,$FFFF,$FFFF,$FFF
                    F,$FFFF,$FFFF,$FFFF
       00:0EF4: FF FF FF FF 
  Sun Jan  9 2022 20:52                                                Page 119


       00:0EF8: FF FF FF FF 
       00:0EFC: FF FF FF FF 
       00:0F00: FF FF FF FF 
  6333 00:0F04: FF FF FF FF  	dw	$FFFF,$FFFF,$FFFF,$FFFF,$FFFF,$FFFF,$FFF
                    F,$FFFF,$FFFF,$FFFF
       00:0F08: FF FF FF FF 
       00:0F0C: FF FF FF FF 
       00:0F10: FF FF FF FF 
       00:0F14: FF FF FF FF 
  6334 00:0F18: FF FF 00 00  	dw	$FFFF,$0,$0,$0,$0,$0,$0,$FFFF,$FFFF,$FFF
                    F
       00:0F1C: 00 00 00 00 
       00:0F20: 00 00 00 00 
       00:0F24: 00 00 FF FF 
       00:0F28: FF FF FF FF 
  6335 00:0F2C: FF FF FF FF  	dw	$FFFF,$FFFF,$FFFF,$FFFF,$FFFF,$FFFF,$FFF
                    F,$FFFF,$FFFF,$FFFF
       00:0F30: FF FF FF FF 
       00:0F34: FF FF FF FF 
       00:0F38: FF FF FF FF 
       00:0F3C: FF FF FF FF 
  6336 00:0F40: FF FF FF FF  	dw	$FFFF,$FFFF,$FFFF,$FFFF,$FFFF,$FFFF,$FFF
                    F,$FFFF,$FFFF,$FFFF
       00:0F44: FF FF FF FF 
       00:0F48: FF FF FF FF 
       00:0F4C: FF FF FF FF 
       00:0F50: FF FF FF FF 
  6337 00:0F54: FF FF FF FF  	dw	$FFFF,$FFFF,$FFFF,$0,$0,$0,$0,$FFFF,$0,$
                    0
       00:0F58: FF FF 00 00 
       00:0F5C: 00 00 00 00 
       00:0F60: 00 00 FF FF 
       00:0F64: 00 00 00 00 
  6338 00:0F68: 00 00 00 00  	dw	$0,$0,$0,$0,$0,$0,$0,$0,$0,$0
       00:0F6C: 00 00 00 00 
       00:0F70: 00 00 00 00 
       00:0F74: 00 00 00 00 
       00:0F78: 00 00 00 00 
  6339 00:0F7C: 00 00 00 00  	dw	$0,$0,$0,$0,$4,$4,$0,$0,$0,$0
       00:0F80: 00 00 00 00 
       00:0F84: 04 00 04 00 
       00:0F88: 00 00 00 00 
       00:0F8C: 00 00 00 00 
  6340 00:0F90: 00 00 00 00  	dw	$0,$0,$0,$2,$0,$0,$0,$0,$0,$2
       00:0F94: 00 00 02 00 
       00:0F98: 00 00 00 00 
       00:0F9C: 00 00 00 00 
       00:0FA0: 00 00 02 00 
  6341 00:0FA4: 02 00 02 00  	dw	$2,$2,$2,$0,$0,$0,$0,$0,$0,$0
       00:0FA8: 02 00 00 00 
       00:0FAC: 00 00 00 00 
       00:0FB0: 00 00 00 00 
       00:0FB4: 00 00 00 00 
  6342 00:0FB8: 00 00 00 00  	dw	$0,$0,$0,$0,$0,$0,$0,$0,$4,$4
       00:0FBC: 00 00 00 00 
       00:0FC0: 00 00 00 00 
       00:0FC4: 00 00 00 00 
       00:0FC8: 04 00 04 00 
  Sun Jan  9 2022 20:52                                                Page 120


  6343 00:0FCC: 04 00 00 00  	dw	$4,$0,$0,$0,$0,$0,$0,$0,$0,$0
       00:0FD0: 00 00 00 00 
       00:0FD4: 00 00 00 00 
       00:0FD8: 00 00 00 00 
       00:0FDC: 00 00 00 00 
  6344 00:0FE0: 00 00 00 00  	dw	$0,$0,$0,$0,$0,$0,$0,$2,$2,$0
       00:0FE4: 00 00 00 00 
       00:0FE8: 00 00 00 00 
       00:0FEC: 00 00 02 00 
       00:0FF0: 02 00 00 00 
  6345 00:0FF4: 00 00 00 00  	dw	$0,$0,$0,$0,$0,$0,$0,$0,$0,$0
       00:0FF8: 00 00 00 00 
       00:0FFC: 00 00 00 00 
       00:1000: 00 00 00 00 
       00:1004: 00 00 00 00 
  6346 00:1008: 00 00 00 00  	dw	$0,$0,$0,$0,$0,$0,$2,$0,$0,$0
       00:100C: 00 00 00 00 
       00:1010: 00 00 00 00 
       00:1014: 02 00 00 00 
       00:1018: 00 00 00 00 
  6347 00:101C: 00 00 00 00  	dw	$0,$0,$0,$0,$0,$0,$0,$0,$0,$0
       00:1020: 00 00 00 00 
       00:1024: 00 00 00 00 
       00:1028: 00 00 00 00 
       00:102C: 00 00 00 00 
  6348 00:1030: 00 00 00 00  	dw	$0,$0,$0,$2,$2,$2,$2,$0,$FFFF,$FFFF
       00:1034: 00 00 02 00 
       00:1038: 02 00 02 00 
       00:103C: 02 00 00 00 
       00:1040: FF FF FF FF 
  6349 00:1044: FF FF FF FF  	dw	$FFFF,$FFFF,$FFFF,$FFFF,$FFFF,$FFFF,$FFF
                    F,$FFFF,$FFFF,$FFFF
       00:1048: FF FF FF FF 
       00:104C: FF FF FF FF 
       00:1050: FF FF FF FF 
       00:1054: FF FF FF FF 
  6350 00:1058: FF FF FF FF  	dw	$FFFF,$FFFF,$1,$1,$1,$1
       00:105C: 01 00 01 00 
       00:1060: 01 00 01 00 
  6351 00:1064:              	ends
  6352                        	code
  6353                        	xdef	~~skip_token
  6354                        	func
  6355                        ~~skip_token:
  6356                        	longa	on
  6357                        	longi	on
  6358 00:24E0: 3B           	tsc
  6359 00:24E1: 38           	sec
  6360 00:24E2: E9 0A 00     	sbc	#L446
  6361 00:24E5: 1B           	tcs
  6362 00:24E6: 0B           	phd
  6363 00:24E7: 5B           	tcd
  6364             00000004   p_0	set	4
  6365             00000000   size_1	set	0
  6366 00:24E8: A7 0E        	lda	[<L446+p_0]
  6367 00:24EA: 29 FF 00     	and	#$ff
  6368 00:24ED: F0 03        	beq	L448
  6369 00:24EF: 82 16 00     	brl	L10285
  Sun Jan  9 2022 20:52                                                Page 121


  6370                        L448:
  6371 00:24F2: A6 10        	ldx	<L446+p_0+2
  6372 00:24F4: A5 0E        	lda	<L446+p_0
  6373                        L449:
  6374 00:24F6: A8           	tay
  6375 00:24F7: A5 0C        	lda	<L446+2
  6376 00:24F9: 85 10        	sta	<L446+2+4
  6377 00:24FB: A5 0B        	lda	<L446+1
  6378 00:24FD: 85 0F        	sta	<L446+1+4
  6379 00:24FF: 2B           	pld
  6380 00:2500: 3B           	tsc
  6381 00:2501: 18           	clc
  6382 00:2502: 69 0E 00     	adc	#L446+4
  6383 00:2505: 1B           	tcs
  6384 00:2506: 98           	tya
  6385 00:2507: 6B           	rtl
  6386                        L10285:
  6387 00:2508: A7 0E        	lda	[<L446+p_0]
  6388 00:250A: 29 FF 00     	and	#$ff
  6389 00:250D: 85 05        	sta	<R1
  6390 00:250F: A5 05        	lda	<R1
  6391 00:2511: 0A           	asl	A
  6392 00:2512: 85 01        	sta	<R0
  6393 00:2514: A6 01        	ldx	<R0
  6394 00:2516: BD xx xx     	lda	|~~skiptable,X
  6395 00:2519: 85 09        	sta	<L447+size_1
  6396 00:251B: A5 09        	lda	<L447+size_1
  6397 00:251D: 10 03        	bpl	L450
  6398 00:251F: 82 2F 00     	brl	L10286
  6399                        L450:
  6400 00:2522: A0 00 00     	ldy	#$0
  6401 00:2525: A5 09        	lda	<L447+size_1
  6402 00:2527: 10 01        	bpl	L451
  6403 00:2529: 88           	dey
  6404                        L451:
  6405 00:252A: 85 01        	sta	<R0
  6406 00:252C: 84 03        	sty	<R0+2
  6407 00:252E: 18           	clc
  6408 00:252F: A9 01 00     	lda	#$1
  6409 00:2532: 65 01        	adc	<R0
  6410 00:2534: 85 05        	sta	<R1
  6411 00:2536: A9 00 00     	lda	#$0
  6412 00:2539: 65 03        	adc	<R0+2
  6413 00:253B: 85 07        	sta	<R1+2
  6414 00:253D: 18           	clc
  6415 00:253E: A5 0E        	lda	<L446+p_0
  6416 00:2540: 65 05        	adc	<R1
  6417 00:2542: 85 01        	sta	<R0
  6418 00:2544: A5 10        	lda	<L446+p_0+2
  6419 00:2546: 65 07        	adc	<R1+2
  6420 00:2548: 85 03        	sta	<R0+2
  6421 00:254A: A6 03        	ldx	<R0+2
  6422 00:254C: A5 01        	lda	<R0
  6423 00:254E: 82 A5 FF     	brl	L449
  6424                        L10286:
  6425 00:2551: F4 07 00     	pea	#<$7
  6426 00:2554: F4 04 00     	pea	#4
  6427 00:2557: 22 xx xx xx  	jsl	~~error
  Sun Jan  9 2022 20:52                                                Page 122


  6428 00:255B: A9 00 00     	lda	#$0
  6429 00:255E: AA           	tax
  6430 00:255F: A9 00 00     	lda	#$0
  6431 00:2562: 82 91 FF     	brl	L449
  6432             0000000A   L446	equ	10
  6433             00000009   L447	equ	9
  6434                        	ends
  6435                        	efunc
  6436                        	code
  6437                        	xdef	~~skip_name
  6438                        	func
  6439                        ~~skip_name:
  6440                        	longa	on
  6441                        	longi	on
  6442 00:2565: 3B           	tsc
  6443 00:2566: 38           	sec
  6444 00:2567: E9 00 00     	sbc	#L452
  6445 00:256A: 1B           	tcs
  6446 00:256B: 0B           	phd
  6447 00:256C: 5B           	tcd
  6448             00000004   p_0	set	4
  6449                        L10289:
  6450 00:256D: E6 04        	inc	<L452+p_0
  6451 00:256F: D0 02        	bne	L454
  6452 00:2571: E6 06        	inc	<L452+p_0+2
  6453                        L454:
  6454                        L10287:
  6455 00:2573: A7 04        	lda	[<L452+p_0]
  6456 00:2575: 29 FF 00     	and	#$ff
  6457 00:2578: 48           	pha
  6458 00:2579: 22 xx xx xx  	jsl	~~isalnum
  6459 00:257D: AA           	tax
  6460 00:257E: F0 03        	beq	L455
  6461 00:2580: 82 EA FF     	brl	L10289
  6462                        L455:
  6463 00:2583: E2 20        	sep	#$20
  6464                        	longa	off
  6465 00:2585: A7 04        	lda	[<L452+p_0]
  6466 00:2587: C9 5F        	cmp	#<$5f
  6467 00:2589: C2 20        	rep	#$20
  6468                        	longa	on
  6469 00:258B: D0 03        	bne	L456
  6470 00:258D: 82 DD FF     	brl	L10289
  6471                        L456:
  6472 00:2590: E2 20        	sep	#$20
  6473                        	longa	off
  6474 00:2592: A7 04        	lda	[<L452+p_0]
  6475 00:2594: C9 60        	cmp	#<$60
  6476 00:2596: C2 20        	rep	#$20
  6477                        	longa	on
  6478 00:2598: D0 03        	bne	L457
  6479 00:259A: 82 D0 FF     	brl	L10289
  6480                        L457:
  6481                        L10288:
  6482 00:259D: E2 20        	sep	#$20
  6483                        	longa	off
  6484 00:259F: A7 04        	lda	[<L452+p_0]
  6485 00:25A1: C9 25        	cmp	#<$25
  Sun Jan  9 2022 20:52                                                Page 123


  6486 00:25A3: C2 20        	rep	#$20
  6487                        	longa	on
  6488 00:25A5: D0 03        	bne	L459
  6489 00:25A7: 82 0D 00     	brl	L458
  6490                        L459:
  6491 00:25AA: E2 20        	sep	#$20
  6492                        	longa	off
  6493 00:25AC: A7 04        	lda	[<L452+p_0]
  6494 00:25AE: C9 24        	cmp	#<$24
  6495 00:25B0: C2 20        	rep	#$20
  6496                        	longa	on
  6497 00:25B2: F0 03        	beq	L460
  6498 00:25B4: 82 06 00     	brl	L10290
  6499                        L460:
  6500                        L458:
  6501 00:25B7: E6 04        	inc	<L452+p_0
  6502 00:25B9: D0 02        	bne	L461
  6503 00:25BB: E6 06        	inc	<L452+p_0+2
  6504                        L461:
  6505                        L10290:
  6506 00:25BD: E2 20        	sep	#$20
  6507                        	longa	off
  6508 00:25BF: A7 04        	lda	[<L452+p_0]
  6509 00:25C1: C9 28        	cmp	#<$28
  6510 00:25C3: C2 20        	rep	#$20
  6511                        	longa	on
  6512 00:25C5: D0 03        	bne	L463
  6513 00:25C7: 82 0D 00     	brl	L462
  6514                        L463:
  6515 00:25CA: E2 20        	sep	#$20
  6516                        	longa	off
  6517 00:25CC: A7 04        	lda	[<L452+p_0]
  6518 00:25CE: C9 5B        	cmp	#<$5b
  6519 00:25D0: C2 20        	rep	#$20
  6520                        	longa	on
  6521 00:25D2: F0 03        	beq	L464
  6522 00:25D4: 82 06 00     	brl	L10291
  6523                        L464:
  6524                        L462:
  6525 00:25D7: E6 04        	inc	<L452+p_0
  6526 00:25D9: D0 02        	bne	L465
  6527 00:25DB: E6 06        	inc	<L452+p_0+2
  6528                        L465:
  6529                        L10291:
  6530 00:25DD: A6 06        	ldx	<L452+p_0+2
  6531 00:25DF: A5 04        	lda	<L452+p_0
  6532                        L466:
  6533 00:25E1: A8           	tay
  6534 00:25E2: A5 02        	lda	<L452+2
  6535 00:25E4: 85 06        	sta	<L452+2+4
  6536 00:25E6: A5 01        	lda	<L452+1
  6537 00:25E8: 85 05        	sta	<L452+1+4
  6538 00:25EA: 2B           	pld
  6539 00:25EB: 3B           	tsc
  6540 00:25EC: 18           	clc
  6541 00:25ED: 69 04 00     	adc	#L452+4
  6542 00:25F0: 1B           	tcs
  6543 00:25F1: 98           	tya
  Sun Jan  9 2022 20:52                                                Page 124


  6544 00:25F2: 6B           	rtl
  6545             00000000   L452	equ	0
  6546             00000001   L453	equ	1
  6547                        	ends
  6548                        	efunc
  6549                        	code
  6550                        	xdef	~~get_intvalue
  6551                        	func
  6552                        ~~get_intvalue:
  6553                        	longa	on
  6554                        	longi	on
  6555 00:25F3: 3B           	tsc
  6556 00:25F4: 38           	sec
  6557 00:25F5: E9 0C 00     	sbc	#L467
  6558 00:25F8: 1B           	tcs
  6559 00:25F9: 0B           	phd
  6560 00:25FA: 5B           	tcd
  6561             00000004   ip_0	set	4
  6562 00:25FB: A0 01 00     	ldy	#$1
  6563 00:25FE: B7 10        	lda	[<L467+ip_0],Y
  6564 00:2600: 29 FF 00     	and	#$ff
  6565 00:2603: 85 01        	sta	<R0
  6566 00:2605: A0 02 00     	ldy	#$2
  6567 00:2608: B7 10        	lda	[<L467+ip_0],Y
  6568 00:260A: 29 FF 00     	and	#$ff
  6569 00:260D: 85 09        	sta	<R2
  6570 00:260F: A5 09        	lda	<R2
  6571 00:2611: EB           	xba
  6572 00:2612: 29 00 FF     	and	#$ff00
  6573 00:2615: 85 05        	sta	<R1
  6574 00:2617: A5 05        	lda	<R1
  6575 00:2619: 05 01        	ora	<R0
  6576 00:261B: 85 09        	sta	<R2
  6577 00:261D: A0 03 00     	ldy	#$3
  6578 00:2620: B7 10        	lda	[<L467+ip_0],Y
  6579 00:2622: 29 FF 00     	and	#$ff
  6580 00:2625: A2 10 00     	ldx	#<$10
  6581                        	xref	~~~asl
  6582 00:2628: 22 xx xx xx  	jsl	~~~asl
  6583 00:262C: 85 01        	sta	<R0
  6584 00:262E: A5 01        	lda	<R0
  6585 00:2630: 05 09        	ora	<R2
  6586 00:2632: 85 05        	sta	<R1
  6587 00:2634: A0 04 00     	ldy	#$4
  6588 00:2637: B7 10        	lda	[<L467+ip_0],Y
  6589 00:2639: 29 FF 00     	and	#$ff
  6590 00:263C: A2 18 00     	ldx	#<$18
  6591                        	xref	~~~asl
  6592 00:263F: 22 xx xx xx  	jsl	~~~asl
  6593 00:2643: 85 01        	sta	<R0
  6594 00:2645: A5 01        	lda	<R0
  6595 00:2647: 05 05        	ora	<R1
  6596                        L469:
  6597 00:2649: A8           	tay
  6598 00:264A: A5 0E        	lda	<L467+2
  6599 00:264C: 85 12        	sta	<L467+2+4
  6600 00:264E: A5 0D        	lda	<L467+1
  6601 00:2650: 85 11        	sta	<L467+1+4
  Sun Jan  9 2022 20:52                                                Page 125


  6602 00:2652: 2B           	pld
  6603 00:2653: 3B           	tsc
  6604 00:2654: 18           	clc
  6605 00:2655: 69 10 00     	adc	#L467+4
  6606 00:2658: 1B           	tcs
  6607 00:2659: 98           	tya
  6608 00:265A: 6B           	rtl
  6609             0000000C   L467	equ	12
  6610             0000000D   L468	equ	13
  6611                        	ends
  6612                        	efunc
  6613                        	code
  6614                        	xdef	~~get_address
  6615                        	func
  6616                        ~~get_address:
  6617                        	longa	on
  6618                        	longi	on
  6619 00:265B: 3B           	tsc
  6620 00:265C: 38           	sec
  6621 00:265D: E9 0C 00     	sbc	#L470
  6622 00:2660: 1B           	tcs
  6623 00:2661: 0B           	phd
  6624 00:2662: 5B           	tcd
  6625             00000004   p_0	set	4
  6626 00:2663: A0 01 00     	ldy	#$1
  6627 00:2666: B7 10        	lda	[<L470+p_0],Y
  6628 00:2668: 29 FF 00     	and	#$ff
  6629 00:266B: 85 01        	sta	<R0
  6630 00:266D: A0 02 00     	ldy	#$2
  6631 00:2670: B7 10        	lda	[<L470+p_0],Y
  6632 00:2672: 29 FF 00     	and	#$ff
  6633 00:2675: 85 09        	sta	<R2
  6634 00:2677: A5 09        	lda	<R2
  6635 00:2679: EB           	xba
  6636 00:267A: 29 00 FF     	and	#$ff00
  6637 00:267D: 85 05        	sta	<R1
  6638 00:267F: A5 05        	lda	<R1
  6639 00:2681: 05 01        	ora	<R0
  6640 00:2683: 85 09        	sta	<R2
  6641 00:2685: A0 03 00     	ldy	#$3
  6642 00:2688: B7 10        	lda	[<L470+p_0],Y
  6643 00:268A: 29 FF 00     	and	#$ff
  6644 00:268D: A2 10 00     	ldx	#<$10
  6645                        	xref	~~~asl
  6646 00:2690: 22 xx xx xx  	jsl	~~~asl
  6647 00:2694: 85 01        	sta	<R0
  6648 00:2696: A5 01        	lda	<R0
  6649 00:2698: 05 09        	ora	<R2
  6650 00:269A: 85 05        	sta	<R1
  6651 00:269C: A0 04 00     	ldy	#$4
  6652 00:269F: B7 10        	lda	[<L470+p_0],Y
  6653 00:26A1: 29 FF 00     	and	#$ff
  6654 00:26A4: A2 18 00     	ldx	#<$18
  6655                        	xref	~~~asl
  6656 00:26A7: 22 xx xx xx  	jsl	~~~asl
  6657 00:26AB: 85 01        	sta	<R0
  6658 00:26AD: A5 01        	lda	<R0
  6659 00:26AF: 05 05        	ora	<R1
  Sun Jan  9 2022 20:52                                                Page 126


  6660 00:26B1: 85 09        	sta	<R2
  6661 00:26B3: A0 00 00     	ldy	#$0
  6662 00:26B6: A5 09        	lda	<R2
  6663 00:26B8: 10 01        	bpl	L472
  6664 00:26BA: 88           	dey
  6665                        L472:
  6666 00:26BB: 85 01        	sta	<R0
  6667 00:26BD: 84 03        	sty	<R0+2
  6668 00:26BF: 18           	clc
  6669 00:26C0: AD xx xx     	lda	|~~basicvars
  6670 00:26C3: 65 01        	adc	<R0
  6671 00:26C5: 85 05        	sta	<R1
  6672 00:26C7: AD xx xx     	lda	|~~basicvars+2
  6673 00:26CA: 65 03        	adc	<R0+2
  6674 00:26CC: 85 07        	sta	<R1+2
  6675 00:26CE: A6 07        	ldx	<R1+2
  6676 00:26D0: A5 05        	lda	<R1
  6677                        L473:
  6678 00:26D2: A8           	tay
  6679 00:26D3: A5 0E        	lda	<L470+2
  6680 00:26D5: 85 12        	sta	<L470+2+4
  6681 00:26D7: A5 0D        	lda	<L470+1
  6682 00:26D9: 85 11        	sta	<L470+1+4
  6683 00:26DB: 2B           	pld
  6684 00:26DC: 3B           	tsc
  6685 00:26DD: 18           	clc
  6686 00:26DE: 69 10 00     	adc	#L470+4
  6687 00:26E1: 1B           	tcs
  6688 00:26E2: 98           	tya
  6689 00:26E3: 6B           	rtl
  6690             0000000C   L470	equ	12
  6691             0000000D   L471	equ	13
  6692                        	ends
  6693                        	efunc
  6694                        	code
  6695                        	xdef	~~get_linenum
  6696                        	func
  6697                        ~~get_linenum:
  6698                        	longa	on
  6699                        	longi	on
  6700 00:26E4: 3B           	tsc
  6701 00:26E5: 38           	sec
  6702 00:26E6: E9 0C 00     	sbc	#L474
  6703 00:26E9: 1B           	tcs
  6704 00:26EA: 0B           	phd
  6705 00:26EB: 5B           	tcd
  6706             00000004   lp_0	set	4
  6707 00:26EC: A0 01 00     	ldy	#$1
  6708 00:26EF: B7 10        	lda	[<L474+lp_0],Y
  6709 00:26F1: 29 FF 00     	and	#$ff
  6710 00:26F4: 85 01        	sta	<R0
  6711 00:26F6: A0 02 00     	ldy	#$2
  6712 00:26F9: B7 10        	lda	[<L474+lp_0],Y
  6713 00:26FB: 29 FF 00     	and	#$ff
  6714 00:26FE: 85 09        	sta	<R2
  6715 00:2700: A5 09        	lda	<R2
  6716 00:2702: EB           	xba
  6717 00:2703: 29 00 FF     	and	#$ff00
  Sun Jan  9 2022 20:52                                                Page 127


  6718 00:2706: 85 05        	sta	<R1
  6719 00:2708: A5 05        	lda	<R1
  6720 00:270A: 05 01        	ora	<R0
  6721                        L476:
  6722 00:270C: A8           	tay
  6723 00:270D: A5 0E        	lda	<L474+2
  6724 00:270F: 85 12        	sta	<L474+2+4
  6725 00:2711: A5 0D        	lda	<L474+1
  6726 00:2713: 85 11        	sta	<L474+1+4
  6727 00:2715: 2B           	pld
  6728 00:2716: 3B           	tsc
  6729 00:2717: 18           	clc
  6730 00:2718: 69 10 00     	adc	#L474+4
  6731 00:271B: 1B           	tcs
  6732 00:271C: 98           	tya
  6733 00:271D: 6B           	rtl
  6734             0000000C   L474	equ	12
  6735             0000000D   L475	equ	13
  6736                        	ends
  6737                        	efunc
  6738                        	code
  6739                        	func
  6740                        ~~set_linenum:
  6741                        	longa	on
  6742                        	longi	on
  6743 00:271E: 3B           	tsc
  6744 00:271F: 38           	sec
  6745 00:2720: E9 00 00     	sbc	#L477
  6746 00:2723: 1B           	tcs
  6747 00:2724: 0B           	phd
  6748 00:2725: 5B           	tcd
  6749             00000004   lp_0	set	4
  6750             00000008   line_0	set	8
  6751 00:2726: E2 20        	sep	#$20
  6752                        	longa	off
  6753 00:2728: A5 08        	lda	<L477+line_0
  6754 00:272A: A0 01 00     	ldy	#$1
  6755 00:272D: 97 04        	sta	[<L477+lp_0],Y
  6756 00:272F: C2 20        	rep	#$20
  6757                        	longa	on
  6758 00:2731: A5 08        	lda	<L477+line_0
  6759 00:2733: A2 08 00     	ldx	#<$8
  6760                        	xref	~~~asr
  6761 00:2736: 22 xx xx xx  	jsl	~~~asr
  6762 00:273A: E2 20        	sep	#$20
  6763                        	longa	off
  6764 00:273C: A0 02 00     	ldy	#$2
  6765 00:273F: 97 04        	sta	[<L477+lp_0],Y
  6766 00:2741: C2 20        	rep	#$20
  6767                        	longa	on
  6768                        L479:
  6769 00:2743: A5 02        	lda	<L477+2
  6770 00:2745: 85 08        	sta	<L477+2+6
  6771 00:2747: A5 01        	lda	<L477+1
  6772 00:2749: 85 07        	sta	<L477+1+6
  6773 00:274B: 2B           	pld
  6774 00:274C: 3B           	tsc
  6775 00:274D: 18           	clc
  Sun Jan  9 2022 20:52                                                Page 128


  6776 00:274E: 69 06 00     	adc	#L477+6
  6777 00:2751: 1B           	tcs
  6778 00:2752: 6B           	rtl
  6779             00000000   L477	equ	0
  6780             00000001   L478	equ	1
  6781                        	ends
  6782                        	efunc
  6783                        	code
  6784                        	xdef	~~get_fpvalue
  6785                        	func
  6786                        ~~get_fpvalue:
  6787                        	longa	on
  6788                        	longi	on
  6789 00:2753: 3B           	tsc
  6790 00:2754: 38           	sec
  6791 00:2755: E9 08 00     	sbc	#L480
  6792 00:2758: 1B           	tcs
  6793 00:2759: 0B           	phd
  6794 00:275A: 5B           	tcd
  6795             00000004   fp_0	set	4
  6796                        	udata
  6797                        L10292:
  6798 00:0004:              	ds	4
  6799 00:0008:              	ends
  6800 00:275B: F4 00 00     	pea	#^$4
  6801 00:275E: F4 04 00     	pea	#<$4
  6802 00:2761: 18           	clc
  6803 00:2762: A9 01 00     	lda	#$1
  6804 00:2765: 65 0C        	adc	<L480+fp_0
  6805 00:2767: 85 01        	sta	<R0
  6806 00:2769: A9 00 00     	lda	#$0
  6807 00:276C: 65 0E        	adc	<L480+fp_0+2
  6808 00:276E: 85 03        	sta	<R0+2
  6809 00:2770: D4 03        	pei	<R0+2
  6810 00:2772: D4 01        	pei	<R0
  6811 00:2774: A9 xx xx     	lda	#<L10292
  6812 00:2777: 85 05        	sta	<R1
  6813                        	xref	_BEG_DATA
  6814 00:2779: A9 xx xx     	lda	#_BEG_DATA>>16
  6815 00:277C: 85 07        	sta	<R1+2
  6816 00:277E: D4 07        	pei	<R1+2
  6817 00:2780: D4 05        	pei	<R1
  6818 00:2782: 22 xx xx xx  	jsl	~~memcpy
  6819 00:2786: AD xx xx     	lda	|L10292
  6820 00:2789: 85 10        	sta	<L480+8
  6821 00:278B: AD xx xx     	lda	|L10292+2
  6822 00:278E: 85 12        	sta	<L480+10
  6823                        L482:
  6824 00:2790: A5 0A        	lda	<L480+2
  6825 00:2792: 85 0E        	sta	<L480+2+4
  6826 00:2794: A5 09        	lda	<L480+1
  6827 00:2796: 85 0D        	sta	<L480+1+4
  6828 00:2798: 2B           	pld
  6829 00:2799: 3B           	tsc
  6830 00:279A: 18           	clc
  6831 00:279B: 69 0C 00     	adc	#L480+4
  6832 00:279E: 1B           	tcs
  6833 00:279F: 6B           	rtl
  Sun Jan  9 2022 20:52                                                Page 129


  6834             00000008   L480	equ	8
  6835             00000009   L481	equ	9
  6836                        	ends
  6837                        	efunc
  6838                        	data
  6839                        ~~onebytelist:
  6840 00:1064: xx xx xx xx  	dl	L179+0
  6841 00:1068: xx xx xx xx  	dl	L179+4
  6842 00:106C: xx xx xx xx  	dl	L179+7
  6843 00:1070: xx xx xx xx  	dl	L179+11
  6844 00:1074: xx xx xx xx  	dl	L179+15
  6845 00:1078: xx xx xx xx  	dl	L179+18
  6846 00:107C: xx xx xx xx  	dl	L179+21
  6847 00:1080: xx xx xx xx  	dl	L179+24
  6848 00:1084: xx xx xx xx  	dl	L179+28
  6849 00:1088: xx xx xx xx  	dl	L179+31
  6850 00:108C: xx xx xx xx  	dl	L179+35
  6851 00:1090: xx xx xx xx  	dl	L179+38
  6852 00:1094: xx xx xx xx  	dl	L179+41
  6853 00:1098: xx xx xx xx  	dl	L179+44
  6854 00:109C: xx xx xx xx  	dl	L179+50
  6855 00:10A0: xx xx xx xx  	dl	L179+55
  6856 00:10A4: xx xx xx xx  	dl	L179+60
  6857 00:10A8: xx xx xx xx  	dl	L179+65
  6858 00:10AC: xx xx xx xx  	dl	L179+70
  6859 00:10B0: xx xx xx xx  	dl	L179+76
  6860 00:10B4: xx xx xx xx  	dl	L179+83
  6861 00:10B8: xx xx xx xx  	dl	L179+87
  6862 00:10BC: xx xx xx xx  	dl	L179+93
  6863 00:10C0: xx xx xx xx  	dl	L179+99
  6864 00:10C4: xx xx xx xx  	dl	L179+103
  6865 00:10C8: xx xx xx xx  	dl	L179+110
  6866 00:10CC: xx xx xx xx  	dl	L179+115
  6867 00:10D0: xx xx xx xx  	dl	L179+119
  6868 00:10D4: xx xx xx xx  	dl	L179+123
  6869 00:10D8: xx xx xx xx  	dl	L179+128
  6870 00:10DC: xx xx xx xx  	dl	L179+136
  6871 00:10E0: xx xx xx xx  	dl	L179+144
  6872 00:10E4: xx xx xx xx  	dl	L179+149
  6873 00:10E8: xx xx xx xx  	dl	L179+154
  6874 00:10EC: xx xx xx xx  	dl	L179+159
  6875 00:10F0: xx xx xx xx  	dl	L179+164
  6876 00:10F4: xx xx xx xx  	dl	L179+168
  6877 00:10F8: xx xx xx xx  	dl	L179+176
  6878 00:10FC: xx xx xx xx  	dl	L179+182
  6879 00:1100: xx xx xx xx  	dl	L179+190
  6880 00:1104: xx xx xx xx  	dl	L179+199
  6881 00:1108: xx xx xx xx  	dl	L179+208
  6882 00:110C: xx xx xx xx  	dl	L179+214
  6883 00:1110: xx xx xx xx  	dl	L179+220
  6884 00:1114: xx xx xx xx  	dl	L179+225
  6885 00:1118: xx xx xx xx  	dl	L179+233
  6886 00:111C: xx xx xx xx  	dl	L179+236
  6887 00:1120: xx xx xx xx  	dl	L179+240
  6888 00:1124: xx xx xx xx  	dl	L179+245
  6889 00:1128: xx xx xx xx  	dl	L179+251
  6890 00:112C: xx xx xx xx  	dl	L179+256
  6891 00:1130: xx xx xx xx  	dl	L179+259
  Sun Jan  9 2022 20:52                                                Page 130


  6892 00:1134: xx xx xx xx  	dl	L179+262
  6893 00:1138: xx xx xx xx  	dl	L179+265
  6894 00:113C: xx xx xx xx  	dl	L179+271
  6895 00:1140: xx xx xx xx  	dl	L179+275
  6896 00:1144: xx xx xx xx  	dl	L179+283
  6897 00:1148: xx xx xx xx  	dl	L179+288
  6898 00:114C: xx xx xx xx  	dl	L179+294
  6899 00:1150: xx xx xx xx  	dl	L179+299
  6900 00:1154: xx xx xx xx  	dl	L179+305
  6901 00:1158: xx xx xx xx  	dl	L179+310
  6902 00:115C: xx xx xx xx  	dl	L179+318
  6903 00:1160: xx xx xx xx  	dl	L179+323
  6904 00:1164: xx xx xx xx  	dl	L179+327
  6905 00:1168: xx xx xx xx  	dl	L179+330
  6906 00:116C: xx xx xx xx  	dl	L179+334
  6907 00:1170: xx xx xx xx  	dl	L179+337
  6908 00:1174: xx xx xx xx  	dl	L179+344
  6909 00:1178: xx xx xx xx  	dl	L179+350
  6910 00:117C: xx xx xx xx  	dl	L179+360
  6911 00:1180: xx xx xx xx  	dl	L179+370
  6912 00:1184: xx xx xx xx  	dl	L179+378
  6913 00:1188: xx xx xx xx  	dl	L179+383
  6914 00:118C: xx xx xx xx  	dl	L179+389
  6915 00:1190: xx xx xx xx  	dl	L179+398
  6916 00:1194: xx xx xx xx  	dl	L179+407
  6917 00:1198: xx xx xx xx  	dl	L179+413
  6918 00:119C: xx xx xx xx  	dl	L179+418
  6919 00:11A0: xx xx xx xx  	dl	L179+423
  6920 00:11A4: xx xx xx xx  	dl	L179+428
  6921 00:11A8: xx xx xx xx  	dl	L179+438
  6922 00:11AC: xx xx xx xx  	dl	L179+442
  6923 00:11B0: xx xx xx xx  	dl	L179+449
  6924 00:11B4: xx xx xx xx  	dl	L179+456
  6925 00:11B8: xx xx xx xx  	dl	L179+464
  6926 00:11BC: xx xx xx xx  	dl	L179+471
  6927 00:11C0: xx xx xx xx  	dl	L179+475
  6928 00:11C4: xx xx xx xx  	dl	L179+481
  6929 00:11C8: xx xx xx xx  	dl	L179+483
  6930 00:11CC: xx xx xx xx  	dl	L179+488
  6931 00:11D0: xx xx xx xx  	dl	L179+495
  6932 00:11D4: xx xx xx xx  	dl	L179+500
  6933 00:11D8: xx xx xx xx  	dl	L179+505
  6934 00:11DC: xx xx xx xx  	dl	L179+509
  6935 00:11E0: xx xx xx xx  	dl	L179+515
  6936 00:11E4: xx xx xx xx  	dl	L179+520
  6937 00:11E8: xx xx xx xx  	dl	L179+525
  6938 00:11EC: xx xx xx xx  	dl	L179+528
  6939 00:11F0: xx xx xx xx  	dl	L179+534
  6940 00:11F4: xx xx xx xx  	dl	L179+539
  6941 00:11F8: xx xx xx xx  	dl	L179+545
  6942 00:11FC: xx xx xx xx  	dl	L179+549
  6943 00:1200: xx xx xx xx  	dl	L179+555
  6944 00:1204: xx xx xx xx  	dl	L179+562
  6945 00:1208: xx xx xx xx  	dl	L179+567
  6946 00:120C: xx xx xx xx  	dl	L179+572
  6947 00:1210: xx xx xx xx  	dl	L179+577
  6948 00:1214: xx xx xx xx  	dl	L179+583
  6949 00:1218: xx xx xx xx  	dl	L179+589
  Sun Jan  9 2022 20:52                                                Page 131


  6950 00:121C: 00 00 00 00  	dl	$0,$0,$0,$0,$0,$0,$0,$0,$0,$0
       00:1220: 00 00 00 00 
       00:1224: 00 00 00 00 
       00:1228: 00 00 00 00 
       00:122C: 00 00 00 00 
       00:1230: 00 00 00 00 
       00:1234: 00 00 00 00 
       00:1238: 00 00 00 00 
       00:123C: 00 00 00 00 
       00:1240: 00 00 00 00 
  6951 00:1244: 00 00 00 00  	dl	$0,$0,$0,$0,$0,$0,$0,$0
       00:1248: 00 00 00 00 
       00:124C: 00 00 00 00 
       00:1250: 00 00 00 00 
       00:1254: 00 00 00 00 
       00:1258: 00 00 00 00 
       00:125C: 00 00 00 00 
       00:1260: 00 00 00 00 
  6952 00:1264:              	ends
  6953                        	data
  6954                        L179:
  6955 00:1264: 41 4E 44 00  	db	$41,$4E,$44,$00,$3E,$3E,$00,$44,$49,$56,
                    $00,$45,$4F,$52,$00
       00:1268: 3E 3E 00 44 
       00:126C: 49 56 00 45 
       00:1270: 4F 52 00 
  6956 00:1273: 3E 3D 00 3C  	db	$3E,$3D,$00,$3C,$3D,$00,$3C,$3C,$00,$3E,
                    $3E,$3E,$00,$2D,$3D
       00:1277: 3D 00 3C 3C 
       00:127B: 00 3E 3E 3E 
       00:127F: 00 2D 3D 
  6957 00:1282: 00 4D 4F 44  	db	$00,$4D,$4F,$44,$00,$3C,$3E,$00,$4F,$52,
                    $00,$2B,$3D,$00,$42
       00:1286: 00 3C 3E 00 
       00:128A: 4F 52 00 2B 
       00:128E: 3D 00 42 
  6958 00:1291: 45 41 54 53  	db	$45,$41,$54,$53,$00,$42,$50,$55,$54,$00,
                    $43,$41,$4C,$4C,$00
       00:1295: 00 42 50 55 
       00:1299: 54 00 43 41 
       00:129D: 4C 4C 00 
  6959 00:12A0: 43 41 53 45  	db	$43,$41,$53,$45,$00,$43,$41,$53,$45,$00,
                    $43,$48,$41,$49,$4E
       00:12A4: 00 43 41 53 
       00:12A8: 45 00 43 48 
       00:12AC: 41 49 4E 
  6960 00:12AF: 00 43 49 52  	db	$00,$43,$49,$52,$43,$4C,$45,$00,$43,$4C,
                    $47,$00,$43,$4C,$45
       00:12B3: 43 4C 45 00 
       00:12B7: 43 4C 47 00 
       00:12BB: 43 4C 45 
  6961 00:12BE: 41 52 00 43  	db	$41,$52,$00,$43,$4C,$4F,$53,$45,$00,$43,
                    $4C,$53,$00,$43,$4F
       00:12C2: 4C 4F 53 45 
       00:12C6: 00 43 4C 53 
       00:12CA: 00 43 4F 
  6962 00:12CD: 4C 4F 55 52  	db	$4C,$4F,$55,$52,$00,$44,$41,$54,$41,$00,
                    $44,$45,$46,$00,$44
  Sun Jan  9 2022 20:52                                                Page 132


       00:12D1: 00 44 41 54 
       00:12D5: 41 00 44 45 
       00:12D9: 46 00 44 
  6963 00:12DC: 49 4D 00 44  	db	$49,$4D,$00,$44,$52,$41,$57,$00,$44,$52,
                    $41,$57,$20,$42,$59
       00:12E0: 52 41 57 00 
       00:12E4: 44 52 41 57 
       00:12E8: 20 42 59 
  6964 00:12EB: 00 45 4C 4C  	db	$00,$45,$4C,$4C,$49,$50,$53,$45,$00,$45,
                    $4C,$53,$45,$00,$45
       00:12EF: 49 50 53 45 
       00:12F3: 00 45 4C 53 
       00:12F7: 45 00 45 
  6965 00:12FA: 4C 53 45 00  	db	$4C,$53,$45,$00,$45,$4C,$53,$45,$00,$45,
                    $4C,$53,$45,$00,$45
       00:12FE: 45 4C 53 45 
       00:1302: 00 45 4C 53 
       00:1306: 45 00 45 
  6966 00:1309: 4E 44 00 45  	db	$4E,$44,$00,$45,$4E,$44,$43,$41,$53,$45,
                    $00,$45,$4E,$44,$49
       00:130D: 4E 44 43 41 
       00:1311: 53 45 00 45 
       00:1315: 4E 44 49 
  6967 00:1318: 46 00 45 4E  	db	$46,$00,$45,$4E,$44,$50,$52,$4F,$43,$00,
                    $45,$4E,$44,$57,$48
       00:131C: 44 50 52 4F 
       00:1320: 43 00 45 4E 
       00:1324: 44 57 48 
  6968 00:1327: 49 4C 45 00  	db	$49,$4C,$45,$00,$45,$4E,$56,$45,$4C,$4F,
                    $50,$45,$00,$45,$52
       00:132B: 45 4E 56 45 
       00:132F: 4C 4F 50 45 
       00:1333: 00 45 52 
  6969 00:1336: 52 4F 52 00  	db	$52,$4F,$52,$00,$46,$41,$4C,$53,$45,$00,
                    $46,$49,$4C,$4C,$00
       00:133A: 46 41 4C 53 
       00:133E: 45 00 46 49 
       00:1342: 4C 4C 00 
  6970 00:1345: 46 49 4C 4C  	db	$46,$49,$4C,$4C,$20,$42,$59,$00,$46,$4E,
                    $00,$46,$4F,$52,$00
       00:1349: 20 42 59 00 
       00:134D: 46 4E 00 46 
       00:1351: 4F 52 00 
  6971 00:1354: 47 43 4F 4C  	db	$47,$43,$4F,$4C,$00,$47,$4F,$53,$55,$42,
                    $00,$47,$4F,$54,$4F
       00:1358: 00 47 4F 53 
       00:135C: 55 42 00 47 
       00:1360: 4F 54 4F 
  6972 00:1363: 00 49 46 00  	db	$00,$49,$46,$00,$49,$46,$00,$49,$46,$00,
                    $49,$4E,$50,$55,$54
       00:1367: 49 46 00 49 
       00:136B: 46 00 49 4E 
       00:136F: 50 55 54 
  6973 00:1372: 00 4C 45 54  	db	$00,$4C,$45,$54,$00,$4C,$49,$42,$52,$41,
                    $52,$59,$00,$4C,$49
       00:1376: 00 4C 49 42 
       00:137A: 52 41 52 59 
       00:137E: 00 4C 49 
  Sun Jan  9 2022 20:52                                                Page 133


  6974 00:1381: 4E 45 00 4C  	db	$4E,$45,$00,$4C,$4F,$43,$41,$4C,$00,$4D,
                    $4F,$44,$45,$00,$4D
       00:1385: 4F 43 41 4C 
       00:1389: 00 4D 4F 44 
       00:138D: 45 00 4D 
  6975 00:1390: 4F 55 53 45  	db	$4F,$55,$53,$45,$00,$4D,$4F,$56,$45,$00,
                    $4D,$4F,$56,$45,$20
       00:1394: 00 4D 4F 56 
       00:1398: 45 00 4D 4F 
       00:139C: 56 45 20 
  6976 00:139F: 42 59 00 4E  	db	$42,$59,$00,$4E,$45,$58,$54,$00,$4E,$4F,
                    $54,$00,$4F,$46,$00
       00:13A3: 45 58 54 00 
       00:13A7: 4E 4F 54 00 
       00:13AB: 4F 46 00 
  6977 00:13AE: 4F 46 46 00  	db	$4F,$46,$46,$00,$4F,$4E,$00,$4F,$52,$49,
                    $47,$49,$4E,$00,$4F
       00:13B2: 4F 4E 00 4F 
       00:13B6: 52 49 47 49 
       00:13BA: 4E 00 4F 
  6978 00:13BD: 53 43 4C 49  	db	$53,$43,$4C,$49,$00,$4F,$54,$48,$45,$52,
                    $57,$49,$53,$45,$00
       00:13C1: 00 4F 54 48 
       00:13C5: 45 52 57 49 
       00:13C9: 53 45 00 
  6979 00:13CC: 4F 54 48 45  	db	$4F,$54,$48,$45,$52,$57,$49,$53,$45,$00,
                    $4F,$56,$45,$52,$4C
       00:13D0: 52 57 49 53 
       00:13D4: 45 00 4F 56 
       00:13D8: 45 52 4C 
  6980 00:13DB: 41 59 00 50  	db	$41,$59,$00,$50,$4C,$4F,$54,$00,$50,$4F,
                    $49,$4E,$54,$00,$50
       00:13DF: 4C 4F 54 00 
       00:13E3: 50 4F 49 4E 
       00:13E7: 54 00 50 
  6981 00:13EA: 4F 49 4E 54  	db	$4F,$49,$4E,$54,$20,$42,$59,$00,$50,$4F,
                    $49,$4E,$54,$20,$54
       00:13EE: 20 42 59 00 
       00:13F2: 50 4F 49 4E 
       00:13F6: 54 20 54 
  6982 00:13F9: 4F 00 50 52  	db	$4F,$00,$50,$52,$49,$4E,$54,$00,$50,$52,
                    $4F,$43,$00,$51,$55
       00:13FD: 49 4E 54 00 
       00:1401: 50 52 4F 43 
       00:1405: 00 51 55 
  6983 00:1408: 49 54 00 52  	db	$49,$54,$00,$52,$45,$41,$44,$00,$52,$45,
                    $43,$54,$41,$4E,$47
       00:140C: 45 41 44 00 
       00:1410: 52 45 43 54 
       00:1414: 41 4E 47 
  6984 00:1417: 4C 45 00 52  	db	$4C,$45,$00,$52,$45,$4D,$00,$52,$45,$50,
                    $45,$41,$54,$00,$52
       00:141B: 45 4D 00 52 
       00:141F: 45 50 45 41 
       00:1423: 54 00 52 
  6985 00:1426: 45 50 4F 52  	db	$45,$50,$4F,$52,$54,$00,$52,$45,$53,$54,
                    $4F,$52,$45,$00,$52
       00:142A: 54 00 52 45 
  Sun Jan  9 2022 20:52                                                Page 134


       00:142E: 53 54 4F 52 
       00:1432: 45 00 52 
  6986 00:1435: 45 54 55 52  	db	$45,$54,$55,$52,$4E,$00,$52,$55,$4E,$00,
                    $53,$4F,$55,$4E,$44
       00:1439: 4E 00 52 55 
       00:143D: 4E 00 53 4F 
       00:1441: 55 4E 44 
  6987 00:1444: 00 2A 00 53  	db	$00,$2A,$00,$53,$54,$45,$50,$00,$53,$54,
                    $45,$52,$45,$4F,$00
       00:1448: 54 45 50 00 
       00:144C: 53 54 45 52 
       00:1450: 45 4F 00 
  6988 00:1453: 53 54 4F 50  	db	$53,$54,$4F,$50,$00,$53,$57,$41,$50,$00,
                    $53,$59,$53,$00,$54
       00:1457: 00 53 57 41 
       00:145B: 50 00 53 59 
       00:145F: 53 00 54 
  6989 00:1462: 45 4D 50 4F  	db	$45,$4D,$50,$4F,$00,$54,$48,$45,$4E,$00,
                    $54,$49,$4E,$54,$00
       00:1466: 00 54 48 45 
       00:146A: 4E 00 54 49 
       00:146E: 4E 54 00 
  6990 00:1471: 54 4F 00 54  	db	$54,$4F,$00,$54,$52,$41,$43,$45,$00,$54,
                    $52,$55,$45,$00,$55
       00:1475: 52 41 43 45 
       00:1479: 00 54 52 55 
       00:147D: 45 00 55 
  6991 00:1480: 4E 54 49 4C  	db	$4E,$54,$49,$4C,$00,$56,$44,$55,$00,$56,
                    $4F,$49,$43,$45,$00
       00:1484: 00 56 44 55 
       00:1488: 00 56 4F 49 
       00:148C: 43 45 00 
  6992 00:148F: 56 4F 49 43  	db	$56,$4F,$49,$43,$45,$53,$00,$57,$41,$49,
                    $54,$00,$57,$48,$45
       00:1493: 45 53 00 57 
       00:1497: 41 49 54 00 
       00:149B: 57 48 45 
  6993 00:149E: 4E 00 57 48  	db	$4E,$00,$57,$48,$45,$4E,$00,$57,$48,$49,
                    $4C,$45,$00,$57,$48
       00:14A2: 45 4E 00 57 
       00:14A6: 48 49 4C 45 
       00:14AA: 00 57 48 
  6994 00:14AD: 49 4C 45 00  	db	$49,$4C,$45,$00,$57,$49,$44,$54,$48,$00
       00:14B1: 57 49 44 54 
       00:14B5: 48 00 
  6995 00:14B7:              	ends
  6996                        	data
  6997                        ~~commandlist:
  6998 00:14B7: 00 00 00 00  	dl	$0
  6999 00:14BB: xx xx xx xx  	dl	L483+0
  7000 00:14BF: xx xx xx xx  	dl	L483+7
  7001 00:14C3: xx xx xx xx  	dl	L483+12
  7002 00:14C7: xx xx xx xx  	dl	L483+19
  7003 00:14CB: xx xx xx xx  	dl	L483+26
  7004 00:14CF: xx xx xx xx  	dl	L483+31
  7005 00:14D3: xx xx xx xx  	dl	L483+37
  7006 00:14D7: xx xx xx xx  	dl	L483+42
  7007 00:14DB: xx xx xx xx  	dl	L483+50
  Sun Jan  9 2022 20:52                                                Page 135


  7008 00:14DF: xx xx xx xx  	dl	L483+55
  7009 00:14E3: xx xx xx xx  	dl	L483+61
  7010 00:14E7: xx xx xx xx  	dl	L483+68
  7011 00:14EB: xx xx xx xx  	dl	L483+74
  7012 00:14EF: xx xx xx xx  	dl	L483+80
  7013 00:14F3: xx xx xx xx  	dl	L483+86
  7014 00:14F7: xx xx xx xx  	dl	L483+91
  7015 00:14FB: xx xx xx xx  	dl	L483+96
  7016 00:14FF: xx xx xx xx  	dl	L483+100
  7017 00:1503: xx xx xx xx  	dl	L483+104
  7018 00:1507: xx xx xx xx  	dl	L483+113
  7019 00:150B: xx xx xx xx  	dl	L483+118
  7020 00:150F: xx xx xx xx  	dl	L483+124
  7021 00:1513: xx xx xx xx  	dl	L483+133
  7022 00:1517: xx xx xx xx  	dl	L483+142
  7023 00:151B: xx xx xx xx  	dl	L483+152
  7024 00:151F: xx xx xx xx  	dl	L483+157
  7025 00:1523:              	ends
  7026                        	data
  7027                        L483:
  7028 00:1523: 41 50 50 45  	db	$41,$50,$50,$45,$4E,$44,$00,$41,$55,$54,
                    $4F,$00,$43,$52,$55
       00:1527: 4E 44 00 41 
       00:152B: 55 54 4F 00 
       00:152F: 43 52 55 
  7029 00:1532: 4E 43 48 00  	db	$4E,$43,$48,$00,$44,$45,$4C,$45,$54,$45,
                    $00,$45,$44,$49,$54
       00:1536: 44 45 4C 45 
       00:153A: 54 45 00 45 
       00:153E: 44 49 54 
  7030 00:1541: 00 45 44 49  	db	$00,$45,$44,$49,$54,$4F,$00,$48,$45,$4C,
                    $50,$00,$49,$4E,$53
       00:1545: 54 4F 00 48 
       00:1549: 45 4C 50 00 
       00:154D: 49 4E 53 
  7031 00:1550: 54 41 4C 4C  	db	$54,$41,$4C,$4C,$00,$4C,$49,$53,$54,$00,
                    $4C,$49,$53,$54,$42
       00:1554: 00 4C 49 53 
       00:1558: 54 00 4C 49 
       00:155C: 53 54 42 
  7032 00:155F: 00 4C 49 53  	db	$00,$4C,$49,$53,$54,$49,$46,$00,$4C,$49,
                    $53,$54,$4C,$00,$4C
       00:1563: 54 49 46 00 
       00:1567: 4C 49 53 54 
       00:156B: 4C 00 4C 
  7033 00:156E: 49 53 54 4F  	db	$49,$53,$54,$4F,$00,$4C,$49,$53,$54,$57,
                    $00,$4C,$4F,$41,$44
       00:1572: 00 4C 49 53 
       00:1576: 54 57 00 4C 
       00:157A: 4F 41 44 
  7034 00:157D: 00 4C 56 41  	db	$00,$4C,$56,$41,$52,$00,$4E,$45,$57,$00,
                    $4F,$4C,$44,$00,$52
       00:1581: 52 00 4E 45 
       00:1585: 57 00 4F 4C 
       00:1589: 44 00 52 
  7035 00:158C: 45 4E 55 4D  	db	$45,$4E,$55,$4D,$42,$45,$52,$00,$53,$41,
                    $56,$45,$00,$53,$41
       00:1590: 42 45 52 00 
  Sun Jan  9 2022 20:52                                                Page 136


       00:1594: 53 41 56 45 
       00:1598: 00 53 41 
  7036 00:159B: 56 45 4F 00  	db	$56,$45,$4F,$00,$54,$45,$58,$54,$4C,$4F,
                    $41,$44,$00,$54,$45
       00:159F: 54 45 58 54 
       00:15A3: 4C 4F 41 44 
       00:15A7: 00 54 45 
  7037 00:15AA: 58 54 53 41  	db	$58,$54,$53,$41,$56,$45,$00,$54,$45,$58,
                    $54,$53,$41,$56,$45
       00:15AE: 56 45 00 54 
       00:15B2: 45 58 54 53 
       00:15B6: 41 56 45 
  7038 00:15B9: 4F 00 54 57  	db	$4F,$00,$54,$57,$49,$4E,$00,$54,$57,$49,
                    $4E,$4F,$00
       00:15BD: 49 4E 00 54 
       00:15C1: 57 49 4E 4F 
       00:15C5: 00 
  7039 00:15C6:              	ends
  7040                        	data
  7041                        ~~functionlist:
  7042 00:15C6: 00 00 00 00  	dl	$0
  7043 00:15CA: xx xx xx xx  	dl	L484+0
  7044 00:15CE: xx xx xx xx  	dl	L484+6
  7045 00:15D2: xx xx xx xx  	dl	L484+10
  7046 00:15D6: xx xx xx xx  	dl	L484+20
  7047 00:15DA: xx xx xx xx  	dl	L484+27
  7048 00:15DE: xx xx xx xx  	dl	L484+33
  7049 00:15E2: xx xx xx xx  	dl	L484+39
  7050 00:15E6: xx xx xx xx  	dl	L484+44
  7051 00:15EA: xx xx xx xx  	dl	L484+48
  7052 00:15EE: xx xx xx xx  	dl	L484+56
  7053 00:15F2: xx xx xx xx  	dl	L484+61
  7054 00:15F6: 00 00 00 00  	dl	$0,$0,$0,$0
       00:15FA: 00 00 00 00 
       00:15FE: 00 00 00 00 
       00:1602: 00 00 00 00 
  7055 00:1606: xx xx xx xx  	dl	L484+67
  7056 00:160A: xx xx xx xx  	dl	L484+71
  7057 00:160E: xx xx xx xx  	dl	L484+75
  7058 00:1612: xx xx xx xx  	dl	L484+81
  7059 00:1616: xx xx xx xx  	dl	L484+86
  7060 00:161A: xx xx xx xx  	dl	L484+92
  7061 00:161E: xx xx xx xx  	dl	L484+96
  7062 00:1622: xx xx xx xx  	dl	L484+100
  7063 00:1626: xx xx xx xx  	dl	L484+104
  7064 00:162A: xx xx xx xx  	dl	L484+109
  7065 00:162E: xx xx xx xx  	dl	L484+114
  7066 00:1632: xx xx xx xx  	dl	L484+119
  7067 00:1636: xx xx xx xx  	dl	L484+123
  7068 00:163A: xx xx xx xx  	dl	L484+129
  7069 00:163E: xx xx xx xx  	dl	L484+133
  7070 00:1642: xx xx xx xx  	dl	L484+137
  7071 00:1646: xx xx xx xx  	dl	L484+141
  7072 00:164A: xx xx xx xx  	dl	L484+145
  7073 00:164E: xx xx xx xx  	dl	L484+150
  7074 00:1652: xx xx xx xx  	dl	L484+154
  7075 00:1656: xx xx xx xx  	dl	L484+158
  7076 00:165A: xx xx xx xx  	dl	L484+163
  Sun Jan  9 2022 20:52                                                Page 137


  7077 00:165E: xx xx xx xx  	dl	L484+169
  7078 00:1662: xx xx xx xx  	dl	L484+176
  7079 00:1666: xx xx xx xx  	dl	L484+183
  7080 00:166A: xx xx xx xx  	dl	L484+187
  7081 00:166E: xx xx xx xx  	dl	L484+191
  7082 00:1672: xx xx xx xx  	dl	L484+197
  7083 00:1676: xx xx xx xx  	dl	L484+200
  7084 00:167A: xx xx xx xx  	dl	L484+204
  7085 00:167E: xx xx xx xx  	dl	L484+211
  7086 00:1682: xx xx xx xx  	dl	L484+219
  7087 00:1686: xx xx xx xx  	dl	L484+226
  7088 00:168A: xx xx xx xx  	dl	L484+229
  7089 00:168E: xx xx xx xx  	dl	L484+236
  7090 00:1692: xx xx xx xx  	dl	L484+240
  7091 00:1696: xx xx xx xx  	dl	L484+244
  7092 00:169A: xx xx xx xx  	dl	L484+252
  7093 00:169E: xx xx xx xx  	dl	L484+260
  7094 00:16A2: xx xx xx xx  	dl	L484+264
  7095 00:16A6: xx xx xx xx  	dl	L484+268
  7096 00:16AA: xx xx xx xx  	dl	L484+272
  7097 00:16AE: xx xx xx xx  	dl	L484+276
  7098 00:16B2: xx xx xx xx  	dl	L484+281
  7099 00:16B6: xx xx xx xx  	dl	L484+290
  7100 00:16BA: xx xx xx xx  	dl	L484+294
  7101 00:16BE: xx xx xx xx  	dl	L484+298
  7102 00:16C2: xx xx xx xx  	dl	L484+304
  7103 00:16C6: xx xx xx xx  	dl	L484+308
  7104 00:16CA: xx xx xx xx  	dl	L484+312
  7105 00:16CE: xx xx xx xx  	dl	L484+316
  7106 00:16D2: xx xx xx xx  	dl	L484+324
  7107 00:16D6: xx xx xx xx  	dl	L484+329
  7108 00:16DA:              	ends
  7109                        	data
  7110                        L484:
  7111 00:16DA: 48 49 4D 45  	db	$48,$49,$4D,$45,$4D,$00,$45,$58,$54,$00,
                    $46,$49,$4C,$45,$50
       00:16DE: 4D 00 45 58 
       00:16E2: 54 00 46 49 
       00:16E6: 4C 45 50 
  7112 00:16E9: 41 54 48 24  	db	$41,$54,$48,$24,$00,$4C,$45,$46,$54,$24,
                    $28,$00,$4C,$4F,$4D
       00:16ED: 00 4C 45 46 
       00:16F1: 54 24 28 00 
       00:16F5: 4C 4F 4D 
  7113 00:16F8: 45 4D 00 4D  	db	$45,$4D,$00,$4D,$49,$44,$24,$28,$00,$50,
                    $41,$47,$45,$00,$50
       00:16FC: 49 44 24 28 
       00:1700: 00 50 41 47 
       00:1704: 45 00 50 
  7114 00:1707: 54 52 00 52  	db	$54,$52,$00,$52,$49,$47,$48,$54,$24,$28,
                    $00,$54,$49,$4D,$45
       00:170B: 49 47 48 54 
       00:170F: 24 28 00 54 
       00:1713: 49 4D 45 
  7115 00:1716: 00 54 49 4D  	db	$00,$54,$49,$4D,$45,$24,$00,$41,$42,$53,
                    $00,$41,$43,$53,$00
       00:171A: 45 24 00 41 
       00:171E: 42 53 00 41 
  Sun Jan  9 2022 20:52                                                Page 138


       00:1722: 43 53 00 
  7116 00:1725: 41 44 56 41  	db	$41,$44,$56,$41,$4C,$00,$41,$52,$47,$43,
                    $00,$41,$52,$47,$56
       00:1729: 4C 00 41 52 
       00:172D: 47 43 00 41 
       00:1731: 52 47 56 
  7117 00:1734: 24 00 41 53  	db	$24,$00,$41,$53,$43,$00,$41,$53,$4E,$00,
                    $41,$54,$4E,$00,$42
       00:1738: 43 00 41 53 
       00:173C: 4E 00 41 54 
       00:1740: 4E 00 42 
  7118 00:1743: 45 41 54 00  	db	$45,$41,$54,$00,$42,$47,$45,$54,$00,$43,
                    $48,$52,$24,$00,$43
       00:1747: 42 47 45 54 
       00:174B: 00 43 48 52 
       00:174F: 24 00 43 
  7119 00:1752: 4F 53 00 43  	db	$4F,$53,$00,$43,$4F,$55,$4E,$54,$00,$44,
                    $45,$47,$00,$45,$4F
       00:1756: 4F 55 4E 54 
       00:175A: 00 44 45 47 
       00:175E: 00 45 4F 
  7120 00:1761: 46 00 45 52  	db	$46,$00,$45,$52,$4C,$00,$45,$52,$52,$00,
                    $45,$56,$41,$4C,$00
       00:1765: 4C 00 45 52 
       00:1769: 52 00 45 56 
       00:176D: 41 4C 00 
  7121 00:1770: 45 58 50 00  	db	$45,$58,$50,$00,$47,$45,$54,$00,$47,$45,
                    $54,$24,$00,$49,$4E
       00:1774: 47 45 54 00 
       00:1778: 47 45 54 24 
       00:177C: 00 49 4E 
  7122 00:177F: 4B 45 59 00  	db	$4B,$45,$59,$00,$49,$4E,$4B,$45,$59,$24,
                    $00,$49,$4E,$53,$54
       00:1783: 49 4E 4B 45 
       00:1787: 59 24 00 49 
       00:178B: 4E 53 54 
  7123 00:178E: 52 28 00 49  	db	$52,$28,$00,$49,$4E,$54,$00,$4C,$45,$4E,
                    $00,$4C,$49,$53,$54
       00:1792: 4E 54 00 4C 
       00:1796: 45 4E 00 4C 
       00:179A: 49 53 54 
  7124 00:179D: 4F 00 4C 4E  	db	$4F,$00,$4C,$4E,$00,$4C,$4F,$47,$00,$4F,
                    $50,$45,$4E,$49,$4E
       00:17A1: 00 4C 4F 47 
       00:17A5: 00 4F 50 45 
       00:17A9: 4E 49 4E 
  7125 00:17AC: 00 4F 50 45  	db	$00,$4F,$50,$45,$4E,$4F,$55,$54,$00,$4F,
                    $50,$45,$4E,$55,$50
       00:17B0: 4E 4F 55 54 
       00:17B4: 00 4F 50 45 
       00:17B8: 4E 55 50 
  7126 00:17BB: 00 50 49 00  	db	$00,$50,$49,$00,$50,$4F,$49,$4E,$54,$28,
                    $00,$50,$4F,$53,$00
       00:17BF: 50 4F 49 4E 
       00:17C3: 54 28 00 50 
       00:17C7: 4F 53 00 
  7127 00:17CA: 52 41 44 00  	db	$52,$41,$44,$00,$52,$45,$50,$4F,$52,$54,
                    $24,$00,$52,$45,$54
  Sun Jan  9 2022 20:52                                                Page 139


       00:17CE: 52 45 50 4F 
       00:17D2: 52 54 24 00 
       00:17D6: 52 45 54 
  7128 00:17D9: 43 4F 44 45  	db	$43,$4F,$44,$45,$00,$52,$4E,$44,$00,$53,
                    $47,$4E,$00,$53,$49
       00:17DD: 00 52 4E 44 
       00:17E1: 00 53 47 4E 
       00:17E5: 00 53 49 
  7129 00:17E8: 4E 00 53 51  	db	$4E,$00,$53,$51,$52,$00,$53,$54,$52,$24,
                    $00,$53,$54,$52,$49
       00:17EC: 52 00 53 54 
       00:17F0: 52 24 00 53 
       00:17F4: 54 52 49 
  7130 00:17F7: 4E 47 24 28  	db	$4E,$47,$24,$28,$00,$53,$55,$4D,$00,$54,
                    $41,$4E,$00,$54,$45
       00:17FB: 00 53 55 4D 
       00:17FF: 00 54 41 4E 
       00:1803: 00 54 45 
  7131 00:1806: 4D 50 4F 00  	db	$4D,$50,$4F,$00,$54,$4F,$50,$00,$55,$53,
                    $52,$00,$56,$41,$4C
       00:180A: 54 4F 50 00 
       00:180E: 55 53 52 00 
       00:1812: 56 41 4C 
  7132 00:1815: 00 56 45 52  	db	$00,$56,$45,$52,$49,$46,$59,$28,$00,$56,
                    $50,$4F,$53,$00,$58
       00:1819: 49 46 59 28 
       00:181D: 00 56 50 4F 
       00:1821: 53 00 58 
  7133 00:1824: 4C 41 54 45  	db	$4C,$41,$54,$45,$24,$28,$00
       00:1828: 24 28 00 
  7134 00:182B:              	ends
  7135                        	data
  7136                        ~~printlist:
  7137 00:182B: 00 00 00 00  	dl	$0
  7138 00:182F: xx xx xx xx  	dl	L485+0
  7139 00:1833: xx xx xx xx  	dl	L485+4
  7140 00:1837:              	ends
  7141                        	data
  7142                        L485:
  7143 00:1837: 53 50 43 00  	db	$53,$50,$43,$00,$54,$41,$42,$28,$00
       00:183B: 54 41 42 28 
       00:183F: 00 
  7144 00:1840:              	ends
  7145                        	code
  7146                        	func
  7147                        ~~expand_token:
  7148                        	longa	on
  7149                        	longi	on
  7150 00:27A0: 3B           	tsc
  7151 00:27A1: 38           	sec
  7152 00:27A2: E9 14 00     	sbc	#L487
  7153 00:27A5: 1B           	tcs
  7154 00:27A6: 0B           	phd
  7155 00:27A7: 5B           	tcd
  7156             00000004   cp_0	set	4
  7157             00000008   namelist_0	set	8
  7158             0000000C   token_0	set	12
  7159             00000000   n_1	set	0
  Sun Jan  9 2022 20:52                                                Page 140


  7160             00000002   count_1	set	2
  7161             00000004   name_1	set	4
  7162 00:27A8: A5 20        	lda	<L487+token_0
  7163 00:27AA: 29 FF 00     	and	#$ff
  7164 00:27AD: 85 05        	sta	<R1
  7165 00:27AF: 64 07        	stz	<R1+2
  7166 00:27B1: D4 07        	pei	<R1+2
  7167 00:27B3: D4 05        	pei	<R1
  7168 00:27B5: A9 02 00     	lda	#$2
  7169                        	xref	~~~lasl
  7170 00:27B8: 22 xx xx xx  	jsl	~~~lasl
  7171 00:27BC: 85 01        	sta	<R0
  7172 00:27BE: 86 03        	stx	<R0+2
  7173 00:27C0: 18           	clc
  7174 00:27C1: A5 1C        	lda	<L487+namelist_0
  7175 00:27C3: 65 01        	adc	<R0
  7176 00:27C5: 85 09        	sta	<R2
  7177 00:27C7: A5 1E        	lda	<L487+namelist_0+2
  7178 00:27C9: 65 03        	adc	<R0+2
  7179 00:27CB: 85 0B        	sta	<R2+2
  7180 00:27CD: A7 09        	lda	[<R2]
  7181 00:27CF: 85 11        	sta	<L488+name_1
  7182 00:27D1: A0 02 00     	ldy	#$2
  7183 00:27D4: B7 09        	lda	[<R2],Y
  7184 00:27D6: 85 13        	sta	<L488+name_1+2
  7185 00:27D8: A5 11        	lda	<L488+name_1
  7186 00:27DA: 05 13        	ora	<L488+name_1+2
  7187 00:27DC: F0 03        	beq	L489
  7188 00:27DE: 82 13 00     	brl	L10293
  7189                        L489:
  7190 00:27E1: F4 xx xx     	pea	#^L486
  7191 00:27E4: F4 xx xx     	pea	#<L486
  7192 00:27E7: F4 05 06     	pea	#<$605
  7193 00:27EA: F4 82 00     	pea	#<$82
  7194 00:27ED: F4 0A 00     	pea	#10
  7195 00:27F0: 22 xx xx xx  	jsl	~~error
  7196                        L10293:
  7197 00:27F4: D4 13        	pei	<L488+name_1+2
  7198 00:27F6: D4 11        	pei	<L488+name_1
  7199 00:27F8: D4 1A        	pei	<L487+cp_0+2
  7200 00:27FA: D4 18        	pei	<L487+cp_0
  7201 00:27FC: 22 xx xx xx  	jsl	~~strcpy
  7202 00:2800: D4 13        	pei	<L488+name_1+2
  7203 00:2802: D4 11        	pei	<L488+name_1
  7204 00:2804: 22 xx xx xx  	jsl	~~strlen
  7205 00:2808: 85 0F        	sta	<L488+count_1
  7206 00:280A: AD xx xx     	lda	|~~basicvars+429
  7207 00:280D: 89 10 00     	bit	#$10
  7208 00:2810: D0 03        	bne	L490
  7209 00:2812: 82 2C 00     	brl	L10294
  7210                        L490:
  7211 00:2815: 64 0D        	stz	<L488+n_1
  7212 00:2817: 82 18 00     	brl	L10298
  7213                        L10297:
  7214 00:281A: A7 18        	lda	[<L487+cp_0]
  7215 00:281C: 29 FF 00     	and	#$ff
  7216 00:281F: 48           	pha
  7217 00:2820: 22 xx xx xx  	jsl	~~tolower
  Sun Jan  9 2022 20:52                                                Page 141


  7218 00:2824: E2 20        	sep	#$20
  7219                        	longa	off
  7220 00:2826: 87 18        	sta	[<L487+cp_0]
  7221 00:2828: C2 20        	rep	#$20
  7222                        	longa	on
  7223 00:282A: E6 18        	inc	<L487+cp_0
  7224 00:282C: D0 02        	bne	L491
  7225 00:282E: E6 1A        	inc	<L487+cp_0+2
  7226                        L491:
  7227                        L10295:
  7228 00:2830: E6 0D        	inc	<L488+n_1
  7229                        L10298:
  7230 00:2832: 38           	sec
  7231 00:2833: A5 0D        	lda	<L488+n_1
  7232 00:2835: E5 0F        	sbc	<L488+count_1
  7233 00:2837: 70 03        	bvs	L492
  7234 00:2839: 49 00 80     	eor	#$8000
  7235                        L492:
  7236 00:283C: 30 03        	bmi	L493
  7237 00:283E: 82 D9 FF     	brl	L10297
  7238                        L493:
  7239                        L10296:
  7240                        L10294:
  7241 00:2841: A5 0F        	lda	<L488+count_1
  7242                        L494:
  7243 00:2843: A8           	tay
  7244 00:2844: A5 16        	lda	<L487+2
  7245 00:2846: 85 20        	sta	<L487+2+10
  7246 00:2848: A5 15        	lda	<L487+1
  7247 00:284A: 85 1F        	sta	<L487+1+10
  7248 00:284C: 2B           	pld
  7249 00:284D: 3B           	tsc
  7250 00:284E: 18           	clc
  7251 00:284F: 69 1E 00     	adc	#L487+10
  7252 00:2852: 1B           	tcs
  7253 00:2853: 98           	tya
  7254 00:2854: 6B           	rtl
  7255             00000014   L487	equ	20
  7256             0000000D   L488	equ	13
  7257                        	ends
  7258                        	efunc
  7259                        	data
  7260                        L486:
  7261 00:1840: 74 6F 6B 65  	db	$74,$6F,$6B,$65,$6E,$73,$00
       00:1844: 6E 73 00 
  7262 00:1847:              	ends
  7263                        	code
  7264                        	func
  7265                        ~~skip_source:
  7266                        	longa	on
  7267                        	longi	on
  7268 00:2855: 3B           	tsc
  7269 00:2856: 38           	sec
  7270 00:2857: E9 05 00     	sbc	#L496
  7271 00:285A: 1B           	tcs
  7272 00:285B: 0B           	phd
  7273 00:285C: 5B           	tcd
  7274             00000004   p_0	set	4
  Sun Jan  9 2022 20:52                                                Page 142


  7275             00000000   token_1	set	0
  7276 00:285D: E2 20        	sep	#$20
  7277                        	longa	off
  7278 00:285F: A7 09        	lda	[<L496+p_0]
  7279 00:2861: 85 05        	sta	<L497+token_1
  7280 00:2863: C2 20        	rep	#$20
  7281                        	longa	on
  7282 00:2865: A5 05        	lda	<L497+token_1
  7283 00:2867: 29 FF 00     	and	#$ff
  7284 00:286A: F0 03        	beq	L498
  7285 00:286C: 82 16 00     	brl	L10299
  7286                        L498:
  7287 00:286F: A6 0B        	ldx	<L496+p_0+2
  7288 00:2871: A5 09        	lda	<L496+p_0
  7289                        L499:
  7290 00:2873: A8           	tay
  7291 00:2874: A5 07        	lda	<L496+2
  7292 00:2876: 85 0B        	sta	<L496+2+4
  7293 00:2878: A5 06        	lda	<L496+1
  7294 00:287A: 85 0A        	sta	<L496+1+4
  7295 00:287C: 2B           	pld
  7296 00:287D: 3B           	tsc
  7297 00:287E: 18           	clc
  7298 00:287F: 69 09 00     	adc	#L496+4
  7299 00:2882: 1B           	tcs
  7300 00:2883: 98           	tya
  7301 00:2884: 6B           	rtl
  7302                        L10299:
  7303 00:2885: E2 20        	sep	#$20
  7304                        	longa	off
  7305 00:2887: A5 05        	lda	<L497+token_1
  7306 00:2889: C9 1E        	cmp	#<$1e
  7307 00:288B: C2 20        	rep	#$20
  7308                        	longa	on
  7309 00:288D: F0 03        	beq	L500
  7310 00:288F: 82 16 00     	brl	L10300
  7311                        L500:
  7312 00:2892: 18           	clc
  7313 00:2893: A9 03 00     	lda	#$3
  7314 00:2896: 65 09        	adc	<L496+p_0
  7315 00:2898: 85 01        	sta	<R0
  7316 00:289A: A9 00 00     	lda	#$0
  7317 00:289D: 65 0B        	adc	<L496+p_0+2
  7318 00:289F: 85 03        	sta	<R0+2
  7319 00:28A1: A6 03        	ldx	<R0+2
  7320 00:28A3: A5 01        	lda	<R0
  7321 00:28A5: 82 CB FF     	brl	L499
  7322                        L10300:
  7323 00:28A8: E2 20        	sep	#$20
  7324                        	longa	off
  7325 00:28AA: A5 05        	lda	<L497+token_1
  7326 00:28AC: C9 FC        	cmp	#<$fc
  7327 00:28AE: C2 20        	rep	#$20
  7328                        	longa	on
  7329 00:28B0: B0 03        	bcs	L501
  7330 00:28B2: 82 16 00     	brl	L10301
  7331                        L501:
  7332 00:28B5: 18           	clc
  Sun Jan  9 2022 20:52                                                Page 143


  7333 00:28B6: A9 02 00     	lda	#$2
  7334 00:28B9: 65 09        	adc	<L496+p_0
  7335 00:28BB: 85 01        	sta	<R0
  7336 00:28BD: A9 00 00     	lda	#$0
  7337 00:28C0: 65 0B        	adc	<L496+p_0+2
  7338 00:28C2: 85 03        	sta	<R0+2
  7339 00:28C4: A6 03        	ldx	<R0+2
  7340 00:28C6: A5 01        	lda	<R0
  7341 00:28C8: 82 A8 FF     	brl	L499
  7342                        L10301:
  7343 00:28CB: 18           	clc
  7344 00:28CC: A9 01 00     	lda	#$1
  7345 00:28CF: 65 09        	adc	<L496+p_0
  7346 00:28D1: 85 01        	sta	<R0
  7347 00:28D3: A9 00 00     	lda	#$0
  7348 00:28D6: 65 0B        	adc	<L496+p_0+2
  7349 00:28D8: 85 03        	sta	<R0+2
  7350 00:28DA: A6 03        	ldx	<R0+2
  7351 00:28DC: A5 01        	lda	<R0
  7352 00:28DE: 82 92 FF     	brl	L499
  7353             00000005   L496	equ	5
  7354             00000005   L497	equ	5
  7355                        	ends
  7356                        	efunc
  7357                        	code
  7358                        	xdef	~~expand
  7359                        	func
  7360                        ~~expand:
  7361                        	longa	on
  7362                        	longi	on
  7363 00:28E1: 3B           	tsc
  7364 00:28E2: 38           	sec
  7365 00:28E3: E9 11 00     	sbc	#L502
  7366 00:28E6: 1B           	tcs
  7367 00:28E7: 0B           	phd
  7368 00:28E8: 5B           	tcd
  7369             00000004   line_0	set	4
  7370             00000008   text_0	set	8
  7371             00000000   token_1	set	0
  7372             00000001   lp_1	set	1
  7373             00000005   n_1	set	5
  7374             00000007   count_1	set	7
  7375             00000009   thisindent_1	set	9
  7376             0000000B   nextindent_1	set	11
  7377 00:28E9: AD xx xx     	lda	|~~basicvars+429
  7378 00:28EC: 89 08 00     	bit	#$8
  7379 00:28EF: F0 03        	beq	L504
  7380 00:28F1: 82 3F 00     	brl	L10302
  7381                        L504:
  7382 00:28F4: D4 17        	pei	<L502+line_0+2
  7383 00:28F6: D4 15        	pei	<L502+line_0
  7384 00:28F8: 22 xx xx xx  	jsl	~~get_lineno
  7385 00:28FC: 48           	pha
  7386 00:28FD: F4 xx xx     	pea	#^L495
  7387 00:2900: F4 xx xx     	pea	#<L495
  7388 00:2903: D4 1B        	pei	<L502+text_0+2
  7389 00:2905: D4 19        	pei	<L502+text_0
  7390 00:2907: F4 0C 00     	pea	#12
  Sun Jan  9 2022 20:52                                                Page 144


  7391 00:290A: 22 xx xx xx  	jsl	~~sprintf
  7392 00:290E: 18           	clc
  7393 00:290F: A9 05 00     	lda	#$5
  7394 00:2912: 65 19        	adc	<L502+text_0
  7395 00:2914: 85 19        	sta	<L502+text_0
  7396 00:2916: 90 02        	bcc	L505
  7397 00:2918: E6 1B        	inc	<L502+text_0+2
  7398                        L505:
  7399 00:291A: AD xx xx     	lda	|~~basicvars+429
  7400 00:291D: 89 01 00     	bit	#$1
  7401 00:2920: D0 03        	bne	L506
  7402 00:2922: 82 0E 00     	brl	L10303
  7403                        L506:
  7404 00:2925: E2 20        	sep	#$20
  7405                        	longa	off
  7406 00:2927: A9 20        	lda	#$20
  7407 00:2929: 87 19        	sta	[<L502+text_0]
  7408 00:292B: C2 20        	rep	#$20
  7409                        	longa	on
  7410 00:292D: E6 19        	inc	<L502+text_0
  7411 00:292F: D0 02        	bne	L507
  7412 00:2931: E6 1B        	inc	<L502+text_0+2
  7413                        L507:
  7414                        L10303:
  7415                        L10302:
  7416 00:2933: 18           	clc
  7417 00:2934: A9 06 00     	lda	#$6
  7418 00:2937: 65 15        	adc	<L502+line_0
  7419 00:2939: 85 06        	sta	<L503+lp_1
  7420 00:293B: A9 00 00     	lda	#$0
  7421 00:293E: 65 17        	adc	<L502+line_0+2
  7422 00:2940: 85 08        	sta	<L503+lp_1+2
  7423 00:2942: AD xx xx     	lda	|~~basicvars+429
  7424 00:2945: 89 02 00     	bit	#$2
  7425 00:2948: D0 03        	bne	L508
  7426 00:294A: 82 BD 01     	brl	L10304
  7427                        L508:
  7428 00:294D: D4 08        	pei	<L503+lp_1+2
  7429 00:294F: D4 06        	pei	<L503+lp_1
  7430 00:2951: 22 xx xx xx  	jsl	~~skip
  7431 00:2955: 85 06        	sta	<L503+lp_1
  7432 00:2957: 86 08        	stx	<L503+lp_1+2
  7433 00:2959: AD xx xx     	lda	|~~indentation
  7434 00:295C: 85 10        	sta	<L503+nextindent_1
  7435 00:295E: A5 10        	lda	<L503+nextindent_1
  7436 00:2960: 85 0E        	sta	<L503+thisindent_1
  7437 00:2962: A7 06        	lda	[<L503+lp_1]
  7438 00:2964: 29 FF 00     	and	#$ff
  7439 00:2967: 82 2A 00     	brl	L10305
  7440                        L10307:
  7441 00:296A: 64 10        	stz	<L503+nextindent_1
  7442 00:296C: 64 0E        	stz	<L503+thisindent_1
  7443 00:296E: 82 4F 00     	brl	L10306
  7444                        L10308:
  7445                        L10309:
  7446                        L10310:
  7447                        L10311:
  7448                        L10312:
  Sun Jan  9 2022 20:52                                                Page 145


  7449                        L10313:
  7450 00:2971: C6 0E        	dec	<L503+thisindent_1
  7451 00:2973: C6 0E        	dec	<L503+thisindent_1
  7452 00:2975: A5 0E        	lda	<L503+thisindent_1
  7453 00:2977: 30 03        	bmi	L509
  7454 00:2979: 82 02 00     	brl	L10314
  7455                        L509:
  7456 00:297C: 64 0E        	stz	<L503+thisindent_1
  7457                        L10314:
  7458 00:297E: 18           	clc
  7459 00:297F: A9 02 00     	lda	#$2
  7460 00:2982: 65 0E        	adc	<L503+thisindent_1
  7461 00:2984: 85 10        	sta	<L503+nextindent_1
  7462 00:2986: 82 37 00     	brl	L10306
  7463                        L10315:
  7464                        L10316:
  7465 00:2989: C6 0E        	dec	<L503+thisindent_1
  7466 00:298B: C6 0E        	dec	<L503+thisindent_1
  7467 00:298D: C6 10        	dec	<L503+nextindent_1
  7468 00:298F: C6 10        	dec	<L503+nextindent_1
  7469 00:2991: 82 2C 00     	brl	L10306
  7470                        L10305:
  7471                        	xref	~~~swt
  7472 00:2994: 22 xx xx xx  	jsl	~~~swt
  7473 00:2998: 09 00        	dw	9
  7474 00:299A: 9A 00        	dw	154
  7475 00:299C: xx xx        	dw	L10307-1
  7476 00:299E: A1 00        	dw	161
  7477 00:29A0: xx xx        	dw	L10309-1
  7478 00:29A2: A2 00        	dw	162
  7479 00:29A4: xx xx        	dw	L10308-1
  7480 00:29A6: A4 00        	dw	164
  7481 00:29A8: xx xx        	dw	L10316-1
  7482 00:29AA: A5 00        	dw	165
  7483 00:29AC: xx xx        	dw	L10315-1
  7484 00:29AE: C5 00        	dw	197
  7485 00:29B0: xx xx        	dw	L10313-1
  7486 00:29B2: C6 00        	dw	198
  7487 00:29B4: xx xx        	dw	L10312-1
  7488 00:29B6: E9 00        	dw	233
  7489 00:29B8: xx xx        	dw	L10311-1
  7490 00:29BA: EA 00        	dw	234
  7491 00:29BC: xx xx        	dw	L10310-1
  7492 00:29BE: xx xx        	dw	L10306-1
  7493                        L10306:
  7494                        L10317:
  7495 00:29C0: A7 06        	lda	[<L503+lp_1]
  7496 00:29C2: 29 FF 00     	and	#$ff
  7497 00:29C5: D0 03        	bne	L510
  7498 00:29C7: 82 E7 00     	brl	L10318
  7499                        L510:
  7500 00:29CA: A7 06        	lda	[<L503+lp_1]
  7501 00:29CC: 29 FF 00     	and	#$ff
  7502 00:29CF: 82 A0 00     	brl	L10319
  7503                        L10321:
  7504                        L10322:
  7505                        L10323:
  7506                        L10324:
  Sun Jan  9 2022 20:52                                                Page 146


  7507                        L10325:
  7508                        L10326:
  7509 00:29D2: E6 10        	inc	<L503+nextindent_1
  7510 00:29D4: E6 10        	inc	<L503+nextindent_1
  7511 00:29D6: 82 C9 00     	brl	L10320
  7512                        L10327:
  7513 00:29D9: A0 01 00     	ldy	#$1
  7514 00:29DC: B7 06        	lda	[<L503+lp_1],Y
  7515 00:29DE: 29 FF 00     	and	#$ff
  7516 00:29E1: F0 03        	beq	L511
  7517 00:29E3: 82 04 00     	brl	L10328
  7518                        L511:
  7519 00:29E6: E6 10        	inc	<L503+nextindent_1
  7520 00:29E8: E6 10        	inc	<L503+nextindent_1
  7521                        L10328:
  7522 00:29EA: 82 B5 00     	brl	L10320
  7523                        L10329:
  7524                        L10330:
  7525 00:29ED: A5 10        	lda	<L503+nextindent_1
  7526 00:29EF: C5 0E        	cmp	<L503+thisindent_1
  7527 00:29F1: F0 03        	beq	L512
  7528 00:29F3: 82 04 00     	brl	L10331
  7529                        L512:
  7530 00:29F6: C6 0E        	dec	<L503+thisindent_1
  7531 00:29F8: C6 0E        	dec	<L503+thisindent_1
  7532                        L10331:
  7533 00:29FA: C6 10        	dec	<L503+nextindent_1
  7534 00:29FC: C6 10        	dec	<L503+nextindent_1
  7535 00:29FE: 82 A1 00     	brl	L10320
  7536                        L10332:
  7537 00:2A01: A5 10        	lda	<L503+nextindent_1
  7538 00:2A03: C5 0E        	cmp	<L503+thisindent_1
  7539 00:2A05: F0 03        	beq	L513
  7540 00:2A07: 82 04 00     	brl	L10333
  7541                        L513:
  7542 00:2A0A: C6 0E        	dec	<L503+thisindent_1
  7543 00:2A0C: C6 0E        	dec	<L503+thisindent_1
  7544                        L10333:
  7545 00:2A0E: C6 10        	dec	<L503+nextindent_1
  7546 00:2A10: C6 10        	dec	<L503+nextindent_1
  7547 00:2A12: D4 08        	pei	<L503+lp_1+2
  7548 00:2A14: D4 06        	pei	<L503+lp_1
  7549 00:2A16: 22 xx xx xx  	jsl	~~skip_source
  7550 00:2A1A: 85 06        	sta	<L503+lp_1
  7551 00:2A1C: 86 08        	stx	<L503+lp_1+2
  7552                        L10334:
  7553 00:2A1E: A7 06        	lda	[<L503+lp_1]
  7554 00:2A20: 29 FF 00     	and	#$ff
  7555 00:2A23: D0 03        	bne	L514
  7556 00:2A25: 82 47 00     	brl	L10335
  7557                        L514:
  7558 00:2A28: E2 20        	sep	#$20
  7559                        	longa	off
  7560 00:2A2A: A7 06        	lda	[<L503+lp_1]
  7561 00:2A2C: C9 3A        	cmp	#<$3a
  7562 00:2A2E: C2 20        	rep	#$20
  7563                        	longa	on
  7564 00:2A30: D0 03        	bne	L515
  Sun Jan  9 2022 20:52                                                Page 147


  7565 00:2A32: 82 3A 00     	brl	L10335
  7566                        L515:
  7567 00:2A35: E2 20        	sep	#$20
  7568                        	longa	off
  7569 00:2A37: A7 06        	lda	[<L503+lp_1]
  7570 00:2A39: C9 9F        	cmp	#<$9f
  7571 00:2A3B: C2 20        	rep	#$20
  7572                        	longa	on
  7573 00:2A3D: D0 03        	bne	L516
  7574 00:2A3F: 82 2D 00     	brl	L10335
  7575                        L516:
  7576 00:2A42: E2 20        	sep	#$20
  7577                        	longa	off
  7578 00:2A44: A7 06        	lda	[<L503+lp_1]
  7579 00:2A46: C9 A0        	cmp	#<$a0
  7580 00:2A48: C2 20        	rep	#$20
  7581                        	longa	on
  7582 00:2A4A: D0 03        	bne	L517
  7583 00:2A4C: 82 20 00     	brl	L10335
  7584                        L517:
  7585 00:2A4F: E2 20        	sep	#$20
  7586                        	longa	off
  7587 00:2A51: A7 06        	lda	[<L503+lp_1]
  7588 00:2A53: C9 2C        	cmp	#<$2c
  7589 00:2A55: C2 20        	rep	#$20
  7590                        	longa	on
  7591 00:2A57: F0 03        	beq	L518
  7592 00:2A59: 82 04 00     	brl	L10336
  7593                        L518:
  7594 00:2A5C: C6 10        	dec	<L503+nextindent_1
  7595 00:2A5E: C6 10        	dec	<L503+nextindent_1
  7596                        L10336:
  7597 00:2A60: D4 08        	pei	<L503+lp_1+2
  7598 00:2A62: D4 06        	pei	<L503+lp_1
  7599 00:2A64: 22 xx xx xx  	jsl	~~skip_source
  7600 00:2A68: 85 06        	sta	<L503+lp_1
  7601 00:2A6A: 86 08        	stx	<L503+lp_1+2
  7602 00:2A6C: 82 AF FF     	brl	L10334
  7603                        L10335:
  7604 00:2A6F: 82 30 00     	brl	L10320
  7605                        L10319:
  7606                        	xref	~~~swt
  7607 00:2A72: 22 xx xx xx  	jsl	~~~swt
  7608 00:2A76: 0A 00        	dw	10
  7609 00:2A78: 90 00        	dw	144
  7610 00:2A7A: xx xx        	dw	L10326-1
  7611 00:2A7C: 91 00        	dw	145
  7612 00:2A7E: xx xx        	dw	L10325-1
  7613 00:2A80: A7 00        	dw	167
  7614 00:2A82: xx xx        	dw	L10329-1
  7615 00:2A84: AE 00        	dw	174
  7616 00:2A86: xx xx        	dw	L10324-1
  7617 00:2A88: BE 00        	dw	190
  7618 00:2A8A: xx xx        	dw	L10332-1
  7619 00:2A8C: D2 00        	dw	210
  7620 00:2A8E: xx xx        	dw	L10323-1
  7621 00:2A90: DF 00        	dw	223
  7622 00:2A92: xx xx        	dw	L10327-1
  Sun Jan  9 2022 20:52                                                Page 148


  7623 00:2A94: E4 00        	dw	228
  7624 00:2A96: xx xx        	dw	L10330-1
  7625 00:2A98: EB 00        	dw	235
  7626 00:2A9A: xx xx        	dw	L10322-1
  7627 00:2A9C: EC 00        	dw	236
  7628 00:2A9E: xx xx        	dw	L10321-1
  7629 00:2AA0: xx xx        	dw	L10320-1
  7630                        L10320:
  7631 00:2AA2: D4 08        	pei	<L503+lp_1+2
  7632 00:2AA4: D4 06        	pei	<L503+lp_1
  7633 00:2AA6: 22 xx xx xx  	jsl	~~skip_source
  7634 00:2AAA: 85 06        	sta	<L503+lp_1
  7635 00:2AAC: 86 08        	stx	<L503+lp_1+2
  7636 00:2AAE: 82 0F FF     	brl	L10317
  7637                        L10318:
  7638 00:2AB1: A5 0E        	lda	<L503+thisindent_1
  7639 00:2AB3: 30 03        	bmi	L519
  7640 00:2AB5: 82 02 00     	brl	L10337
  7641                        L519:
  7642 00:2AB8: 64 0E        	stz	<L503+thisindent_1
  7643                        L10337:
  7644 00:2ABA: A5 10        	lda	<L503+nextindent_1
  7645 00:2ABC: 30 03        	bmi	L520
  7646 00:2ABE: 82 02 00     	brl	L10338
  7647                        L520:
  7648 00:2AC1: 64 10        	stz	<L503+nextindent_1
  7649                        L10338:
  7650 00:2AC3: A9 01 00     	lda	#$1
  7651 00:2AC6: 85 0A        	sta	<L503+n_1
  7652 00:2AC8: 82 10 00     	brl	L10342
  7653                        L10341:
  7654 00:2ACB: E2 20        	sep	#$20
  7655                        	longa	off
  7656 00:2ACD: A9 20        	lda	#$20
  7657 00:2ACF: 87 19        	sta	[<L502+text_0]
  7658 00:2AD1: C2 20        	rep	#$20
  7659                        	longa	on
  7660 00:2AD3: E6 19        	inc	<L502+text_0
  7661 00:2AD5: D0 02        	bne	L521
  7662 00:2AD7: E6 1B        	inc	<L502+text_0+2
  7663                        L521:
  7664                        L10339:
  7665 00:2AD9: E6 0A        	inc	<L503+n_1
  7666                        L10342:
  7667 00:2ADB: 38           	sec
  7668 00:2ADC: A5 0E        	lda	<L503+thisindent_1
  7669 00:2ADE: E5 0A        	sbc	<L503+n_1
  7670 00:2AE0: 70 03        	bvs	L522
  7671 00:2AE2: 49 00 80     	eor	#$8000
  7672                        L522:
  7673 00:2AE5: 10 03        	bpl	L523
  7674 00:2AE7: 82 E1 FF     	brl	L10341
  7675                        L523:
  7676                        L10340:
  7677 00:2AEA: A5 10        	lda	<L503+nextindent_1
  7678 00:2AEC: 8D xx xx     	sta	|~~indentation
  7679 00:2AEF: 18           	clc
  7680 00:2AF0: A9 06 00     	lda	#$6
  Sun Jan  9 2022 20:52                                                Page 149


  7681 00:2AF3: 65 15        	adc	<L502+line_0
  7682 00:2AF5: 85 01        	sta	<R0
  7683 00:2AF7: A9 00 00     	lda	#$0
  7684 00:2AFA: 65 17        	adc	<L502+line_0+2
  7685 00:2AFC: 85 03        	sta	<R0+2
  7686 00:2AFE: D4 03        	pei	<R0+2
  7687 00:2B00: D4 01        	pei	<R0
  7688 00:2B02: 22 xx xx xx  	jsl	~~skip
  7689 00:2B06: 85 06        	sta	<L503+lp_1
  7690 00:2B08: 86 08        	stx	<L503+lp_1+2
  7691                        L10304:
  7692 00:2B0A: E2 20        	sep	#$20
  7693                        	longa	off
  7694 00:2B0C: A7 06        	lda	[<L503+lp_1]
  7695 00:2B0E: 85 05        	sta	<L503+token_1
  7696 00:2B10: C2 20        	rep	#$20
  7697                        	longa	on
  7698                        L10343:
  7699 00:2B12: A5 05        	lda	<L503+token_1
  7700 00:2B14: 29 FF 00     	and	#$ff
  7701 00:2B17: D0 03        	bne	L524
  7702 00:2B19: 82 A5 02     	brl	L10344
  7703                        L524:
  7704 00:2B1C: E2 20        	sep	#$20
  7705                        	longa	off
  7706 00:2B1E: A5 05        	lda	<L503+token_1
  7707 00:2B20: C9 1E        	cmp	#<$1e
  7708 00:2B22: C2 20        	rep	#$20
  7709                        	longa	on
  7710 00:2B24: F0 03        	beq	L525
  7711 00:2B26: 82 4A 00     	brl	L10345
  7712                        L525:
  7713 00:2B29: E6 06        	inc	<L503+lp_1
  7714 00:2B2B: D0 02        	bne	L526
  7715 00:2B2D: E6 08        	inc	<L503+lp_1+2
  7716                        L526:
  7717 00:2B2F: D4 08        	pei	<L503+lp_1+2
  7718 00:2B31: D4 06        	pei	<L503+lp_1
  7719 00:2B33: 22 xx xx xx  	jsl	~~get_lineno
  7720 00:2B37: 48           	pha
  7721 00:2B38: F4 xx xx     	pea	#^L495+4
  7722 00:2B3B: F4 xx xx     	pea	#<L495+4
  7723 00:2B3E: D4 1B        	pei	<L502+text_0+2
  7724 00:2B40: D4 19        	pei	<L502+text_0
  7725 00:2B42: F4 0C 00     	pea	#12
  7726 00:2B45: 22 xx xx xx  	jsl	~~sprintf
  7727 00:2B49: 85 0C        	sta	<L503+count_1
  7728 00:2B4B: A0 00 00     	ldy	#$0
  7729 00:2B4E: A5 0C        	lda	<L503+count_1
  7730 00:2B50: 10 01        	bpl	L527
  7731 00:2B52: 88           	dey
  7732                        L527:
  7733 00:2B53: 85 01        	sta	<R0
  7734 00:2B55: 84 03        	sty	<R0+2
  7735 00:2B57: 18           	clc
  7736 00:2B58: A5 19        	lda	<L502+text_0
  7737 00:2B5A: 65 01        	adc	<R0
  7738 00:2B5C: 85 19        	sta	<L502+text_0
  Sun Jan  9 2022 20:52                                                Page 150


  7739 00:2B5E: A5 1B        	lda	<L502+text_0+2
  7740 00:2B60: 65 03        	adc	<R0+2
  7741 00:2B62: 85 1B        	sta	<L502+text_0+2
  7742 00:2B64: 18           	clc
  7743 00:2B65: A9 02 00     	lda	#$2
  7744 00:2B68: 65 06        	adc	<L503+lp_1
  7745 00:2B6A: 85 06        	sta	<L503+lp_1
  7746 00:2B6C: 90 02        	bcc	L528
  7747 00:2B6E: E6 08        	inc	<L503+lp_1+2
  7748                        L528:
  7749 00:2B70: 82 43 02     	brl	L10346
  7750                        L10345:
  7751 00:2B73: E2 20        	sep	#$20
  7752                        	longa	off
  7753 00:2B75: A5 05        	lda	<L503+token_1
  7754 00:2B77: C9 01        	cmp	#<$1
  7755 00:2B79: C2 20        	rep	#$20
  7756                        	longa	on
  7757 00:2B7B: F0 03        	beq	L529
  7758 00:2B7D: 82 09 00     	brl	L10347
  7759                        L529:
  7760 00:2B80: E6 06        	inc	<L503+lp_1
  7761 00:2B82: D0 02        	bne	L530
  7762 00:2B84: E6 08        	inc	<L503+lp_1+2
  7763                        L530:
  7764 00:2B86: 82 2D 02     	brl	L10348
  7765                        L10347:
  7766 00:2B89: E2 20        	sep	#$20
  7767                        	longa	off
  7768 00:2B8B: A5 05        	lda	<L503+token_1
  7769 00:2B8D: C9 22        	cmp	#<$22
  7770 00:2B8F: C2 20        	rep	#$20
  7771                        	longa	on
  7772 00:2B91: F0 03        	beq	L531
  7773 00:2B93: 82 4F 00     	brl	L10349
  7774                        L531:
  7775                        L10352:
  7776 00:2B96: E2 20        	sep	#$20
  7777                        	longa	off
  7778 00:2B98: A7 06        	lda	[<L503+lp_1]
  7779 00:2B9A: 87 19        	sta	[<L502+text_0]
  7780 00:2B9C: C2 20        	rep	#$20
  7781                        	longa	on
  7782 00:2B9E: E6 19        	inc	<L502+text_0
  7783 00:2BA0: D0 02        	bne	L532
  7784 00:2BA2: E6 1B        	inc	<L502+text_0+2
  7785                        L532:
  7786 00:2BA4: E6 06        	inc	<L503+lp_1
  7787 00:2BA6: D0 02        	bne	L533
  7788 00:2BA8: E6 08        	inc	<L503+lp_1+2
  7789                        L533:
  7790                        L10350:
  7791 00:2BAA: E2 20        	sep	#$20
  7792                        	longa	off
  7793 00:2BAC: A7 06        	lda	[<L503+lp_1]
  7794 00:2BAE: C9 22        	cmp	#<$22
  7795 00:2BB0: C2 20        	rep	#$20
  7796                        	longa	on
  Sun Jan  9 2022 20:52                                                Page 151


  7797 00:2BB2: D0 03        	bne	L535
  7798 00:2BB4: 82 0A 00     	brl	L534
  7799                        L535:
  7800 00:2BB7: A7 06        	lda	[<L503+lp_1]
  7801 00:2BB9: 29 FF 00     	and	#$ff
  7802 00:2BBC: F0 03        	beq	L536
  7803 00:2BBE: 82 D5 FF     	brl	L10352
  7804                        L536:
  7805                        L534:
  7806                        L10351:
  7807 00:2BC1: E2 20        	sep	#$20
  7808                        	longa	off
  7809 00:2BC3: A7 06        	lda	[<L503+lp_1]
  7810 00:2BC5: C9 22        	cmp	#<$22
  7811 00:2BC7: C2 20        	rep	#$20
  7812                        	longa	on
  7813 00:2BC9: F0 03        	beq	L537
  7814 00:2BCB: 82 14 00     	brl	L10353
  7815                        L537:
  7816 00:2BCE: E2 20        	sep	#$20
  7817                        	longa	off
  7818 00:2BD0: A9 22        	lda	#$22
  7819 00:2BD2: 87 19        	sta	[<L502+text_0]
  7820 00:2BD4: C2 20        	rep	#$20
  7821                        	longa	on
  7822 00:2BD6: E6 19        	inc	<L502+text_0
  7823 00:2BD8: D0 02        	bne	L538
  7824 00:2BDA: E6 1B        	inc	<L502+text_0+2
  7825                        L538:
  7826 00:2BDC: E6 06        	inc	<L503+lp_1
  7827 00:2BDE: D0 02        	bne	L539
  7828 00:2BE0: E6 08        	inc	<L503+lp_1+2
  7829                        L539:
  7830                        L10353:
  7831 00:2BE2: 82 D1 01     	brl	L10354
  7832                        L10349:
  7833 00:2BE5: E2 20        	sep	#$20
  7834                        	longa	off
  7835 00:2BE7: A5 05        	lda	<L503+token_1
  7836 00:2BE9: C9 80        	cmp	#<$80
  7837 00:2BEB: C2 20        	rep	#$20
  7838                        	longa	on
  7839 00:2BED: 90 03        	bcc	L540
  7840 00:2BEF: 82 17 00     	brl	L10355
  7841                        L540:
  7842 00:2BF2: E2 20        	sep	#$20
  7843                        	longa	off
  7844 00:2BF4: A5 05        	lda	<L503+token_1
  7845 00:2BF6: 87 19        	sta	[<L502+text_0]
  7846 00:2BF8: C2 20        	rep	#$20
  7847                        	longa	on
  7848 00:2BFA: E6 19        	inc	<L502+text_0
  7849 00:2BFC: D0 02        	bne	L541
  7850 00:2BFE: E6 1B        	inc	<L502+text_0+2
  7851                        L541:
  7852 00:2C00: E6 06        	inc	<L503+lp_1
  7853 00:2C02: D0 02        	bne	L542
  7854 00:2C04: E6 08        	inc	<L503+lp_1+2
  Sun Jan  9 2022 20:52                                                Page 152


  7855                        L542:
  7856 00:2C06: 82 AD 01     	brl	L10356
  7857                        L10355:
  7858 00:2C09: E2 20        	sep	#$20
  7859                        	longa	off
  7860 00:2C0B: A5 05        	lda	<L503+token_1
  7861 00:2C0D: C9 99        	cmp	#<$99
  7862 00:2C0F: C2 20        	rep	#$20
  7863                        	longa	on
  7864 00:2C11: D0 03        	bne	L544
  7865 00:2C13: 82 0D 00     	brl	L543
  7866                        L544:
  7867 00:2C16: E2 20        	sep	#$20
  7868                        	longa	off
  7869 00:2C18: A5 05        	lda	<L503+token_1
  7870 00:2C1A: C9 D1        	cmp	#<$d1
  7871 00:2C1C: C2 20        	rep	#$20
  7872                        	longa	on
  7873 00:2C1E: F0 03        	beq	L545
  7874 00:2C20: 82 69 00     	brl	L10357
  7875                        L545:
  7876                        L543:
  7877 00:2C23: A5 05        	lda	<L503+token_1
  7878 00:2C25: 29 FF 00     	and	#$ff
  7879 00:2C28: 85 01        	sta	<R0
  7880 00:2C2A: 18           	clc
  7881 00:2C2B: A9 80 FF     	lda	#$ff80
  7882 00:2C2E: 65 01        	adc	<R0
  7883 00:2C30: 48           	pha
  7884 00:2C31: A9 xx xx     	lda	#<~~onebytelist
  7885 00:2C34: 85 01        	sta	<R0
  7886                        	xref	_BEG_DATA
  7887 00:2C36: A9 xx xx     	lda	#_BEG_DATA>>16
  7888 00:2C39: 85 03        	sta	<R0+2
  7889 00:2C3B: D4 03        	pei	<R0+2
  7890 00:2C3D: D4 01        	pei	<R0
  7891 00:2C3F: D4 1B        	pei	<L502+text_0+2
  7892 00:2C41: D4 19        	pei	<L502+text_0
  7893 00:2C43: 22 xx xx xx  	jsl	~~expand_token
  7894 00:2C47: 85 0C        	sta	<L503+count_1
  7895 00:2C49: A0 00 00     	ldy	#$0
  7896 00:2C4C: A5 0C        	lda	<L503+count_1
  7897 00:2C4E: 10 01        	bpl	L546
  7898 00:2C50: 88           	dey
  7899                        L546:
  7900 00:2C51: 85 01        	sta	<R0
  7901 00:2C53: 84 03        	sty	<R0+2
  7902 00:2C55: 18           	clc
  7903 00:2C56: A5 19        	lda	<L502+text_0
  7904 00:2C58: 65 01        	adc	<R0
  7905 00:2C5A: 85 19        	sta	<L502+text_0
  7906 00:2C5C: A5 1B        	lda	<L502+text_0+2
  7907 00:2C5E: 65 03        	adc	<R0+2
  7908 00:2C60: 85 1B        	sta	<L502+text_0+2
  7909 00:2C62: E6 06        	inc	<L503+lp_1
  7910 00:2C64: D0 02        	bne	L547
  7911 00:2C66: E6 08        	inc	<L503+lp_1+2
  7912                        L547:
  Sun Jan  9 2022 20:52                                                Page 153


  7913                        L10358:
  7914 00:2C68: A7 06        	lda	[<L503+lp_1]
  7915 00:2C6A: 29 FF 00     	and	#$ff
  7916 00:2C6D: D0 03        	bne	L548
  7917 00:2C6F: 82 17 00     	brl	L10359
  7918                        L548:
  7919 00:2C72: E2 20        	sep	#$20
  7920                        	longa	off
  7921 00:2C74: A7 06        	lda	[<L503+lp_1]
  7922 00:2C76: 87 19        	sta	[<L502+text_0]
  7923 00:2C78: C2 20        	rep	#$20
  7924                        	longa	on
  7925 00:2C7A: E6 19        	inc	<L502+text_0
  7926 00:2C7C: D0 02        	bne	L549
  7927 00:2C7E: E6 1B        	inc	<L502+text_0+2
  7928                        L549:
  7929 00:2C80: E6 06        	inc	<L503+lp_1
  7930 00:2C82: D0 02        	bne	L550
  7931 00:2C84: E6 08        	inc	<L503+lp_1+2
  7932                        L550:
  7933 00:2C86: 82 DF FF     	brl	L10358
  7934                        L10359:
  7935 00:2C89: 82 2A 01     	brl	L10360
  7936                        L10357:
  7937 00:2C8C: A5 05        	lda	<L503+token_1
  7938 00:2C8E: 29 FF 00     	and	#$ff
  7939 00:2C91: 82 EF 00     	brl	L10361
  7940                        L10363:
  7941 00:2C94: E6 06        	inc	<L503+lp_1
  7942 00:2C96: D0 02        	bne	L551
  7943 00:2C98: E6 08        	inc	<L503+lp_1+2
  7944                        L551:
  7945 00:2C9A: E2 20        	sep	#$20
  7946                        	longa	off
  7947 00:2C9C: A7 06        	lda	[<L503+lp_1]
  7948 00:2C9E: 85 05        	sta	<L503+token_1
  7949 00:2CA0: C2 20        	rep	#$20
  7950                        	longa	on
  7951 00:2CA2: E2 20        	sep	#$20
  7952                        	longa	off
  7953 00:2CA4: A9 02        	lda	#$2
  7954 00:2CA6: C5 05        	cmp	<L503+token_1
  7955 00:2CA8: C2 20        	rep	#$20
  7956                        	longa	on
  7957 00:2CAA: 90 03        	bcc	L552
  7958 00:2CAC: 82 0A 00     	brl	L10364
  7959                        L552:
  7960 00:2CAF: F4 07 00     	pea	#<$7
  7961 00:2CB2: F4 04 00     	pea	#4
  7962 00:2CB5: 22 xx xx xx  	jsl	~~error
  7963                        L10364:
  7964 00:2CB9: D4 05        	pei	<L503+token_1
  7965 00:2CBB: A9 xx xx     	lda	#<~~printlist
  7966 00:2CBE: 85 01        	sta	<R0
  7967                        	xref	_BEG_DATA
  7968 00:2CC0: A9 xx xx     	lda	#_BEG_DATA>>16
  7969 00:2CC3: 85 03        	sta	<R0+2
  7970 00:2CC5: D4 03        	pei	<R0+2
  Sun Jan  9 2022 20:52                                                Page 154


  7971 00:2CC7: D4 01        	pei	<R0
  7972 00:2CC9: D4 1B        	pei	<L502+text_0+2
  7973 00:2CCB: D4 19        	pei	<L502+text_0
  7974 00:2CCD: 22 xx xx xx  	jsl	~~expand_token
  7975 00:2CD1: 85 0C        	sta	<L503+count_1
  7976 00:2CD3: 82 C1 00     	brl	L10362
  7977                        L10365:
  7978 00:2CD6: E6 06        	inc	<L503+lp_1
  7979 00:2CD8: D0 02        	bne	L553
  7980 00:2CDA: E6 08        	inc	<L503+lp_1+2
  7981                        L553:
  7982 00:2CDC: E2 20        	sep	#$20
  7983                        	longa	off
  7984 00:2CDE: A7 06        	lda	[<L503+lp_1]
  7985 00:2CE0: 85 05        	sta	<L503+token_1
  7986 00:2CE2: C2 20        	rep	#$20
  7987                        	longa	on
  7988 00:2CE4: E2 20        	sep	#$20
  7989                        	longa	off
  7990 00:2CE6: A9 43        	lda	#$43
  7991 00:2CE8: C5 05        	cmp	<L503+token_1
  7992 00:2CEA: C2 20        	rep	#$20
  7993                        	longa	on
  7994 00:2CEC: 90 03        	bcc	L554
  7995 00:2CEE: 82 0A 00     	brl	L10366
  7996                        L554:
  7997 00:2CF1: F4 07 00     	pea	#<$7
  7998 00:2CF4: F4 04 00     	pea	#4
  7999 00:2CF7: 22 xx xx xx  	jsl	~~error
  8000                        L10366:
  8001 00:2CFB: D4 05        	pei	<L503+token_1
  8002 00:2CFD: A9 xx xx     	lda	#<~~functionlist
  8003 00:2D00: 85 01        	sta	<R0
  8004                        	xref	_BEG_DATA
  8005 00:2D02: A9 xx xx     	lda	#_BEG_DATA>>16
  8006 00:2D05: 85 03        	sta	<R0+2
  8007 00:2D07: D4 03        	pei	<R0+2
  8008 00:2D09: D4 01        	pei	<R0
  8009 00:2D0B: D4 1B        	pei	<L502+text_0+2
  8010 00:2D0D: D4 19        	pei	<L502+text_0
  8011 00:2D0F: 22 xx xx xx  	jsl	~~expand_token
  8012 00:2D13: 85 0C        	sta	<L503+count_1
  8013 00:2D15: 82 7F 00     	brl	L10362
  8014                        L10367:
  8015 00:2D18: E6 06        	inc	<L503+lp_1
  8016 00:2D1A: D0 02        	bne	L555
  8017 00:2D1C: E6 08        	inc	<L503+lp_1+2
  8018                        L555:
  8019 00:2D1E: E2 20        	sep	#$20
  8020                        	longa	off
  8021 00:2D20: A7 06        	lda	[<L503+lp_1]
  8022 00:2D22: 85 05        	sta	<L503+token_1
  8023 00:2D24: C2 20        	rep	#$20
  8024                        	longa	on
  8025 00:2D26: E2 20        	sep	#$20
  8026                        	longa	off
  8027 00:2D28: A9 1A        	lda	#$1a
  8028 00:2D2A: C5 05        	cmp	<L503+token_1
  Sun Jan  9 2022 20:52                                                Page 155


  8029 00:2D2C: C2 20        	rep	#$20
  8030                        	longa	on
  8031 00:2D2E: 90 03        	bcc	L556
  8032 00:2D30: 82 0A 00     	brl	L10368
  8033                        L556:
  8034 00:2D33: F4 07 00     	pea	#<$7
  8035 00:2D36: F4 04 00     	pea	#4
  8036 00:2D39: 22 xx xx xx  	jsl	~~error
  8037                        L10368:
  8038 00:2D3D: D4 05        	pei	<L503+token_1
  8039 00:2D3F: A9 xx xx     	lda	#<~~commandlist
  8040 00:2D42: 85 01        	sta	<R0
  8041                        	xref	_BEG_DATA
  8042 00:2D44: A9 xx xx     	lda	#_BEG_DATA>>16
  8043 00:2D47: 85 03        	sta	<R0+2
  8044 00:2D49: D4 03        	pei	<R0+2
  8045 00:2D4B: D4 01        	pei	<R0
  8046 00:2D4D: D4 1B        	pei	<L502+text_0+2
  8047 00:2D4F: D4 19        	pei	<L502+text_0
  8048 00:2D51: 22 xx xx xx  	jsl	~~expand_token
  8049 00:2D55: 85 0C        	sta	<L503+count_1
  8050 00:2D57: 82 3D 00     	brl	L10362
  8051                        L10369:
  8052 00:2D5A: A5 05        	lda	<L503+token_1
  8053 00:2D5C: 29 FF 00     	and	#$ff
  8054 00:2D5F: 85 01        	sta	<R0
  8055 00:2D61: 18           	clc
  8056 00:2D62: A9 80 FF     	lda	#$ff80
  8057 00:2D65: 65 01        	adc	<R0
  8058 00:2D67: 48           	pha
  8059 00:2D68: A9 xx xx     	lda	#<~~onebytelist
  8060 00:2D6B: 85 01        	sta	<R0
  8061                        	xref	_BEG_DATA
  8062 00:2D6D: A9 xx xx     	lda	#_BEG_DATA>>16
  8063 00:2D70: 85 03        	sta	<R0+2
  8064 00:2D72: D4 03        	pei	<R0+2
  8065 00:2D74: D4 01        	pei	<R0
  8066 00:2D76: D4 1B        	pei	<L502+text_0+2
  8067 00:2D78: D4 19        	pei	<L502+text_0
  8068 00:2D7A: 22 xx xx xx  	jsl	~~expand_token
  8069 00:2D7E: 85 0C        	sta	<L503+count_1
  8070 00:2D80: 82 14 00     	brl	L10362
  8071                        L10361:
  8072                        	xref	~~~swt
  8073 00:2D83: 22 xx xx xx  	jsl	~~~swt
  8074 00:2D87: 03 00        	dw	3
  8075 00:2D89: FC 00        	dw	252
  8076 00:2D8B: xx xx        	dw	L10367-1
  8077 00:2D8D: FE 00        	dw	254
  8078 00:2D8F: xx xx        	dw	L10363-1
  8079 00:2D91: FF 00        	dw	255
  8080 00:2D93: xx xx        	dw	L10365-1
  8081 00:2D95: xx xx        	dw	L10369-1
  8082                        L10362:
  8083 00:2D97: A0 00 00     	ldy	#$0
  8084 00:2D9A: A5 0C        	lda	<L503+count_1
  8085 00:2D9C: 10 01        	bpl	L557
  8086 00:2D9E: 88           	dey
  Sun Jan  9 2022 20:52                                                Page 156


  8087                        L557:
  8088 00:2D9F: 85 01        	sta	<R0
  8089 00:2DA1: 84 03        	sty	<R0+2
  8090 00:2DA3: 18           	clc
  8091 00:2DA4: A5 19        	lda	<L502+text_0
  8092 00:2DA6: 65 01        	adc	<R0
  8093 00:2DA8: 85 19        	sta	<L502+text_0
  8094 00:2DAA: A5 1B        	lda	<L502+text_0+2
  8095 00:2DAC: 65 03        	adc	<R0+2
  8096 00:2DAE: 85 1B        	sta	<L502+text_0+2
  8097 00:2DB0: E6 06        	inc	<L503+lp_1
  8098 00:2DB2: D0 02        	bne	L558
  8099 00:2DB4: E6 08        	inc	<L503+lp_1+2
  8100                        L558:
  8101                        L10360:
  8102                        L10356:
  8103                        L10354:
  8104                        L10348:
  8105                        L10346:
  8106 00:2DB6: E2 20        	sep	#$20
  8107                        	longa	off
  8108 00:2DB8: A7 06        	lda	[<L503+lp_1]
  8109 00:2DBA: 85 05        	sta	<L503+token_1
  8110 00:2DBC: C2 20        	rep	#$20
  8111                        	longa	on
  8112 00:2DBE: 82 51 FD     	brl	L10343
  8113                        L10344:
  8114 00:2DC1: E2 20        	sep	#$20
  8115                        	longa	off
  8116 00:2DC3: A9 00        	lda	#$0
  8117 00:2DC5: 87 19        	sta	[<L502+text_0]
  8118 00:2DC7: C2 20        	rep	#$20
  8119                        	longa	on
  8120                        L559:
  8121 00:2DC9: A5 13        	lda	<L502+2
  8122 00:2DCB: 85 1B        	sta	<L502+2+8
  8123 00:2DCD: A5 12        	lda	<L502+1
  8124 00:2DCF: 85 1A        	sta	<L502+1+8
  8125 00:2DD1: 2B           	pld
  8126 00:2DD2: 3B           	tsc
  8127 00:2DD3: 18           	clc
  8128 00:2DD4: 69 19 00     	adc	#L502+8
  8129 00:2DD7: 1B           	tcs
  8130 00:2DD8: 6B           	rtl
  8131             00000011   L502	equ	17
  8132             00000005   L503	equ	5
  8133                        	ends
  8134                        	efunc
  8135                        	data
  8136                        L495:
  8137 00:1847: 25 35 64 00  	db	$25,$35,$64,$00,$25,$64,$00
       00:184B: 25 64 00 
  8138 00:184E:              	ends
  8139                        	code
  8140                        	xdef	~~reset_indent
  8141                        	func
  8142                        ~~reset_indent:
  8143                        	longa	on
  Sun Jan  9 2022 20:52                                                Page 157


  8144                        	longi	on
  8145 00:2DD9: 3B           	tsc
  8146 00:2DDA: 38           	sec
  8147 00:2DDB: E9 00 00     	sbc	#L561
  8148 00:2DDE: 1B           	tcs
  8149 00:2DDF: 0B           	phd
  8150 00:2DE0: 5B           	tcd
  8151 00:2DE1: 9C xx xx     	stz	|~~indentation
  8152                        L563:
  8153 00:2DE4: 2B           	pld
  8154 00:2DE5: 3B           	tsc
  8155 00:2DE6: 18           	clc
  8156 00:2DE7: 69 00 00     	adc	#L561
  8157 00:2DEA: 1B           	tcs
  8158 00:2DEB: 6B           	rtl
  8159             00000000   L561	equ	0
  8160             00000001   L562	equ	1
  8161                        	ends
  8162                        	efunc
  8163                        	code
  8164                        	xdef	~~set_dest
  8165                        	func
  8166                        ~~set_dest:
  8167                        	longa	on
  8168                        	longi	on
  8169 00:2DEC: 3B           	tsc
  8170 00:2DED: 38           	sec
  8171 00:2DEE: E9 06 00     	sbc	#L564
  8172 00:2DF1: 1B           	tcs
  8173 00:2DF2: 0B           	phd
  8174 00:2DF3: 5B           	tcd
  8175             00000004   tp_0	set	4
  8176             00000008   dest_0	set	8
  8177             00000000   offset_1	set	0
  8178 00:2DF4: 38           	sec
  8179 00:2DF5: A5 0E        	lda	<L564+dest_0
  8180 00:2DF7: E5 0A        	sbc	<L564+tp_0
  8181 00:2DF9: 85 01        	sta	<R0
  8182 00:2DFB: A5 10        	lda	<L564+dest_0+2
  8183 00:2DFD: E5 0C        	sbc	<L564+tp_0+2
  8184 00:2DFF: 85 03        	sta	<R0+2
  8185 00:2E01: A5 01        	lda	<R0
  8186 00:2E03: 85 05        	sta	<L565+offset_1
  8187 00:2E05: E2 20        	sep	#$20
  8188                        	longa	off
  8189 00:2E07: A5 05        	lda	<L565+offset_1
  8190 00:2E09: 87 0A        	sta	[<L564+tp_0]
  8191 00:2E0B: C2 20        	rep	#$20
  8192                        	longa	on
  8193 00:2E0D: A5 05        	lda	<L565+offset_1
  8194 00:2E0F: A2 08 00     	ldx	#<$8
  8195                        	xref	~~~asr
  8196 00:2E12: 22 xx xx xx  	jsl	~~~asr
  8197 00:2E16: E2 20        	sep	#$20
  8198                        	longa	off
  8199 00:2E18: A0 01 00     	ldy	#$1
  8200 00:2E1B: 97 0A        	sta	[<L564+tp_0],Y
  8201 00:2E1D: C2 20        	rep	#$20
  Sun Jan  9 2022 20:52                                                Page 158


  8202                        	longa	on
  8203 00:2E1F: A9 20 00     	lda	#$20
  8204 00:2E22: 0C xx xx     	tsb	~~basicvars+423
  8205                        L566:
  8206 00:2E25: A5 08        	lda	<L564+2
  8207 00:2E27: 85 10        	sta	<L564+2+8
  8208 00:2E29: A5 07        	lda	<L564+1
  8209 00:2E2B: 85 0F        	sta	<L564+1+8
  8210 00:2E2D: 2B           	pld
  8211 00:2E2E: 3B           	tsc
  8212 00:2E2F: 18           	clc
  8213 00:2E30: 69 0E 00     	adc	#L564+8
  8214 00:2E33: 1B           	tcs
  8215 00:2E34: 6B           	rtl
  8216             00000006   L564	equ	6
  8217             00000005   L565	equ	5
  8218                        	ends
  8219                        	efunc
  8220                        	code
  8221                        	xdef	~~set_address
  8222                        	func
  8223                        ~~set_address:
  8224                        	longa	on
  8225                        	longi	on
  8226 00:2E35: 3B           	tsc
  8227 00:2E36: 38           	sec
  8228 00:2E37: E9 08 00     	sbc	#L567
  8229 00:2E3A: 1B           	tcs
  8230 00:2E3B: 0B           	phd
  8231 00:2E3C: 5B           	tcd
  8232             00000004   tp_0	set	4
  8233             00000008   p_0	set	8
  8234             00000000   n_1	set	0
  8235             00000002   offset_1	set	2
  8236 00:2E3D: A9 20 00     	lda	#$20
  8237 00:2E40: 0C xx xx     	tsb	~~basicvars+423
  8238 00:2E43: 38           	sec
  8239 00:2E44: A5 10        	lda	<L567+p_0
  8240 00:2E46: ED xx xx     	sbc	|~~basicvars
  8241 00:2E49: 85 01        	sta	<R0
  8242 00:2E4B: A5 12        	lda	<L567+p_0+2
  8243 00:2E4D: ED xx xx     	sbc	|~~basicvars+2
  8244 00:2E50: 85 03        	sta	<R0+2
  8245 00:2E52: A5 01        	lda	<R0
  8246 00:2E54: 85 07        	sta	<L568+offset_1
  8247 00:2E56: 64 05        	stz	<L568+n_1
  8248                        L10372:
  8249 00:2E58: E6 0C        	inc	<L567+tp_0
  8250 00:2E5A: D0 02        	bne	L569
  8251 00:2E5C: E6 0E        	inc	<L567+tp_0+2
  8252                        L569:
  8253 00:2E5E: E2 20        	sep	#$20
  8254                        	longa	off
  8255 00:2E60: A5 07        	lda	<L568+offset_1
  8256 00:2E62: 87 0C        	sta	[<L567+tp_0]
  8257 00:2E64: C2 20        	rep	#$20
  8258                        	longa	on
  8259 00:2E66: A5 07        	lda	<L568+offset_1
  Sun Jan  9 2022 20:52                                                Page 159


  8260 00:2E68: A2 08 00     	ldx	#<$8
  8261                        	xref	~~~asr
  8262 00:2E6B: 22 xx xx xx  	jsl	~~~asr
  8263 00:2E6F: 85 07        	sta	<L568+offset_1
  8264                        L10370:
  8265 00:2E71: E6 05        	inc	<L568+n_1
  8266 00:2E73: A5 05        	lda	<L568+n_1
  8267 00:2E75: 30 06        	bmi	L570
  8268 00:2E77: 3A           	dea
  8269 00:2E78: 3A           	dea
  8270 00:2E79: 3A           	dea
  8271 00:2E7A: 3A           	dea
  8272 00:2E7B: 10 03        	bpl	L571
  8273                        L570:
  8274 00:2E7D: 82 D8 FF     	brl	L10372
  8275                        L571:
  8276                        L10371:
  8277                        L572:
  8278 00:2E80: A5 0A        	lda	<L567+2
  8279 00:2E82: 85 12        	sta	<L567+2+8
  8280 00:2E84: A5 09        	lda	<L567+1
  8281 00:2E86: 85 11        	sta	<L567+1+8
  8282 00:2E88: 2B           	pld
  8283 00:2E89: 3B           	tsc
  8284 00:2E8A: 18           	clc
  8285 00:2E8B: 69 10 00     	adc	#L567+8
  8286 00:2E8E: 1B           	tcs
  8287 00:2E8F: 6B           	rtl
  8288             00000008   L567	equ	8
  8289             00000005   L568	equ	5
  8290                        	ends
  8291                        	efunc
  8292                        	code
  8293                        	xdef	~~get_srcaddr
  8294                        	func
  8295                        ~~get_srcaddr:
  8296                        	longa	on
  8297                        	longi	on
  8298 00:2E90: 3B           	tsc
  8299 00:2E91: 38           	sec
  8300 00:2E92: E9 0C 00     	sbc	#L573
  8301 00:2E95: 1B           	tcs
  8302 00:2E96: 0B           	phd
  8303 00:2E97: 5B           	tcd
  8304             00000004   p_0	set	4
  8305 00:2E98: A0 02 00     	ldy	#$2
  8306 00:2E9B: B7 10        	lda	[<L573+p_0],Y
  8307 00:2E9D: 29 FF 00     	and	#$ff
  8308 00:2EA0: 85 05        	sta	<R1
  8309 00:2EA2: A5 05        	lda	<R1
  8310 00:2EA4: EB           	xba
  8311 00:2EA5: 29 00 FF     	and	#$ff00
  8312 00:2EA8: 85 01        	sta	<R0
  8313 00:2EAA: A0 01 00     	ldy	#$1
  8314 00:2EAD: B7 10        	lda	[<L573+p_0],Y
  8315 00:2EAF: 29 FF 00     	and	#$ff
  8316 00:2EB2: 85 05        	sta	<R1
  8317 00:2EB4: 18           	clc
  Sun Jan  9 2022 20:52                                                Page 160


  8318 00:2EB5: A5 05        	lda	<R1
  8319 00:2EB7: 65 01        	adc	<R0
  8320 00:2EB9: 85 09        	sta	<R2
  8321 00:2EBB: A0 00 00     	ldy	#$0
  8322 00:2EBE: A5 09        	lda	<R2
  8323 00:2EC0: 10 01        	bpl	L575
  8324 00:2EC2: 88           	dey
  8325                        L575:
  8326 00:2EC3: 85 01        	sta	<R0
  8327 00:2EC5: 84 03        	sty	<R0+2
  8328 00:2EC7: 38           	sec
  8329 00:2EC8: A5 10        	lda	<L573+p_0
  8330 00:2ECA: E5 01        	sbc	<R0
  8331 00:2ECC: 85 05        	sta	<R1
  8332 00:2ECE: A5 12        	lda	<L573+p_0+2
  8333 00:2ED0: E5 03        	sbc	<R0+2
  8334 00:2ED2: 85 07        	sta	<R1+2
  8335 00:2ED4: A6 07        	ldx	<R1+2
  8336 00:2ED6: A5 05        	lda	<R1
  8337                        L576:
  8338 00:2ED8: A8           	tay
  8339 00:2ED9: A5 0E        	lda	<L573+2
  8340 00:2EDB: 85 12        	sta	<L573+2+4
  8341 00:2EDD: A5 0D        	lda	<L573+1
  8342 00:2EDF: 85 11        	sta	<L573+1+4
  8343 00:2EE1: 2B           	pld
  8344 00:2EE2: 3B           	tsc
  8345 00:2EE3: 18           	clc
  8346 00:2EE4: 69 10 00     	adc	#L573+4
  8347 00:2EE7: 1B           	tcs
  8348 00:2EE8: 98           	tya
  8349 00:2EE9: 6B           	rtl
  8350             0000000C   L573	equ	12
  8351             0000000D   L574	equ	13
  8352                        	ends
  8353                        	efunc
  8354                        	code
  8355                        	func
  8356                        ~~clear_varaddrs:
  8357                        	longa	on
  8358                        	longi	on
  8359 00:2EEA: 3B           	tsc
  8360 00:2EEB: 38           	sec
  8361 00:2EEC: E9 16 00     	sbc	#L577
  8362 00:2EEF: 1B           	tcs
  8363 00:2EF0: 0B           	phd
  8364 00:2EF1: 5B           	tcd
  8365             00000004   bp_0	set	4
  8366             00000000   sp_1	set	0
  8367             00000004   tp_1	set	4
  8368             00000008   offset_1	set	8
  8369 00:2EF2: 18           	clc
  8370 00:2EF3: A9 06 00     	lda	#$6
  8371 00:2EF6: 65 1A        	adc	<L577+bp_0
  8372 00:2EF8: 85 0D        	sta	<L578+sp_1
  8373 00:2EFA: A9 00 00     	lda	#$0
  8374 00:2EFD: 65 1C        	adc	<L577+bp_0+2
  8375 00:2EFF: 85 0F        	sta	<L578+sp_1+2
  Sun Jan  9 2022 20:52                                                Page 161


  8376 00:2F01: A0 05 00     	ldy	#$5
  8377 00:2F04: B7 1A        	lda	[<L577+bp_0],Y
  8378 00:2F06: 29 FF 00     	and	#$ff
  8379 00:2F09: 85 05        	sta	<R1
  8380 00:2F0B: A5 05        	lda	<R1
  8381 00:2F0D: EB           	xba
  8382 00:2F0E: 29 00 FF     	and	#$ff00
  8383 00:2F11: 85 01        	sta	<R0
  8384 00:2F13: A0 00 00     	ldy	#$0
  8385 00:2F16: A5 01        	lda	<R0
  8386 00:2F18: 10 01        	bpl	L579
  8387 00:2F1A: 88           	dey
  8388                        L579:
  8389 00:2F1B: 85 01        	sta	<R0
  8390 00:2F1D: 84 03        	sty	<R0+2
  8391 00:2F1F: A0 04 00     	ldy	#$4
  8392 00:2F22: B7 1A        	lda	[<L577+bp_0],Y
  8393 00:2F24: 29 FF 00     	and	#$ff
  8394 00:2F27: 85 05        	sta	<R1
  8395 00:2F29: 64 07        	stz	<R1+2
  8396 00:2F2B: 18           	clc
  8397 00:2F2C: A5 05        	lda	<R1
  8398 00:2F2E: 65 01        	adc	<R0
  8399 00:2F30: 85 09        	sta	<R2
  8400 00:2F32: A5 07        	lda	<R1+2
  8401 00:2F34: 65 03        	adc	<R0+2
  8402 00:2F36: 85 0B        	sta	<R2+2
  8403 00:2F38: 18           	clc
  8404 00:2F39: A5 1A        	lda	<L577+bp_0
  8405 00:2F3B: 65 09        	adc	<R2
  8406 00:2F3D: 85 11        	sta	<L578+tp_1
  8407 00:2F3F: A5 1C        	lda	<L577+bp_0+2
  8408 00:2F41: 65 0B        	adc	<R2+2
  8409 00:2F43: 85 13        	sta	<L578+tp_1+2
  8410                        L10373:
  8411 00:2F45: A7 11        	lda	[<L578+tp_1]
  8412 00:2F47: 29 FF 00     	and	#$ff
  8413 00:2F4A: D0 03        	bne	L580
  8414 00:2F4C: 82 8A 01     	brl	L10374
  8415                        L580:
  8416 00:2F4F: E2 20        	sep	#$20
  8417                        	longa	off
  8418 00:2F51: A7 11        	lda	[<L578+tp_1]
  8419 00:2F53: C9 01        	cmp	#<$1
  8420 00:2F55: C2 20        	rep	#$20
  8421                        	longa	on
  8422 00:2F57: D0 03        	bne	L582
  8423 00:2F59: 82 1A 00     	brl	L581
  8424                        L582:
  8425 00:2F5C: E2 20        	sep	#$20
  8426                        	longa	off
  8427 00:2F5E: A7 11        	lda	[<L578+tp_1]
  8428 00:2F60: C9 03        	cmp	#<$3
  8429 00:2F62: C2 20        	rep	#$20
  8430                        	longa	on
  8431 00:2F64: B0 03        	bcs	L583
  8432 00:2F66: 82 9C 00     	brl	L10375
  8433                        L583:
  Sun Jan  9 2022 20:52                                                Page 162


  8434 00:2F69: E2 20        	sep	#$20
  8435                        	longa	off
  8436 00:2F6B: A9 0A        	lda	#$a
  8437 00:2F6D: C7 11        	cmp	[<L578+tp_1]
  8438 00:2F6F: C2 20        	rep	#$20
  8439                        	longa	on
  8440 00:2F71: B0 03        	bcs	L584
  8441 00:2F73: 82 8F 00     	brl	L10375
  8442                        L584:
  8443                        L581:
  8444                        L10376:
  8445 00:2F76: E2 20        	sep	#$20
  8446                        	longa	off
  8447 00:2F78: A7 0D        	lda	[<L578+sp_1]
  8448 00:2F7A: C9 01        	cmp	#<$1
  8449 00:2F7C: C2 20        	rep	#$20
  8450                        	longa	on
  8451 00:2F7E: D0 03        	bne	L585
  8452 00:2F80: 82 19 00     	brl	L10377
  8453                        L585:
  8454 00:2F83: A7 0D        	lda	[<L578+sp_1]
  8455 00:2F85: 29 FF 00     	and	#$ff
  8456 00:2F88: D0 03        	bne	L586
  8457 00:2F8A: 82 0F 00     	brl	L10377
  8458                        L586:
  8459 00:2F8D: D4 0F        	pei	<L578+sp_1+2
  8460 00:2F8F: D4 0D        	pei	<L578+sp_1
  8461 00:2F91: 22 xx xx xx  	jsl	~~skip_source
  8462 00:2F95: 85 0D        	sta	<L578+sp_1
  8463 00:2F97: 86 0F        	stx	<L578+sp_1+2
  8464 00:2F99: 82 DA FF     	brl	L10376
  8465                        L10377:
  8466 00:2F9C: A7 0D        	lda	[<L578+sp_1]
  8467 00:2F9E: 29 FF 00     	and	#$ff
  8468 00:2FA1: F0 03        	beq	L587
  8469 00:2FA3: 82 13 00     	brl	L10378
  8470                        L587:
  8471 00:2FA6: F4 xx xx     	pea	#^L560
  8472 00:2FA9: F4 xx xx     	pea	#<L560
  8473 00:2FAC: F4 E5 06     	pea	#<$6e5
  8474 00:2FAF: F4 82 00     	pea	#<$82
  8475 00:2FB2: F4 0A 00     	pea	#10
  8476 00:2FB5: 22 xx xx xx  	jsl	~~error
  8477                        L10378:
  8478 00:2FB9: E6 0D        	inc	<L578+sp_1
  8479 00:2FBB: D0 02        	bne	L588
  8480 00:2FBD: E6 0F        	inc	<L578+sp_1+2
  8481                        L588:
  8482 00:2FBF: E2 20        	sep	#$20
  8483                        	longa	off
  8484 00:2FC1: A7 11        	lda	[<L578+tp_1]
  8485 00:2FC3: C9 01        	cmp	#<$1
  8486 00:2FC5: C2 20        	rep	#$20
  8487                        	longa	on
  8488 00:2FC7: D0 03        	bne	L589
  8489 00:2FC9: 82 36 00     	brl	L10379
  8490                        L589:
  8491 00:2FCC: E2 20        	sep	#$20
  Sun Jan  9 2022 20:52                                                Page 163


  8492                        	longa	off
  8493 00:2FCE: A9 01        	lda	#$1
  8494 00:2FD0: 87 11        	sta	[<L578+tp_1]
  8495 00:2FD2: C2 20        	rep	#$20
  8496                        	longa	on
  8497 00:2FD4: 38           	sec
  8498 00:2FD5: A5 11        	lda	<L578+tp_1
  8499 00:2FD7: E5 0D        	sbc	<L578+sp_1
  8500 00:2FD9: 85 01        	sta	<R0
  8501 00:2FDB: A5 13        	lda	<L578+tp_1+2
  8502 00:2FDD: E5 0F        	sbc	<L578+sp_1+2
  8503 00:2FDF: 85 03        	sta	<R0+2
  8504 00:2FE1: A5 01        	lda	<R0
  8505 00:2FE3: 85 15        	sta	<L578+offset_1
  8506 00:2FE5: E2 20        	sep	#$20
  8507                        	longa	off
  8508 00:2FE7: A5 15        	lda	<L578+offset_1
  8509 00:2FE9: A0 01 00     	ldy	#$1
  8510 00:2FEC: 97 11        	sta	[<L578+tp_1],Y
  8511 00:2FEE: C2 20        	rep	#$20
  8512                        	longa	on
  8513 00:2FF0: A5 15        	lda	<L578+offset_1
  8514 00:2FF2: A2 08 00     	ldx	#<$8
  8515                        	xref	~~~asr
  8516 00:2FF5: 22 xx xx xx  	jsl	~~~asr
  8517 00:2FF9: E2 20        	sep	#$20
  8518                        	longa	off
  8519 00:2FFB: A0 02 00     	ldy	#$2
  8520 00:2FFE: 97 11        	sta	[<L578+tp_1],Y
  8521 00:3000: C2 20        	rep	#$20
  8522                        	longa	on
  8523                        L10379:
  8524 00:3002: 82 C5 00     	brl	L10380
  8525                        L10375:
  8526 00:3005: E2 20        	sep	#$20
  8527                        	longa	off
  8528 00:3007: A7 11        	lda	[<L578+tp_1]
  8529 00:3009: C9 0D        	cmp	#<$d
  8530 00:300B: C2 20        	rep	#$20
  8531                        	longa	on
  8532 00:300D: D0 03        	bne	L591
  8533 00:300F: 82 0D 00     	brl	L590
  8534                        L591:
  8535 00:3012: E2 20        	sep	#$20
  8536                        	longa	off
  8537 00:3014: A7 11        	lda	[<L578+tp_1]
  8538 00:3016: C9 0C        	cmp	#<$c
  8539 00:3018: C2 20        	rep	#$20
  8540                        	longa	on
  8541 00:301A: F0 03        	beq	L592
  8542 00:301C: 82 96 00     	brl	L10381
  8543                        L592:
  8544                        L590:
  8545                        L10382:
  8546 00:301F: E2 20        	sep	#$20
  8547                        	longa	off
  8548 00:3021: A7 0D        	lda	[<L578+sp_1]
  8549 00:3023: C9 CD        	cmp	#<$cd
  Sun Jan  9 2022 20:52                                                Page 164


  8550 00:3025: C2 20        	rep	#$20
  8551                        	longa	on
  8552 00:3027: D0 03        	bne	L593
  8553 00:3029: 82 20 00     	brl	L10383
  8554                        L593:
  8555 00:302C: E2 20        	sep	#$20
  8556                        	longa	off
  8557 00:302E: A7 0D        	lda	[<L578+sp_1]
  8558 00:3030: C9 AD        	cmp	#<$ad
  8559 00:3032: C2 20        	rep	#$20
  8560                        	longa	on
  8561 00:3034: D0 03        	bne	L594
  8562 00:3036: 82 13 00     	brl	L10383
  8563                        L594:
  8564 00:3039: A7 0D        	lda	[<L578+sp_1]
  8565 00:303B: 29 FF 00     	and	#$ff
  8566 00:303E: D0 03        	bne	L595
  8567 00:3040: 82 09 00     	brl	L10383
  8568                        L595:
  8569 00:3043: E6 0D        	inc	<L578+sp_1
  8570 00:3045: D0 02        	bne	L596
  8571 00:3047: E6 0F        	inc	<L578+sp_1+2
  8572                        L596:
  8573 00:3049: 82 D3 FF     	brl	L10382
  8574                        L10383:
  8575 00:304C: A7 0D        	lda	[<L578+sp_1]
  8576 00:304E: 29 FF 00     	and	#$ff
  8577 00:3051: F0 03        	beq	L597
  8578 00:3053: 82 13 00     	brl	L10384
  8579                        L597:
  8580 00:3056: F4 xx xx     	pea	#^L560+7
  8581 00:3059: F4 xx xx     	pea	#<L560+7
  8582 00:305C: F4 F0 06     	pea	#<$6f0
  8583 00:305F: F4 82 00     	pea	#<$82
  8584 00:3062: F4 0A 00     	pea	#10
  8585 00:3065: 22 xx xx xx  	jsl	~~error
  8586                        L10384:
  8587 00:3069: E2 20        	sep	#$20
  8588                        	longa	off
  8589 00:306B: A7 11        	lda	[<L578+tp_1]
  8590 00:306D: C9 0D        	cmp	#<$d
  8591 00:306F: C2 20        	rep	#$20
  8592                        	longa	on
  8593 00:3071: F0 03        	beq	L598
  8594 00:3073: 82 36 00     	brl	L10385
  8595                        L598:
  8596 00:3076: E2 20        	sep	#$20
  8597                        	longa	off
  8598 00:3078: A9 0C        	lda	#$c
  8599 00:307A: 87 11        	sta	[<L578+tp_1]
  8600 00:307C: C2 20        	rep	#$20
  8601                        	longa	on
  8602 00:307E: 38           	sec
  8603 00:307F: A5 11        	lda	<L578+tp_1
  8604 00:3081: E5 0D        	sbc	<L578+sp_1
  8605 00:3083: 85 01        	sta	<R0
  8606 00:3085: A5 13        	lda	<L578+tp_1+2
  8607 00:3087: E5 0F        	sbc	<L578+sp_1+2
  Sun Jan  9 2022 20:52                                                Page 165


  8608 00:3089: 85 03        	sta	<R0+2
  8609 00:308B: A5 01        	lda	<R0
  8610 00:308D: 85 15        	sta	<L578+offset_1
  8611 00:308F: E2 20        	sep	#$20
  8612                        	longa	off
  8613 00:3091: A5 15        	lda	<L578+offset_1
  8614 00:3093: A0 01 00     	ldy	#$1
  8615 00:3096: 97 11        	sta	[<L578+tp_1],Y
  8616 00:3098: C2 20        	rep	#$20
  8617                        	longa	on
  8618 00:309A: A5 15        	lda	<L578+offset_1
  8619 00:309C: A2 08 00     	ldx	#<$8
  8620                        	xref	~~~asr
  8621 00:309F: 22 xx xx xx  	jsl	~~~asr
  8622 00:30A3: E2 20        	sep	#$20
  8623                        	longa	off
  8624 00:30A5: A0 02 00     	ldy	#$2
  8625 00:30A8: 97 11        	sta	[<L578+tp_1],Y
  8626 00:30AA: C2 20        	rep	#$20
  8627                        	longa	on
  8628                        L10385:
  8629 00:30AC: E6 0D        	inc	<L578+sp_1
  8630 00:30AE: D0 02        	bne	L599
  8631 00:30B0: E6 0F        	inc	<L578+sp_1+2
  8632                        L599:
  8633 00:30B2: 82 15 00     	brl	L10386
  8634                        L10381:
  8635 00:30B5: E2 20        	sep	#$20
  8636                        	longa	off
  8637 00:30B7: A7 11        	lda	[<L578+tp_1]
  8638 00:30B9: C9 91        	cmp	#<$91
  8639 00:30BB: C2 20        	rep	#$20
  8640                        	longa	on
  8641 00:30BD: F0 03        	beq	L600
  8642 00:30BF: 82 08 00     	brl	L10387
  8643                        L600:
  8644 00:30C2: E2 20        	sep	#$20
  8645                        	longa	off
  8646 00:30C4: A9 90        	lda	#$90
  8647 00:30C6: 87 11        	sta	[<L578+tp_1]
  8648 00:30C8: C2 20        	rep	#$20
  8649                        	longa	on
  8650                        L10387:
  8651                        L10386:
  8652                        L10380:
  8653 00:30CA: D4 13        	pei	<L578+tp_1+2
  8654 00:30CC: D4 11        	pei	<L578+tp_1
  8655 00:30CE: 22 xx xx xx  	jsl	~~skip_token
  8656 00:30D2: 85 11        	sta	<L578+tp_1
  8657 00:30D4: 86 13        	stx	<L578+tp_1+2
  8658 00:30D6: 82 6C FE     	brl	L10373
  8659                        L10374:
  8660                        L601:
  8661 00:30D9: A5 18        	lda	<L577+2
  8662 00:30DB: 85 1C        	sta	<L577+2+4
  8663 00:30DD: A5 17        	lda	<L577+1
  8664 00:30DF: 85 1B        	sta	<L577+1+4
  8665 00:30E1: 2B           	pld
  Sun Jan  9 2022 20:52                                                Page 166


  8666 00:30E2: 3B           	tsc
  8667 00:30E3: 18           	clc
  8668 00:30E4: 69 1A 00     	adc	#L577+4
  8669 00:30E7: 1B           	tcs
  8670 00:30E8: 6B           	rtl
  8671             00000016   L577	equ	22
  8672             0000000D   L578	equ	13
  8673                        	ends
  8674                        	efunc
  8675                        	data
  8676                        L560:
  8677 00:184E: 74 6F 6B 65  	db	$74,$6F,$6B,$65,$6E,$73,$00,$74,$6F,$6B,
                    $65,$6E,$73,$00
       00:1852: 6E 73 00 74 
       00:1856: 6F 6B 65 6E 
       00:185A: 73 00 
  8678 00:185C:              	ends
  8679                        	code
  8680                        	xdef	~~clear_branches
  8681                        	func
  8682                        ~~clear_branches:
  8683                        	longa	on
  8684                        	longi	on
  8685 00:30E9: 3B           	tsc
  8686 00:30EA: 38           	sec
  8687 00:30EB: E9 16 00     	sbc	#L603
  8688 00:30EE: 1B           	tcs
  8689 00:30EF: 0B           	phd
  8690 00:30F0: 5B           	tcd
  8691             00000004   bp_0	set	4
  8692             00000000   tp_1	set	0
  8693             00000004   lp_1	set	4
  8694             00000008   line_1	set	8
  8695 00:30F1: A0 05 00     	ldy	#$5
  8696 00:30F4: B7 1A        	lda	[<L603+bp_0],Y
  8697 00:30F6: 29 FF 00     	and	#$ff
  8698 00:30F9: 85 05        	sta	<R1
  8699 00:30FB: A5 05        	lda	<R1
  8700 00:30FD: EB           	xba
  8701 00:30FE: 29 00 FF     	and	#$ff00
  8702 00:3101: 85 01        	sta	<R0
  8703 00:3103: A0 00 00     	ldy	#$0
  8704 00:3106: A5 01        	lda	<R0
  8705 00:3108: 10 01        	bpl	L605
  8706 00:310A: 88           	dey
  8707                        L605:
  8708 00:310B: 85 01        	sta	<R0
  8709 00:310D: 84 03        	sty	<R0+2
  8710 00:310F: A0 04 00     	ldy	#$4
  8711 00:3112: B7 1A        	lda	[<L603+bp_0],Y
  8712 00:3114: 29 FF 00     	and	#$ff
  8713 00:3117: 85 05        	sta	<R1
  8714 00:3119: 64 07        	stz	<R1+2
  8715 00:311B: 18           	clc
  8716 00:311C: A5 05        	lda	<R1
  8717 00:311E: 65 01        	adc	<R0
  8718 00:3120: 85 09        	sta	<R2
  8719 00:3122: A5 07        	lda	<R1+2
  Sun Jan  9 2022 20:52                                                Page 167


  8720 00:3124: 65 03        	adc	<R0+2
  8721 00:3126: 85 0B        	sta	<R2+2
  8722 00:3128: 18           	clc
  8723 00:3129: A5 1A        	lda	<L603+bp_0
  8724 00:312B: 65 09        	adc	<R2
  8725 00:312D: 85 0D        	sta	<L604+tp_1
  8726 00:312F: A5 1C        	lda	<L603+bp_0+2
  8727 00:3131: 65 0B        	adc	<R2+2
  8728 00:3133: 85 0F        	sta	<L604+tp_1+2
  8729                        L10388:
  8730 00:3135: A7 0D        	lda	[<L604+tp_1]
  8731 00:3137: 29 FF 00     	and	#$ff
  8732 00:313A: D0 03        	bne	L606
  8733 00:313C: 82 A0 00     	brl	L10389
  8734                        L606:
  8735 00:313F: A7 0D        	lda	[<L604+tp_1]
  8736 00:3141: 29 FF 00     	and	#$ff
  8737 00:3144: 82 61 00     	brl	L10390
  8738                        L10392:
  8739 00:3147: E2 20        	sep	#$20
  8740                        	longa	off
  8741 00:3149: A9 1E        	lda	#$1e
  8742 00:314B: 87 0D        	sta	[<L604+tp_1]
  8743 00:314D: C2 20        	rep	#$20
  8744                        	longa	on
  8745 00:314F: D4 0F        	pei	<L604+tp_1+2
  8746 00:3151: D4 0D        	pei	<L604+tp_1
  8747 00:3153: 22 xx xx xx  	jsl	~~get_address
  8748 00:3157: 85 11        	sta	<L604+lp_1
  8749 00:3159: 86 13        	stx	<L604+lp_1+2
  8750 00:315B: D4 13        	pei	<L604+lp_1+2
  8751 00:315D: D4 11        	pei	<L604+lp_1
  8752 00:315F: 22 xx xx xx  	jsl	~~find_linestart
  8753 00:3163: 85 01        	sta	<R0
  8754 00:3165: 86 03        	stx	<R0+2
  8755 00:3167: DA           	phx
  8756 00:3168: 48           	pha
  8757 00:3169: 22 xx xx xx  	jsl	~~get_lineno
  8758 00:316D: 85 15        	sta	<L604+line_1
  8759 00:316F: E2 20        	sep	#$20
  8760                        	longa	off
  8761 00:3171: A5 15        	lda	<L604+line_1
  8762 00:3173: A0 01 00     	ldy	#$1
  8763 00:3176: 97 0D        	sta	[<L604+tp_1],Y
  8764 00:3178: C2 20        	rep	#$20
  8765                        	longa	on
  8766 00:317A: A5 15        	lda	<L604+line_1
  8767 00:317C: A2 08 00     	ldx	#<$8
  8768                        	xref	~~~asr
  8769 00:317F: 22 xx xx xx  	jsl	~~~asr
  8770 00:3183: E2 20        	sep	#$20
  8771                        	longa	off
  8772 00:3185: A0 02 00     	ldy	#$2
  8773 00:3188: 97 0D        	sta	[<L604+tp_1],Y
  8774 00:318A: C2 20        	rep	#$20
  8775                        	longa	on
  8776 00:318C: 82 41 00     	brl	L10391
  8777                        L10393:
  Sun Jan  9 2022 20:52                                                Page 168


  8778                        L10394:
  8779 00:318F: E2 20        	sep	#$20
  8780                        	longa	off
  8781 00:3191: A9 B2        	lda	#$b2
  8782 00:3193: 87 0D        	sta	[<L604+tp_1]
  8783 00:3195: C2 20        	rep	#$20
  8784                        	longa	on
  8785 00:3197: 82 36 00     	brl	L10391
  8786                        L10395:
  8787                        L10396:
  8788                        L10397:
  8789                        L10398:
  8790                        L10399:
  8791 00:319A: E2 20        	sep	#$20
  8792                        	longa	off
  8793 00:319C: 18           	clc
  8794 00:319D: A9 FF        	lda	#$ff
  8795 00:319F: 67 0D        	adc	[<L604+tp_1]
  8796 00:31A1: 87 0D        	sta	[<L604+tp_1]
  8797 00:31A3: C2 20        	rep	#$20
  8798                        	longa	on
  8799 00:31A5: 82 28 00     	brl	L10391
  8800                        L10390:
  8801                        	xref	~~~swt
  8802 00:31A8: 22 xx xx xx  	jsl	~~~swt
  8803 00:31AC: 08 00        	dw	8
  8804 00:31AE: 1F 00        	dw	31
  8805 00:31B0: xx xx        	dw	L10392-1
  8806 00:31B2: A0 00        	dw	160
  8807 00:31B4: xx xx        	dw	L10395-1
  8808 00:31B6: A2 00        	dw	162
  8809 00:31B8: xx xx        	dw	L10396-1
  8810 00:31BA: B3 00        	dw	179
  8811 00:31BC: xx xx        	dw	L10393-1
  8812 00:31BE: B4 00        	dw	180
  8813 00:31C0: xx xx        	dw	L10394-1
  8814 00:31C2: C6 00        	dw	198
  8815 00:31C4: xx xx        	dw	L10398-1
  8816 00:31C6: EA 00        	dw	234
  8817 00:31C8: xx xx        	dw	L10397-1
  8818 00:31CA: EC 00        	dw	236
  8819 00:31CC: xx xx        	dw	L10399-1
  8820 00:31CE: xx xx        	dw	L10391-1
  8821                        L10391:
  8822 00:31D0: D4 0F        	pei	<L604+tp_1+2
  8823 00:31D2: D4 0D        	pei	<L604+tp_1
  8824 00:31D4: 22 xx xx xx  	jsl	~~skip_token
  8825 00:31D8: 85 0D        	sta	<L604+tp_1
  8826 00:31DA: 86 0F        	stx	<L604+tp_1+2
  8827 00:31DC: 82 56 FF     	brl	L10388
  8828                        L10389:
  8829                        L607:
  8830 00:31DF: A5 18        	lda	<L603+2
  8831 00:31E1: 85 1C        	sta	<L603+2+4
  8832 00:31E3: A5 17        	lda	<L603+1
  8833 00:31E5: 85 1B        	sta	<L603+1+4
  8834 00:31E7: 2B           	pld
  8835 00:31E8: 3B           	tsc
  Sun Jan  9 2022 20:52                                                Page 169


  8836 00:31E9: 18           	clc
  8837 00:31EA: 69 1A 00     	adc	#L603+4
  8838 00:31ED: 1B           	tcs
  8839 00:31EE: 6B           	rtl
  8840             00000016   L603	equ	22
  8841             0000000D   L604	equ	13
  8842                        	ends
  8843                        	efunc
  8844                        	code
  8845                        	xdef	~~clear_linerefs
  8846                        	func
  8847                        ~~clear_linerefs:
  8848                        	longa	on
  8849                        	longi	on
  8850 00:31EF: 3B           	tsc
  8851 00:31F0: 38           	sec
  8852 00:31F1: E9 00 00     	sbc	#L608
  8853 00:31F4: 1B           	tcs
  8854 00:31F5: 0B           	phd
  8855 00:31F6: 5B           	tcd
  8856             00000004   bp_0	set	4
  8857 00:31F7: D4 06        	pei	<L608+bp_0+2
  8858 00:31F9: D4 04        	pei	<L608+bp_0
  8859 00:31FB: 22 xx xx xx  	jsl	~~clear_branches
  8860 00:31FF: D4 06        	pei	<L608+bp_0+2
  8861 00:3201: D4 04        	pei	<L608+bp_0
  8862 00:3203: 22 xx xx xx  	jsl	~~clear_varaddrs
  8863                        L610:
  8864 00:3207: A5 02        	lda	<L608+2
  8865 00:3209: 85 06        	sta	<L608+2+4
  8866 00:320B: A5 01        	lda	<L608+1
  8867 00:320D: 85 05        	sta	<L608+1+4
  8868 00:320F: 2B           	pld
  8869 00:3210: 3B           	tsc
  8870 00:3211: 18           	clc
  8871 00:3212: 69 04 00     	adc	#L608+4
  8872 00:3215: 1B           	tcs
  8873 00:3216: 6B           	rtl
  8874             00000000   L608	equ	0
  8875             00000001   L609	equ	1
  8876                        	ends
  8877                        	efunc
  8878                        	code
  8879                        	xdef	~~clear_varptrs
  8880                        	func
  8881                        ~~clear_varptrs:
  8882                        	longa	on
  8883                        	longi	on
  8884 00:3217: 3B           	tsc
  8885 00:3218: 38           	sec
  8886 00:3219: E9 14 00     	sbc	#L611
  8887 00:321C: 1B           	tcs
  8888 00:321D: 0B           	phd
  8889 00:321E: 5B           	tcd
  8890             00000000   bp_1	set	0
  8891             00000004   lp_1	set	4
  8892 00:321F: AD xx xx     	lda	|~~basicvars+22
  8893 00:3222: 85 0D        	sta	<L612+bp_1
  Sun Jan  9 2022 20:52                                                Page 170


  8894 00:3224: AD xx xx     	lda	|~~basicvars+22+2
  8895 00:3227: 85 0F        	sta	<L612+bp_1+2
  8896                        L10400:
  8897 00:3229: E2 20        	sep	#$20
  8898                        	longa	off
  8899 00:322B: A0 01 00     	ldy	#$1
  8900 00:322E: B7 0D        	lda	[<L612+bp_1],Y
  8901 00:3230: C9 FF        	cmp	#<$ff
  8902 00:3232: C2 20        	rep	#$20
  8903                        	longa	on
  8904 00:3234: D0 03        	bne	L613
  8905 00:3236: 82 46 00     	brl	L10401
  8906                        L613:
  8907 00:3239: D4 0F        	pei	<L612+bp_1+2
  8908 00:323B: D4 0D        	pei	<L612+bp_1
  8909 00:323D: 22 xx xx xx  	jsl	~~clear_varaddrs
  8910 00:3241: A0 02 00     	ldy	#$2
  8911 00:3244: B7 0D        	lda	[<L612+bp_1],Y
  8912 00:3246: 29 FF 00     	and	#$ff
  8913 00:3249: 85 01        	sta	<R0
  8914 00:324B: A0 03 00     	ldy	#$3
  8915 00:324E: B7 0D        	lda	[<L612+bp_1],Y
  8916 00:3250: 29 FF 00     	and	#$ff
  8917 00:3253: 85 09        	sta	<R2
  8918 00:3255: A5 09        	lda	<R2
  8919 00:3257: EB           	xba
  8920 00:3258: 29 00 FF     	and	#$ff00
  8921 00:325B: 85 05        	sta	<R1
  8922 00:325D: A5 05        	lda	<R1
  8923 00:325F: 05 01        	ora	<R0
  8924 00:3261: 85 09        	sta	<R2
  8925 00:3263: A0 00 00     	ldy	#$0
  8926 00:3266: A5 09        	lda	<R2
  8927 00:3268: 10 01        	bpl	L614
  8928 00:326A: 88           	dey
  8929                        L614:
  8930 00:326B: 85 01        	sta	<R0
  8931 00:326D: 84 03        	sty	<R0+2
  8932 00:326F: 18           	clc
  8933 00:3270: A5 0D        	lda	<L612+bp_1
  8934 00:3272: 65 01        	adc	<R0
  8935 00:3274: 85 0D        	sta	<L612+bp_1
  8936 00:3276: A5 0F        	lda	<L612+bp_1+2
  8937 00:3278: 65 03        	adc	<R0+2
  8938 00:327A: 85 0F        	sta	<L612+bp_1+2
  8939 00:327C: 82 AA FF     	brl	L10400
  8940                        L10401:
  8941 00:327F: AD xx xx     	lda	|~~basicvars+415
  8942 00:3282: 85 11        	sta	<L612+lp_1
  8943 00:3284: AD xx xx     	lda	|~~basicvars+415+2
  8944 00:3287: 85 13        	sta	<L612+lp_1+2
  8945                        L10402:
  8946 00:3289: A5 11        	lda	<L612+lp_1
  8947 00:328B: 05 13        	ora	<L612+lp_1+2
  8948 00:328D: D0 03        	bne	L615
  8949 00:328F: 82 7A 00     	brl	L10403
  8950                        L615:
  8951 00:3292: A0 08 00     	ldy	#$8
  Sun Jan  9 2022 20:52                                                Page 171


  8952 00:3295: B7 11        	lda	[<L612+lp_1],Y
  8953 00:3297: 85 0D        	sta	<L612+bp_1
  8954 00:3299: A0 0A 00     	ldy	#$a
  8955 00:329C: B7 11        	lda	[<L612+lp_1],Y
  8956 00:329E: 85 0F        	sta	<L612+bp_1+2
  8957                        L10404:
  8958 00:32A0: E2 20        	sep	#$20
  8959                        	longa	off
  8960 00:32A2: A0 01 00     	ldy	#$1
  8961 00:32A5: B7 0D        	lda	[<L612+bp_1],Y
  8962 00:32A7: C9 FF        	cmp	#<$ff
  8963 00:32A9: C2 20        	rep	#$20
  8964                        	longa	on
  8965 00:32AB: D0 03        	bne	L616
  8966 00:32AD: 82 46 00     	brl	L10405
  8967                        L616:
  8968 00:32B0: D4 0F        	pei	<L612+bp_1+2
  8969 00:32B2: D4 0D        	pei	<L612+bp_1
  8970 00:32B4: 22 xx xx xx  	jsl	~~clear_varaddrs
  8971 00:32B8: A0 02 00     	ldy	#$2
  8972 00:32BB: B7 0D        	lda	[<L612+bp_1],Y
  8973 00:32BD: 29 FF 00     	and	#$ff
  8974 00:32C0: 85 01        	sta	<R0
  8975 00:32C2: A0 03 00     	ldy	#$3
  8976 00:32C5: B7 0D        	lda	[<L612+bp_1],Y
  8977 00:32C7: 29 FF 00     	and	#$ff
  8978 00:32CA: 85 09        	sta	<R2
  8979 00:32CC: A5 09        	lda	<R2
  8980 00:32CE: EB           	xba
  8981 00:32CF: 29 00 FF     	and	#$ff00
  8982 00:32D2: 85 05        	sta	<R1
  8983 00:32D4: A5 05        	lda	<R1
  8984 00:32D6: 05 01        	ora	<R0
  8985 00:32D8: 85 09        	sta	<R2
  8986 00:32DA: A0 00 00     	ldy	#$0
  8987 00:32DD: A5 09        	lda	<R2
  8988 00:32DF: 10 01        	bpl	L617
  8989 00:32E1: 88           	dey
  8990                        L617:
  8991 00:32E2: 85 01        	sta	<R0
  8992 00:32E4: 84 03        	sty	<R0+2
  8993 00:32E6: 18           	clc
  8994 00:32E7: A5 0D        	lda	<L612+bp_1
  8995 00:32E9: 65 01        	adc	<R0
  8996 00:32EB: 85 0D        	sta	<L612+bp_1
  8997 00:32ED: A5 0F        	lda	<L612+bp_1+2
  8998 00:32EF: 65 03        	adc	<R0+2
  8999 00:32F1: 85 0F        	sta	<L612+bp_1+2
  9000 00:32F3: 82 AA FF     	brl	L10404
  9001                        L10405:
  9002 00:32F6: A7 11        	lda	[<L612+lp_1]
  9003 00:32F8: 85 01        	sta	<R0
  9004 00:32FA: A0 02 00     	ldy	#$2
  9005 00:32FD: B7 11        	lda	[<L612+lp_1],Y
  9006 00:32FF: 85 03        	sta	<R0+2
  9007 00:3301: A5 01        	lda	<R0
  9008 00:3303: 85 11        	sta	<L612+lp_1
  9009 00:3305: A5 03        	lda	<R0+2
  Sun Jan  9 2022 20:52                                                Page 172


  9010 00:3307: 85 13        	sta	<L612+lp_1+2
  9011 00:3309: 82 7D FF     	brl	L10402
  9012                        L10403:
  9013                        L618:
  9014 00:330C: 2B           	pld
  9015 00:330D: 3B           	tsc
  9016 00:330E: 18           	clc
  9017 00:330F: 69 14 00     	adc	#L611
  9018 00:3312: 1B           	tcs
  9019 00:3313: 6B           	rtl
  9020             00000014   L611	equ	20
  9021             0000000D   L612	equ	13
  9022                        	ends
  9023                        	efunc
  9024                        	data
  9025                        ~~legalow:
  9026 00:185C: 00 01 01 01  	db	$0,$1,$1,$1,$1,$1,$1,$1,$1,$1
       00:1860: 01 01 01 01 
       00:1864: 01 01 
  9027 00:1866: 01 01 01 01  	db	$1,$1,$1,$1,$0,$0,$1,$1,$1,$1
       00:186A: 00 00 01 01 
       00:186E: 01 01 
  9028 00:1870: 01 01 01 01  	db	$1,$1,$1,$1,$1,$0,$0,$0,$0,$0
       00:1874: 01 00 00 00 
       00:1878: 00 00 
  9029 00:187A: 01 01        	db	$1,$1
  9030 00:187C:              	ends
  9031                        	code
  9032                        	xdef	~~isvalid
  9033                        	func
  9034                        ~~isvalid:
  9035                        	longa	on
  9036                        	longi	on
  9037 00:3314: 3B           	tsc
  9038 00:3315: 38           	sec
  9039 00:3316: E9 15 00     	sbc	#L619
  9040 00:3319: 1B           	tcs
  9041 00:331A: 0B           	phd
  9042 00:331B: 5B           	tcd
  9043             00000004   bp_0	set	4
  9044             00000000   length_1	set	0
  9045             00000002   execoff_1	set	2
  9046             00000004   base_1	set	4
  9047             00000008   cp_1	set	8
  9048             0000000C   token_1	set	12
  9049 00:331C: D4 1B        	pei	<L619+bp_0+2
  9050 00:331E: D4 19        	pei	<L619+bp_0
  9051 00:3320: 22 xx xx xx  	jsl	~~get_lineno
  9052 00:3324: 85 01        	sta	<R0
  9053 00:3326: A0 00 00     	ldy	#$0
  9054 00:3329: A5 01        	lda	<R0
  9055 00:332B: 10 01        	bpl	L621
  9056 00:332D: 88           	dey
  9057                        L621:
  9058 00:332E: 85 01        	sta	<R0
  9059 00:3330: 84 03        	sty	<R0+2
  9060 00:3332: 38           	sec
  9061 00:3333: A9 FF FE     	lda	#$feff
  Sun Jan  9 2022 20:52                                                Page 173


  9062 00:3336: E5 01        	sbc	<R0
  9063 00:3338: A9 00 00     	lda	#$0
  9064 00:333B: E5 03        	sbc	<R0+2
  9065 00:333D: 70 03        	bvs	L622
  9066 00:333F: 49 00 80     	eor	#$8000
  9067                        L622:
  9068 00:3342: 10 03        	bpl	L623
  9069 00:3344: 82 15 00     	brl	L10406
  9070                        L623:
  9071 00:3347: A9 00 00     	lda	#$0
  9072                        L624:
  9073 00:334A: A8           	tay
  9074 00:334B: A5 17        	lda	<L619+2
  9075 00:334D: 85 1B        	sta	<L619+2+4
  9076 00:334F: A5 16        	lda	<L619+1
  9077 00:3351: 85 1A        	sta	<L619+1+4
  9078 00:3353: 2B           	pld
  9079 00:3354: 3B           	tsc
  9080 00:3355: 18           	clc
  9081 00:3356: 69 19 00     	adc	#L619+4
  9082 00:3359: 1B           	tcs
  9083 00:335A: 98           	tya
  9084 00:335B: 6B           	rtl
  9085                        L10406:
  9086 00:335C: D4 1B        	pei	<L619+bp_0+2
  9087 00:335E: D4 19        	pei	<L619+bp_0
  9088 00:3360: 22 xx xx xx  	jsl	~~get_linelen
  9089 00:3364: 85 09        	sta	<L620+length_1
  9090 00:3366: 38           	sec
  9091 00:3367: A5 09        	lda	<L620+length_1
  9092 00:3369: E9 07 00     	sbc	#<$7
  9093 00:336C: 70 03        	bvs	L626
  9094 00:336E: 49 00 80     	eor	#$8000
  9095                        L626:
  9096 00:3371: 30 03        	bmi	L627
  9097 00:3373: 82 10 00     	brl	L625
  9098                        L627:
  9099 00:3376: 38           	sec
  9100 00:3377: A9 00 04     	lda	#$400
  9101 00:337A: E5 09        	sbc	<L620+length_1
  9102 00:337C: 70 03        	bvs	L628
  9103 00:337E: 49 00 80     	eor	#$8000
  9104                        L628:
  9105 00:3381: 10 03        	bpl	L629
  9106 00:3383: 82 06 00     	brl	L10407
  9107                        L629:
  9108                        L625:
  9109 00:3386: A9 00 00     	lda	#$0
  9110 00:3389: 82 BE FF     	brl	L624
  9111                        L10407:
  9112 00:338C: D4 1B        	pei	<L619+bp_0+2
  9113 00:338E: D4 19        	pei	<L619+bp_0
  9114 00:3390: 22 xx xx xx  	jsl	~~get_exec
  9115 00:3394: 85 0B        	sta	<L620+execoff_1
  9116 00:3396: A5 0B        	lda	<L620+execoff_1
  9117 00:3398: C9 06 00     	cmp	#<$6
  9118 00:339B: B0 03        	bcs	L631
  9119 00:339D: 82 0F 00     	brl	L630
  Sun Jan  9 2022 20:52                                                Page 174


  9120                        L631:
  9121 00:33A0: 38           	sec
  9122 00:33A1: A5 09        	lda	<L620+length_1
  9123 00:33A3: E5 0B        	sbc	<L620+execoff_1
  9124 00:33A5: 70 03        	bvs	L632
  9125 00:33A7: 49 00 80     	eor	#$8000
  9126                        L632:
  9127 00:33AA: 10 03        	bpl	L633
  9128 00:33AC: 82 06 00     	brl	L10408
  9129                        L633:
  9130                        L630:
  9131 00:33AF: A9 00 00     	lda	#$0
  9132 00:33B2: 82 95 FF     	brl	L624
  9133                        L10408:
  9134 00:33B5: A0 00 00     	ldy	#$0
  9135 00:33B8: A5 0B        	lda	<L620+execoff_1
  9136 00:33BA: 10 01        	bpl	L634
  9137 00:33BC: 88           	dey
  9138                        L634:
  9139 00:33BD: 85 01        	sta	<R0
  9140 00:33BF: 84 03        	sty	<R0+2
  9141 00:33C1: 18           	clc
  9142 00:33C2: A5 19        	lda	<L619+bp_0
  9143 00:33C4: 65 01        	adc	<R0
  9144 00:33C6: 85 11        	sta	<L620+cp_1
  9145 00:33C8: A5 1B        	lda	<L619+bp_0+2
  9146 00:33CA: 65 03        	adc	<R0+2
  9147 00:33CC: 85 13        	sta	<L620+cp_1+2
  9148 00:33CE: A5 11        	lda	<L620+cp_1
  9149 00:33D0: 85 0D        	sta	<L620+base_1
  9150 00:33D2: A5 13        	lda	<L620+cp_1+2
  9151 00:33D4: 85 0F        	sta	<L620+base_1+2
  9152                        L10409:
  9153 00:33D6: A0 00 00     	ldy	#$0
  9154 00:33D9: A5 09        	lda	<L620+length_1
  9155 00:33DB: 10 01        	bpl	L635
  9156 00:33DD: 88           	dey
  9157                        L635:
  9158 00:33DE: 85 01        	sta	<R0
  9159 00:33E0: 84 03        	sty	<R0+2
  9160 00:33E2: 38           	sec
  9161 00:33E3: A5 11        	lda	<L620+cp_1
  9162 00:33E5: E5 0D        	sbc	<L620+base_1
  9163 00:33E7: 85 05        	sta	<R1
  9164 00:33E9: A5 13        	lda	<L620+cp_1+2
  9165 00:33EB: E5 0F        	sbc	<L620+base_1+2
  9166 00:33ED: 85 07        	sta	<R1+2
  9167 00:33EF: 38           	sec
  9168 00:33F0: A5 01        	lda	<R0
  9169 00:33F2: E5 05        	sbc	<R1
  9170 00:33F4: A5 03        	lda	<R0+2
  9171 00:33F6: E5 07        	sbc	<R1+2
  9172 00:33F8: 70 03        	bvs	L636
  9173 00:33FA: 49 00 80     	eor	#$8000
  9174                        L636:
  9175 00:33FD: 30 03        	bmi	L637
  9176 00:33FF: 82 1C 01     	brl	L10410
  9177                        L637:
  Sun Jan  9 2022 20:52                                                Page 175


  9178 00:3402: A7 11        	lda	[<L620+cp_1]
  9179 00:3404: 29 FF 00     	and	#$ff
  9180 00:3407: D0 03        	bne	L638
  9181 00:3409: 82 12 01     	brl	L10410
  9182                        L638:
  9183 00:340C: E2 20        	sep	#$20
  9184                        	longa	off
  9185 00:340E: A7 11        	lda	[<L620+cp_1]
  9186 00:3410: 85 15        	sta	<L620+token_1
  9187 00:3412: C2 20        	rep	#$20
  9188                        	longa	on
  9189 00:3414: E2 20        	sep	#$20
  9190                        	longa	off
  9191 00:3416: A9 1F        	lda	#$1f
  9192 00:3418: C5 15        	cmp	<L620+token_1
  9193 00:341A: C2 20        	rep	#$20
  9194                        	longa	on
  9195 00:341C: B0 03        	bcs	L639
  9196 00:341E: 82 1D 00     	brl	L10411
  9197                        L639:
  9198 00:3421: A5 15        	lda	<L620+token_1
  9199 00:3423: 29 FF 00     	and	#$ff
  9200 00:3426: 85 01        	sta	<R0
  9201 00:3428: A6 01        	ldx	<R0
  9202 00:342A: BD xx xx     	lda	|~~legalow,X
  9203 00:342D: 29 FF 00     	and	#$ff
  9204 00:3430: F0 03        	beq	L640
  9205 00:3432: 82 06 00     	brl	L10412
  9206                        L640:
  9207 00:3435: A9 00 00     	lda	#$0
  9208 00:3438: 82 0F FF     	brl	L624
  9209                        L10412:
  9210 00:343B: 82 D1 00     	brl	L10413
  9211                        L10411:
  9212 00:343E: E2 20        	sep	#$20
  9213                        	longa	off
  9214 00:3440: A5 15        	lda	<L620+token_1
  9215 00:3442: C9 80        	cmp	#<$80
  9216 00:3444: C2 20        	rep	#$20
  9217                        	longa	on
  9218 00:3446: B0 03        	bcs	L641
  9219 00:3448: 82 C4 00     	brl	L10414
  9220                        L641:
  9221 00:344B: A5 15        	lda	<L620+token_1
  9222 00:344D: 29 FF 00     	and	#$ff
  9223 00:3450: 82 A8 00     	brl	L10415
  9224                        L10417:
  9225 00:3453: A0 01 00     	ldy	#$1
  9226 00:3456: B7 11        	lda	[<L620+cp_1],Y
  9227 00:3458: 29 FF 00     	and	#$ff
  9228 00:345B: D0 03        	bne	L643
  9229 00:345D: 82 10 00     	brl	L642
  9230                        L643:
  9231 00:3460: E2 20        	sep	#$20
  9232                        	longa	off
  9233 00:3462: A9 02        	lda	#$2
  9234 00:3464: A0 01 00     	ldy	#$1
  9235 00:3467: D7 11        	cmp	[<L620+cp_1],Y
  Sun Jan  9 2022 20:52                                                Page 176


  9236 00:3469: C2 20        	rep	#$20
  9237                        	longa	on
  9238 00:346B: 90 03        	bcc	L644
  9239 00:346D: 82 06 00     	brl	L10418
  9240                        L644:
  9241                        L642:
  9242 00:3470: A9 00 00     	lda	#$0
  9243 00:3473: 82 D4 FE     	brl	L624
  9244                        L10418:
  9245 00:3476: 82 96 00     	brl	L10416
  9246                        L10419:
  9247 00:3479: A0 01 00     	ldy	#$1
  9248 00:347C: B7 11        	lda	[<L620+cp_1],Y
  9249 00:347E: 29 FF 00     	and	#$ff
  9250 00:3481: D0 03        	bne	L646
  9251 00:3483: 82 30 00     	brl	L645
  9252                        L646:
  9253 00:3486: E2 20        	sep	#$20
  9254                        	longa	off
  9255 00:3488: A9 0B        	lda	#$b
  9256 00:348A: A0 01 00     	ldy	#$1
  9257 00:348D: D7 11        	cmp	[<L620+cp_1],Y
  9258 00:348F: C2 20        	rep	#$20
  9259                        	longa	on
  9260 00:3491: 90 03        	bcc	L648
  9261 00:3493: 82 10 00     	brl	L647
  9262                        L648:
  9263 00:3496: E2 20        	sep	#$20
  9264                        	longa	off
  9265 00:3498: A0 01 00     	ldy	#$1
  9266 00:349B: B7 11        	lda	[<L620+cp_1],Y
  9267 00:349D: C9 10        	cmp	#<$10
  9268 00:349F: C2 20        	rep	#$20
  9269                        	longa	on
  9270 00:34A1: B0 03        	bcs	L649
  9271 00:34A3: 82 10 00     	brl	L645
  9272                        L649:
  9273                        L647:
  9274 00:34A6: E2 20        	sep	#$20
  9275                        	longa	off
  9276 00:34A8: A9 42        	lda	#$42
  9277 00:34AA: A0 01 00     	ldy	#$1
  9278 00:34AD: D7 11        	cmp	[<L620+cp_1],Y
  9279 00:34AF: C2 20        	rep	#$20
  9280                        	longa	on
  9281 00:34B1: 90 03        	bcc	L650
  9282 00:34B3: 82 06 00     	brl	L10420
  9283                        L650:
  9284                        L645:
  9285 00:34B6: A9 00 00     	lda	#$0
  9286 00:34B9: 82 8E FE     	brl	L624
  9287                        L10420:
  9288 00:34BC: 82 50 00     	brl	L10416
  9289                        L10421:
  9290 00:34BF: A0 01 00     	ldy	#$1
  9291 00:34C2: B7 11        	lda	[<L620+cp_1],Y
  9292 00:34C4: 29 FF 00     	and	#$ff
  9293 00:34C7: D0 03        	bne	L652
  Sun Jan  9 2022 20:52                                                Page 177


  9294 00:34C9: 82 10 00     	brl	L651
  9295                        L652:
  9296 00:34CC: E2 20        	sep	#$20
  9297                        	longa	off
  9298 00:34CE: A9 1A        	lda	#$1a
  9299 00:34D0: A0 01 00     	ldy	#$1
  9300 00:34D3: D7 11        	cmp	[<L620+cp_1],Y
  9301 00:34D5: C2 20        	rep	#$20
  9302                        	longa	on
  9303 00:34D7: 90 03        	bcc	L653
  9304 00:34D9: 82 06 00     	brl	L10422
  9305                        L653:
  9306                        L651:
  9307 00:34DC: A9 00 00     	lda	#$0
  9308 00:34DF: 82 68 FE     	brl	L624
  9309                        L10422:
  9310 00:34E2: 82 2A 00     	brl	L10416
  9311                        L10423:
  9312 00:34E5: E2 20        	sep	#$20
  9313                        	longa	off
  9314 00:34E7: A9 ED        	lda	#$ed
  9315 00:34E9: C5 15        	cmp	<L620+token_1
  9316 00:34EB: C2 20        	rep	#$20
  9317                        	longa	on
  9318 00:34ED: 90 03        	bcc	L654
  9319 00:34EF: 82 06 00     	brl	L10424
  9320                        L654:
  9321 00:34F2: A9 00 00     	lda	#$0
  9322 00:34F5: 82 52 FE     	brl	L624
  9323                        L10424:
  9324 00:34F8: 82 14 00     	brl	L10416
  9325                        L10415:
  9326                        	xref	~~~swt
  9327 00:34FB: 22 xx xx xx  	jsl	~~~swt
  9328 00:34FF: 03 00        	dw	3
  9329 00:3501: FC 00        	dw	252
  9330 00:3503: xx xx        	dw	L10421-1
  9331 00:3505: FE 00        	dw	254
  9332 00:3507: xx xx        	dw	L10417-1
  9333 00:3509: FF 00        	dw	255
  9334 00:350B: xx xx        	dw	L10419-1
  9335 00:350D: xx xx        	dw	L10423-1
  9336                        L10416:
  9337                        L10414:
  9338                        L10413:
  9339 00:350F: D4 13        	pei	<L620+cp_1+2
  9340 00:3511: D4 11        	pei	<L620+cp_1
  9341 00:3513: 22 xx xx xx  	jsl	~~skip_token
  9342 00:3517: 85 11        	sta	<L620+cp_1
  9343 00:3519: 86 13        	stx	<L620+cp_1+2
  9344 00:351B: 82 B8 FE     	brl	L10409
  9345                        L10410:
  9346 00:351E: 64 01        	stz	<R0
  9347 00:3520: A7 11        	lda	[<L620+cp_1]
  9348 00:3522: 29 FF 00     	and	#$ff
  9349 00:3525: F0 03        	beq	L656
  9350 00:3527: 82 02 00     	brl	L655
  9351                        L656:
  Sun Jan  9 2022 20:52                                                Page 178


  9352 00:352A: E6 01        	inc	<R0
  9353                        L655:
  9354 00:352C: A5 01        	lda	<R0
  9355 00:352E: 29 FF 00     	and	#$ff
  9356 00:3531: 82 16 FE     	brl	L624
  9357             00000015   L619	equ	21
  9358             00000009   L620	equ	9
  9359                        	ends
  9360                        	efunc
  9361                        	code
  9362                        	xdef	~~resolve_linenums
  9363                        	func
  9364                        ~~resolve_linenums:
  9365                        	longa	on
  9366                        	longi	on
  9367 00:3534: 3B           	tsc
  9368 00:3535: 38           	sec
  9369 00:3536: E9 12 00     	sbc	#L657
  9370 00:3539: 1B           	tcs
  9371 00:353A: 0B           	phd
  9372 00:353B: 5B           	tcd
  9373             00000004   bp_0	set	4
  9374             00000000   dest_1	set	0
  9375             00000004   line_1	set	4
  9376 00:353C: A0 05 00     	ldy	#$5
  9377 00:353F: B7 16        	lda	[<L657+bp_0],Y
  9378 00:3541: 29 FF 00     	and	#$ff
  9379 00:3544: 85 05        	sta	<R1
  9380 00:3546: A5 05        	lda	<R1
  9381 00:3548: EB           	xba
  9382 00:3549: 29 00 FF     	and	#$ff00
  9383 00:354C: 85 01        	sta	<R0
  9384 00:354E: A0 00 00     	ldy	#$0
  9385 00:3551: A5 01        	lda	<R0
  9386 00:3553: 10 01        	bpl	L659
  9387 00:3555: 88           	dey
  9388                        L659:
  9389 00:3556: 85 01        	sta	<R0
  9390 00:3558: 84 03        	sty	<R0+2
  9391 00:355A: A0 04 00     	ldy	#$4
  9392 00:355D: B7 16        	lda	[<L657+bp_0],Y
  9393 00:355F: 29 FF 00     	and	#$ff
  9394 00:3562: 85 05        	sta	<R1
  9395 00:3564: 64 07        	stz	<R1+2
  9396 00:3566: 18           	clc
  9397 00:3567: A5 05        	lda	<R1
  9398 00:3569: 65 01        	adc	<R0
  9399 00:356B: 85 09        	sta	<R2
  9400 00:356D: A5 07        	lda	<R1+2
  9401 00:356F: 65 03        	adc	<R0+2
  9402 00:3571: 85 0B        	sta	<R2+2
  9403 00:3573: 18           	clc
  9404 00:3574: A5 16        	lda	<L657+bp_0
  9405 00:3576: 65 09        	adc	<R2
  9406 00:3578: 85 16        	sta	<L657+bp_0
  9407 00:357A: A5 18        	lda	<L657+bp_0+2
  9408 00:357C: 65 0B        	adc	<R2+2
  9409 00:357E: 85 18        	sta	<L657+bp_0+2
  Sun Jan  9 2022 20:52                                                Page 179


  9410                        L10425:
  9411 00:3580: A7 16        	lda	[<L657+bp_0]
  9412 00:3582: 29 FF 00     	and	#$ff
  9413 00:3585: D0 03        	bne	L660
  9414 00:3587: 82 89 00     	brl	L10426
  9415                        L660:
  9416 00:358A: E2 20        	sep	#$20
  9417                        	longa	off
  9418 00:358C: A7 16        	lda	[<L657+bp_0]
  9419 00:358E: C9 1E        	cmp	#<$1e
  9420 00:3590: C2 20        	rep	#$20
  9421                        	longa	on
  9422 00:3592: F0 03        	beq	L661
  9423 00:3594: 82 3E 00     	brl	L10427
  9424                        L661:
  9425 00:3597: D4 18        	pei	<L657+bp_0+2
  9426 00:3599: D4 16        	pei	<L657+bp_0
  9427 00:359B: 22 xx xx xx  	jsl	~~get_linenum
  9428 00:359F: 85 11        	sta	<L658+line_1
  9429 00:35A1: D4 11        	pei	<L658+line_1
  9430 00:35A3: 22 xx xx xx  	jsl	~~find_line
  9431 00:35A7: 85 0D        	sta	<L658+dest_1
  9432 00:35A9: 86 0F        	stx	<L658+dest_1+2
  9433 00:35AB: D4 0F        	pei	<L658+dest_1+2
  9434 00:35AD: D4 0D        	pei	<L658+dest_1
  9435 00:35AF: 22 xx xx xx  	jsl	~~get_lineno
  9436 00:35B3: 85 01        	sta	<R0
  9437 00:35B5: A5 01        	lda	<R0
  9438 00:35B7: C5 11        	cmp	<L658+line_1
  9439 00:35B9: F0 03        	beq	L662
  9440 00:35BB: 82 14 00     	brl	L10428
  9441                        L662:
  9442 00:35BE: D4 0F        	pei	<L658+dest_1+2
  9443 00:35C0: D4 0D        	pei	<L658+dest_1
  9444 00:35C2: D4 18        	pei	<L657+bp_0+2
  9445 00:35C4: D4 16        	pei	<L657+bp_0
  9446 00:35C6: 22 xx xx xx  	jsl	~~set_address
  9447 00:35CA: E2 20        	sep	#$20
  9448                        	longa	off
  9449 00:35CC: A9 1F        	lda	#$1f
  9450 00:35CE: 87 16        	sta	[<L657+bp_0]
  9451 00:35D0: C2 20        	rep	#$20
  9452                        	longa	on
  9453                        L10428:
  9454 00:35D2: 82 2F 00     	brl	L10429
  9455                        L10427:
  9456 00:35D5: E2 20        	sep	#$20
  9457                        	longa	off
  9458 00:35D7: A7 16        	lda	[<L657+bp_0]
  9459 00:35D9: C9 1F        	cmp	#<$1f
  9460 00:35DB: C2 20        	rep	#$20
  9461                        	longa	on
  9462 00:35DD: F0 03        	beq	L663
  9463 00:35DF: 82 22 00     	brl	L10430
  9464                        L663:
  9465 00:35E2: D4 18        	pei	<L657+bp_0+2
  9466 00:35E4: D4 16        	pei	<L657+bp_0
  9467 00:35E6: 22 xx xx xx  	jsl	~~get_address
  Sun Jan  9 2022 20:52                                                Page 180


  9468 00:35EA: 85 0D        	sta	<L658+dest_1
  9469 00:35EC: 86 0F        	stx	<L658+dest_1+2
  9470 00:35EE: D4 0F        	pei	<L658+dest_1+2
  9471 00:35F0: D4 0D        	pei	<L658+dest_1
  9472 00:35F2: 22 xx xx xx  	jsl	~~find_linestart
  9473 00:35F6: 85 01        	sta	<R0
  9474 00:35F8: 86 03        	stx	<R0+2
  9475 00:35FA: DA           	phx
  9476 00:35FB: 48           	pha
  9477 00:35FC: D4 18        	pei	<L657+bp_0+2
  9478 00:35FE: D4 16        	pei	<L657+bp_0
  9479 00:3600: 22 xx xx xx  	jsl	~~set_address
  9480                        L10430:
  9481                        L10429:
  9482 00:3604: D4 18        	pei	<L657+bp_0+2
  9483 00:3606: D4 16        	pei	<L657+bp_0
  9484 00:3608: 22 xx xx xx  	jsl	~~skip_token
  9485 00:360C: 85 16        	sta	<L657+bp_0
  9486 00:360E: 86 18        	stx	<L657+bp_0+2
  9487 00:3610: 82 6D FF     	brl	L10425
  9488                        L10426:
  9489                        L664:
  9490 00:3613: A5 14        	lda	<L657+2
  9491 00:3615: 85 18        	sta	<L657+2+4
  9492 00:3617: A5 13        	lda	<L657+1
  9493 00:3619: 85 17        	sta	<L657+1+4
  9494 00:361B: 2B           	pld
  9495 00:361C: 3B           	tsc
  9496 00:361D: 18           	clc
  9497 00:361E: 69 16 00     	adc	#L657+4
  9498 00:3621: 1B           	tcs
  9499 00:3622: 6B           	rtl
  9500             00000012   L657	equ	18
  9501             0000000D   L658	equ	13
  9502                        	ends
  9503                        	efunc
  9504                        	code
  9505                        	xdef	~~reset_linenums
  9506                        	func
  9507                        ~~reset_linenums:
  9508                        	longa	on
  9509                        	longi	on
  9510 00:3623: 3B           	tsc
  9511 00:3624: 38           	sec
  9512 00:3625: E9 1A 00     	sbc	#L665
  9513 00:3628: 1B           	tcs
  9514 00:3629: 0B           	phd
  9515 00:362A: 5B           	tcd
  9516             00000004   bp_0	set	4
  9517             00000000   dest_1	set	0
  9518             00000004   sp_1	set	4
  9519             00000008   line_1	set	8
  9520 00:362B: 18           	clc
  9521 00:362C: A9 06 00     	lda	#$6
  9522 00:362F: 65 1E        	adc	<L665+bp_0
  9523 00:3631: 85 11        	sta	<L666+sp_1
  9524 00:3633: A9 00 00     	lda	#$0
  9525 00:3636: 65 20        	adc	<L665+bp_0+2
  Sun Jan  9 2022 20:52                                                Page 181


  9526 00:3638: 85 13        	sta	<L666+sp_1+2
  9527 00:363A: A0 05 00     	ldy	#$5
  9528 00:363D: B7 1E        	lda	[<L665+bp_0],Y
  9529 00:363F: 29 FF 00     	and	#$ff
  9530 00:3642: 85 05        	sta	<R1
  9531 00:3644: A5 05        	lda	<R1
  9532 00:3646: EB           	xba
  9533 00:3647: 29 00 FF     	and	#$ff00
  9534 00:364A: 85 01        	sta	<R0
  9535 00:364C: A0 00 00     	ldy	#$0
  9536 00:364F: A5 01        	lda	<R0
  9537 00:3651: 10 01        	bpl	L667
  9538 00:3653: 88           	dey
  9539                        L667:
  9540 00:3654: 85 01        	sta	<R0
  9541 00:3656: 84 03        	sty	<R0+2
  9542 00:3658: A0 04 00     	ldy	#$4
  9543 00:365B: B7 1E        	lda	[<L665+bp_0],Y
  9544 00:365D: 29 FF 00     	and	#$ff
  9545 00:3660: 85 05        	sta	<R1
  9546 00:3662: 64 07        	stz	<R1+2
  9547 00:3664: 18           	clc
  9548 00:3665: A5 05        	lda	<R1
  9549 00:3667: 65 01        	adc	<R0
  9550 00:3669: 85 09        	sta	<R2
  9551 00:366B: A5 07        	lda	<R1+2
  9552 00:366D: 65 03        	adc	<R0+2
  9553 00:366F: 85 0B        	sta	<R2+2
  9554 00:3671: 18           	clc
  9555 00:3672: A5 1E        	lda	<L665+bp_0
  9556 00:3674: 65 09        	adc	<R2
  9557 00:3676: 85 1E        	sta	<L665+bp_0
  9558 00:3678: A5 20        	lda	<L665+bp_0+2
  9559 00:367A: 65 0B        	adc	<R2+2
  9560 00:367C: 85 20        	sta	<L665+bp_0+2
  9561                        L10431:
  9562 00:367E: A7 1E        	lda	[<L665+bp_0]
  9563 00:3680: 29 FF 00     	and	#$ff
  9564 00:3683: D0 03        	bne	L668
  9565 00:3685: 82 3C 01     	brl	L10432
  9566                        L668:
  9567 00:3688: E2 20        	sep	#$20
  9568                        	longa	off
  9569 00:368A: A7 1E        	lda	[<L665+bp_0]
  9570 00:368C: C9 1F        	cmp	#<$1f
  9571 00:368E: C2 20        	rep	#$20
  9572                        	longa	on
  9573 00:3690: D0 03        	bne	L670
  9574 00:3692: 82 0D 00     	brl	L669
  9575                        L670:
  9576 00:3695: E2 20        	sep	#$20
  9577                        	longa	off
  9578 00:3697: A7 1E        	lda	[<L665+bp_0]
  9579 00:3699: C9 1E        	cmp	#<$1e
  9580 00:369B: C2 20        	rep	#$20
  9581                        	longa	on
  9582 00:369D: F0 03        	beq	L671
  9583 00:369F: 82 3D 00     	brl	L10433
  Sun Jan  9 2022 20:52                                                Page 182


  9584                        L671:
  9585                        L669:
  9586                        L10434:
  9587 00:36A2: E2 20        	sep	#$20
  9588                        	longa	off
  9589 00:36A4: A7 11        	lda	[<L666+sp_1]
  9590 00:36A6: C9 1E        	cmp	#<$1e
  9591 00:36A8: C2 20        	rep	#$20
  9592                        	longa	on
  9593 00:36AA: D0 03        	bne	L672
  9594 00:36AC: 82 13 00     	brl	L10435
  9595                        L672:
  9596 00:36AF: A7 11        	lda	[<L666+sp_1]
  9597 00:36B1: 29 FF 00     	and	#$ff
  9598 00:36B4: D0 03        	bne	L673
  9599 00:36B6: 82 09 00     	brl	L10435
  9600                        L673:
  9601 00:36B9: E6 11        	inc	<L666+sp_1
  9602 00:36BB: D0 02        	bne	L674
  9603 00:36BD: E6 13        	inc	<L666+sp_1+2
  9604                        L674:
  9605 00:36BF: 82 E0 FF     	brl	L10434
  9606                        L10435:
  9607 00:36C2: A7 11        	lda	[<L666+sp_1]
  9608 00:36C4: 29 FF 00     	and	#$ff
  9609 00:36C7: F0 03        	beq	L675
  9610 00:36C9: 82 13 00     	brl	L10436
  9611                        L675:
  9612 00:36CC: F4 xx xx     	pea	#^L602
  9613 00:36CF: F4 xx xx     	pea	#<L602
  9614 00:36D2: F4 9C 07     	pea	#<$79c
  9615 00:36D5: F4 82 00     	pea	#<$82
  9616 00:36D8: F4 0A 00     	pea	#10
  9617 00:36DB: 22 xx xx xx  	jsl	~~error
  9618                        L10436:
  9619                        L10433:
  9620 00:36DF: E2 20        	sep	#$20
  9621                        	longa	off
  9622 00:36E1: A7 1E        	lda	[<L665+bp_0]
  9623 00:36E3: C9 1F        	cmp	#<$1f
  9624 00:36E5: C2 20        	rep	#$20
  9625                        	longa	on
  9626 00:36E7: F0 03        	beq	L676
  9627 00:36E9: 82 7F 00     	brl	L10437
  9628                        L676:
  9629 00:36EC: D4 20        	pei	<L665+bp_0+2
  9630 00:36EE: D4 1E        	pei	<L665+bp_0
  9631 00:36F0: 22 xx xx xx  	jsl	~~get_address
  9632 00:36F4: 85 0D        	sta	<L666+dest_1
  9633 00:36F6: 86 0F        	stx	<L666+dest_1+2
  9634 00:36F8: D4 0F        	pei	<L666+dest_1+2
  9635 00:36FA: D4 0D        	pei	<L666+dest_1
  9636 00:36FC: 22 xx xx xx  	jsl	~~get_lineno
  9637 00:3700: 85 15        	sta	<L666+line_1
  9638 00:3702: D4 15        	pei	<L666+line_1
  9639 00:3704: D4 13        	pei	<L666+sp_1+2
  9640 00:3706: D4 11        	pei	<L666+sp_1
  9641 00:3708: 22 xx xx xx  	jsl	~~set_linenum
  Sun Jan  9 2022 20:52                                                Page 183


  9642 00:370C: 18           	clc
  9643 00:370D: A9 03 00     	lda	#$3
  9644 00:3710: 65 11        	adc	<L666+sp_1
  9645 00:3712: 85 11        	sta	<L666+sp_1
  9646 00:3714: 90 02        	bcc	L677
  9647 00:3716: E6 13        	inc	<L666+sp_1+2
  9648                        L677:
  9649 00:3718: A0 05 00     	ldy	#$5
  9650 00:371B: B7 0D        	lda	[<L666+dest_1],Y
  9651 00:371D: 29 FF 00     	and	#$ff
  9652 00:3720: 85 05        	sta	<R1
  9653 00:3722: A5 05        	lda	<R1
  9654 00:3724: EB           	xba
  9655 00:3725: 29 00 FF     	and	#$ff00
  9656 00:3728: 85 01        	sta	<R0
  9657 00:372A: A0 00 00     	ldy	#$0
  9658 00:372D: A5 01        	lda	<R0
  9659 00:372F: 10 01        	bpl	L678
  9660 00:3731: 88           	dey
  9661                        L678:
  9662 00:3732: 85 01        	sta	<R0
  9663 00:3734: 84 03        	sty	<R0+2
  9664 00:3736: A0 04 00     	ldy	#$4
  9665 00:3739: B7 0D        	lda	[<L666+dest_1],Y
  9666 00:373B: 29 FF 00     	and	#$ff
  9667 00:373E: 85 05        	sta	<R1
  9668 00:3740: 64 07        	stz	<R1+2
  9669 00:3742: 18           	clc
  9670 00:3743: A5 05        	lda	<R1
  9671 00:3745: 65 01        	adc	<R0
  9672 00:3747: 85 09        	sta	<R2
  9673 00:3749: A5 07        	lda	<R1+2
  9674 00:374B: 65 03        	adc	<R0+2
  9675 00:374D: 85 0B        	sta	<R2+2
  9676 00:374F: 18           	clc
  9677 00:3750: A5 0D        	lda	<L666+dest_1
  9678 00:3752: 65 09        	adc	<R2
  9679 00:3754: 85 01        	sta	<R0
  9680 00:3756: A5 0F        	lda	<L666+dest_1+2
  9681 00:3758: 65 0B        	adc	<R2+2
  9682 00:375A: 85 03        	sta	<R0+2
  9683 00:375C: D4 03        	pei	<R0+2
  9684 00:375E: D4 01        	pei	<R0
  9685 00:3760: D4 20        	pei	<L665+bp_0+2
  9686 00:3762: D4 1E        	pei	<L665+bp_0
  9687 00:3764: 22 xx xx xx  	jsl	~~set_address
  9688 00:3768: 82 4A 00     	brl	L10438
  9689                        L10437:
  9690 00:376B: E2 20        	sep	#$20
  9691                        	longa	off
  9692 00:376D: A7 1E        	lda	[<L665+bp_0]
  9693 00:376F: C9 1E        	cmp	#<$1e
  9694 00:3771: C2 20        	rep	#$20
  9695                        	longa	on
  9696 00:3773: F0 03        	beq	L679
  9697 00:3775: 82 3D 00     	brl	L10439
  9698                        L679:
  9699             0000000A   savedcurr_2	set	10
  Sun Jan  9 2022 20:52                                                Page 184


  9700 00:3778: AD xx xx     	lda	|~~basicvars+62
  9701 00:377B: 85 17        	sta	<L666+savedcurr_2
  9702 00:377D: AD xx xx     	lda	|~~basicvars+62+2
  9703 00:3780: 85 19        	sta	<L666+savedcurr_2+2
  9704 00:3782: A5 1E        	lda	<L665+bp_0
  9705 00:3784: 8D xx xx     	sta	|~~basicvars+62
  9706 00:3787: A5 20        	lda	<L665+bp_0+2
  9707 00:3789: 8D xx xx     	sta	|~~basicvars+62+2
  9708 00:378C: D4 20        	pei	<L665+bp_0+2
  9709 00:378E: D4 1E        	pei	<L665+bp_0
  9710 00:3790: 22 xx xx xx  	jsl	~~get_linenum
  9711 00:3794: 48           	pha
  9712 00:3795: F4 86 00     	pea	#<$86
  9713 00:3798: F4 06 00     	pea	#6
  9714 00:379B: 22 xx xx xx  	jsl	~~error
  9715 00:379F: A5 17        	lda	<L666+savedcurr_2
  9716 00:37A1: 8D xx xx     	sta	|~~basicvars+62
  9717 00:37A4: A5 19        	lda	<L666+savedcurr_2+2
  9718 00:37A6: 8D xx xx     	sta	|~~basicvars+62+2
  9719 00:37A9: 18           	clc
  9720 00:37AA: A9 03 00     	lda	#$3
  9721 00:37AD: 65 11        	adc	<L666+sp_1
  9722 00:37AF: 85 11        	sta	<L666+sp_1
  9723 00:37B1: 90 02        	bcc	L680
  9724 00:37B3: E6 13        	inc	<L666+sp_1+2
  9725                        L680:
  9726                        L10439:
  9727                        L10438:
  9728 00:37B5: D4 20        	pei	<L665+bp_0+2
  9729 00:37B7: D4 1E        	pei	<L665+bp_0
  9730 00:37B9: 22 xx xx xx  	jsl	~~skip_token
  9731 00:37BD: 85 1E        	sta	<L665+bp_0
  9732 00:37BF: 86 20        	stx	<L665+bp_0+2
  9733 00:37C1: 82 BA FE     	brl	L10431
  9734                        L10432:
  9735                        L681:
  9736 00:37C4: A5 1C        	lda	<L665+2
  9737 00:37C6: 85 20        	sta	<L665+2+4
  9738 00:37C8: A5 1B        	lda	<L665+1
  9739 00:37CA: 85 1F        	sta	<L665+1+4
  9740 00:37CC: 2B           	pld
  9741 00:37CD: 3B           	tsc
  9742 00:37CE: 18           	clc
  9743 00:37CF: 69 1E 00     	adc	#L665+4
  9744 00:37D2: 1B           	tcs
  9745 00:37D3: 6B           	rtl
  9746             0000001A   L665	equ	26
  9747             0000000D   L666	equ	13
  9748                        	ends
  9749                        	efunc
  9750                        	data
  9751                        L602:
  9752 00:187C: 74 6F 6B 65  	db	$74,$6F,$6B,$65,$6E,$73,$00
       00:1880: 6E 73 00 
  9753 00:1883:              	ends
  9754                        	code
  9755                        	func
  9756                        ~~expand_linenum:
  Sun Jan  9 2022 20:52                                                Page 185


  9757                        	longa	on
  9758                        	longi	on
  9759 00:37D4: 3B           	tsc
  9760 00:37D5: 38           	sec
  9761 00:37D6: E9 10 00     	sbc	#L683
  9762 00:37D9: 1B           	tcs
  9763 00:37DA: 0B           	phd
  9764 00:37DB: 5B           	tcd
  9765             00000004   p_0	set	4
  9766             00000000   a_1	set	0
  9767             00000002   b_1	set	2
  9768             00000004   c_1	set	4
  9769             00000006   line_1	set	6
  9770 00:37DC: A7 14        	lda	[<L683+p_0]
  9771 00:37DE: 29 FF 00     	and	#$ff
  9772 00:37E1: 85 09        	sta	<L684+a_1
  9773 00:37E3: A0 01 00     	ldy	#$1
  9774 00:37E6: B7 14        	lda	[<L683+p_0],Y
  9775 00:37E8: 29 FF 00     	and	#$ff
  9776 00:37EB: 85 0B        	sta	<L684+b_1
  9777 00:37ED: A0 02 00     	ldy	#$2
  9778 00:37F0: B7 14        	lda	[<L683+p_0],Y
  9779 00:37F2: 29 FF 00     	and	#$ff
  9780 00:37F5: 85 0D        	sta	<L684+c_1
  9781 00:37F7: A5 09        	lda	<L684+a_1
  9782 00:37F9: 0A           	asl	A
  9783 00:37FA: 0A           	asl	A
  9784 00:37FB: 0A           	asl	A
  9785 00:37FC: 0A           	asl	A
  9786 00:37FD: 85 01        	sta	<R0
  9787 00:37FF: A5 0D        	lda	<L684+c_1
  9788 00:3801: 45 01        	eor	<R0
  9789 00:3803: 29 FF 00     	and	#<$ff
  9790 00:3806: 85 0F        	sta	<L684+line_1
  9791 00:3808: A5 0F        	lda	<L684+line_1
  9792 00:380A: EB           	xba
  9793 00:380B: 29 00 FF     	and	#$ff00
  9794 00:380E: 85 01        	sta	<R0
  9795 00:3810: A5 09        	lda	<L684+a_1
  9796 00:3812: 0A           	asl	A
  9797 00:3813: 0A           	asl	A
  9798 00:3814: 29 C0 00     	and	#<$c0
  9799 00:3817: 85 05        	sta	<R1
  9800 00:3819: A5 0B        	lda	<L684+b_1
  9801 00:381B: 45 05        	eor	<R1
  9802 00:381D: 29 FF 00     	and	#<$ff
  9803 00:3820: 85 05        	sta	<R1
  9804 00:3822: A5 05        	lda	<R1
  9805 00:3824: 05 01        	ora	<R0
  9806                        L685:
  9807 00:3826: A8           	tay
  9808 00:3827: A5 12        	lda	<L683+2
  9809 00:3829: 85 16        	sta	<L683+2+4
  9810 00:382B: A5 11        	lda	<L683+1
  9811 00:382D: 85 15        	sta	<L683+1+4
  9812 00:382F: 2B           	pld
  9813 00:3830: 3B           	tsc
  9814 00:3831: 18           	clc
  Sun Jan  9 2022 20:52                                                Page 186


  9815 00:3832: 69 14 00     	adc	#L683+4
  9816 00:3835: 1B           	tcs
  9817 00:3836: 98           	tya
  9818 00:3837: 6B           	rtl
  9819             00000010   L683	equ	16
  9820             00000009   L684	equ	9
  9821                        	ends
  9822                        	efunc
  9823                        	data
  9824                        ~~onebyte_token:
  9825 00:1883: xx xx xx xx  	dl	L682+0
  9826 00:1887: xx xx xx xx  	dl	L682+10
  9827 00:188B: xx xx xx xx  	dl	L682+14
  9828 00:188F: xx xx xx xx  	dl	L682+18
  9829 00:1893: xx xx xx xx  	dl	L682+22
  9830 00:1897: xx xx xx xx  	dl	L682+26
  9831 00:189B: xx xx xx xx  	dl	L682+29
  9832 00:189F: xx xx xx xx  	dl	L682+35
  9833 00:18A3: xx xx xx xx  	dl	L682+40
  9834 00:18A7: xx xx xx xx  	dl	L682+44
  9835 00:18AB: xx xx xx xx  	dl	L682+49
  9836 00:18AF: xx xx xx xx  	dl	L682+53
  9837 00:18B3: xx xx xx xx  	dl	L682+58
  9838 00:18B7: xx xx xx xx  	dl	L682+63
  9839 00:18BB: 00 00 00 00  	dl	$0
  9840 00:18BF: xx xx xx xx  	dl	L682+68
  9841 00:18C3: xx xx xx xx  	dl	L682+75
  9842 00:18C7: xx xx xx xx  	dl	L682+79
  9843 00:18CB: xx xx xx xx  	dl	L682+84
  9844 00:18CF: xx xx xx xx  	dl	L682+89
  9845 00:18D3: xx xx xx xx  	dl	L682+95
  9846 00:18D7: xx xx xx xx  	dl	L682+101
  9847 00:18DB: xx xx xx xx  	dl	L682+105
  9848 00:18DF: xx xx xx xx  	dl	L682+109
  9849 00:18E3: xx xx xx xx  	dl	L682+115
  9850 00:18E7: xx xx xx xx  	dl	L682+119
  9851 00:18EB: xx xx xx xx  	dl	L682+123
  9852 00:18EF: xx xx xx xx  	dl	L682+127
  9853 00:18F3: xx xx xx xx  	dl	L682+132
  9854 00:18F7: xx xx xx xx  	dl	L682+136
  9855 00:18FB: xx xx xx xx  	dl	L682+142
  9856 00:18FF: xx xx xx xx  	dl	L682+146
  9857 00:1903: xx xx xx xx  	dl	L682+150
  9858 00:1907: xx xx xx xx  	dl	L682+154
  9859 00:190B: xx xx xx xx  	dl	L682+159
  9860 00:190F: xx xx xx xx  	dl	L682+163
  9861 00:1913: xx xx xx xx  	dl	L682+167
  9862 00:1917: xx xx xx xx  	dl	L682+173
  9863 00:191B: xx xx xx xx  	dl	L682+176
  9864 00:191F: xx xx xx xx  	dl	L682+180
  9865 00:1923: xx xx xx xx  	dl	L682+186
  9866 00:1927: xx xx xx xx  	dl	L682+193
  9867 00:192B: xx xx xx xx  	dl	L682+197
  9868 00:192F: xx xx xx xx  	dl	L682+201
  9869 00:1933: xx xx xx xx  	dl	L682+204
  9870 00:1937: xx xx xx xx  	dl	L682+208
  9871 00:193B: xx xx xx xx  	dl	L682+212
  9872 00:193F: xx xx xx xx  	dl	L682+219
  Sun Jan  9 2022 20:52                                                Page 187


  9873 00:1943: xx xx xx xx  	dl	L682+227
  9874 00:1947: xx xx xx xx  	dl	L682+230
  9875 00:194B: xx xx xx xx  	dl	L682+237
  9876 00:194F: xx xx xx xx  	dl	L682+241
  9877 00:1953: xx xx xx xx  	dl	L682+245
  9878 00:1957: xx xx xx xx  	dl	L682+249
  9879 00:195B: xx xx xx xx  	dl	L682+253
  9880 00:195F: xx xx xx xx  	dl	L682+257
  9881 00:1963: xx xx xx xx  	dl	L682+261
  9882 00:1967: xx xx xx xx  	dl	L682+265
  9883 00:196B: xx xx xx xx  	dl	L682+268
  9884 00:196F: xx xx xx xx  	dl	L682+273
  9885 00:1973: xx xx xx xx  	dl	L682+277
  9886 00:1977: xx xx xx xx  	dl	L682+281
  9887 00:197B: xx xx xx xx  	dl	L682+286
  9888 00:197F: xx xx xx xx  	dl	L682+291
  9889 00:1983: xx xx xx xx  	dl	L682+296
  9890 00:1987: xx xx xx xx  	dl	L682+303
  9891 00:198B: xx xx xx xx  	dl	L682+310
  9892 00:198F: xx xx xx xx  	dl	L682+316
  9893 00:1993: xx xx xx xx  	dl	L682+324
  9894 00:1997: xx xx xx xx  	dl	L682+329
  9895 00:199B: xx xx xx xx  	dl	L682+338
  9896 00:199F: 00 00 00 00  	dl	$0,$0,$0
       00:19A3: 00 00 00 00 
       00:19A7: 00 00 00 00 
  9897 00:19AB: xx xx xx xx  	dl	L682+342
  9898 00:19AF: xx xx xx xx  	dl	L682+347
  9899 00:19B3: xx xx xx xx  	dl	L682+350
  9900 00:19B7: xx xx xx xx  	dl	L682+358
  9901 00:19BB: xx xx xx xx  	dl	L682+363
  9902 00:19BF: xx xx xx xx  	dl	L682+369
  9903 00:19C3: xx xx xx xx  	dl	L682+378
  9904 00:19C7: xx xx xx xx  	dl	L682+382
  9905 00:19CB: xx xx xx xx  	dl	L682+387
  9906 00:19CF: xx xx xx xx  	dl	L682+392
  9907 00:19D3: xx xx xx xx  	dl	L682+398
  9908 00:19D7: xx xx xx xx  	dl	L682+404
  9909 00:19DB: xx xx xx xx  	dl	L682+410
  9910 00:19DF: xx xx xx xx  	dl	L682+415
  9911 00:19E3: xx xx xx xx  	dl	L682+420
  9912 00:19E7: xx xx xx xx  	dl	L682+426
  9913 00:19EB: xx xx xx xx  	dl	L682+432
  9914 00:19EF: xx xx xx xx  	dl	L682+438
  9915 00:19F3: xx xx xx xx  	dl	L682+442
  9916 00:19F7: xx xx xx xx  	dl	L682+446
  9917 00:19FB: xx xx xx xx  	dl	L682+451
  9918 00:19FF: xx xx xx xx  	dl	L682+455
  9919 00:1A03: xx xx xx xx  	dl	L682+459
  9920 00:1A07: xx xx xx xx  	dl	L682+464
  9921 00:1A0B: xx xx xx xx  	dl	L682+468
  9922 00:1A0F: xx xx xx xx  	dl	L682+476
  9923 00:1A13: xx xx xx xx  	dl	L682+485
  9924 00:1A17: xx xx xx xx  	dl	L682+489
  9925 00:1A1B: xx xx xx xx  	dl	L682+495
  9926 00:1A1F: xx xx xx xx  	dl	L682+500
  9927 00:1A23: xx xx xx xx  	dl	L682+505
  9928 00:1A27: xx xx xx xx  	dl	L682+508
  Sun Jan  9 2022 20:52                                                Page 188


  9929 00:1A2B: xx xx xx xx  	dl	L682+514
  9930 00:1A2F: xx xx xx xx  	dl	L682+518
  9931 00:1A33: xx xx xx xx  	dl	L682+524
  9932 00:1A37: xx xx xx xx  	dl	L682+529
  9933 00:1A3B: xx xx xx xx  	dl	L682+534
  9934 00:1A3F: xx xx xx xx  	dl	L682+539
  9935 00:1A43: xx xx xx xx  	dl	L682+542
  9936 00:1A47: xx xx xx xx  	dl	L682+546
  9937 00:1A4B: xx xx xx xx  	dl	L682+551
  9938 00:1A4F: xx xx xx xx  	dl	L682+557
  9939 00:1A53: xx xx xx xx  	dl	L682+562
  9940 00:1A57: xx xx xx xx  	dl	L682+567
  9941 00:1A5B: xx xx xx xx  	dl	L682+571
  9942 00:1A5F: xx xx xx xx  	dl	L682+578
  9943 00:1A63: xx xx xx xx  	dl	L682+585
  9944 00:1A67: xx xx xx xx  	dl	L682+593
  9945 00:1A6B: xx xx xx xx  	dl	L682+600
  9946 00:1A6F: xx xx xx xx  	dl	L682+604
  9947 00:1A73: xx xx xx xx  	dl	L682+609
  9948 00:1A77: xx xx xx xx  	dl	L682+616
  9949 00:1A7B: xx xx xx xx  	dl	L682+622
  9950 00:1A7F: xx xx xx xx  	dl	L682+628
  9951 00:1A83: xx xx xx xx  	dl	L682+634
  9952 00:1A87:              	ends
  9953                        	data
  9954                        L682:
  9955 00:1A87: 4F 54 48 45  	db	$4F,$54,$48,$45,$52,$57,$49,$53,$45,$00,
                    $41,$4E,$44,$00,$44
       00:1A8B: 52 57 49 53 
       00:1A8F: 45 00 41 4E 
       00:1A93: 44 00 44 
  9956 00:1A96: 49 56 00 45  	db	$49,$56,$00,$45,$4F,$52,$00,$4D,$4F,$44,
                    $00,$4F,$52,$00,$45
       00:1A9A: 4F 52 00 4D 
       00:1A9E: 4F 44 00 4F 
       00:1AA2: 52 00 45 
  9957 00:1AA5: 52 52 4F 52  	db	$52,$52,$4F,$52,$00,$4C,$49,$4E,$45,$00,
                    $4F,$46,$46,$00,$53
       00:1AA9: 00 4C 49 4E 
       00:1AAD: 45 00 4F 46 
       00:1AB1: 46 00 53 
  9958 00:1AB4: 54 45 50 00  	db	$54,$45,$50,$00,$53,$50,$43,$00,$54,$41,
                    $42,$28,$00,$45,$4C
       00:1AB8: 53 50 43 00 
       00:1ABC: 54 41 42 28 
       00:1AC0: 00 45 4C 
  9959 00:1AC3: 53 45 00 54  	db	$53,$45,$00,$54,$48,$45,$4E,$00,$4F,$50,
                    $45,$4E,$49,$4E,$00
       00:1AC7: 48 45 4E 00 
       00:1ACB: 4F 50 45 4E 
       00:1ACF: 49 4E 00 
  9960 00:1AD2: 50 54 52 00  	db	$50,$54,$52,$00,$50,$41,$47,$45,$00,$54,
                    $49,$4D,$45,$00,$4C
       00:1AD6: 50 41 47 45 
       00:1ADA: 00 54 49 4D 
       00:1ADE: 45 00 4C 
  9961 00:1AE1: 4F 4D 45 4D  	db	$4F,$4D,$45,$4D,$00,$48,$49,$4D,$45,$4D,
                    $00,$41,$42,$53,$00
  Sun Jan  9 2022 20:52                                                Page 189


       00:1AE5: 00 48 49 4D 
       00:1AE9: 45 4D 00 41 
       00:1AED: 42 53 00 
  9962 00:1AF0: 41 43 53 00  	db	$41,$43,$53,$00,$41,$44,$56,$41,$4C,$00,
                    $41,$53,$43,$00,$41
       00:1AF4: 41 44 56 41 
       00:1AF8: 4C 00 41 53 
       00:1AFC: 43 00 41 
  9963 00:1AFF: 53 4E 00 41  	db	$53,$4E,$00,$41,$54,$4E,$00,$42,$47,$45,
                    $54,$00,$43,$4F,$53
       00:1B03: 54 4E 00 42 
       00:1B07: 47 45 54 00 
       00:1B0B: 43 4F 53 
  9964 00:1B0E: 00 43 4F 55  	db	$00,$43,$4F,$55,$4E,$54,$00,$44,$45,$47,
                    $00,$45,$52,$4C,$00
       00:1B12: 4E 54 00 44 
       00:1B16: 45 47 00 45 
       00:1B1A: 52 4C 00 
  9965 00:1B1D: 45 52 52 00  	db	$45,$52,$52,$00,$45,$56,$41,$4C,$00,$45,
                    $58,$50,$00,$45,$58
       00:1B21: 45 56 41 4C 
       00:1B25: 00 45 58 50 
       00:1B29: 00 45 58 
  9966 00:1B2C: 54 00 46 41  	db	$54,$00,$46,$41,$4C,$53,$45,$00,$46,$4E,
                    $00,$47,$45,$54,$00
       00:1B30: 4C 53 45 00 
       00:1B34: 46 4E 00 47 
       00:1B38: 45 54 00 
  9967 00:1B3B: 49 4E 4B 45  	db	$49,$4E,$4B,$45,$59,$00,$49,$4E,$53,$54,
                    $52,$28,$00,$49,$4E
       00:1B3F: 59 00 49 4E 
       00:1B43: 53 54 52 28 
       00:1B47: 00 49 4E 
  9968 00:1B4A: 54 00 4C 45  	db	$54,$00,$4C,$45,$4E,$00,$4C,$4E,$00,$4C,
                    $4F,$47,$00,$4E,$4F
       00:1B4E: 4E 00 4C 4E 
       00:1B52: 00 4C 4F 47 
       00:1B56: 00 4E 4F 
  9969 00:1B59: 54 00 4F 50  	db	$54,$00,$4F,$50,$45,$4E,$55,$50,$00,$4F,
                    $50,$45,$4E,$4F,$55
       00:1B5D: 45 4E 55 50 
       00:1B61: 00 4F 50 45 
       00:1B65: 4E 4F 55 
  9970 00:1B68: 54 00 50 49  	db	$54,$00,$50,$49,$00,$50,$4F,$49,$4E,$54,
                    $28,$00,$50,$4F,$53
       00:1B6C: 00 50 4F 49 
       00:1B70: 4E 54 28 00 
       00:1B74: 50 4F 53 
  9971 00:1B77: 00 52 41 44  	db	$00,$52,$41,$44,$00,$52,$4E,$44,$00,$53,
                    $47,$4E,$00,$53,$49
       00:1B7B: 00 52 4E 44 
       00:1B7F: 00 53 47 4E 
       00:1B83: 00 53 49 
  9972 00:1B86: 4E 00 53 51  	db	$4E,$00,$53,$51,$52,$00,$54,$41,$4E,$00,
                    $54,$4F,$00,$54,$52
       00:1B8A: 52 00 54 41 
       00:1B8E: 4E 00 54 4F 
       00:1B92: 00 54 52 
  Sun Jan  9 2022 20:52                                                Page 190


  9973 00:1B95: 55 45 00 55  	db	$55,$45,$00,$55,$53,$52,$00,$56,$41,$4C,
                    $00,$56,$50,$4F,$53
       00:1B99: 53 52 00 56 
       00:1B9D: 41 4C 00 56 
       00:1BA1: 50 4F 53 
  9974 00:1BA4: 00 43 48 52  	db	$00,$43,$48,$52,$24,$00,$47,$45,$54,$24,
                    $00,$49,$4E,$4B,$45
       00:1BA8: 24 00 47 45 
       00:1BAC: 54 24 00 49 
       00:1BB0: 4E 4B 45 
  9975 00:1BB3: 59 24 00 4C  	db	$59,$24,$00,$4C,$45,$46,$54,$24,$28,$00,
                    $4D,$49,$44,$24,$28
       00:1BB7: 45 46 54 24 
       00:1BBB: 28 00 4D 49 
       00:1BBF: 44 24 28 
  9976 00:1BC2: 00 52 49 47  	db	$00,$52,$49,$47,$48,$54,$24,$28,$00,$53,
                    $54,$52,$24,$00,$53
       00:1BC6: 48 54 24 28 
       00:1BCA: 00 53 54 52 
       00:1BCE: 24 00 53 
  9977 00:1BD1: 54 52 49 4E  	db	$54,$52,$49,$4E,$47,$24,$28,$00,$45,$4F,
                    $46,$00,$57,$48,$45
       00:1BD5: 47 24 28 00 
       00:1BD9: 45 4F 46 00 
       00:1BDD: 57 48 45 
  9978 00:1BE0: 4E 00 4F 46  	db	$4E,$00,$4F,$46,$00,$45,$4E,$44,$43,$41,
                    $53,$45,$00,$45,$4C
       00:1BE4: 00 45 4E 44 
       00:1BE8: 43 41 53 45 
       00:1BEC: 00 45 4C 
  9979 00:1BEF: 53 45 00 45  	db	$53,$45,$00,$45,$4E,$44,$49,$46,$00,$45,
                    $4E,$44,$57,$48,$49
       00:1BF3: 4E 44 49 46 
       00:1BF7: 00 45 4E 44 
       00:1BFB: 57 48 49 
  9980 00:1BFE: 4C 45 00 50  	db	$4C,$45,$00,$50,$54,$52,$00,$50,$41,$47,
                    $45,$00,$54,$49,$4D
       00:1C02: 54 52 00 50 
       00:1C06: 41 47 45 00 
       00:1C0A: 54 49 4D 
  9981 00:1C0D: 45 00 4C 4F  	db	$45,$00,$4C,$4F,$4D,$45,$4D,$00,$48,$49,
                    $4D,$45,$4D,$00,$53
       00:1C11: 4D 45 4D 00 
       00:1C15: 48 49 4D 45 
       00:1C19: 4D 00 53 
  9982 00:1C1C: 4F 55 4E 44  	db	$4F,$55,$4E,$44,$00,$42,$50,$55,$54,$00,
                    $43,$41,$4C,$4C,$00
       00:1C20: 00 42 50 55 
       00:1C24: 54 00 43 41 
       00:1C28: 4C 4C 00 
  9983 00:1C2B: 43 48 41 49  	db	$43,$48,$41,$49,$4E,$00,$43,$4C,$45,$41,
                    $52,$00,$43,$4C,$4F
       00:1C2F: 4E 00 43 4C 
       00:1C33: 45 41 52 00 
       00:1C37: 43 4C 4F 
  9984 00:1C3A: 53 45 00 43  	db	$53,$45,$00,$43,$4C,$47,$00,$43,$4C,$53,
                    $00,$44,$41,$54,$41
       00:1C3E: 4C 47 00 43 
  Sun Jan  9 2022 20:52                                                Page 191


       00:1C42: 4C 53 00 44 
       00:1C46: 41 54 41 
  9985 00:1C49: 00 44 45 46  	db	$00,$44,$45,$46,$00,$44,$49,$4D,$00,$44,
                    $52,$41,$57,$00,$45
       00:1C4D: 00 44 49 4D 
       00:1C51: 00 44 52 41 
       00:1C55: 57 00 45 
  9986 00:1C58: 4E 44 00 45  	db	$4E,$44,$00,$45,$4E,$44,$50,$52,$4F,$43,
                    $00,$45,$4E,$56,$45
       00:1C5C: 4E 44 50 52 
       00:1C60: 4F 43 00 45 
       00:1C64: 4E 56 45 
  9987 00:1C67: 4C 4F 50 45  	db	$4C,$4F,$50,$45,$00,$46,$4F,$52,$00,$47,
                    $4F,$53,$55,$42,$00
       00:1C6B: 00 46 4F 52 
       00:1C6F: 00 47 4F 53 
       00:1C73: 55 42 00 
  9988 00:1C76: 47 4F 54 4F  	db	$47,$4F,$54,$4F,$00,$47,$43,$4F,$4C,$00,
                    $49,$46,$00,$49,$4E
       00:1C7A: 00 47 43 4F 
       00:1C7E: 4C 00 49 46 
       00:1C82: 00 49 4E 
  9989 00:1C85: 50 55 54 00  	db	$50,$55,$54,$00,$4C,$45,$54,$00,$4C,$4F,
                    $43,$41,$4C,$00,$4D
       00:1C89: 4C 45 54 00 
       00:1C8D: 4C 4F 43 41 
       00:1C91: 4C 00 4D 
  9990 00:1C94: 4F 44 45 00  	db	$4F,$44,$45,$00,$4D,$4F,$56,$45,$00,$4E,
                    $45,$58,$54,$00,$4F
       00:1C98: 4D 4F 56 45 
       00:1C9C: 00 4E 45 58 
       00:1CA0: 54 00 4F 
  9991 00:1CA3: 4E 00 56 44  	db	$4E,$00,$56,$44,$55,$00,$50,$4C,$4F,$54,
                    $00,$50,$52,$49,$4E
       00:1CA7: 55 00 50 4C 
       00:1CAB: 4F 54 00 50 
       00:1CAF: 52 49 4E 
  9992 00:1CB2: 54 00 50 52  	db	$54,$00,$50,$52,$4F,$43,$00,$52,$45,$41,
                    $44,$00,$52,$45,$4D
       00:1CB6: 4F 43 00 52 
       00:1CBA: 45 41 44 00 
       00:1CBE: 52 45 4D 
  9993 00:1CC1: 00 52 45 50  	db	$00,$52,$45,$50,$45,$41,$54,$00,$52,$45,
                    $50,$4F,$52,$54,$00
       00:1CC5: 45 41 54 00 
       00:1CC9: 52 45 50 4F 
       00:1CCD: 52 54 00 
  9994 00:1CD0: 52 45 53 54  	db	$52,$45,$53,$54,$4F,$52,$45,$00,$52,$45,
                    $54,$55,$52,$4E,$00
       00:1CD4: 4F 52 45 00 
       00:1CD8: 52 45 54 55 
       00:1CDC: 52 4E 00 
  9995 00:1CDF: 52 55 4E 00  	db	$52,$55,$4E,$00,$53,$54,$4F,$50,$00,$43,
                    $4F,$4C,$4F,$55,$52
       00:1CE3: 53 54 4F 50 
       00:1CE7: 00 43 4F 4C 
       00:1CEB: 4F 55 52 
  9996 00:1CEE: 00 54 52 41  	db	$00,$54,$52,$41,$43,$45,$00,$55,$4E,$54,
  Sun Jan  9 2022 20:52                                                Page 192


                    $49,$4C,$00,$57,$49
       00:1CF2: 43 45 00 55 
       00:1CF6: 4E 54 49 4C 
       00:1CFA: 00 57 49 
  9997 00:1CFD: 44 54 48 00  	db	$44,$54,$48,$00,$4F,$53,$43,$4C,$49,$00
       00:1D01: 4F 53 43 4C 
       00:1D05: 49 00 
  9998 00:1D07:              	ends
  9999                        	data
 10000                        ~~twobyte_token:
 10001 00:1D07: xx xx xx xx  	dl	L686+0
 10002 00:1D0B: xx xx xx xx  	dl	L686+5
 10003 00:1D0F: xx xx xx xx  	dl	L686+12
 10004 00:1D13: xx xx xx xx  	dl	L686+17
 10005 00:1D17: xx xx xx xx  	dl	L686+24
 10006 00:1D1B: xx xx xx xx  	dl	L686+30
 10007 00:1D1F: xx xx xx xx  	dl	L686+40
 10008 00:1D23: xx xx xx xx  	dl	L686+45
 10009 00:1D27: xx xx xx xx  	dl	L686+51
 10010 00:1D2B: xx xx xx xx  	dl	L686+56
 10011 00:1D2F: xx xx xx xx  	dl	L686+62
 10012 00:1D33: xx xx xx xx  	dl	L686+67
 10013 00:1D37: xx xx xx xx  	dl	L686+71
 10014 00:1D3B: xx xx xx xx  	dl	L686+79
 10015 00:1D3F: xx xx xx xx  	dl	L686+87
 10016 00:1D43: xx xx xx xx  	dl	L686+92
 10017 00:1D47: xx xx xx xx  	dl	L686+100
 10018 00:1D4B: xx xx xx xx  	dl	L686+106
 10019 00:1D4F: xx xx xx xx  	dl	L686+112
 10020 00:1D53: xx xx xx xx  	dl	L686+119
 10021 00:1D57: xx xx xx xx  	dl	L686+125
 10022 00:1D5B: xx xx xx xx  	dl	L686+132
 10023 00:1D5F:              	ends
 10024                        	data
 10025                        L686:
 10026 00:1D5F: 43 41 53 45  	db	$43,$41,$53,$45,$00,$43,$49,$52,$43,$4C,
                    $45,$00,$46,$49,$4C
       00:1D63: 00 43 49 52 
       00:1D67: 43 4C 45 00 
       00:1D6B: 46 49 4C 
 10027 00:1D6E: 4C 00 4F 52  	db	$4C,$00,$4F,$52,$49,$47,$49,$4E,$00,$50,
                    $4F,$49,$4E,$54,$00
       00:1D72: 49 47 49 4E 
       00:1D76: 00 50 4F 49 
       00:1D7A: 4E 54 00 
 10028 00:1D7D: 52 45 43 54  	db	$52,$45,$43,$54,$41,$4E,$47,$4C,$45,$00,
                    $53,$57,$41,$50,$00
       00:1D81: 41 4E 47 4C 
       00:1D85: 45 00 53 57 
       00:1D89: 41 50 00 
 10029 00:1D8C: 57 48 49 4C  	db	$57,$48,$49,$4C,$45,$00,$57,$41,$49,$54,
                    $00,$4D,$4F,$55,$53
       00:1D90: 45 00 57 41 
       00:1D94: 49 54 00 4D 
       00:1D98: 4F 55 53 
 10030 00:1D9B: 45 00 51 55  	db	$45,$00,$51,$55,$49,$54,$00,$53,$59,$53,
                    $00,$49,$4E,$53,$54
       00:1D9F: 49 54 00 53 
  Sun Jan  9 2022 20:52                                                Page 193


       00:1DA3: 59 53 00 49 
       00:1DA7: 4E 53 54 
 10031 00:1DAA: 41 4C 4C 00  	db	$41,$4C,$4C,$00,$4C,$49,$42,$52,$41,$52,
                    $59,$00,$54,$49,$4E
       00:1DAE: 4C 49 42 52 
       00:1DB2: 41 52 59 00 
       00:1DB6: 54 49 4E 
 10032 00:1DB9: 54 00 45 4C  	db	$54,$00,$45,$4C,$4C,$49,$50,$53,$45,$00,
                    $42,$45,$41,$54,$53
       00:1DBD: 4C 49 50 53 
       00:1DC1: 45 00 42 45 
       00:1DC5: 41 54 53 
 10033 00:1DC8: 00 54 45 4D  	db	$00,$54,$45,$4D,$50,$4F,$00,$56,$4F,$49,
                    $43,$45,$53,$00,$56
       00:1DCC: 50 4F 00 56 
       00:1DD0: 4F 49 43 45 
       00:1DD4: 53 00 56 
 10034 00:1DD7: 4F 49 43 45  	db	$4F,$49,$43,$45,$00,$53,$54,$45,$52,$45,
                    $4F,$00,$4F,$56,$45
       00:1DDB: 00 53 54 45 
       00:1DDF: 52 45 4F 00 
       00:1DE3: 4F 56 45 
 10035 00:1DE6: 52 4C 41 59  	db	$52,$4C,$41,$59,$00
       00:1DEA: 00 
 10036 00:1DEB:              	ends
 10037                        	data
 10038                        ~~command_token:
 10039 00:1DEB: xx xx xx xx  	dl	L687+0
 10040 00:1DEF: xx xx xx xx  	dl	L687+7
 10041 00:1DF3: xx xx xx xx  	dl	L687+12
 10042 00:1DF7: xx xx xx xx  	dl	L687+19
 10043 00:1DFB: xx xx xx xx  	dl	L687+26
 10044 00:1DFF: xx xx xx xx  	dl	L687+31
 10045 00:1E03: xx xx xx xx  	dl	L687+36
 10046 00:1E07: xx xx xx xx  	dl	L687+41
 10047 00:1E0B: xx xx xx xx  	dl	L687+46
 10048 00:1E0F: xx xx xx xx  	dl	L687+51
 10049 00:1E13: xx xx xx xx  	dl	L687+55
 10050 00:1E17: xx xx xx xx  	dl	L687+59
 10051 00:1E1B: xx xx xx xx  	dl	L687+68
 10052 00:1E1F: xx xx xx xx  	dl	L687+73
 10053 00:1E23: xx xx xx xx  	dl	L687+82
 10054 00:1E27: xx xx xx xx  	dl	L687+91
 10055 00:1E2B: xx xx xx xx  	dl	L687+96
 10056 00:1E2F: xx xx xx xx  	dl	L687+102
 10057 00:1E33:              	ends
 10058                        	data
 10059                        L687:
 10060 00:1E33: 41 50 50 45  	db	$41,$50,$50,$45,$4E,$44,$00,$41,$55,$54,
                    $4F,$00,$43,$52,$55
       00:1E37: 4E 44 00 41 
       00:1E3B: 55 54 4F 00 
       00:1E3F: 43 52 55 
 10061 00:1E42: 4E 43 48 00  	db	$4E,$43,$48,$00,$44,$45,$4C,$45,$54,$45,
                    $00,$45,$44,$49,$54
       00:1E46: 44 45 4C 45 
       00:1E4A: 54 45 00 45 
       00:1E4E: 44 49 54 
  Sun Jan  9 2022 20:52                                                Page 194


 10062 00:1E51: 00 48 45 4C  	db	$00,$48,$45,$4C,$50,$00,$4C,$49,$53,$54,
                    $00,$4C,$4F,$41,$44
       00:1E55: 50 00 4C 49 
       00:1E59: 53 54 00 4C 
       00:1E5D: 4F 41 44 
 10063 00:1E60: 00 4C 56 41  	db	$00,$4C,$56,$41,$52,$00,$4E,$45,$57,$00,
                    $4F,$4C,$44,$00,$52
       00:1E64: 52 00 4E 45 
       00:1E68: 57 00 4F 4C 
       00:1E6C: 44 00 52 
 10064 00:1E6F: 45 4E 55 4D  	db	$45,$4E,$55,$4D,$42,$45,$52,$00,$53,$41,
                    $56,$45,$00,$54,$45
       00:1E73: 42 45 52 00 
       00:1E77: 53 41 56 45 
       00:1E7B: 00 54 45 
 10065 00:1E7E: 58 54 4C 4F  	db	$58,$54,$4C,$4F,$41,$44,$00,$54,$45,$58,
                    $54,$53,$41,$56,$45
       00:1E82: 41 44 00 54 
       00:1E86: 45 58 54 53 
       00:1E8A: 41 56 45 
 10066 00:1E8D: 00 54 57 49  	db	$00,$54,$57,$49,$4E,$00,$54,$57,$49,$4E,
                    $4F,$00,$49,$4E,$53
       00:1E91: 4E 00 54 57 
       00:1E95: 49 4E 4F 00 
       00:1E99: 49 4E 53 
 10067 00:1E9C: 54 41 4C 4C  	db	$54,$41,$4C,$4C,$00
       00:1EA0: 00 
 10068 00:1EA1:              	ends
 10069                        	data
 10070                        ~~other_token:
 10071 00:1EA1: xx xx xx xx  	dl	L688+0
 10072 00:1EA5: xx xx xx xx  	dl	L688+4
 10073 00:1EA9:              	ends
 10074                        	data
 10075                        L688:
 10076 00:1EA9: 53 55 4D 00  	db	$53,$55,$4D,$00,$42,$45,$41,$54,$00
       00:1EAD: 42 45 41 54 
       00:1EB1: 00 
 10077 00:1EB2:              	ends
 10078                        	data
 10079                        ~~nospace:
 10080 00:1EB2: A4 F2 B8 91  	db	$A4,$F2,$B8,$91,$D1,$8A,$A7,$B0,$C0,$C1
       00:1EB6: D1 8A A7 B0 
       00:1EBA: C0 C1 
 10081 00:1EBC: C2 C4 00     	db	$C2,$C4,$0
 10082 00:1EBF:              	ends
 10083                        	code
 10084                        	xdef	~~reformat
 10085                        	func
 10086                        ~~reformat:
 10087                        	longa	on
 10088                        	longi	on
 10089 00:3838: 3B           	tsc
 10090 00:3839: 38           	sec
 10091 00:383A: E9 1D 00     	sbc	#L690
 10092 00:383D: 1B           	tcs
 10093 00:383E: 0B           	phd
 10094 00:383F: 5B           	tcd
  Sun Jan  9 2022 20:52                                                Page 195


 10095             00000004   tp_0	set	4
 10096             00000008   tokenbuf_0	set	8
 10097             00000000   count_1	set	0
 10098             00000002   cp_1	set	2
 10099             00000006   p_1	set	6
 10100             0000000A   token_1	set	10
 10101             0000000B   line_1	set	11
 10102 00:3840: F4 00 00     	pea	#^$400
 10103 00:3843: F4 00 04     	pea	#<$400
 10104 00:3846: 22 xx xx xx  	jsl	~~malloc
 10105 00:384A: 85 18        	sta	<L691+line_1
 10106 00:384C: 86 1A        	stx	<L691+line_1+2
 10107 00:384E: A5 18        	lda	<L691+line_1
 10108 00:3850: 85 0F        	sta	<L691+cp_1
 10109 00:3852: A5 1A        	lda	<L691+line_1+2
 10110 00:3854: 85 11        	sta	<L691+cp_1+2
 10111 00:3856: A0 01 00     	ldy	#$1
 10112 00:3859: B7 21        	lda	[<L690+tp_0],Y
 10113 00:385B: 29 FF 00     	and	#$ff
 10114 00:385E: 85 01        	sta	<R0
 10115 00:3860: A7 21        	lda	[<L690+tp_0]
 10116 00:3862: 29 FF 00     	and	#$ff
 10117 00:3865: 85 09        	sta	<R2
 10118 00:3867: A5 09        	lda	<R2
 10119 00:3869: EB           	xba
 10120 00:386A: 29 00 FF     	and	#$ff00
 10121 00:386D: 85 05        	sta	<R1
 10122 00:386F: 18           	clc
 10123 00:3870: A5 05        	lda	<R1
 10124 00:3872: 65 01        	adc	<R0
 10125 00:3874: 48           	pha
 10126 00:3875: F4 xx xx     	pea	#^L689
 10127 00:3878: F4 xx xx     	pea	#<L689
 10128 00:387B: D4 11        	pei	<L691+cp_1+2
 10129 00:387D: D4 0F        	pei	<L691+cp_1
 10130 00:387F: F4 0C 00     	pea	#12
 10131 00:3882: 22 xx xx xx  	jsl	~~sprintf
 10132 00:3886: 85 0D        	sta	<L691+count_1
 10133 00:3888: A0 00 00     	ldy	#$0
 10134 00:388B: A5 0D        	lda	<L691+count_1
 10135 00:388D: 10 01        	bpl	L692
 10136 00:388F: 88           	dey
 10137                        L692:
 10138 00:3890: 85 01        	sta	<R0
 10139 00:3892: 84 03        	sty	<R0+2
 10140 00:3894: 18           	clc
 10141 00:3895: A5 0F        	lda	<L691+cp_1
 10142 00:3897: 65 01        	adc	<R0
 10143 00:3899: 85 0F        	sta	<L691+cp_1
 10144 00:389B: A5 11        	lda	<L691+cp_1+2
 10145 00:389D: 65 03        	adc	<R0+2
 10146 00:389F: 85 11        	sta	<L691+cp_1+2
 10147 00:38A1: 18           	clc
 10148 00:38A2: A9 03 00     	lda	#$3
 10149 00:38A5: 65 21        	adc	<L690+tp_0
 10150 00:38A7: 85 21        	sta	<L690+tp_0
 10151 00:38A9: 90 02        	bcc	L693
 10152 00:38AB: E6 23        	inc	<L690+tp_0+2
  Sun Jan  9 2022 20:52                                                Page 196


 10153                        L693:
 10154 00:38AD: E2 20        	sep	#$20
 10155                        	longa	off
 10156 00:38AF: A7 21        	lda	[<L690+tp_0]
 10157 00:38B1: 85 17        	sta	<L691+token_1
 10158 00:38B3: C2 20        	rep	#$20
 10159                        	longa	on
 10160                        L10440:
 10161 00:38B5: E2 20        	sep	#$20
 10162                        	longa	off
 10163 00:38B7: A5 17        	lda	<L691+token_1
 10164 00:38B9: C9 0D        	cmp	#<$d
 10165 00:38BB: C2 20        	rep	#$20
 10166                        	longa	on
 10167 00:38BD: D0 03        	bne	L694
 10168 00:38BF: 82 95 03     	brl	L10441
 10169                        L694:
 10170 00:38C2: E2 20        	sep	#$20
 10171                        	longa	off
 10172 00:38C4: A5 17        	lda	<L691+token_1
 10173 00:38C6: C9 7F        	cmp	#<$7f
 10174 00:38C8: C2 20        	rep	#$20
 10175                        	longa	on
 10176 00:38CA: 90 03        	bcc	L695
 10177 00:38CC: 82 5A 00     	brl	L10442
 10178                        L695:
 10179 00:38CF: E2 20        	sep	#$20
 10180                        	longa	off
 10181 00:38D1: A5 17        	lda	<L691+token_1
 10182 00:38D3: 87 0F        	sta	[<L691+cp_1]
 10183 00:38D5: C2 20        	rep	#$20
 10184                        	longa	on
 10185 00:38D7: E6 0F        	inc	<L691+cp_1
 10186 00:38D9: D0 02        	bne	L696
 10187 00:38DB: E6 11        	inc	<L691+cp_1+2
 10188                        L696:
 10189 00:38DD: E6 21        	inc	<L690+tp_0
 10190 00:38DF: D0 02        	bne	L697
 10191 00:38E1: E6 23        	inc	<L690+tp_0+2
 10192                        L697:
 10193 00:38E3: E2 20        	sep	#$20
 10194                        	longa	off
 10195 00:38E5: A5 17        	lda	<L691+token_1
 10196 00:38E7: C9 22        	cmp	#<$22
 10197 00:38E9: C2 20        	rep	#$20
 10198                        	longa	on
 10199 00:38EB: F0 03        	beq	L698
 10200 00:38ED: 82 36 00     	brl	L10443
 10201                        L698:
 10202                        L10446:
 10203 00:38F0: E2 20        	sep	#$20
 10204                        	longa	off
 10205 00:38F2: A7 21        	lda	[<L690+tp_0]
 10206 00:38F4: 85 17        	sta	<L691+token_1
 10207 00:38F6: C2 20        	rep	#$20
 10208                        	longa	on
 10209 00:38F8: E2 20        	sep	#$20
 10210                        	longa	off
  Sun Jan  9 2022 20:52                                                Page 197


 10211 00:38FA: A5 17        	lda	<L691+token_1
 10212 00:38FC: 87 0F        	sta	[<L691+cp_1]
 10213 00:38FE: C2 20        	rep	#$20
 10214                        	longa	on
 10215 00:3900: E6 0F        	inc	<L691+cp_1
 10216 00:3902: D0 02        	bne	L699
 10217 00:3904: E6 11        	inc	<L691+cp_1+2
 10218                        L699:
 10219 00:3906: E6 21        	inc	<L690+tp_0
 10220 00:3908: D0 02        	bne	L700
 10221 00:390A: E6 23        	inc	<L690+tp_0+2
 10222                        L700:
 10223                        L10444:
 10224 00:390C: E2 20        	sep	#$20
 10225                        	longa	off
 10226 00:390E: A5 17        	lda	<L691+token_1
 10227 00:3910: C9 22        	cmp	#<$22
 10228 00:3912: C2 20        	rep	#$20
 10229                        	longa	on
 10230 00:3914: D0 03        	bne	L702
 10231 00:3916: 82 0D 00     	brl	L701
 10232                        L702:
 10233 00:3919: E2 20        	sep	#$20
 10234                        	longa	off
 10235 00:391B: A7 21        	lda	[<L690+tp_0]
 10236 00:391D: C9 0D        	cmp	#<$d
 10237 00:391F: C2 20        	rep	#$20
 10238                        	longa	on
 10239 00:3921: F0 03        	beq	L703
 10240 00:3923: 82 CA FF     	brl	L10446
 10241                        L703:
 10242                        L701:
 10243                        L10445:
 10244                        L10443:
 10245 00:3926: 82 23 03     	brl	L10447
 10246                        L10442:
 10247 00:3929: E2 20        	sep	#$20
 10248                        	longa	off
 10249 00:392B: A5 17        	lda	<L691+token_1
 10250 00:392D: C9 8D        	cmp	#<$8d
 10251 00:392F: C2 20        	rep	#$20
 10252                        	longa	on
 10253 00:3931: F0 03        	beq	L704
 10254 00:3933: 82 53 00     	brl	L10448
 10255                        L704:
 10256 00:3936: 18           	clc
 10257 00:3937: A9 01 00     	lda	#$1
 10258 00:393A: 65 21        	adc	<L690+tp_0
 10259 00:393C: 85 01        	sta	<R0
 10260 00:393E: A9 00 00     	lda	#$0
 10261 00:3941: 65 23        	adc	<L690+tp_0+2
 10262 00:3943: 85 03        	sta	<R0+2
 10263 00:3945: D4 03        	pei	<R0+2
 10264 00:3947: D4 01        	pei	<R0
 10265 00:3949: 22 xx xx xx  	jsl	~~expand_linenum
 10266 00:394D: 48           	pha
 10267 00:394E: F4 xx xx     	pea	#^L689+3
 10268 00:3951: F4 xx xx     	pea	#<L689+3
  Sun Jan  9 2022 20:52                                                Page 198


 10269 00:3954: D4 11        	pei	<L691+cp_1+2
 10270 00:3956: D4 0F        	pei	<L691+cp_1
 10271 00:3958: F4 0C 00     	pea	#12
 10272 00:395B: 22 xx xx xx  	jsl	~~sprintf
 10273 00:395F: 85 0D        	sta	<L691+count_1
 10274 00:3961: A0 00 00     	ldy	#$0
 10275 00:3964: A5 0D        	lda	<L691+count_1
 10276 00:3966: 10 01        	bpl	L705
 10277 00:3968: 88           	dey
 10278                        L705:
 10279 00:3969: 85 01        	sta	<R0
 10280 00:396B: 84 03        	sty	<R0+2
 10281 00:396D: 18           	clc
 10282 00:396E: A5 0F        	lda	<L691+cp_1
 10283 00:3970: 65 01        	adc	<R0
 10284 00:3972: 85 0F        	sta	<L691+cp_1
 10285 00:3974: A5 11        	lda	<L691+cp_1+2
 10286 00:3976: 65 03        	adc	<R0+2
 10287 00:3978: 85 11        	sta	<L691+cp_1+2
 10288 00:397A: 18           	clc
 10289 00:397B: A9 04 00     	lda	#$4
 10290 00:397E: 65 21        	adc	<L690+tp_0
 10291 00:3980: 85 21        	sta	<L690+tp_0
 10292 00:3982: 90 02        	bcc	L706
 10293 00:3984: E6 23        	inc	<L690+tp_0+2
 10294                        L706:
 10295 00:3986: 82 C3 02     	brl	L10449
 10296                        L10448:
 10297 00:3989: E2 20        	sep	#$20
 10298                        	longa	off
 10299 00:398B: A5 17        	lda	<L691+token_1
 10300 00:398D: C9 F4        	cmp	#<$f4
 10301 00:398F: C2 20        	rep	#$20
 10302                        	longa	on
 10303 00:3991: D0 03        	bne	L708
 10304 00:3993: 82 0D 00     	brl	L707
 10305                        L708:
 10306 00:3996: E2 20        	sep	#$20
 10307                        	longa	off
 10308 00:3998: A5 17        	lda	<L691+token_1
 10309 00:399A: C9 DC        	cmp	#<$dc
 10310 00:399C: C2 20        	rep	#$20
 10311                        	longa	on
 10312 00:399E: F0 03        	beq	L709
 10313 00:39A0: 82 7A 00     	brl	L10450
 10314                        L709:
 10315                        L707:
 10316 00:39A3: A5 17        	lda	<L691+token_1
 10317 00:39A5: 29 FF 00     	and	#$ff
 10318 00:39A8: 85 05        	sta	<R1
 10319 00:39AA: A5 05        	lda	<R1
 10320 00:39AC: 0A           	asl	A
 10321 00:39AD: 0A           	asl	A
 10322 00:39AE: 85 01        	sta	<R0
 10323 00:39B0: 18           	clc
 10324 00:39B1: A9 04 FE     	lda	#$fe04
 10325 00:39B4: 69 xx xx     	adc	#<~~onebyte_token
 10326 00:39B7: 85 05        	sta	<R1
  Sun Jan  9 2022 20:52                                                Page 199


 10327 00:39B9: 18           	clc
 10328 00:39BA: A5 05        	lda	<R1
 10329 00:39BC: 65 01        	adc	<R0
 10330 00:39BE: 85 09        	sta	<R2
 10331 00:39C0: B2 09        	lda	(<R2)
 10332 00:39C2: 85 13        	sta	<L691+p_1
 10333 00:39C4: A0 02 00     	ldy	#$2
 10334 00:39C7: B1 09        	lda	(<R2),Y
 10335 00:39C9: 85 15        	sta	<L691+p_1+2
 10336 00:39CB: D4 15        	pei	<L691+p_1+2
 10337 00:39CD: D4 13        	pei	<L691+p_1
 10338 00:39CF: D4 11        	pei	<L691+cp_1+2
 10339 00:39D1: D4 0F        	pei	<L691+cp_1
 10340 00:39D3: 22 xx xx xx  	jsl	~~strcpy
 10341 00:39D7: D4 15        	pei	<L691+p_1+2
 10342 00:39D9: D4 13        	pei	<L691+p_1
 10343 00:39DB: 22 xx xx xx  	jsl	~~strlen
 10344 00:39DF: 85 01        	sta	<R0
 10345 00:39E1: 86 03        	stx	<R0+2
 10346 00:39E3: 18           	clc
 10347 00:39E4: A5 0F        	lda	<L691+cp_1
 10348 00:39E6: 65 01        	adc	<R0
 10349 00:39E8: 85 0F        	sta	<L691+cp_1
 10350 00:39EA: A5 11        	lda	<L691+cp_1+2
 10351 00:39EC: 65 03        	adc	<R0+2
 10352 00:39EE: 85 11        	sta	<L691+cp_1+2
 10353 00:39F0: E6 21        	inc	<L690+tp_0
 10354 00:39F2: D0 02        	bne	L710
 10355 00:39F4: E6 23        	inc	<L690+tp_0+2
 10356                        L710:
 10357                        L10451:
 10358 00:39F6: E2 20        	sep	#$20
 10359                        	longa	off
 10360 00:39F8: A7 21        	lda	[<L690+tp_0]
 10361 00:39FA: C9 0D        	cmp	#<$d
 10362 00:39FC: C2 20        	rep	#$20
 10363                        	longa	on
 10364 00:39FE: D0 03        	bne	L711
 10365 00:3A00: 82 17 00     	brl	L10452
 10366                        L711:
 10367 00:3A03: E2 20        	sep	#$20
 10368                        	longa	off
 10369 00:3A05: A7 21        	lda	[<L690+tp_0]
 10370 00:3A07: 87 0F        	sta	[<L691+cp_1]
 10371 00:3A09: C2 20        	rep	#$20
 10372                        	longa	on
 10373 00:3A0B: E6 0F        	inc	<L691+cp_1
 10374 00:3A0D: D0 02        	bne	L712
 10375 00:3A0F: E6 11        	inc	<L691+cp_1+2
 10376                        L712:
 10377 00:3A11: E6 21        	inc	<L690+tp_0
 10378 00:3A13: D0 02        	bne	L713
 10379 00:3A15: E6 23        	inc	<L690+tp_0+2
 10380                        L713:
 10381 00:3A17: 82 DC FF     	brl	L10451
 10382                        L10452:
 10383 00:3A1A: 82 2F 02     	brl	L10453
 10384                        L10450:
  Sun Jan  9 2022 20:52                                                Page 200


 10385 00:3A1D: A5 17        	lda	<L691+token_1
 10386 00:3A1F: 29 FF 00     	and	#$ff
 10387 00:3A22: 82 63 01     	brl	L10454
 10388                        L10456:
 10389 00:3A25: E2 20        	sep	#$20
 10390                        	longa	off
 10391 00:3A27: A0 01 00     	ldy	#$1
 10392 00:3A2A: B7 21        	lda	[<L690+tp_0],Y
 10393 00:3A2C: 85 17        	sta	<L691+token_1
 10394 00:3A2E: C2 20        	rep	#$20
 10395                        	longa	on
 10396 00:3A30: E2 20        	sep	#$20
 10397                        	longa	off
 10398 00:3A32: A5 17        	lda	<L691+token_1
 10399 00:3A34: C9 8E        	cmp	#<$8e
 10400 00:3A36: C2 20        	rep	#$20
 10401                        	longa	on
 10402 00:3A38: B0 03        	bcs	L715
 10403 00:3A3A: 82 0D 00     	brl	L714
 10404                        L715:
 10405 00:3A3D: E2 20        	sep	#$20
 10406                        	longa	off
 10407 00:3A3F: A9 A3        	lda	#$a3
 10408 00:3A41: C5 17        	cmp	<L691+token_1
 10409 00:3A43: C2 20        	rep	#$20
 10410                        	longa	on
 10411 00:3A45: 90 03        	bcc	L716
 10412 00:3A47: 82 0A 00     	brl	L10457
 10413                        L716:
 10414                        L714:
 10415 00:3A4A: F4 07 00     	pea	#<$7
 10416 00:3A4D: F4 04 00     	pea	#4
 10417 00:3A50: 22 xx xx xx  	jsl	~~error
 10418                        L10457:
 10419 00:3A54: A5 17        	lda	<L691+token_1
 10420 00:3A56: 29 FF 00     	and	#$ff
 10421 00:3A59: 85 05        	sta	<R1
 10422 00:3A5B: A5 05        	lda	<R1
 10423 00:3A5D: 0A           	asl	A
 10424 00:3A5E: 0A           	asl	A
 10425 00:3A5F: 85 01        	sta	<R0
 10426 00:3A61: 18           	clc
 10427 00:3A62: A9 C8 FD     	lda	#$fdc8
 10428 00:3A65: 69 xx xx     	adc	#<~~twobyte_token
 10429 00:3A68: 85 05        	sta	<R1
 10430 00:3A6A: 18           	clc
 10431 00:3A6B: A5 05        	lda	<R1
 10432 00:3A6D: 65 01        	adc	<R0
 10433 00:3A6F: 85 09        	sta	<R2
 10434 00:3A71: B2 09        	lda	(<R2)
 10435 00:3A73: 85 13        	sta	<L691+p_1
 10436 00:3A75: A0 02 00     	ldy	#$2
 10437 00:3A78: B1 09        	lda	(<R2),Y
 10438 00:3A7A: 85 15        	sta	<L691+p_1+2
 10439 00:3A7C: 18           	clc
 10440 00:3A7D: A9 02 00     	lda	#$2
 10441 00:3A80: 65 21        	adc	<L690+tp_0
 10442 00:3A82: 85 21        	sta	<L690+tp_0
  Sun Jan  9 2022 20:52                                                Page 201


 10443 00:3A84: 90 02        	bcc	L717
 10444 00:3A86: E6 23        	inc	<L690+tp_0+2
 10445                        L717:
 10446 00:3A88: 82 11 01     	brl	L10455
 10447                        L10458:
 10448 00:3A8B: E2 20        	sep	#$20
 10449                        	longa	off
 10450 00:3A8D: A0 01 00     	ldy	#$1
 10451 00:3A90: B7 21        	lda	[<L690+tp_0],Y
 10452 00:3A92: 85 17        	sta	<L691+token_1
 10453 00:3A94: C2 20        	rep	#$20
 10454                        	longa	on
 10455 00:3A96: E2 20        	sep	#$20
 10456                        	longa	off
 10457 00:3A98: A5 17        	lda	<L691+token_1
 10458 00:3A9A: C9 8E        	cmp	#<$8e
 10459 00:3A9C: C2 20        	rep	#$20
 10460                        	longa	on
 10461 00:3A9E: B0 03        	bcs	L719
 10462 00:3AA0: 82 0D 00     	brl	L718
 10463                        L719:
 10464 00:3AA3: E2 20        	sep	#$20
 10465                        	longa	off
 10466 00:3AA5: A9 9F        	lda	#$9f
 10467 00:3AA7: C5 17        	cmp	<L691+token_1
 10468 00:3AA9: C2 20        	rep	#$20
 10469                        	longa	on
 10470 00:3AAB: 90 03        	bcc	L720
 10471 00:3AAD: 82 0A 00     	brl	L10459
 10472                        L720:
 10473                        L718:
 10474 00:3AB0: F4 07 00     	pea	#<$7
 10475 00:3AB3: F4 04 00     	pea	#4
 10476 00:3AB6: 22 xx xx xx  	jsl	~~error
 10477                        L10459:
 10478 00:3ABA: A5 17        	lda	<L691+token_1
 10479 00:3ABC: 29 FF 00     	and	#$ff
 10480 00:3ABF: 85 05        	sta	<R1
 10481 00:3AC1: A5 05        	lda	<R1
 10482 00:3AC3: 0A           	asl	A
 10483 00:3AC4: 0A           	asl	A
 10484 00:3AC5: 85 01        	sta	<R0
 10485 00:3AC7: 18           	clc
 10486 00:3AC8: A9 C8 FD     	lda	#$fdc8
 10487 00:3ACB: 69 xx xx     	adc	#<~~command_token
 10488 00:3ACE: 85 05        	sta	<R1
 10489 00:3AD0: 18           	clc
 10490 00:3AD1: A5 05        	lda	<R1
 10491 00:3AD3: 65 01        	adc	<R0
 10492 00:3AD5: 85 09        	sta	<R2
 10493 00:3AD7: B2 09        	lda	(<R2)
 10494 00:3AD9: 85 13        	sta	<L691+p_1
 10495 00:3ADB: A0 02 00     	ldy	#$2
 10496 00:3ADE: B1 09        	lda	(<R2),Y
 10497 00:3AE0: 85 15        	sta	<L691+p_1+2
 10498 00:3AE2: 18           	clc
 10499 00:3AE3: A9 02 00     	lda	#$2
 10500 00:3AE6: 65 21        	adc	<L690+tp_0
  Sun Jan  9 2022 20:52                                                Page 202


 10501 00:3AE8: 85 21        	sta	<L690+tp_0
 10502 00:3AEA: 90 02        	bcc	L721
 10503 00:3AEC: E6 23        	inc	<L690+tp_0+2
 10504                        L721:
 10505 00:3AEE: 82 AB 00     	brl	L10455
 10506                        L10460:
 10507 00:3AF1: E2 20        	sep	#$20
 10508                        	longa	off
 10509 00:3AF3: A0 01 00     	ldy	#$1
 10510 00:3AF6: B7 21        	lda	[<L690+tp_0],Y
 10511 00:3AF8: 85 17        	sta	<L691+token_1
 10512 00:3AFA: C2 20        	rep	#$20
 10513                        	longa	on
 10514 00:3AFC: E2 20        	sep	#$20
 10515                        	longa	off
 10516 00:3AFE: A5 17        	lda	<L691+token_1
 10517 00:3B00: C9 8E        	cmp	#<$8e
 10518 00:3B02: C2 20        	rep	#$20
 10519                        	longa	on
 10520 00:3B04: B0 03        	bcs	L723
 10521 00:3B06: 82 0D 00     	brl	L722
 10522                        L723:
 10523 00:3B09: E2 20        	sep	#$20
 10524                        	longa	off
 10525 00:3B0B: A9 8F        	lda	#$8f
 10526 00:3B0D: C5 17        	cmp	<L691+token_1
 10527 00:3B0F: C2 20        	rep	#$20
 10528                        	longa	on
 10529 00:3B11: 90 03        	bcc	L724
 10530 00:3B13: 82 0A 00     	brl	L10461
 10531                        L724:
 10532                        L722:
 10533 00:3B16: F4 07 00     	pea	#<$7
 10534 00:3B19: F4 04 00     	pea	#4
 10535 00:3B1C: 22 xx xx xx  	jsl	~~error
 10536                        L10461:
 10537 00:3B20: A5 17        	lda	<L691+token_1
 10538 00:3B22: 29 FF 00     	and	#$ff
 10539 00:3B25: 85 05        	sta	<R1
 10540 00:3B27: A5 05        	lda	<R1
 10541 00:3B29: 0A           	asl	A
 10542 00:3B2A: 0A           	asl	A
 10543 00:3B2B: 85 01        	sta	<R0
 10544 00:3B2D: 18           	clc
 10545 00:3B2E: A9 C8 FD     	lda	#$fdc8
 10546 00:3B31: 69 xx xx     	adc	#<~~other_token
 10547 00:3B34: 85 05        	sta	<R1
 10548 00:3B36: 18           	clc
 10549 00:3B37: A5 05        	lda	<R1
 10550 00:3B39: 65 01        	adc	<R0
 10551 00:3B3B: 85 09        	sta	<R2
 10552 00:3B3D: B2 09        	lda	(<R2)
 10553 00:3B3F: 85 13        	sta	<L691+p_1
 10554 00:3B41: A0 02 00     	ldy	#$2
 10555 00:3B44: B1 09        	lda	(<R2),Y
 10556 00:3B46: 85 15        	sta	<L691+p_1+2
 10557 00:3B48: 18           	clc
 10558 00:3B49: A9 02 00     	lda	#$2
  Sun Jan  9 2022 20:52                                                Page 203


 10559 00:3B4C: 65 21        	adc	<L690+tp_0
 10560 00:3B4E: 85 21        	sta	<L690+tp_0
 10561 00:3B50: 90 02        	bcc	L725
 10562 00:3B52: E6 23        	inc	<L690+tp_0+2
 10563                        L725:
 10564 00:3B54: 82 45 00     	brl	L10455
 10565                        L10462:
 10566 00:3B57: A5 17        	lda	<L691+token_1
 10567 00:3B59: 29 FF 00     	and	#$ff
 10568 00:3B5C: 85 05        	sta	<R1
 10569 00:3B5E: A5 05        	lda	<R1
 10570 00:3B60: 0A           	asl	A
 10571 00:3B61: 0A           	asl	A
 10572 00:3B62: 85 01        	sta	<R0
 10573 00:3B64: 18           	clc
 10574 00:3B65: A9 04 FE     	lda	#$fe04
 10575 00:3B68: 69 xx xx     	adc	#<~~onebyte_token
 10576 00:3B6B: 85 05        	sta	<R1
 10577 00:3B6D: 18           	clc
 10578 00:3B6E: A5 05        	lda	<R1
 10579 00:3B70: 65 01        	adc	<R0
 10580 00:3B72: 85 09        	sta	<R2
 10581 00:3B74: B2 09        	lda	(<R2)
 10582 00:3B76: 85 13        	sta	<L691+p_1
 10583 00:3B78: A0 02 00     	ldy	#$2
 10584 00:3B7B: B1 09        	lda	(<R2),Y
 10585 00:3B7D: 85 15        	sta	<L691+p_1+2
 10586 00:3B7F: E6 21        	inc	<L690+tp_0
 10587 00:3B81: D0 02        	bne	L726
 10588 00:3B83: E6 23        	inc	<L690+tp_0+2
 10589                        L726:
 10590 00:3B85: 82 14 00     	brl	L10455
 10591                        L10454:
 10592                        	xref	~~~swt
 10593 00:3B88: 22 xx xx xx  	jsl	~~~swt
 10594 00:3B8C: 03 00        	dw	3
 10595 00:3B8E: C6 00        	dw	198
 10596 00:3B90: xx xx        	dw	L10460-1
 10597 00:3B92: C7 00        	dw	199
 10598 00:3B94: xx xx        	dw	L10458-1
 10599 00:3B96: C8 00        	dw	200
 10600 00:3B98: xx xx        	dw	L10456-1
 10601 00:3B9A: xx xx        	dw	L10462-1
 10602                        L10455:
 10603 00:3B9C: A5 0F        	lda	<L691+cp_1
 10604 00:3B9E: C5 18        	cmp	<L691+line_1
 10605 00:3BA0: D0 04        	bne	L727
 10606 00:3BA2: A5 11        	lda	<L691+cp_1+2
 10607 00:3BA4: C5 1A        	cmp	<L691+line_1+2
 10608                        L727:
 10609 00:3BA6: D0 03        	bne	L728
 10610 00:3BA8: 82 2D 00     	brl	L10463
 10611                        L728:
 10612 00:3BAB: 18           	clc
 10613 00:3BAC: A9 FF FF     	lda	#$ffff
 10614 00:3BAF: 65 0F        	adc	<L691+cp_1
 10615 00:3BB1: 85 01        	sta	<R0
 10616 00:3BB3: A9 FF FF     	lda	#$ffff
  Sun Jan  9 2022 20:52                                                Page 204


 10617 00:3BB6: 65 11        	adc	<L691+cp_1+2
 10618 00:3BB8: 85 03        	sta	<R0+2
 10619 00:3BBA: A7 01        	lda	[<R0]
 10620 00:3BBC: 29 FF 00     	and	#$ff
 10621 00:3BBF: 48           	pha
 10622 00:3BC0: 22 xx xx xx  	jsl	~~isalnum
 10623 00:3BC4: AA           	tax
 10624 00:3BC5: D0 03        	bne	L729
 10625 00:3BC7: 82 0E 00     	brl	L10463
 10626                        L729:
 10627 00:3BCA: E2 20        	sep	#$20
 10628                        	longa	off
 10629 00:3BCC: A9 20        	lda	#$20
 10630 00:3BCE: 87 0F        	sta	[<L691+cp_1]
 10631 00:3BD0: C2 20        	rep	#$20
 10632                        	longa	on
 10633 00:3BD2: E6 0F        	inc	<L691+cp_1
 10634 00:3BD4: D0 02        	bne	L730
 10635 00:3BD6: E6 11        	inc	<L691+cp_1+2
 10636                        L730:
 10637                        L10463:
 10638 00:3BD8: D4 15        	pei	<L691+p_1+2
 10639 00:3BDA: D4 13        	pei	<L691+p_1
 10640 00:3BDC: D4 11        	pei	<L691+cp_1+2
 10641 00:3BDE: D4 0F        	pei	<L691+cp_1
 10642 00:3BE0: 22 xx xx xx  	jsl	~~strcpy
 10643 00:3BE4: D4 15        	pei	<L691+p_1+2
 10644 00:3BE6: D4 13        	pei	<L691+p_1
 10645 00:3BE8: 22 xx xx xx  	jsl	~~strlen
 10646 00:3BEC: 85 01        	sta	<R0
 10647 00:3BEE: 86 03        	stx	<R0+2
 10648 00:3BF0: 18           	clc
 10649 00:3BF1: A5 0F        	lda	<L691+cp_1
 10650 00:3BF3: 65 01        	adc	<R0
 10651 00:3BF5: 85 0F        	sta	<L691+cp_1
 10652 00:3BF7: A5 11        	lda	<L691+cp_1+2
 10653 00:3BF9: 65 03        	adc	<R0+2
 10654 00:3BFB: 85 11        	sta	<L691+cp_1+2
 10655 00:3BFD: A7 21        	lda	[<L690+tp_0]
 10656 00:3BFF: 29 FF 00     	and	#$ff
 10657 00:3C02: 48           	pha
 10658 00:3C03: 22 xx xx xx  	jsl	~~isalnum
 10659 00:3C07: AA           	tax
 10660 00:3C08: D0 03        	bne	L731
 10661 00:3C0A: 82 3F 00     	brl	L10464
 10662                        L731:
 10663             0000000F   n_2	set	15
 10664 00:3C0D: 64 1C        	stz	<L691+n_2
 10665 00:3C0F: 82 02 00     	brl	L10468
 10666                        L10467:
 10667                        L10465:
 10668 00:3C12: E6 1C        	inc	<L691+n_2
 10669                        L10468:
 10670 00:3C14: A6 1C        	ldx	<L691+n_2
 10671 00:3C16: BD xx xx     	lda	|~~nospace,X
 10672 00:3C19: 29 FF 00     	and	#$ff
 10673 00:3C1C: D0 03        	bne	L733
 10674 00:3C1E: 82 10 00     	brl	L732
  Sun Jan  9 2022 20:52                                                Page 205


 10675                        L733:
 10676 00:3C21: E2 20        	sep	#$20
 10677                        	longa	off
 10678 00:3C23: A6 1C        	ldx	<L691+n_2
 10679 00:3C25: BD xx xx     	lda	|~~nospace,X
 10680 00:3C28: C5 17        	cmp	<L691+token_1
 10681 00:3C2A: C2 20        	rep	#$20
 10682                        	longa	on
 10683 00:3C2C: F0 03        	beq	L734
 10684 00:3C2E: 82 E1 FF     	brl	L10467
 10685                        L734:
 10686                        L732:
 10687                        L10466:
 10688 00:3C31: A6 1C        	ldx	<L691+n_2
 10689 00:3C33: BD xx xx     	lda	|~~nospace,X
 10690 00:3C36: 29 FF 00     	and	#$ff
 10691 00:3C39: F0 03        	beq	L735
 10692 00:3C3B: 82 0E 00     	brl	L10469
 10693                        L735:
 10694 00:3C3E: E2 20        	sep	#$20
 10695                        	longa	off
 10696 00:3C40: A9 20        	lda	#$20
 10697 00:3C42: 87 0F        	sta	[<L691+cp_1]
 10698 00:3C44: C2 20        	rep	#$20
 10699                        	longa	on
 10700 00:3C46: E6 0F        	inc	<L691+cp_1
 10701 00:3C48: D0 02        	bne	L736
 10702 00:3C4A: E6 11        	inc	<L691+cp_1+2
 10703                        L736:
 10704                        L10469:
 10705                        L10464:
 10706                        L10453:
 10707                        L10449:
 10708                        L10447:
 10709 00:3C4C: E2 20        	sep	#$20
 10710                        	longa	off
 10711 00:3C4E: A7 21        	lda	[<L690+tp_0]
 10712 00:3C50: 85 17        	sta	<L691+token_1
 10713 00:3C52: C2 20        	rep	#$20
 10714                        	longa	on
 10715 00:3C54: 82 5E FC     	brl	L10440
 10716                        L10441:
 10717 00:3C57: E2 20        	sep	#$20
 10718                        	longa	off
 10719 00:3C59: A9 00        	lda	#$0
 10720 00:3C5B: 87 0F        	sta	[<L691+cp_1]
 10721 00:3C5D: C2 20        	rep	#$20
 10722                        	longa	on
 10723 00:3C5F: F4 01 00     	pea	#<$1
 10724 00:3C62: D4 27        	pei	<L690+tokenbuf_0+2
 10725 00:3C64: D4 25        	pei	<L690+tokenbuf_0
 10726 00:3C66: D4 1A        	pei	<L691+line_1+2
 10727 00:3C68: D4 18        	pei	<L691+line_1
 10728 00:3C6A: 22 xx xx xx  	jsl	~~tokenize
 10729 00:3C6E: D4 1A        	pei	<L691+line_1+2
 10730 00:3C70: D4 18        	pei	<L691+line_1
 10731 00:3C72: 22 xx xx xx  	jsl	~~free
 10732 00:3C76: D4 27        	pei	<L690+tokenbuf_0+2
  Sun Jan  9 2022 20:52                                                Page 206


 10733 00:3C78: D4 25        	pei	<L690+tokenbuf_0
 10734 00:3C7A: 22 xx xx xx  	jsl	~~get_linelen
 10735                        L737:
 10736 00:3C7E: A8           	tay
 10737 00:3C7F: A5 1F        	lda	<L690+2
 10738 00:3C81: 85 27        	sta	<L690+2+8
 10739 00:3C83: A5 1E        	lda	<L690+1
 10740 00:3C85: 85 26        	sta	<L690+1+8
 10741 00:3C87: 2B           	pld
 10742 00:3C88: 3B           	tsc
 10743 00:3C89: 18           	clc
 10744 00:3C8A: 69 25 00     	adc	#L690+8
 10745 00:3C8D: 1B           	tcs
 10746 00:3C8E: 98           	tya
 10747 00:3C8F: 6B           	rtl
 10748             0000001D   L690	equ	29
 10749             0000000D   L691	equ	13
 10750                        	ends
 10751                        	efunc
 10752                        	data
 10753                        L689:
 10754 00:1EBF: 25 64 00 25  	db	$25,$64,$00,$25,$64,$00
       00:1EC3: 64 00 
 10755 00:1EC5:              	ends
 10756                        	xref	~~error
 10757                        	xref	~~tonumber
 10758                        	xref	~~todigit
 10759                        	xref	~~find_linestart
 10760                        	xref	~~find_line
 10761                        	xref	~~skip
 10762                        	xref	~~skip_blanks
 10763                        	xref	~~isident
 10764                        	xref	~~isidchar
 10765                        	xref	~~isidstart
 10766                        	xref	~~isxdigit
 10767                        	xref	~~toupper
 10768                        	xref	~~tolower
 10769                        	xref	~~islower
 10770                        	xref	~~isalpha
 10771                        	xref	~~isalnum
 10772                        	xref	~~strlen
 10773                        	xref	~~strncmp
 10774                        	xref	~~memcpy
 10775                        	xref	~~strcpy
 10776                        	xref	~~free
 10777                        	xref	~~malloc
 10778                        	xref	~~sprintf
 10779                        	udata
 10780                        ~~numbered
 10781 00:0008:              	ds	1
 10782 00:0009:              	ends
 10783                        	udata
 10784                        ~~firstitem
 10785 00:0009:              	ds	1
 10786 00:000A:              	ends
 10787                        	udata
 10788                        ~~linestart
 10789 00:000A:              	ds	1
  Sun Jan  9 2022 20:52                                                Page 207


 10790 00:000B:              	ends
 10791                        	udata
 10792                        ~~lasterror
 10793 00:000B:              	ds	2
 10794 00:000D:              	ends
 10795                        	udata
 10796                        ~~indentation
 10797 00:000D:              	ds	2
 10798 00:000F:              	ends
 10799                        	udata
 10800                        ~~brackets
 10801 00:000F:              	ds	2
 10802 00:0011:              	ends
 10803                        	udata
 10804                        ~~source
 10805 00:0011:              	ds	2
 10806 00:0013:              	ends
 10807                        	udata
 10808                        ~~next
 10809 00:0013:              	ds	2
 10810 00:0015:              	ends
 10811                        	udata
 10812                        ~~lp
 10813 00:0015:              	ds	4
 10814 00:0019:              	ends
 10815                        	udata
 10816                        ~~tokenbase
 10817 00:0019:              	ds	4
 10818 00:001D:              	ends
 10819                        	udata
 10820                        	xdef	~~thisline
 10821                        ~~thisline
 10822 00:001D:              	ds	1032
 10823 00:0425:              	ends
 10824                        	xref	~~basicvars
 10825                        	end


      Lines assembled: 10825
      Errors: 0
