  Sat Dec  5 2020 14:18                                                Page 1


                     ***************************************
                     **      WDC 65C816 Macro Assembler   **
                     **                                   **
                     **     Version 3.49.1- Feb  6 2006    **
                     ***************************************

     1                        ;:ts=8
     2             00000001   R0	equ	1
     3             00000005   R1	equ	5
     4             00000009   R2	equ	9
     5             0000000D   R3	equ	13
     6                        	code
     7                        	xdef	~~tinf_adler32
     8                        	func
     9                        ~~tinf_adler32:
    10                        	longa	on
    11                        	longi	on
    12 00:0000: 3B           	tsc
    13 00:0001: 38           	sec
    14 00:0002: E9 1C 00     	sbc	#L2
    15 00:0005: 1B           	tcs
    16 00:0006: 0B           	phd
    17 00:0007: 5B           	tcd
    18             00000004   data_0	set	4
    19             00000008   length_0	set	8
    20             00000000   buf_1	set	0
    21             00000004   s1_1	set	4
    22             00000008   s2_1	set	8
    23 00:0008: A5 20        	lda	<L2+data_0
    24 00:000A: 85 09        	sta	<L3+buf_1
    25 00:000C: A5 22        	lda	<L2+data_0+2
    26 00:000E: 85 0B        	sta	<L3+buf_1+2
    27 00:0010: A9 01 00     	lda	#$1
    28 00:0013: 85 0D        	sta	<L3+s1_1
    29 00:0015: 3A           	dea
    30 00:0016: 85 0F        	sta	<L3+s1_1+2
    31 00:0018: 64 11        	stz	<L3+s2_1
    32 00:001A: 64 13        	stz	<L3+s2_1+2
    33 00:001C: 82 10 03     	brl	L10001
    34                        L20001:
    35             0000000C   k_2	set	12
    36             00000010   i_2	set	16
    37 00:001F: A5 24        	lda	<L2+length_0
    38 00:0021: C9 B0 15     	cmp	#<$15b0
    39 00:0024: A5 26        	lda	<L2+length_0+2
    40 00:0026: E9 00 00     	sbc	#^$15b0
    41 00:0029: B0 06        	bcs	L5
    42 00:002B: A6 26        	ldx	<L2+length_0+2
    43 00:002D: A5 24        	lda	<L2+length_0
    44 00:002F: 80 07        	bra	L7
    45                        L5:
    46 00:0031: A9 00 00     	lda	#$0
    47 00:0034: AA           	tax
    48 00:0035: A9 B0 15     	lda	#$15b0
    49                        L7:
    50 00:0038: 86 03        	stx	<R0+2
    51 00:003A: 85 15        	sta	<L3+k_2
    52 00:003C: A5 03        	lda	<R0+2
  Sat Dec  5 2020 14:18                                                Page 2


    53 00:003E: 85 17        	sta	<L3+k_2+2
    54 00:0040: F4 00 00     	pea	#^$10
    55 00:0043: F4 10 00     	pea	#<$10
    56 00:0046: D4 17        	pei	<L3+k_2+2
    57 00:0048: D4 15        	pei	<L3+k_2
    58                        	xref	~~~ldiv
    59 00:004A: 22 xx xx xx  	jsl	~~~ldiv
    60 00:004E: 85 19        	sta	<L3+i_2
    61 00:0050: 86 1B        	stx	<L3+i_2+2
    62 00:0052: 82 55 02     	brl	L10006
    63                        L10005:
    64 00:0055: A7 09        	lda	[<L3+buf_1]
    65 00:0057: 29 FF 00     	and	#$ff
    66 00:005A: 85 01        	sta	<R0
    67 00:005C: 64 03        	stz	<R0+2
    68 00:005E: A5 01        	lda	<R0
    69 00:0060: 18           	clc
    70 00:0061: 65 0D        	adc	<L3+s1_1
    71 00:0063: 85 0D        	sta	<L3+s1_1
    72 00:0065: A5 03        	lda	<R0+2
    73 00:0067: 65 0F        	adc	<L3+s1_1+2
    74 00:0069: 85 0F        	sta	<L3+s1_1+2
    75 00:006B: A5 11        	lda	<L3+s2_1
    76 00:006D: 18           	clc
    77 00:006E: 65 0D        	adc	<L3+s1_1
    78 00:0070: 85 11        	sta	<L3+s2_1
    79 00:0072: A5 13        	lda	<L3+s2_1+2
    80 00:0074: 65 0F        	adc	<L3+s1_1+2
    81 00:0076: 85 13        	sta	<L3+s2_1+2
    82 00:0078: A0 01 00     	ldy	#$1
    83 00:007B: B7 09        	lda	[<L3+buf_1],Y
    84 00:007D: 29 FF 00     	and	#$ff
    85 00:0080: 85 01        	sta	<R0
    86 00:0082: 64 03        	stz	<R0+2
    87 00:0084: A5 01        	lda	<R0
    88 00:0086: 18           	clc
    89 00:0087: 65 0D        	adc	<L3+s1_1
    90 00:0089: 85 0D        	sta	<L3+s1_1
    91 00:008B: A5 03        	lda	<R0+2
    92 00:008D: 65 0F        	adc	<L3+s1_1+2
    93 00:008F: 85 0F        	sta	<L3+s1_1+2
    94 00:0091: A5 11        	lda	<L3+s2_1
    95 00:0093: 18           	clc
    96 00:0094: 65 0D        	adc	<L3+s1_1
    97 00:0096: 85 11        	sta	<L3+s2_1
    98 00:0098: A5 13        	lda	<L3+s2_1+2
    99 00:009A: 65 0F        	adc	<L3+s1_1+2
   100 00:009C: 85 13        	sta	<L3+s2_1+2
   101 00:009E: C8           	iny
   102 00:009F: B7 09        	lda	[<L3+buf_1],Y
   103 00:00A1: 29 FF 00     	and	#$ff
   104 00:00A4: 85 01        	sta	<R0
   105 00:00A6: 64 03        	stz	<R0+2
   106 00:00A8: A5 01        	lda	<R0
   107 00:00AA: 18           	clc
   108 00:00AB: 65 0D        	adc	<L3+s1_1
   109 00:00AD: 85 0D        	sta	<L3+s1_1
   110 00:00AF: A5 03        	lda	<R0+2
  Sat Dec  5 2020 14:18                                                Page 3


   111 00:00B1: 65 0F        	adc	<L3+s1_1+2
   112 00:00B3: 85 0F        	sta	<L3+s1_1+2
   113 00:00B5: A5 11        	lda	<L3+s2_1
   114 00:00B7: 18           	clc
   115 00:00B8: 65 0D        	adc	<L3+s1_1
   116 00:00BA: 85 11        	sta	<L3+s2_1
   117 00:00BC: A5 13        	lda	<L3+s2_1+2
   118 00:00BE: 65 0F        	adc	<L3+s1_1+2
   119 00:00C0: 85 13        	sta	<L3+s2_1+2
   120 00:00C2: C8           	iny
   121 00:00C3: B7 09        	lda	[<L3+buf_1],Y
   122 00:00C5: 29 FF 00     	and	#$ff
   123 00:00C8: 85 01        	sta	<R0
   124 00:00CA: 64 03        	stz	<R0+2
   125 00:00CC: A5 01        	lda	<R0
   126 00:00CE: 18           	clc
   127 00:00CF: 65 0D        	adc	<L3+s1_1
   128 00:00D1: 85 0D        	sta	<L3+s1_1
   129 00:00D3: A5 03        	lda	<R0+2
   130 00:00D5: 65 0F        	adc	<L3+s1_1+2
   131 00:00D7: 85 0F        	sta	<L3+s1_1+2
   132 00:00D9: A5 11        	lda	<L3+s2_1
   133 00:00DB: 18           	clc
   134 00:00DC: 65 0D        	adc	<L3+s1_1
   135 00:00DE: 85 11        	sta	<L3+s2_1
   136 00:00E0: A5 13        	lda	<L3+s2_1+2
   137 00:00E2: 65 0F        	adc	<L3+s1_1+2
   138 00:00E4: 85 13        	sta	<L3+s2_1+2
   139 00:00E6: C8           	iny
   140 00:00E7: B7 09        	lda	[<L3+buf_1],Y
   141 00:00E9: 29 FF 00     	and	#$ff
   142 00:00EC: 85 01        	sta	<R0
   143 00:00EE: 64 03        	stz	<R0+2
   144 00:00F0: A5 01        	lda	<R0
   145 00:00F2: 18           	clc
   146 00:00F3: 65 0D        	adc	<L3+s1_1
   147 00:00F5: 85 0D        	sta	<L3+s1_1
   148 00:00F7: A5 03        	lda	<R0+2
   149 00:00F9: 65 0F        	adc	<L3+s1_1+2
   150 00:00FB: 85 0F        	sta	<L3+s1_1+2
   151 00:00FD: A5 11        	lda	<L3+s2_1
   152 00:00FF: 18           	clc
   153 00:0100: 65 0D        	adc	<L3+s1_1
   154 00:0102: 85 11        	sta	<L3+s2_1
   155 00:0104: A5 13        	lda	<L3+s2_1+2
   156 00:0106: 65 0F        	adc	<L3+s1_1+2
   157 00:0108: 85 13        	sta	<L3+s2_1+2
   158 00:010A: C8           	iny
   159 00:010B: B7 09        	lda	[<L3+buf_1],Y
   160 00:010D: 29 FF 00     	and	#$ff
   161 00:0110: 85 01        	sta	<R0
   162 00:0112: 64 03        	stz	<R0+2
   163 00:0114: A5 01        	lda	<R0
   164 00:0116: 18           	clc
   165 00:0117: 65 0D        	adc	<L3+s1_1
   166 00:0119: 85 0D        	sta	<L3+s1_1
   167 00:011B: A5 03        	lda	<R0+2
   168 00:011D: 65 0F        	adc	<L3+s1_1+2
  Sat Dec  5 2020 14:18                                                Page 4


   169 00:011F: 85 0F        	sta	<L3+s1_1+2
   170 00:0121: A5 11        	lda	<L3+s2_1
   171 00:0123: 18           	clc
   172 00:0124: 65 0D        	adc	<L3+s1_1
   173 00:0126: 85 11        	sta	<L3+s2_1
   174 00:0128: A5 13        	lda	<L3+s2_1+2
   175 00:012A: 65 0F        	adc	<L3+s1_1+2
   176 00:012C: 85 13        	sta	<L3+s2_1+2
   177 00:012E: C8           	iny
   178 00:012F: B7 09        	lda	[<L3+buf_1],Y
   179 00:0131: 29 FF 00     	and	#$ff
   180 00:0134: 85 01        	sta	<R0
   181 00:0136: 64 03        	stz	<R0+2
   182 00:0138: A5 01        	lda	<R0
   183 00:013A: 18           	clc
   184 00:013B: 65 0D        	adc	<L3+s1_1
   185 00:013D: 85 0D        	sta	<L3+s1_1
   186 00:013F: A5 03        	lda	<R0+2
   187 00:0141: 65 0F        	adc	<L3+s1_1+2
   188 00:0143: 85 0F        	sta	<L3+s1_1+2
   189 00:0145: A5 11        	lda	<L3+s2_1
   190 00:0147: 18           	clc
   191 00:0148: 65 0D        	adc	<L3+s1_1
   192 00:014A: 85 11        	sta	<L3+s2_1
   193 00:014C: A5 13        	lda	<L3+s2_1+2
   194 00:014E: 65 0F        	adc	<L3+s1_1+2
   195 00:0150: 85 13        	sta	<L3+s2_1+2
   196 00:0152: C8           	iny
   197 00:0153: B7 09        	lda	[<L3+buf_1],Y
   198 00:0155: 29 FF 00     	and	#$ff
   199 00:0158: 85 01        	sta	<R0
   200 00:015A: 64 03        	stz	<R0+2
   201 00:015C: A5 01        	lda	<R0
   202 00:015E: 18           	clc
   203 00:015F: 65 0D        	adc	<L3+s1_1
   204 00:0161: 85 0D        	sta	<L3+s1_1
   205 00:0163: A5 03        	lda	<R0+2
   206 00:0165: 65 0F        	adc	<L3+s1_1+2
   207 00:0167: 85 0F        	sta	<L3+s1_1+2
   208 00:0169: A5 11        	lda	<L3+s2_1
   209 00:016B: 18           	clc
   210 00:016C: 65 0D        	adc	<L3+s1_1
   211 00:016E: 85 11        	sta	<L3+s2_1
   212 00:0170: A5 13        	lda	<L3+s2_1+2
   213 00:0172: 65 0F        	adc	<L3+s1_1+2
   214 00:0174: 85 13        	sta	<L3+s2_1+2
   215 00:0176: C8           	iny
   216 00:0177: B7 09        	lda	[<L3+buf_1],Y
   217 00:0179: 29 FF 00     	and	#$ff
   218 00:017C: 85 01        	sta	<R0
   219 00:017E: 64 03        	stz	<R0+2
   220 00:0180: A5 01        	lda	<R0
   221 00:0182: 18           	clc
   222 00:0183: 65 0D        	adc	<L3+s1_1
   223 00:0185: 85 0D        	sta	<L3+s1_1
   224 00:0187: A5 03        	lda	<R0+2
   225 00:0189: 65 0F        	adc	<L3+s1_1+2
   226 00:018B: 85 0F        	sta	<L3+s1_1+2
  Sat Dec  5 2020 14:18                                                Page 5


   227 00:018D: A5 11        	lda	<L3+s2_1
   228 00:018F: 18           	clc
   229 00:0190: 65 0D        	adc	<L3+s1_1
   230 00:0192: 85 11        	sta	<L3+s2_1
   231 00:0194: A5 13        	lda	<L3+s2_1+2
   232 00:0196: 65 0F        	adc	<L3+s1_1+2
   233 00:0198: 85 13        	sta	<L3+s2_1+2
   234 00:019A: C8           	iny
   235 00:019B: B7 09        	lda	[<L3+buf_1],Y
   236 00:019D: 29 FF 00     	and	#$ff
   237 00:01A0: 85 01        	sta	<R0
   238 00:01A2: 64 03        	stz	<R0+2
   239 00:01A4: A5 01        	lda	<R0
   240 00:01A6: 18           	clc
   241 00:01A7: 65 0D        	adc	<L3+s1_1
   242 00:01A9: 85 0D        	sta	<L3+s1_1
   243 00:01AB: A5 03        	lda	<R0+2
   244 00:01AD: 65 0F        	adc	<L3+s1_1+2
   245 00:01AF: 85 0F        	sta	<L3+s1_1+2
   246 00:01B1: A5 11        	lda	<L3+s2_1
   247 00:01B3: 18           	clc
   248 00:01B4: 65 0D        	adc	<L3+s1_1
   249 00:01B6: 85 11        	sta	<L3+s2_1
   250 00:01B8: A5 13        	lda	<L3+s2_1+2
   251 00:01BA: 65 0F        	adc	<L3+s1_1+2
   252 00:01BC: 85 13        	sta	<L3+s2_1+2
   253 00:01BE: C8           	iny
   254 00:01BF: B7 09        	lda	[<L3+buf_1],Y
   255 00:01C1: 29 FF 00     	and	#$ff
   256 00:01C4: 85 01        	sta	<R0
   257 00:01C6: 64 03        	stz	<R0+2
   258 00:01C8: A5 01        	lda	<R0
   259 00:01CA: 18           	clc
   260 00:01CB: 65 0D        	adc	<L3+s1_1
   261 00:01CD: 85 0D        	sta	<L3+s1_1
   262 00:01CF: A5 03        	lda	<R0+2
   263 00:01D1: 65 0F        	adc	<L3+s1_1+2
   264 00:01D3: 85 0F        	sta	<L3+s1_1+2
   265 00:01D5: A5 11        	lda	<L3+s2_1
   266 00:01D7: 18           	clc
   267 00:01D8: 65 0D        	adc	<L3+s1_1
   268 00:01DA: 85 11        	sta	<L3+s2_1
   269 00:01DC: A5 13        	lda	<L3+s2_1+2
   270 00:01DE: 65 0F        	adc	<L3+s1_1+2
   271 00:01E0: 85 13        	sta	<L3+s2_1+2
   272 00:01E2: C8           	iny
   273 00:01E3: B7 09        	lda	[<L3+buf_1],Y
   274 00:01E5: 29 FF 00     	and	#$ff
   275 00:01E8: 85 01        	sta	<R0
   276 00:01EA: 64 03        	stz	<R0+2
   277 00:01EC: A5 01        	lda	<R0
   278 00:01EE: 18           	clc
   279 00:01EF: 65 0D        	adc	<L3+s1_1
   280 00:01F1: 85 0D        	sta	<L3+s1_1
   281 00:01F3: A5 03        	lda	<R0+2
   282 00:01F5: 65 0F        	adc	<L3+s1_1+2
   283 00:01F7: 85 0F        	sta	<L3+s1_1+2
   284 00:01F9: A5 11        	lda	<L3+s2_1
  Sat Dec  5 2020 14:18                                                Page 6


   285 00:01FB: 18           	clc
   286 00:01FC: 65 0D        	adc	<L3+s1_1
   287 00:01FE: 85 11        	sta	<L3+s2_1
   288 00:0200: A5 13        	lda	<L3+s2_1+2
   289 00:0202: 65 0F        	adc	<L3+s1_1+2
   290 00:0204: 85 13        	sta	<L3+s2_1+2
   291 00:0206: C8           	iny
   292 00:0207: B7 09        	lda	[<L3+buf_1],Y
   293 00:0209: 29 FF 00     	and	#$ff
   294 00:020C: 85 01        	sta	<R0
   295 00:020E: 64 03        	stz	<R0+2
   296 00:0210: A5 01        	lda	<R0
   297 00:0212: 18           	clc
   298 00:0213: 65 0D        	adc	<L3+s1_1
   299 00:0215: 85 0D        	sta	<L3+s1_1
   300 00:0217: A5 03        	lda	<R0+2
   301 00:0219: 65 0F        	adc	<L3+s1_1+2
   302 00:021B: 85 0F        	sta	<L3+s1_1+2
   303 00:021D: A5 11        	lda	<L3+s2_1
   304 00:021F: 18           	clc
   305 00:0220: 65 0D        	adc	<L3+s1_1
   306 00:0222: 85 11        	sta	<L3+s2_1
   307 00:0224: A5 13        	lda	<L3+s2_1+2
   308 00:0226: 65 0F        	adc	<L3+s1_1+2
   309 00:0228: 85 13        	sta	<L3+s2_1+2
   310 00:022A: C8           	iny
   311 00:022B: B7 09        	lda	[<L3+buf_1],Y
   312 00:022D: 29 FF 00     	and	#$ff
   313 00:0230: 85 01        	sta	<R0
   314 00:0232: 64 03        	stz	<R0+2
   315 00:0234: A5 01        	lda	<R0
   316 00:0236: 18           	clc
   317 00:0237: 65 0D        	adc	<L3+s1_1
   318 00:0239: 85 0D        	sta	<L3+s1_1
   319 00:023B: A5 03        	lda	<R0+2
   320 00:023D: 65 0F        	adc	<L3+s1_1+2
   321 00:023F: 85 0F        	sta	<L3+s1_1+2
   322 00:0241: A5 11        	lda	<L3+s2_1
   323 00:0243: 18           	clc
   324 00:0244: 65 0D        	adc	<L3+s1_1
   325 00:0246: 85 11        	sta	<L3+s2_1
   326 00:0248: A5 13        	lda	<L3+s2_1+2
   327 00:024A: 65 0F        	adc	<L3+s1_1+2
   328 00:024C: 85 13        	sta	<L3+s2_1+2
   329 00:024E: C8           	iny
   330 00:024F: B7 09        	lda	[<L3+buf_1],Y
   331 00:0251: 29 FF 00     	and	#$ff
   332 00:0254: 85 01        	sta	<R0
   333 00:0256: 64 03        	stz	<R0+2
   334 00:0258: A5 01        	lda	<R0
   335 00:025A: 18           	clc
   336 00:025B: 65 0D        	adc	<L3+s1_1
   337 00:025D: 85 0D        	sta	<L3+s1_1
   338 00:025F: A5 03        	lda	<R0+2
   339 00:0261: 65 0F        	adc	<L3+s1_1+2
   340 00:0263: 85 0F        	sta	<L3+s1_1+2
   341 00:0265: A5 11        	lda	<L3+s2_1
   342 00:0267: 18           	clc
  Sat Dec  5 2020 14:18                                                Page 7


   343 00:0268: 65 0D        	adc	<L3+s1_1
   344 00:026A: 85 11        	sta	<L3+s2_1
   345 00:026C: A5 13        	lda	<L3+s2_1+2
   346 00:026E: 65 0F        	adc	<L3+s1_1+2
   347 00:0270: 85 13        	sta	<L3+s2_1+2
   348 00:0272: C8           	iny
   349 00:0273: B7 09        	lda	[<L3+buf_1],Y
   350 00:0275: 29 FF 00     	and	#$ff
   351 00:0278: 85 01        	sta	<R0
   352 00:027A: 64 03        	stz	<R0+2
   353 00:027C: A5 01        	lda	<R0
   354 00:027E: 18           	clc
   355 00:027F: 65 0D        	adc	<L3+s1_1
   356 00:0281: 85 0D        	sta	<L3+s1_1
   357 00:0283: A5 03        	lda	<R0+2
   358 00:0285: 65 0F        	adc	<L3+s1_1+2
   359 00:0287: 85 0F        	sta	<L3+s1_1+2
   360 00:0289: A5 11        	lda	<L3+s2_1
   361 00:028B: 18           	clc
   362 00:028C: 65 0D        	adc	<L3+s1_1
   363 00:028E: 85 11        	sta	<L3+s2_1
   364 00:0290: A5 13        	lda	<L3+s2_1+2
   365 00:0292: 65 0F        	adc	<L3+s1_1+2
   366 00:0294: 85 13        	sta	<L3+s2_1+2
   367 00:0296: A5 19        	lda	<L3+i_2
   368 00:0298: D0 02        	bne	L8
   369 00:029A: C6 1B        	dec	<L3+i_2+2
   370                        L8:
   371 00:029C: C6 19        	dec	<L3+i_2
   372 00:029E: A9 10 00     	lda	#$10
   373 00:02A1: 18           	clc
   374 00:02A2: 65 09        	adc	<L3+buf_1
   375 00:02A4: 85 09        	sta	<L3+buf_1
   376 00:02A6: 90 02        	bcc	L10006
   377 00:02A8: E6 0B        	inc	<L3+buf_1+2
   378                        L10006:
   379 00:02AA: A5 19        	lda	<L3+i_2
   380 00:02AC: 05 1B        	ora	<L3+i_2+2
   381 00:02AE: F0 03        	beq	*+5
   382 00:02B0: 82 A2 FD     	brl	L10005
   383 00:02B3: F4 00 00     	pea	#^$10
   384 00:02B6: F4 10 00     	pea	#<$10
   385 00:02B9: D4 17        	pei	<L3+k_2+2
   386 00:02BB: D4 15        	pei	<L3+k_2
   387                        	xref	~~~lmod
   388 00:02BD: 22 xx xx xx  	jsl	~~~lmod
   389 00:02C1: 85 19        	sta	<L3+i_2
   390 00:02C3: 86 1B        	stx	<L3+i_2+2
   391 00:02C5: 80 31        	bra	L10010
   392                        L10009:
   393 00:02C7: A7 09        	lda	[<L3+buf_1]
   394 00:02C9: 29 FF 00     	and	#$ff
   395 00:02CC: 85 01        	sta	<R0
   396 00:02CE: 64 03        	stz	<R0+2
   397 00:02D0: A5 01        	lda	<R0
   398 00:02D2: 18           	clc
   399 00:02D3: 65 0D        	adc	<L3+s1_1
   400 00:02D5: 85 0D        	sta	<L3+s1_1
  Sat Dec  5 2020 14:18                                                Page 8


   401 00:02D7: A5 03        	lda	<R0+2
   402 00:02D9: 65 0F        	adc	<L3+s1_1+2
   403 00:02DB: 85 0F        	sta	<L3+s1_1+2
   404 00:02DD: E6 09        	inc	<L3+buf_1
   405 00:02DF: D0 02        	bne	L11
   406 00:02E1: E6 0B        	inc	<L3+buf_1+2
   407                        L11:
   408 00:02E3: A5 11        	lda	<L3+s2_1
   409 00:02E5: 18           	clc
   410 00:02E6: 65 0D        	adc	<L3+s1_1
   411 00:02E8: 85 11        	sta	<L3+s2_1
   412 00:02EA: A5 13        	lda	<L3+s2_1+2
   413 00:02EC: 65 0F        	adc	<L3+s1_1+2
   414 00:02EE: 85 13        	sta	<L3+s2_1+2
   415 00:02F0: A5 19        	lda	<L3+i_2
   416 00:02F2: D0 02        	bne	L12
   417 00:02F4: C6 1B        	dec	<L3+i_2+2
   418                        L12:
   419 00:02F6: C6 19        	dec	<L3+i_2
   420                        L10010:
   421 00:02F8: A5 19        	lda	<L3+i_2
   422 00:02FA: 05 1B        	ora	<L3+i_2+2
   423 00:02FC: D0 C9        	bne	L10009
   424 00:02FE: F4 00 00     	pea	#^$fff1
   425 00:0301: F4 F1 FF     	pea	#<$fff1
   426 00:0304: D4 0F        	pei	<L3+s1_1+2
   427 00:0306: D4 0D        	pei	<L3+s1_1
   428                        	xref	~~~lumd
   429 00:0308: 22 xx xx xx  	jsl	~~~lumd
   430 00:030C: 85 0D        	sta	<L3+s1_1
   431 00:030E: 86 0F        	stx	<L3+s1_1+2
   432 00:0310: F4 00 00     	pea	#^$fff1
   433 00:0313: F4 F1 FF     	pea	#<$fff1
   434 00:0316: D4 13        	pei	<L3+s2_1+2
   435 00:0318: D4 11        	pei	<L3+s2_1
   436                        	xref	~~~lumd
   437 00:031A: 22 xx xx xx  	jsl	~~~lumd
   438 00:031E: 85 11        	sta	<L3+s2_1
   439 00:0320: 86 13        	stx	<L3+s2_1+2
   440 00:0322: 38           	sec
   441 00:0323: A5 24        	lda	<L2+length_0
   442 00:0325: E5 15        	sbc	<L3+k_2
   443 00:0327: 85 24        	sta	<L2+length_0
   444 00:0329: A5 26        	lda	<L2+length_0+2
   445 00:032B: E5 17        	sbc	<L3+k_2+2
   446 00:032D: 85 26        	sta	<L2+length_0+2
   447                        L10001:
   448 00:032F: A9 00 00     	lda	#$0
   449 00:0332: C5 24        	cmp	<L2+length_0
   450 00:0334: E5 26        	sbc	<L2+length_0+2
   451 00:0336: B0 03        	bcs	*+5
   452 00:0338: 82 E4 FC     	brl	L20001
   453 00:033B: D4 13        	pei	<L3+s2_1+2
   454 00:033D: D4 11        	pei	<L3+s2_1
   455 00:033F: A9 10 00     	lda	#$10
   456                        	xref	~~~lasl
   457 00:0342: 22 xx xx xx  	jsl	~~~lasl
   458 00:0346: 85 01        	sta	<R0
  Sat Dec  5 2020 14:18                                                Page 9


   459 00:0348: 86 03        	stx	<R0+2
   460 00:034A: A5 0D        	lda	<L3+s1_1
   461 00:034C: 05 01        	ora	<R0
   462 00:034E: 85 05        	sta	<R1
   463 00:0350: A5 0F        	lda	<L3+s1_1+2
   464 00:0352: 05 03        	ora	<R0+2
   465 00:0354: 85 07        	sta	<R1+2
   466 00:0356: A6 07        	ldx	<R1+2
   467 00:0358: A5 05        	lda	<R1
   468 00:035A: A8           	tay
   469 00:035B: A5 1E        	lda	<L2+2
   470 00:035D: 85 26        	sta	<L2+2+8
   471 00:035F: A5 1D        	lda	<L2+1
   472 00:0361: 85 25        	sta	<L2+1+8
   473 00:0363: 2B           	pld
   474 00:0364: 3B           	tsc
   475 00:0365: 18           	clc
   476 00:0366: 69 24 00     	adc	#L2+8
   477 00:0369: 1B           	tcs
   478 00:036A: 98           	tya
   479 00:036B: 6B           	rtl
   480             0000001C   L2	equ	28
   481             00000009   L3	equ	9
   482                        	ends
   483                        	efunc


      Lines assembled: 483
      Errors: 0
