  Sun Jan  9 2022 21:05                                                Page 1


                     ***************************************
                     **      WDC 65C816 Macro Assembler   **
                     **                                   **
                     **     Version 3.49.1- Feb  6 2006    **
                     ***************************************

     1                        ;:ts=8
     2             00000001   R0	equ	1
     3             00000005   R1	equ	5
     4             00000009   R2	equ	9
     5             0000000D   R3	equ	13
     6                        ;#include "i8080.h"
     7                        ;
     8                        ;// this array defines the number of cycles one op
                    code takes.
     9                        ;// note that there are some special cases: condit
                    ional RETs and CALLs
    10                        ;// add +6 cycles if the condition is met
    11                        ;// clang-format off
    12                        ;/*
    13                        ;static const uint8_t OPCODES_CYCLES[256] = {
    14                        ;//  0  1   2   3   4   5   6   7   8  9   A   B  
                     C   D   E  F
    15                        ;    4, 10, 7,  5,  5,  5,  7,  4,  4, 10, 7,  5, 
                     5,  5,  7, 4,  // 0
    16                        ;    4, 10, 7,  5,  5,  5,  7,  4,  4, 10, 7,  5, 
                     5,  5,  7, 4,  // 1
    17                        ;    4, 10, 16, 5,  5,  5,  7,  4,  4, 10, 16, 5, 
                     5,  5,  7, 4,  // 2
    18                        ;    4, 10, 13, 5,  10, 10, 10, 4,  4, 10, 13, 5, 
                     5,  5,  7, 4,  // 3
    19                        ;    5, 5,  5,  5,  5,  5,  7,  5,  5, 5,  5,  5, 
                     5,  5,  7, 5,  // 4
    20                        ;    5, 5,  5,  5,  5,  5,  7,  5,  5, 5,  5,  5, 
                     5,  5,  7, 5,  // 5
    21                        ;    5, 5,  5,  5,  5,  5,  7,  5,  5, 5,  5,  5, 
                     5,  5,  7, 5,  // 6
    22                        ;    7, 7,  7,  7,  7,  7,  7,  7,  5, 5,  5,  5, 
                     5,  5,  7, 5,  // 7
    23                        ;    4, 4,  4,  4,  4,  4,  7,  4,  4, 4,  4,  4, 
                     4,  4,  7, 4,  // 8
    24                        ;    4, 4,  4,  4,  4,  4,  7,  4,  4, 4,  4,  4, 
                     4,  4,  7, 4,  // 9
    25                        ;    4, 4,  4,  4,  4,  4,  7,  4,  4, 4,  4,  4, 
                     4,  4,  7, 4,  // A
    26                        ;    4, 4,  4,  4,  4,  4,  7,  4,  4, 4,  4,  4, 
                     4,  4,  7, 4,  // B
    27                        ;    5, 10, 10, 10, 11, 11, 7,  11, 5, 10, 10, 10,
                     11, 17, 7, 11, // C
    28                        ;    5, 10, 10, 10, 11, 11, 7,  11, 5, 10, 10, 10,
                     11, 17, 7, 11, // D
    29                        ;    5, 10, 10, 18, 11, 11, 7,  11, 5, 5,  10, 4, 
                     11, 17, 7, 11, // E
    30                        ;    5, 10, 10, 4,  11, 11, 7,  11, 5, 5,  10, 4, 
                     11, 17, 7, 11  // F
    31                        ;};*/
    32                        ;// clang-format on
    33                        ;
  Sun Jan  9 2022 21:05                                                Page 2


    34                        ;/*
    35                        ;static const char* DISASSEMBLE_TABLE[] = {"nop", 
                    "lxi b,#", "stax b", "inx b",
    36                        ;    "inr b", "dcr b", "mvi b,#", "rlc", "ill", "d
                    ad b", "ldax b", "dcx b",
    37                        ;    "inr c", "dcr c", "mvi c,#", "rrc", "ill", "l
                    xi d,#", "stax d", "inx d",
    38                        ;    "inr d", "dcr d", "mvi d,#", "ral", "ill", "d
                    ad d", "ldax d", "dcx d",
    39                        ;    "inr e", "dcr e", "mvi e,#", "rar", "ill", "l
                    xi h,#", "shld", "inx h",
    40                        ;    "inr h", "dcr h", "mvi h,#", "daa", "ill", "d
                    ad h", "lhld", "dcx h",
    41                        ;    "inr l", "dcr l", "mvi l,#", "cma", "ill", "l
                    xi sp,#", "sta $", "inx sp",
    42                        ;    "inr M", "dcr M", "mvi M,#", "stc", "ill", "d
                    ad sp", "lda $", "dcx sp",
    43                        ;    "inr a", "dcr a", "mvi a,#", "cmc", "mov b,b"
                    , "mov b,c", "mov b,d",
    44                        ;    "mov b,e", "mov b,h", "mov b,l", "mov b,M", "
                    mov b,a", "mov c,b", "mov c,c",
    45                        ;    "mov c,d", "mov c,e", "mov c,h", "mov c,l", "
                    mov c,M", "mov c,a", "mov d,b",
    46                        ;    "mov d,c", "mov d,d", "mov d,e", "mov d,h", "
                    mov d,l", "mov d,M", "mov d,a",
    47                        ;    "mov e,b", "mov e,c", "mov e,d", "mov e,e", "
                    mov e,h", "mov e,l", "mov e,M",
    48                        ;    "mov e,a", "mov h,b", "mov h,c", "mov h,d", "
                    mov h,e", "mov h,h", "mov h,l",
    49                        ;    "mov h,M", "mov h,a", "mov l,b", "mov l,c", "
                    mov l,d", "mov l,e", "mov l,h",
    50                        ;    "mov l,l", "mov l,M", "mov l,a", "mov M,b", "
                    mov M,c", "mov M,d", "mov M,e",
    51                        ;    "mov M,h", "mov M,l", "hlt", "mov M,a", "mov 
                    a,b", "mov a,c", "mov a,d",
    52                        ;    "mov a,e", "mov a,h", "mov a,l", "mov a,M", "
                    mov a,a", "add b", "add c",
    53                        ;    "add d", "add e", "add h", "add l", "add M", 
                    "add a", "adc b", "adc c",
    54                        ;    "adc d", "adc e", "adc h", "adc l", "adc M", 
                    "adc a", "sub b", "sub c",
    55                        ;    "sub d", "sub e", "sub h", "sub l", "sub M", 
                    "sub a", "sbb b", "sbb c",
    56                        ;    "sbb d", "sbb e", "sbb h", "sbb l", "sbb M", 
                    "sbb a", "ana b", "ana c",
    57                        ;    "ana d", "ana e", "ana h", "ana l", "ana M", 
                    "ana a", "xra b", "xra c",
    58                        ;    "xra d", "xra e", "xra h", "xra l", "xra M", 
                    "xra a", "ora b", "ora c",
    59                        ;    "ora d", "ora e", "ora h", "ora l", "ora M", 
                    "ora a", "cmp b", "cmp c",
    60                        ;    "cmp d", "cmp e", "cmp h", "cmp l", "cmp M", 
                    "cmp a", "rnz", "pop b",
    61                        ;    "jnz $", "jmp $", "cnz $", "push b", "adi #",
                     "rst 0", "rz", "ret", "jz $",
    62                        ;    "ill", "cz $", "call $", "aci #", "rst 1", "r
                    nc", "pop d", "jnc $", "out p",
    63                        ;    "cnc $", "push d", "sui #", "rst 2", "rc", "i
  Sun Jan  9 2022 21:05                                                Page 3


                    ll", "jc $", "in p", "cc $",
    64                        ;    "ill", "sbi #", "rst 3", "rpo", "pop h", "jpo
                     $", "xthl", "cpo $", "push h",
    65                        ;    "ani #", "rst 4", "rpe", "pchl", "jpe $", "xc
                    hg", "cpe $", "ill", "xri #",
    66                        ;    "rst 5", "rp", "pop psw", "jp $", "di", "cp $
                    ", "push psw", "ori #",
    67                        ;    "rst 6", "rm", "sphl", "jm $", "ei", "cm $", 
                    "ill", "cpi #", "rst 7"};
    68                        ;*/
    69                        ;
    70                        ;#define SET_ZSP(c, val) \
    71                        ;  do { \
    72                        ;    c->zf = (val) == 0; \
    73                        ;    c->sf = (val) >> 7; \
    74                        ;    c->pf = parity(val); \
    75                        ;  } while (0)
    76                        ;
    77                        ;// memory helpers (the only four to use `read_byt
                    e` and `write_byte` function
    78                        ;// pointers)
    79                        ;
    80                        ;// reads a byte from memory
    81                        ;static  uint8_t i8080_rb(i8080* const c, uint16_t
                     addr) {
    82                        	code
    83                        	func
    84                        ~~i8080_rb:
    85                        	longa	on
    86                        	longi	on
    87 00:0000: 3B           	tsc
    88 00:0001: 38           	sec
    89 00:0002: E9 04 00     	sbc	#L2
    90 00:0005: 1B           	tcs
    91 00:0006: 0B           	phd
    92 00:0007: 5B           	tcd
    93             00000004   c_0	set	4
    94             00000008   addr_0	set	8
    95                        ;  return c->read_byte(c->userdata, addr);
    96 00:0008: D4 0C        	pei	<L2+addr_0
    97 00:000A: A0 12 00     	ldy	#$12
    98 00:000D: B7 08        	lda	[<L2+c_0],Y
    99 00:000F: 48           	pha
   100 00:0010: 88           	dey
   101 00:0011: 88           	dey
   102 00:0012: B7 08        	lda	[<L2+c_0],Y
   103 00:0014: 48           	pha
   104 00:0015: A0 02 00     	ldy	#$2
   105 00:0018: B7 08        	lda	[<L2+c_0],Y
   106 00:001A: AA           	tax
   107 00:001B: A7 08        	lda	[<L2+c_0]
   108                        	xref	~~~lcal
   109 00:001D: 22 xx xx xx  	jsl	~~~lcal
   110 00:0021: E2 20        	sep	#$20
   111                        	longa	off
   112 00:0023: 85 01        	sta	<R0
   113 00:0025: C2 20        	rep	#$20
   114                        	longa	on
  Sun Jan  9 2022 21:05                                                Page 4


   115 00:0027: A5 01        	lda	<R0
   116 00:0029: 29 FF 00     	and	#$ff
   117 00:002C: A8           	tay
   118 00:002D: A5 06        	lda	<L2+2
   119 00:002F: 85 0C        	sta	<L2+2+6
   120 00:0031: A5 05        	lda	<L2+1
   121 00:0033: 85 0B        	sta	<L2+1+6
   122 00:0035: 2B           	pld
   123 00:0036: 3B           	tsc
   124 00:0037: 18           	clc
   125 00:0038: 69 0A 00     	adc	#L2+6
   126 00:003B: 1B           	tcs
   127 00:003C: 98           	tya
   128 00:003D: 6B           	rtl
   129                        ;}
   130             00000004   L2	equ	4
   131             00000005   L3	equ	5
   132                        	ends
   133                        	efunc
   134                        ;
   135                        ;// writes a byte to memory
   136                        ;static  void i8080_wb(i8080* const c, uint16_t ad
                    dr, uint8_t val) {
   137                        	code
   138                        	func
   139                        ~~i8080_wb:
   140                        	longa	on
   141                        	longi	on
   142 00:003E: 3B           	tsc
   143 00:003F: 38           	sec
   144 00:0040: E9 00 00     	sbc	#L5
   145 00:0043: 1B           	tcs
   146 00:0044: 0B           	phd
   147 00:0045: 5B           	tcd
   148             00000004   c_0	set	4
   149             00000008   addr_0	set	8
   150             0000000A   val_0	set	10
   151                        ;  c->write_byte(c->userdata, addr, val);
   152 00:0046: D4 0A        	pei	<L5+val_0
   153 00:0048: D4 08        	pei	<L5+addr_0
   154 00:004A: A0 12 00     	ldy	#$12
   155 00:004D: B7 04        	lda	[<L5+c_0],Y
   156 00:004F: 48           	pha
   157 00:0050: 88           	dey
   158 00:0051: 88           	dey
   159 00:0052: B7 04        	lda	[<L5+c_0],Y
   160 00:0054: 48           	pha
   161 00:0055: A0 06 00     	ldy	#$6
   162 00:0058: B7 04        	lda	[<L5+c_0],Y
   163 00:005A: AA           	tax
   164 00:005B: 88           	dey
   165 00:005C: 88           	dey
   166 00:005D: B7 04        	lda	[<L5+c_0],Y
   167                        	xref	~~~lcal
   168 00:005F: 22 xx xx xx  	jsl	~~~lcal
   169                        ;}
   170 00:0063: A5 02        	lda	<L5+2
   171 00:0065: 85 0A        	sta	<L5+2+8
  Sun Jan  9 2022 21:05                                                Page 5


   172 00:0067: A5 01        	lda	<L5+1
   173 00:0069: 85 09        	sta	<L5+1+8
   174 00:006B: 2B           	pld
   175 00:006C: 3B           	tsc
   176 00:006D: 18           	clc
   177 00:006E: 69 08 00     	adc	#L5+8
   178 00:0071: 1B           	tcs
   179 00:0072: 6B           	rtl
   180             00000000   L5	equ	0
   181             00000001   L6	equ	1
   182                        	ends
   183                        	efunc
   184                        ;
   185                        ;// reads a word from memory
   186                        ;static  uint16_t i8080_rw(i8080* const c, uint16_
                    t addr) {
   187                        	code
   188                        	func
   189                        ~~i8080_rw:
   190                        	longa	on
   191                        	longi	on
   192 00:0073: 3B           	tsc
   193 00:0074: 38           	sec
   194 00:0075: E9 08 00     	sbc	#L8
   195 00:0078: 1B           	tcs
   196 00:0079: 0B           	phd
   197 00:007A: 5B           	tcd
   198             00000004   c_0	set	4
   199             00000008   addr_0	set	8
   200                        ;  return c->read_byte(c->userdata, addr + 1) << 8
                     |
   201                        ;         c->read_byte(c->userdata, addr);
   202 00:007B: A5 10        	lda	<L8+addr_0
   203 00:007D: 1A           	ina
   204 00:007E: 48           	pha
   205 00:007F: A0 12 00     	ldy	#$12
   206 00:0082: B7 0C        	lda	[<L8+c_0],Y
   207 00:0084: 48           	pha
   208 00:0085: 88           	dey
   209 00:0086: 88           	dey
   210 00:0087: B7 0C        	lda	[<L8+c_0],Y
   211 00:0089: 48           	pha
   212 00:008A: A0 02 00     	ldy	#$2
   213 00:008D: B7 0C        	lda	[<L8+c_0],Y
   214 00:008F: AA           	tax
   215 00:0090: A7 0C        	lda	[<L8+c_0]
   216                        	xref	~~~lcal
   217 00:0092: 22 xx xx xx  	jsl	~~~lcal
   218 00:0096: E2 20        	sep	#$20
   219                        	longa	off
   220 00:0098: 85 05        	sta	<R1
   221 00:009A: C2 20        	rep	#$20
   222                        	longa	on
   223 00:009C: A5 05        	lda	<R1
   224 00:009E: 29 FF 00     	and	#$ff
   225 00:00A1: EB           	xba
   226 00:00A2: 29 00 FF     	and	#$ff00
   227 00:00A5: 85 01        	sta	<R0
  Sun Jan  9 2022 21:05                                                Page 6


   228 00:00A7: D4 10        	pei	<L8+addr_0
   229 00:00A9: A0 12 00     	ldy	#$12
   230 00:00AC: B7 0C        	lda	[<L8+c_0],Y
   231 00:00AE: 48           	pha
   232 00:00AF: 88           	dey
   233 00:00B0: 88           	dey
   234 00:00B1: B7 0C        	lda	[<L8+c_0],Y
   235 00:00B3: 48           	pha
   236 00:00B4: A0 02 00     	ldy	#$2
   237 00:00B7: B7 0C        	lda	[<L8+c_0],Y
   238 00:00B9: AA           	tax
   239 00:00BA: A7 0C        	lda	[<L8+c_0]
   240                        	xref	~~~lcal
   241 00:00BC: 22 xx xx xx  	jsl	~~~lcal
   242 00:00C0: E2 20        	sep	#$20
   243                        	longa	off
   244 00:00C2: 85 05        	sta	<R1
   245 00:00C4: C2 20        	rep	#$20
   246                        	longa	on
   247 00:00C6: A5 05        	lda	<R1
   248 00:00C8: 29 FF 00     	and	#$ff
   249 00:00CB: 05 01        	ora	<R0
   250 00:00CD: A8           	tay
   251 00:00CE: A5 0A        	lda	<L8+2
   252 00:00D0: 85 10        	sta	<L8+2+6
   253 00:00D2: A5 09        	lda	<L8+1
   254 00:00D4: 85 0F        	sta	<L8+1+6
   255 00:00D6: 2B           	pld
   256 00:00D7: 3B           	tsc
   257 00:00D8: 18           	clc
   258 00:00D9: 69 0E 00     	adc	#L8+6
   259 00:00DC: 1B           	tcs
   260 00:00DD: 98           	tya
   261 00:00DE: 6B           	rtl
   262                        ;}
   263             00000008   L8	equ	8
   264             00000009   L9	equ	9
   265                        	ends
   266                        	efunc
   267                        ;
   268                        ;// writes a word to memory
   269                        ;static  void i8080_ww(i8080* const c, uint16_t ad
                    dr, uint16_t val) {
   270                        	code
   271                        	func
   272                        ~~i8080_ww:
   273                        	longa	on
   274                        	longi	on
   275 00:00DF: 3B           	tsc
   276 00:00E0: 38           	sec
   277 00:00E1: E9 00 00     	sbc	#L11
   278 00:00E4: 1B           	tcs
   279 00:00E5: 0B           	phd
   280 00:00E6: 5B           	tcd
   281             00000004   c_0	set	4
   282             00000008   addr_0	set	8
   283             0000000A   val_0	set	10
   284                        ;  c->write_byte(c->userdata, addr, val & 0xFF);
  Sun Jan  9 2022 21:05                                                Page 7


   285 00:00E7: A5 0A        	lda	<L11+val_0
   286 00:00E9: 29 FF 00     	and	#<$ff
   287 00:00EC: 48           	pha
   288 00:00ED: D4 08        	pei	<L11+addr_0
   289 00:00EF: A0 12 00     	ldy	#$12
   290 00:00F2: B7 04        	lda	[<L11+c_0],Y
   291 00:00F4: 48           	pha
   292 00:00F5: 88           	dey
   293 00:00F6: 88           	dey
   294 00:00F7: B7 04        	lda	[<L11+c_0],Y
   295 00:00F9: 48           	pha
   296 00:00FA: A0 06 00     	ldy	#$6
   297 00:00FD: B7 04        	lda	[<L11+c_0],Y
   298 00:00FF: AA           	tax
   299 00:0100: 88           	dey
   300 00:0101: 88           	dey
   301 00:0102: B7 04        	lda	[<L11+c_0],Y
   302                        	xref	~~~lcal
   303 00:0104: 22 xx xx xx  	jsl	~~~lcal
   304                        ;  c->write_byte(c->userdata, addr + 1, val >> 8);
   305 00:0108: A5 0A        	lda	<L11+val_0
   306 00:010A: EB           	xba
   307 00:010B: 29 FF 00     	and	#$00ff
   308 00:010E: 48           	pha
   309 00:010F: A5 08        	lda	<L11+addr_0
   310 00:0111: 1A           	ina
   311 00:0112: 48           	pha
   312 00:0113: A0 12 00     	ldy	#$12
   313 00:0116: B7 04        	lda	[<L11+c_0],Y
   314 00:0118: 48           	pha
   315 00:0119: 88           	dey
   316 00:011A: 88           	dey
   317 00:011B: B7 04        	lda	[<L11+c_0],Y
   318 00:011D: 48           	pha
   319 00:011E: A0 06 00     	ldy	#$6
   320 00:0121: B7 04        	lda	[<L11+c_0],Y
   321 00:0123: AA           	tax
   322 00:0124: 88           	dey
   323 00:0125: 88           	dey
   324 00:0126: B7 04        	lda	[<L11+c_0],Y
   325                        	xref	~~~lcal
   326 00:0128: 22 xx xx xx  	jsl	~~~lcal
   327                        ;}
   328 00:012C: A5 02        	lda	<L11+2
   329 00:012E: 85 0A        	sta	<L11+2+8
   330 00:0130: A5 01        	lda	<L11+1
   331 00:0132: 85 09        	sta	<L11+1+8
   332 00:0134: 2B           	pld
   333 00:0135: 3B           	tsc
   334 00:0136: 18           	clc
   335 00:0137: 69 08 00     	adc	#L11+8
   336 00:013A: 1B           	tcs
   337 00:013B: 6B           	rtl
   338             00000000   L11	equ	0
   339             00000001   L12	equ	1
   340                        	ends
   341                        	efunc
   342                        ;
  Sun Jan  9 2022 21:05                                                Page 8


   343                        ;// returns the next byte in memory (and updates t
                    he program counter)
   344                        ;static  uint8_t i8080_next_byte(i8080* const c) {
   345                        	code
   346                        	func
   347                        ~~i8080_next_byte:
   348                        	longa	on
   349                        	longi	on
   350 00:013C: 3B           	tsc
   351 00:013D: 38           	sec
   352 00:013E: E9 08 00     	sbc	#L14
   353 00:0141: 1B           	tcs
   354 00:0142: 0B           	phd
   355 00:0143: 5B           	tcd
   356             00000004   c_0	set	4
   357                        ;  return i8080_rb(c, c->pc++);
   358 00:0144: A0 18 00     	ldy	#$18
   359 00:0147: B7 0C        	lda	[<L14+c_0],Y
   360 00:0149: 85 01        	sta	<R0
   361 00:014B: B7 0C        	lda	[<L14+c_0],Y
   362 00:014D: 1A           	ina
   363 00:014E: 97 0C        	sta	[<L14+c_0],Y
   364 00:0150: D4 01        	pei	<R0
   365 00:0152: D4 0E        	pei	<L14+c_0+2
   366 00:0154: D4 0C        	pei	<L14+c_0
   367 00:0156: 22 xx xx xx  	jsl	~~i8080_rb
   368 00:015A: E2 20        	sep	#$20
   369                        	longa	off
   370 00:015C: 85 05        	sta	<R1
   371 00:015E: C2 20        	rep	#$20
   372                        	longa	on
   373 00:0160: A5 05        	lda	<R1
   374 00:0162: 29 FF 00     	and	#$ff
   375 00:0165: A8           	tay
   376 00:0166: A5 0A        	lda	<L14+2
   377 00:0168: 85 0E        	sta	<L14+2+4
   378 00:016A: A5 09        	lda	<L14+1
   379 00:016C: 85 0D        	sta	<L14+1+4
   380 00:016E: 2B           	pld
   381 00:016F: 3B           	tsc
   382 00:0170: 18           	clc
   383 00:0171: 69 0C 00     	adc	#L14+4
   384 00:0174: 1B           	tcs
   385 00:0175: 98           	tya
   386 00:0176: 6B           	rtl
   387                        ;}
   388             00000008   L14	equ	8
   389             00000009   L15	equ	9
   390                        	ends
   391                        	efunc
   392                        ;
   393                        ;// returns the next word in memory (and updates t
                    he program counter)
   394                        ;static  uint16_t i8080_next_word(i8080* const c) 
                    {
   395                        	code
   396                        	func
   397                        ~~i8080_next_word:
  Sun Jan  9 2022 21:05                                                Page 9


   398                        	longa	on
   399                        	longi	on
   400 00:0177: 3B           	tsc
   401 00:0178: 38           	sec
   402 00:0179: E9 06 00     	sbc	#L17
   403 00:017C: 1B           	tcs
   404 00:017D: 0B           	phd
   405 00:017E: 5B           	tcd
   406             00000004   c_0	set	4
   407                        ;  uint16_t result = i8080_rw(c, c->pc);
   408                        ;  c->pc += 2;
   409             00000000   result_1	set	0
   410 00:017F: A0 18 00     	ldy	#$18
   411 00:0182: B7 0A        	lda	[<L17+c_0],Y
   412 00:0184: 48           	pha
   413 00:0185: D4 0C        	pei	<L17+c_0+2
   414 00:0187: D4 0A        	pei	<L17+c_0
   415 00:0189: 22 xx xx xx  	jsl	~~i8080_rw
   416 00:018D: 85 05        	sta	<L18+result_1
   417 00:018F: A9 18 00     	lda	#$18
   418 00:0192: 18           	clc
   419 00:0193: 65 0A        	adc	<L17+c_0
   420 00:0195: 85 01        	sta	<R0
   421 00:0197: A9 00 00     	lda	#$0
   422 00:019A: 65 0C        	adc	<L17+c_0+2
   423 00:019C: 85 03        	sta	<R0+2
   424 00:019E: A9 02 00     	lda	#$2
   425 00:01A1: 18           	clc
   426 00:01A2: 67 01        	adc	[<R0]
   427 00:01A4: 87 01        	sta	[<R0]
   428                        ;  return result;
   429 00:01A6: A5 05        	lda	<L18+result_1
   430 00:01A8: A8           	tay
   431 00:01A9: A5 08        	lda	<L17+2
   432 00:01AB: 85 0C        	sta	<L17+2+4
   433 00:01AD: A5 07        	lda	<L17+1
   434 00:01AF: 85 0B        	sta	<L17+1+4
   435 00:01B1: 2B           	pld
   436 00:01B2: 3B           	tsc
   437 00:01B3: 18           	clc
   438 00:01B4: 69 0A 00     	adc	#L17+4
   439 00:01B7: 1B           	tcs
   440 00:01B8: 98           	tya
   441 00:01B9: 6B           	rtl
   442                        ;}
   443             00000006   L17	equ	6
   444             00000005   L18	equ	5
   445                        	ends
   446                        	efunc
   447                        ;
   448                        ;// paired registers helpers (setters and getters)
   449                        ;static  void i8080_set_bc(i8080* const c, uint16_
                    t val) {
   450                        	code
   451                        	func
   452                        ~~i8080_set_bc:
   453                        	longa	on
   454                        	longi	on
  Sun Jan  9 2022 21:05                                                Page 10


   455 00:01BA: 3B           	tsc
   456 00:01BB: 38           	sec
   457 00:01BC: E9 00 00     	sbc	#L20
   458 00:01BF: 1B           	tcs
   459 00:01C0: 0B           	phd
   460 00:01C1: 5B           	tcd
   461             00000004   c_0	set	4
   462             00000008   val_0	set	8
   463                        ;  c->b = val >> 8;
   464 00:01C2: A5 08        	lda	<L20+val_0
   465 00:01C4: EB           	xba
   466 00:01C5: 29 FF 00     	and	#$00ff
   467 00:01C8: E2 20        	sep	#$20
   468                        	longa	off
   469 00:01CA: A0 1D 00     	ldy	#$1d
   470 00:01CD: 97 04        	sta	[<L20+c_0],Y
   471 00:01CF: C2 20        	rep	#$20
   472                        	longa	on
   473                        ;  c->c = val & 0xFF;
   474 00:01D1: A5 08        	lda	<L20+val_0
   475 00:01D3: 29 FF 00     	and	#<$ff
   476 00:01D6: E2 20        	sep	#$20
   477                        	longa	off
   478 00:01D8: C8           	iny
   479 00:01D9: 97 04        	sta	[<L20+c_0],Y
   480 00:01DB: C2 20        	rep	#$20
   481                        	longa	on
   482                        ;}
   483 00:01DD: A5 02        	lda	<L20+2
   484 00:01DF: 85 08        	sta	<L20+2+6
   485 00:01E1: A5 01        	lda	<L20+1
   486 00:01E3: 85 07        	sta	<L20+1+6
   487 00:01E5: 2B           	pld
   488 00:01E6: 3B           	tsc
   489 00:01E7: 18           	clc
   490 00:01E8: 69 06 00     	adc	#L20+6
   491 00:01EB: 1B           	tcs
   492 00:01EC: 6B           	rtl
   493             00000000   L20	equ	0
   494             00000001   L21	equ	1
   495                        	ends
   496                        	efunc
   497                        ;
   498                        ;static  void i8080_set_de(i8080* const c, uint16_
                    t val) {
   499                        	code
   500                        	func
   501                        ~~i8080_set_de:
   502                        	longa	on
   503                        	longi	on
   504 00:01ED: 3B           	tsc
   505 00:01EE: 38           	sec
   506 00:01EF: E9 00 00     	sbc	#L23
   507 00:01F2: 1B           	tcs
   508 00:01F3: 0B           	phd
   509 00:01F4: 5B           	tcd
   510             00000004   c_0	set	4
   511             00000008   val_0	set	8
  Sun Jan  9 2022 21:05                                                Page 11


   512                        ;  c->d = val >> 8;
   513 00:01F5: A5 08        	lda	<L23+val_0
   514 00:01F7: EB           	xba
   515 00:01F8: 29 FF 00     	and	#$00ff
   516 00:01FB: E2 20        	sep	#$20
   517                        	longa	off
   518 00:01FD: A0 1F 00     	ldy	#$1f
   519 00:0200: 97 04        	sta	[<L23+c_0],Y
   520 00:0202: C2 20        	rep	#$20
   521                        	longa	on
   522                        ;  c->e = val & 0xFF;
   523 00:0204: A5 08        	lda	<L23+val_0
   524 00:0206: 29 FF 00     	and	#<$ff
   525 00:0209: E2 20        	sep	#$20
   526                        	longa	off
   527 00:020B: C8           	iny
   528 00:020C: 97 04        	sta	[<L23+c_0],Y
   529 00:020E: C2 20        	rep	#$20
   530                        	longa	on
   531                        ;}
   532 00:0210: A5 02        	lda	<L23+2
   533 00:0212: 85 08        	sta	<L23+2+6
   534 00:0214: A5 01        	lda	<L23+1
   535 00:0216: 85 07        	sta	<L23+1+6
   536 00:0218: 2B           	pld
   537 00:0219: 3B           	tsc
   538 00:021A: 18           	clc
   539 00:021B: 69 06 00     	adc	#L23+6
   540 00:021E: 1B           	tcs
   541 00:021F: 6B           	rtl
   542             00000000   L23	equ	0
   543             00000001   L24	equ	1
   544                        	ends
   545                        	efunc
   546                        ;
   547                        ;static  void i8080_set_hl(i8080* const c, uint16_
                    t val) {
   548                        	code
   549                        	func
   550                        ~~i8080_set_hl:
   551                        	longa	on
   552                        	longi	on
   553 00:0220: 3B           	tsc
   554 00:0221: 38           	sec
   555 00:0222: E9 00 00     	sbc	#L26
   556 00:0225: 1B           	tcs
   557 00:0226: 0B           	phd
   558 00:0227: 5B           	tcd
   559             00000004   c_0	set	4
   560             00000008   val_0	set	8
   561                        ;  c->h = val >> 8;
   562 00:0228: A5 08        	lda	<L26+val_0
   563 00:022A: EB           	xba
   564 00:022B: 29 FF 00     	and	#$00ff
   565 00:022E: E2 20        	sep	#$20
   566                        	longa	off
   567 00:0230: A0 21 00     	ldy	#$21
   568 00:0233: 97 04        	sta	[<L26+c_0],Y
  Sun Jan  9 2022 21:05                                                Page 12


   569 00:0235: C2 20        	rep	#$20
   570                        	longa	on
   571                        ;  c->l = val & 0xFF;
   572 00:0237: A5 08        	lda	<L26+val_0
   573 00:0239: 29 FF 00     	and	#<$ff
   574 00:023C: E2 20        	sep	#$20
   575                        	longa	off
   576 00:023E: C8           	iny
   577 00:023F: 97 04        	sta	[<L26+c_0],Y
   578 00:0241: C2 20        	rep	#$20
   579                        	longa	on
   580                        ;}
   581 00:0243: A5 02        	lda	<L26+2
   582 00:0245: 85 08        	sta	<L26+2+6
   583 00:0247: A5 01        	lda	<L26+1
   584 00:0249: 85 07        	sta	<L26+1+6
   585 00:024B: 2B           	pld
   586 00:024C: 3B           	tsc
   587 00:024D: 18           	clc
   588 00:024E: 69 06 00     	adc	#L26+6
   589 00:0251: 1B           	tcs
   590 00:0252: 6B           	rtl
   591             00000000   L26	equ	0
   592             00000001   L27	equ	1
   593                        	ends
   594                        	efunc
   595                        ;
   596                        ;static  uint16_t i8080_get_bc(i8080* const c) {
   597                        	code
   598                        	func
   599                        ~~i8080_get_bc:
   600                        	longa	on
   601                        	longi	on
   602 00:0253: 3B           	tsc
   603 00:0254: 38           	sec
   604 00:0255: E9 08 00     	sbc	#L29
   605 00:0258: 1B           	tcs
   606 00:0259: 0B           	phd
   607 00:025A: 5B           	tcd
   608             00000004   c_0	set	4
   609                        ;  return (c->b << 8) | c->c;
   610 00:025B: A0 1D 00     	ldy	#$1d
   611 00:025E: B7 0C        	lda	[<L29+c_0],Y
   612 00:0260: 29 FF 00     	and	#$ff
   613 00:0263: EB           	xba
   614 00:0264: 29 00 FF     	and	#$ff00
   615 00:0267: 85 01        	sta	<R0
   616 00:0269: C8           	iny
   617 00:026A: B7 0C        	lda	[<L29+c_0],Y
   618 00:026C: 29 FF 00     	and	#$ff
   619 00:026F: 05 01        	ora	<R0
   620 00:0271: A8           	tay
   621 00:0272: A5 0A        	lda	<L29+2
   622 00:0274: 85 0E        	sta	<L29+2+4
   623 00:0276: A5 09        	lda	<L29+1
   624 00:0278: 85 0D        	sta	<L29+1+4
   625 00:027A: 2B           	pld
   626 00:027B: 3B           	tsc
  Sun Jan  9 2022 21:05                                                Page 13


   627 00:027C: 18           	clc
   628 00:027D: 69 0C 00     	adc	#L29+4
   629 00:0280: 1B           	tcs
   630 00:0281: 98           	tya
   631 00:0282: 6B           	rtl
   632                        ;}
   633             00000008   L29	equ	8
   634             00000009   L30	equ	9
   635                        	ends
   636                        	efunc
   637                        ;
   638                        ;static  uint16_t i8080_get_de(i8080* const c) {
   639                        	code
   640                        	func
   641                        ~~i8080_get_de:
   642                        	longa	on
   643                        	longi	on
   644 00:0283: 3B           	tsc
   645 00:0284: 38           	sec
   646 00:0285: E9 08 00     	sbc	#L32
   647 00:0288: 1B           	tcs
   648 00:0289: 0B           	phd
   649 00:028A: 5B           	tcd
   650             00000004   c_0	set	4
   651                        ;  return (c->d << 8) | c->e;
   652 00:028B: A0 1F 00     	ldy	#$1f
   653 00:028E: B7 0C        	lda	[<L32+c_0],Y
   654 00:0290: 29 FF 00     	and	#$ff
   655 00:0293: EB           	xba
   656 00:0294: 29 00 FF     	and	#$ff00
   657 00:0297: 85 01        	sta	<R0
   658 00:0299: C8           	iny
   659 00:029A: B7 0C        	lda	[<L32+c_0],Y
   660 00:029C: 29 FF 00     	and	#$ff
   661 00:029F: 05 01        	ora	<R0
   662 00:02A1: A8           	tay
   663 00:02A2: A5 0A        	lda	<L32+2
   664 00:02A4: 85 0E        	sta	<L32+2+4
   665 00:02A6: A5 09        	lda	<L32+1
   666 00:02A8: 85 0D        	sta	<L32+1+4
   667 00:02AA: 2B           	pld
   668 00:02AB: 3B           	tsc
   669 00:02AC: 18           	clc
   670 00:02AD: 69 0C 00     	adc	#L32+4
   671 00:02B0: 1B           	tcs
   672 00:02B1: 98           	tya
   673 00:02B2: 6B           	rtl
   674                        ;}
   675             00000008   L32	equ	8
   676             00000009   L33	equ	9
   677                        	ends
   678                        	efunc
   679                        ;
   680                        ;static  uint16_t i8080_get_hl(i8080* const c) {
   681                        	code
   682                        	func
   683                        ~~i8080_get_hl:
   684                        	longa	on
  Sun Jan  9 2022 21:05                                                Page 14


   685                        	longi	on
   686 00:02B3: 3B           	tsc
   687 00:02B4: 38           	sec
   688 00:02B5: E9 08 00     	sbc	#L35
   689 00:02B8: 1B           	tcs
   690 00:02B9: 0B           	phd
   691 00:02BA: 5B           	tcd
   692             00000004   c_0	set	4
   693                        ;  return (c->h << 8) | c->l;
   694 00:02BB: A0 21 00     	ldy	#$21
   695 00:02BE: B7 0C        	lda	[<L35+c_0],Y
   696 00:02C0: 29 FF 00     	and	#$ff
   697 00:02C3: EB           	xba
   698 00:02C4: 29 00 FF     	and	#$ff00
   699 00:02C7: 85 01        	sta	<R0
   700 00:02C9: C8           	iny
   701 00:02CA: B7 0C        	lda	[<L35+c_0],Y
   702 00:02CC: 29 FF 00     	and	#$ff
   703 00:02CF: 05 01        	ora	<R0
   704 00:02D1: A8           	tay
   705 00:02D2: A5 0A        	lda	<L35+2
   706 00:02D4: 85 0E        	sta	<L35+2+4
   707 00:02D6: A5 09        	lda	<L35+1
   708 00:02D8: 85 0D        	sta	<L35+1+4
   709 00:02DA: 2B           	pld
   710 00:02DB: 3B           	tsc
   711 00:02DC: 18           	clc
   712 00:02DD: 69 0C 00     	adc	#L35+4
   713 00:02E0: 1B           	tcs
   714 00:02E1: 98           	tya
   715 00:02E2: 6B           	rtl
   716                        ;}
   717             00000008   L35	equ	8
   718             00000009   L36	equ	9
   719                        	ends
   720                        	efunc
   721                        ;
   722                        ;// stack helpers
   723                        ;
   724                        ;// pushes a value into the stack and updates the 
                    stack pointer
   725                        ;static  void i8080_push_stack(i8080* const c, uin
                    t16_t val) {
   726                        	code
   727                        	func
   728                        ~~i8080_push_stack:
   729                        	longa	on
   730                        	longi	on
   731 00:02E3: 3B           	tsc
   732 00:02E4: 38           	sec
   733 00:02E5: E9 04 00     	sbc	#L38
   734 00:02E8: 1B           	tcs
   735 00:02E9: 0B           	phd
   736 00:02EA: 5B           	tcd
   737             00000004   c_0	set	4
   738             00000008   val_0	set	8
   739                        ;  c->sp -= 2;
   740 00:02EB: A9 1A 00     	lda	#$1a
  Sun Jan  9 2022 21:05                                                Page 15


   741 00:02EE: 18           	clc
   742 00:02EF: 65 08        	adc	<L38+c_0
   743 00:02F1: 85 01        	sta	<R0
   744 00:02F3: A9 00 00     	lda	#$0
   745 00:02F6: 65 0A        	adc	<L38+c_0+2
   746 00:02F8: 85 03        	sta	<R0+2
   747 00:02FA: A9 FE FF     	lda	#$fffe
   748 00:02FD: 18           	clc
   749 00:02FE: 67 01        	adc	[<R0]
   750 00:0300: 87 01        	sta	[<R0]
   751                        ;  i8080_ww(c, c->sp, val);
   752 00:0302: D4 0C        	pei	<L38+val_0
   753 00:0304: A0 1A 00     	ldy	#$1a
   754 00:0307: B7 08        	lda	[<L38+c_0],Y
   755 00:0309: 48           	pha
   756 00:030A: D4 0A        	pei	<L38+c_0+2
   757 00:030C: D4 08        	pei	<L38+c_0
   758 00:030E: 22 xx xx xx  	jsl	~~i8080_ww
   759                        ;}
   760 00:0312: A5 06        	lda	<L38+2
   761 00:0314: 85 0C        	sta	<L38+2+6
   762 00:0316: A5 05        	lda	<L38+1
   763 00:0318: 85 0B        	sta	<L38+1+6
   764 00:031A: 2B           	pld
   765 00:031B: 3B           	tsc
   766 00:031C: 18           	clc
   767 00:031D: 69 0A 00     	adc	#L38+6
   768 00:0320: 1B           	tcs
   769 00:0321: 6B           	rtl
   770             00000004   L38	equ	4
   771             00000005   L39	equ	5
   772                        	ends
   773                        	efunc
   774                        ;
   775                        ;// pops a value from the stack and updates the st
                    ack pointer
   776                        ;static  uint16_t i8080_pop_stack(i8080* const c) 
                    {
   777                        	code
   778                        	func
   779                        ~~i8080_pop_stack:
   780                        	longa	on
   781                        	longi	on
   782 00:0322: 3B           	tsc
   783 00:0323: 38           	sec
   784 00:0324: E9 06 00     	sbc	#L41
   785 00:0327: 1B           	tcs
   786 00:0328: 0B           	phd
   787 00:0329: 5B           	tcd
   788             00000004   c_0	set	4
   789                        ;  uint16_t val = i8080_rw(c, c->sp);
   790                        ;  c->sp += 2;
   791             00000000   val_1	set	0
   792 00:032A: A0 1A 00     	ldy	#$1a
   793 00:032D: B7 0A        	lda	[<L41+c_0],Y
   794 00:032F: 48           	pha
   795 00:0330: D4 0C        	pei	<L41+c_0+2
   796 00:0332: D4 0A        	pei	<L41+c_0
  Sun Jan  9 2022 21:05                                                Page 16


   797 00:0334: 22 xx xx xx  	jsl	~~i8080_rw
   798 00:0338: 85 05        	sta	<L42+val_1
   799 00:033A: A9 1A 00     	lda	#$1a
   800 00:033D: 18           	clc
   801 00:033E: 65 0A        	adc	<L41+c_0
   802 00:0340: 85 01        	sta	<R0
   803 00:0342: A9 00 00     	lda	#$0
   804 00:0345: 65 0C        	adc	<L41+c_0+2
   805 00:0347: 85 03        	sta	<R0+2
   806 00:0349: A9 02 00     	lda	#$2
   807 00:034C: 18           	clc
   808 00:034D: 67 01        	adc	[<R0]
   809 00:034F: 87 01        	sta	[<R0]
   810                        ;  return val;
   811 00:0351: A5 05        	lda	<L42+val_1
   812 00:0353: A8           	tay
   813 00:0354: A5 08        	lda	<L41+2
   814 00:0356: 85 0C        	sta	<L41+2+4
   815 00:0358: A5 07        	lda	<L41+1
   816 00:035A: 85 0B        	sta	<L41+1+4
   817 00:035C: 2B           	pld
   818 00:035D: 3B           	tsc
   819 00:035E: 18           	clc
   820 00:035F: 69 0A 00     	adc	#L41+4
   821 00:0362: 1B           	tcs
   822 00:0363: 98           	tya
   823 00:0364: 6B           	rtl
   824                        ;}
   825             00000006   L41	equ	6
   826             00000005   L42	equ	5
   827                        	ends
   828                        	efunc
   829                        ;
   830                        ;// opcodes
   831                        ;
   832                        ;// returns the parity of byte: 0 if number of 1 b
                    its in `val` is odd, else 1
   833                        ;static  bool parity(uint8_t val) {
   834                        	code
   835                        	func
   836                        ~~parity:
   837                        	longa	on
   838                        	longi	on
   839 00:0365: 3B           	tsc
   840 00:0366: 38           	sec
   841 00:0367: E9 08 00     	sbc	#L44
   842 00:036A: 1B           	tcs
   843 00:036B: 0B           	phd
   844 00:036C: 5B           	tcd
   845             00000004   val_0	set	4
   846                        ;  uint16_t i;
   847                        ;  uint16_t nb_one_bits = 0;
   848                        ;  for (i = 0; i < 8; i++) {
   849             00000000   i_1	set	0
   850             00000002   nb_one_bits_1	set	2
   851 00:036D: 64 07        	stz	<L45+nb_one_bits_1
   852 00:036F: 64 05        	stz	<L45+i_1
   853 00:0371: 80 15        	bra	L10004
  Sun Jan  9 2022 21:05                                                Page 17


   854                        L10003:
   855                        ;    nb_one_bits += ((val >> i) & 1);
   856 00:0373: A5 0C        	lda	<L44+val_0
   857 00:0375: 29 FF 00     	and	#$ff
   858 00:0378: A6 05        	ldx	<L45+i_1
   859                        	xref	~~~asr
   860 00:037A: 22 xx xx xx  	jsl	~~~asr
   861 00:037E: 29 01 00     	and	#<$1
   862 00:0381: 18           	clc
   863 00:0382: 65 07        	adc	<L45+nb_one_bits_1
   864 00:0384: 85 07        	sta	<L45+nb_one_bits_1
   865                        ;  }
   866 00:0386: E6 05        	inc	<L45+i_1
   867                        L10004:
   868 00:0388: A5 05        	lda	<L45+i_1
   869 00:038A: C9 08 00     	cmp	#<$8
   870 00:038D: 90 E4        	bcc	L10003
   871                        ;
   872                        ;  return (nb_one_bits & 1) == 0;
   873 00:038F: 64 01        	stz	<R0
   874 00:0391: A5 07        	lda	<L45+nb_one_bits_1
   875 00:0393: 29 01 00     	and	#<$1
   876 00:0396: D0 02        	bne	L47
   877 00:0398: E6 01        	inc	<R0
   878                        L47:
   879 00:039A: A5 01        	lda	<R0
   880 00:039C: A8           	tay
   881 00:039D: A5 0A        	lda	<L44+2
   882 00:039F: 85 0C        	sta	<L44+2+2
   883 00:03A1: A5 09        	lda	<L44+1
   884 00:03A3: 85 0B        	sta	<L44+1+2
   885 00:03A5: 2B           	pld
   886 00:03A6: 3B           	tsc
   887 00:03A7: 18           	clc
   888 00:03A8: 69 0A 00     	adc	#L44+2
   889 00:03AB: 1B           	tcs
   890 00:03AC: 98           	tya
   891 00:03AD: 6B           	rtl
   892                        ;}
   893             00000008   L44	equ	8
   894             00000005   L45	equ	5
   895                        	ends
   896                        	efunc
   897                        ;
   898                        ;// returns if there was a carry between bit "bit_
                    no" and "bit_no - 1" when
   899                        ;// executing "a + b + cy"
   900                        ;static  bool carry(int bit_no, uint8_t a, uint8_t
                     b, bool cy) {
   901                        	code
   902                        	func
   903                        ~~carry:
   904                        	longa	on
   905                        	longi	on
   906 00:03AE: 3B           	tsc
   907 00:03AF: 38           	sec
   908 00:03B0: E9 10 00     	sbc	#L50
   909 00:03B3: 1B           	tcs
  Sun Jan  9 2022 21:05                                                Page 18


   910 00:03B4: 0B           	phd
   911 00:03B5: 5B           	tcd
   912             00000004   bit_no_0	set	4
   913             00000006   a_0	set	6
   914             00000008   b_0	set	8
   915             0000000A   cy_0	set	10
   916                        ;  uint16_t result = a + b + cy;
   917                        ;  uint16_t carry = result ^ a ^ b;
   918                        ; 
   919                        ;  carry = ((carry & (1 << bit_no)) != 0); 
   920             00000000   result_1	set	0
   921             00000002   carry_1	set	2
   922 00:03B6: A5 18        	lda	<L50+b_0
   923 00:03B8: 29 FF 00     	and	#$ff
   924 00:03BB: 85 01        	sta	<R0
   925 00:03BD: A5 16        	lda	<L50+a_0
   926 00:03BF: 29 FF 00     	and	#$ff
   927 00:03C2: 18           	clc
   928 00:03C3: 65 01        	adc	<R0
   929 00:03C5: 18           	clc
   930 00:03C6: 65 1A        	adc	<L50+cy_0
   931 00:03C8: 85 0D        	sta	<L51+result_1
   932 00:03CA: A5 16        	lda	<L50+a_0
   933 00:03CC: 29 FF 00     	and	#$ff
   934 00:03CF: 85 01        	sta	<R0
   935 00:03D1: A5 18        	lda	<L50+b_0
   936 00:03D3: 29 FF 00     	and	#$ff
   937 00:03D6: 45 01        	eor	<R0
   938 00:03D8: 85 09        	sta	<R2
   939 00:03DA: A5 0D        	lda	<L51+result_1
   940 00:03DC: 45 09        	eor	<R2
   941 00:03DE: 85 0F        	sta	<L51+carry_1
   942 00:03E0: 64 01        	stz	<R0
   943 00:03E2: A9 01 00     	lda	#$1
   944 00:03E5: A6 14        	ldx	<L50+bit_no_0
   945                        	xref	~~~asl
   946 00:03E7: 22 xx xx xx  	jsl	~~~asl
   947 00:03EB: 85 05        	sta	<R1
   948 00:03ED: A5 0F        	lda	<L51+carry_1
   949 00:03EF: 25 05        	and	<R1
   950 00:03F1: F0 02        	beq	L52
   951 00:03F3: E6 01        	inc	<R0
   952                        L52:
   953 00:03F5: A5 01        	lda	<R0
   954 00:03F7: 85 0F        	sta	<L51+carry_1
   955                        ;  //printf("carry: %d\n", carry);
   956                        ;  return (carry);
   957 00:03F9: A8           	tay
   958 00:03FA: A5 12        	lda	<L50+2
   959 00:03FC: 85 1A        	sta	<L50+2+8
   960 00:03FE: A5 11        	lda	<L50+1
   961 00:0400: 85 19        	sta	<L50+1+8
   962 00:0402: 2B           	pld
   963 00:0403: 3B           	tsc
   964 00:0404: 18           	clc
   965 00:0405: 69 18 00     	adc	#L50+8
   966 00:0408: 1B           	tcs
   967 00:0409: 98           	tya
  Sun Jan  9 2022 21:05                                                Page 19


   968 00:040A: 6B           	rtl
   969                        ;}
   970             00000010   L50	equ	16
   971             0000000D   L51	equ	13
   972                        	ends
   973                        	efunc
   974                        ;
   975                        ;// adds a value (+ an optional carry flag) to a r
                    egister
   976                        ;static  void i8080_add(
   977                        ;    i8080* const c, uint8_t* const reg, uint8_t v
                    al, bool cy) {
   978                        	code
   979                        	func
   980                        ~~i8080_add:
   981                        	longa	on
   982                        	longi	on
   983 00:040B: 3B           	tsc
   984 00:040C: 38           	sec
   985 00:040D: E9 0D 00     	sbc	#L55
   986 00:0410: 1B           	tcs
   987 00:0411: 0B           	phd
   988 00:0412: 5B           	tcd
   989             00000004   c_0	set	4
   990             00000008   reg_0	set	8
   991             0000000C   val_0	set	12
   992             0000000E   cy_0	set	14
   993                        ;  uint8_t result = *reg + val + cy;
   994                        ;  c->cf = carry(8, *reg, val, cy);
   995             00000000   result_1	set	0
   996 00:0413: A5 19        	lda	<L55+val_0
   997 00:0415: 29 FF 00     	and	#$ff
   998 00:0418: 85 01        	sta	<R0
   999 00:041A: A7 15        	lda	[<L55+reg_0]
  1000 00:041C: 29 FF 00     	and	#$ff
  1001 00:041F: 18           	clc
  1002 00:0420: 65 01        	adc	<R0
  1003 00:0422: 18           	clc
  1004 00:0423: 65 1B        	adc	<L55+cy_0
  1005 00:0425: E2 20        	sep	#$20
  1006                        	longa	off
  1007 00:0427: 85 0D        	sta	<L56+result_1
  1008 00:0429: C2 20        	rep	#$20
  1009                        	longa	on
  1010 00:042B: D4 1B        	pei	<L55+cy_0
  1011 00:042D: D4 19        	pei	<L55+val_0
  1012 00:042F: A7 15        	lda	[<L55+reg_0]
  1013 00:0431: 48           	pha
  1014 00:0432: F4 08 00     	pea	#<$8
  1015 00:0435: 22 xx xx xx  	jsl	~~carry
  1016 00:0439: 0A           	asl
  1017 00:043A: 0A           	asl
  1018 00:043B: 0A           	asl
  1019 00:043C: 0A           	asl
  1020 00:043D: 29 10 00     	and	#<$10
  1021 00:0440: 85 01        	sta	<R0
  1022 00:0442: A0 23 00     	ldy	#$23
  1023 00:0445: B7 11        	lda	[<L55+c_0],Y
  Sun Jan  9 2022 21:05                                                Page 20


  1024 00:0447: 29 EF FF     	and	#<$ffffffef
  1025 00:044A: 05 01        	ora	<R0
  1026 00:044C: 97 11        	sta	[<L55+c_0],Y
  1027                        ;  c->hf = carry(4, *reg, val, cy);
  1028 00:044E: D4 1B        	pei	<L55+cy_0
  1029 00:0450: D4 19        	pei	<L55+val_0
  1030 00:0452: A7 15        	lda	[<L55+reg_0]
  1031 00:0454: 48           	pha
  1032 00:0455: F4 04 00     	pea	#<$4
  1033 00:0458: 22 xx xx xx  	jsl	~~carry
  1034 00:045C: 0A           	asl
  1035 00:045D: 0A           	asl
  1036 00:045E: 29 04 00     	and	#<$4
  1037 00:0461: 85 01        	sta	<R0
  1038 00:0463: A0 23 00     	ldy	#$23
  1039 00:0466: B7 11        	lda	[<L55+c_0],Y
  1040 00:0468: 29 FB FF     	and	#<$fffffffb
  1041 00:046B: 05 01        	ora	<R0
  1042 00:046D: 97 11        	sta	[<L55+c_0],Y
  1043                        ;  
  1044                        ;  //printf("c->cf: %d\n", c->cf);
  1045                        ;  SET_ZSP(c, result);
  1046 00:046F: 64 01        	stz	<R0
  1047 00:0471: A5 0D        	lda	<L56+result_1
  1048 00:0473: 29 FF 00     	and	#$ff
  1049 00:0476: D0 02        	bne	L57
  1050 00:0478: E6 01        	inc	<R0
  1051                        L57:
  1052 00:047A: 06 01        	asl	<R0
  1053 00:047C: A5 01        	lda	<R0
  1054 00:047E: 29 02 00     	and	#<$2
  1055 00:0481: 85 01        	sta	<R0
  1056 00:0483: A0 23 00     	ldy	#$23
  1057 00:0486: B7 11        	lda	[<L55+c_0],Y
  1058 00:0488: 29 FD FF     	and	#<$fffffffd
  1059 00:048B: 05 01        	ora	<R0
  1060 00:048D: 97 11        	sta	[<L55+c_0],Y
  1061 00:048F: A5 0D        	lda	<L56+result_1
  1062 00:0491: 29 FF 00     	and	#$ff
  1063 00:0494: A2 07 00     	ldx	#<$7
  1064                        	xref	~~~asr
  1065 00:0497: 22 xx xx xx  	jsl	~~~asr
  1066 00:049B: 29 01 00     	and	#<$1
  1067 00:049E: 85 01        	sta	<R0
  1068 00:04A0: A0 23 00     	ldy	#$23
  1069 00:04A3: B7 11        	lda	[<L55+c_0],Y
  1070 00:04A5: 29 FE FF     	and	#<$fffffffe
  1071 00:04A8: 05 01        	ora	<R0
  1072 00:04AA: 97 11        	sta	[<L55+c_0],Y
  1073 00:04AC: D4 0D        	pei	<L56+result_1
  1074 00:04AE: 22 xx xx xx  	jsl	~~parity
  1075 00:04B2: 0A           	asl
  1076 00:04B3: 0A           	asl
  1077 00:04B4: 0A           	asl
  1078 00:04B5: 29 08 00     	and	#<$8
  1079 00:04B8: 85 01        	sta	<R0
  1080 00:04BA: A0 23 00     	ldy	#$23
  1081 00:04BD: B7 11        	lda	[<L55+c_0],Y
  Sun Jan  9 2022 21:05                                                Page 21


  1082 00:04BF: 29 F7 FF     	and	#<$fffffff7
  1083 00:04C2: 05 01        	ora	<R0
  1084 00:04C4: 97 11        	sta	[<L55+c_0],Y
  1085                        ;  *reg = result;
  1086 00:04C6: E2 20        	sep	#$20
  1087                        	longa	off
  1088 00:04C8: A5 0D        	lda	<L56+result_1
  1089 00:04CA: 87 15        	sta	[<L55+reg_0]
  1090 00:04CC: C2 20        	rep	#$20
  1091                        	longa	on
  1092                        ;}
  1093 00:04CE: A5 0F        	lda	<L55+2
  1094 00:04D0: 85 1B        	sta	<L55+2+12
  1095 00:04D2: A5 0E        	lda	<L55+1
  1096 00:04D4: 85 1A        	sta	<L55+1+12
  1097 00:04D6: 2B           	pld
  1098 00:04D7: 3B           	tsc
  1099 00:04D8: 18           	clc
  1100 00:04D9: 69 19 00     	adc	#L55+12
  1101 00:04DC: 1B           	tcs
  1102 00:04DD: 6B           	rtl
  1103             0000000D   L55	equ	13
  1104             0000000D   L56	equ	13
  1105                        	ends
  1106                        	efunc
  1107                        ;
  1108                        ;// substracts a byte (+ an optional carry flag) f
                    rom a register
  1109                        ;// see https://stackoverflow.com/a/8037485
  1110                        ;static  void i8080_sub(
  1111                        ;    i8080* const c, uint8_t* const reg, uint8_t v
                    al, bool cy) {
  1112                        	code
  1113                        	func
  1114                        ~~i8080_sub:
  1115                        	longa	on
  1116                        	longi	on
  1117 00:04DE: 3B           	tsc
  1118 00:04DF: 38           	sec
  1119 00:04E0: E9 04 00     	sbc	#L60
  1120 00:04E3: 1B           	tcs
  1121 00:04E4: 0B           	phd
  1122 00:04E5: 5B           	tcd
  1123             00000004   c_0	set	4
  1124             00000008   reg_0	set	8
  1125             0000000C   val_0	set	12
  1126             0000000E   cy_0	set	14
  1127                        ;  i8080_add(c, reg, ~val, !cy);
  1128 00:04E6: 64 01        	stz	<R0
  1129 00:04E8: A5 12        	lda	<L60+cy_0
  1130 00:04EA: D0 02        	bne	L62
  1131 00:04EC: E6 01        	inc	<R0
  1132                        L62:
  1133 00:04EE: D4 01        	pei	<R0
  1134 00:04F0: A5 10        	lda	<L60+val_0
  1135 00:04F2: 29 FF 00     	and	#$ff
  1136 00:04F5: 49 FF FF     	eor	#<$ffffffff
  1137 00:04F8: 48           	pha
  Sun Jan  9 2022 21:05                                                Page 22


  1138 00:04F9: D4 0E        	pei	<L60+reg_0+2
  1139 00:04FB: D4 0C        	pei	<L60+reg_0
  1140 00:04FD: D4 0A        	pei	<L60+c_0+2
  1141 00:04FF: D4 08        	pei	<L60+c_0
  1142 00:0501: 22 xx xx xx  	jsl	~~i8080_add
  1143                        ;  c->cf = !c->cf;
  1144 00:0505: 64 01        	stz	<R0
  1145 00:0507: A0 23 00     	ldy	#$23
  1146 00:050A: B7 08        	lda	[<L60+c_0],Y
  1147 00:050C: 89 10 00     	bit	#$10
  1148 00:050F: D0 02        	bne	L64
  1149 00:0511: E6 01        	inc	<R0
  1150                        L64:
  1151 00:0513: 06 01        	asl	<R0
  1152 00:0515: 06 01        	asl	<R0
  1153 00:0517: 06 01        	asl	<R0
  1154 00:0519: 06 01        	asl	<R0
  1155 00:051B: A5 01        	lda	<R0
  1156 00:051D: 29 10 00     	and	#<$10
  1157 00:0520: 85 01        	sta	<R0
  1158 00:0522: A0 23 00     	ldy	#$23
  1159 00:0525: B7 08        	lda	[<L60+c_0],Y
  1160 00:0527: 29 EF FF     	and	#<$ffffffef
  1161 00:052A: 05 01        	ora	<R0
  1162 00:052C: 97 08        	sta	[<L60+c_0],Y
  1163                        ;}
  1164 00:052E: A5 06        	lda	<L60+2
  1165 00:0530: 85 12        	sta	<L60+2+12
  1166 00:0532: A5 05        	lda	<L60+1
  1167 00:0534: 85 11        	sta	<L60+1+12
  1168 00:0536: 2B           	pld
  1169 00:0537: 3B           	tsc
  1170 00:0538: 18           	clc
  1171 00:0539: 69 10 00     	adc	#L60+12
  1172 00:053C: 1B           	tcs
  1173 00:053D: 6B           	rtl
  1174             00000004   L60	equ	4
  1175             00000005   L61	equ	5
  1176                        	ends
  1177                        	efunc
  1178                        ;
  1179                        ;// adds a word to HL
  1180                        ;static  void i8080_dad(i8080* const c, uint16_t v
                    al) {
  1181                        	code
  1182                        	func
  1183                        ~~i8080_dad:
  1184                        	longa	on
  1185                        	longi	on
  1186 00:053E: 3B           	tsc
  1187 00:053F: 38           	sec
  1188 00:0540: E9 0C 00     	sbc	#L67
  1189 00:0543: 1B           	tcs
  1190 00:0544: 0B           	phd
  1191 00:0545: 5B           	tcd
  1192             00000004   c_0	set	4
  1193             00000008   val_0	set	8
  1194                        ;  unsigned long result;
  Sun Jan  9 2022 21:05                                                Page 23


  1195                        ;  
  1196                        ;  result = (long)i8080_get_hl(c) + (long)val;
  1197             00000000   result_1	set	0
  1198 00:0546: A5 14        	lda	<L67+val_0
  1199 00:0548: 85 01        	sta	<R0
  1200 00:054A: 64 03        	stz	<R0+2
  1201 00:054C: D4 12        	pei	<L67+c_0+2
  1202 00:054E: D4 10        	pei	<L67+c_0
  1203 00:0550: 22 xx xx xx  	jsl	~~i8080_get_hl
  1204 00:0554: 85 05        	sta	<R1
  1205 00:0556: 64 07        	stz	<R1+2
  1206 00:0558: A5 05        	lda	<R1
  1207 00:055A: 18           	clc
  1208 00:055B: 65 01        	adc	<R0
  1209 00:055D: 85 09        	sta	<L68+result_1
  1210 00:055F: A5 07        	lda	<R1+2
  1211 00:0561: 65 03        	adc	<R0+2
  1212 00:0563: 85 0B        	sta	<L68+result_1+2
  1213                        ;  //printf("result: %08X %04X %04X\n", result, i8
                    080_get_hl(c), val);
  1214                        ;  
  1215                        ;  result >>= 16;
  1216 00:0565: 48           	pha
  1217 00:0566: D4 09        	pei	<L68+result_1
  1218 00:0568: A9 10 00     	lda	#$10
  1219                        	xref	~~~llsr
  1220 00:056B: 22 xx xx xx  	jsl	~~~llsr
  1221 00:056F: 85 09        	sta	<L68+result_1
  1222 00:0571: 86 0B        	stx	<L68+result_1+2
  1223                        ;  //printf("result: %ul\n", result);
  1224                        ;  
  1225                        ;  
  1226                        ;  //c->cf = ((i8080_get_hl(c) + val) >> 16) & 1;
  1227                        ;  c->cf = result & 1;
  1228 00:0573: 29 01 00     	and	#<$1
  1229 00:0576: 85 01        	sta	<R0
  1230 00:0578: 64 03        	stz	<R0+2
  1231 00:057A: 06 01        	asl	<R0
  1232 00:057C: 06 01        	asl	<R0
  1233 00:057E: 06 01        	asl	<R0
  1234 00:0580: 06 01        	asl	<R0
  1235 00:0582: A5 01        	lda	<R0
  1236 00:0584: 29 10 00     	and	#<$10
  1237 00:0587: 85 01        	sta	<R0
  1238 00:0589: A0 23 00     	ldy	#$23
  1239 00:058C: B7 10        	lda	[<L67+c_0],Y
  1240 00:058E: 29 EF FF     	and	#<$ffffffef
  1241 00:0591: 05 01        	ora	<R0
  1242 00:0593: 97 10        	sta	[<L67+c_0],Y
  1243                        ;  i8080_set_hl(c, /*(unsigned int) result */ i808
                    0_get_hl(c) + val);
  1244 00:0595: D4 12        	pei	<L67+c_0+2
  1245 00:0597: D4 10        	pei	<L67+c_0
  1246 00:0599: 22 xx xx xx  	jsl	~~i8080_get_hl
  1247 00:059D: 18           	clc
  1248 00:059E: 65 14        	adc	<L67+val_0
  1249 00:05A0: 48           	pha
  1250 00:05A1: D4 12        	pei	<L67+c_0+2
  Sun Jan  9 2022 21:05                                                Page 24


  1251 00:05A3: D4 10        	pei	<L67+c_0
  1252 00:05A5: 22 xx xx xx  	jsl	~~i8080_set_hl
  1253                        ;}
  1254 00:05A9: A5 0E        	lda	<L67+2
  1255 00:05AB: 85 14        	sta	<L67+2+6
  1256 00:05AD: A5 0D        	lda	<L67+1
  1257 00:05AF: 85 13        	sta	<L67+1+6
  1258 00:05B1: 2B           	pld
  1259 00:05B2: 3B           	tsc
  1260 00:05B3: 18           	clc
  1261 00:05B4: 69 12 00     	adc	#L67+6
  1262 00:05B7: 1B           	tcs
  1263 00:05B8: 6B           	rtl
  1264             0000000C   L67	equ	12
  1265             00000009   L68	equ	9
  1266                        	ends
  1267                        	efunc
  1268                        ;
  1269                        ;// increments a byte
  1270                        ;static  uint8_t i8080_inr(i8080* const c, uint8_t
                     val) {
  1271                        	code
  1272                        	func
  1273                        ~~i8080_inr:
  1274                        	longa	on
  1275                        	longi	on
  1276 00:05B9: 3B           	tsc
  1277 00:05BA: 38           	sec
  1278 00:05BB: E9 05 00     	sbc	#L70
  1279 00:05BE: 1B           	tcs
  1280 00:05BF: 0B           	phd
  1281 00:05C0: 5B           	tcd
  1282             00000004   c_0	set	4
  1283             00000008   val_0	set	8
  1284                        ;  uint8_t result = val + 1;
  1285                        ;  c->hf = (result & 0xF) == 0;
  1286             00000000   result_1	set	0
  1287 00:05C1: E2 20        	sep	#$20
  1288                        	longa	off
  1289 00:05C3: A5 0D        	lda	<L70+val_0
  1290 00:05C5: 1A           	ina
  1291 00:05C6: 85 05        	sta	<L71+result_1
  1292 00:05C8: C2 20        	rep	#$20
  1293                        	longa	on
  1294 00:05CA: 64 01        	stz	<R0
  1295 00:05CC: E2 20        	sep	#$20
  1296                        	longa	off
  1297 00:05CE: A5 05        	lda	<L71+result_1
  1298 00:05D0: 29 0F        	and	#<$f
  1299 00:05D2: C2 20        	rep	#$20
  1300                        	longa	on
  1301 00:05D4: D0 02        	bne	L72
  1302 00:05D6: E6 01        	inc	<R0
  1303                        L72:
  1304 00:05D8: 06 01        	asl	<R0
  1305 00:05DA: 06 01        	asl	<R0
  1306 00:05DC: A5 01        	lda	<R0
  1307 00:05DE: 29 04 00     	and	#<$4
  Sun Jan  9 2022 21:05                                                Page 25


  1308 00:05E1: 85 01        	sta	<R0
  1309 00:05E3: A0 23 00     	ldy	#$23
  1310 00:05E6: B7 09        	lda	[<L70+c_0],Y
  1311 00:05E8: 29 FB FF     	and	#<$fffffffb
  1312 00:05EB: 05 01        	ora	<R0
  1313 00:05ED: 97 09        	sta	[<L70+c_0],Y
  1314                        ;  SET_ZSP(c, result);
  1315 00:05EF: 64 01        	stz	<R0
  1316 00:05F1: A5 05        	lda	<L71+result_1
  1317 00:05F3: 29 FF 00     	and	#$ff
  1318 00:05F6: D0 02        	bne	L74
  1319 00:05F8: E6 01        	inc	<R0
  1320                        L74:
  1321 00:05FA: 06 01        	asl	<R0
  1322 00:05FC: A5 01        	lda	<R0
  1323 00:05FE: 29 02 00     	and	#<$2
  1324 00:0601: 85 01        	sta	<R0
  1325 00:0603: A0 23 00     	ldy	#$23
  1326 00:0606: B7 09        	lda	[<L70+c_0],Y
  1327 00:0608: 29 FD FF     	and	#<$fffffffd
  1328 00:060B: 05 01        	ora	<R0
  1329 00:060D: 97 09        	sta	[<L70+c_0],Y
  1330 00:060F: A5 05        	lda	<L71+result_1
  1331 00:0611: 29 FF 00     	and	#$ff
  1332 00:0614: A2 07 00     	ldx	#<$7
  1333                        	xref	~~~asr
  1334 00:0617: 22 xx xx xx  	jsl	~~~asr
  1335 00:061B: 29 01 00     	and	#<$1
  1336 00:061E: 85 01        	sta	<R0
  1337 00:0620: A0 23 00     	ldy	#$23
  1338 00:0623: B7 09        	lda	[<L70+c_0],Y
  1339 00:0625: 29 FE FF     	and	#<$fffffffe
  1340 00:0628: 05 01        	ora	<R0
  1341 00:062A: 97 09        	sta	[<L70+c_0],Y
  1342 00:062C: D4 05        	pei	<L71+result_1
  1343 00:062E: 22 xx xx xx  	jsl	~~parity
  1344 00:0632: 0A           	asl
  1345 00:0633: 0A           	asl
  1346 00:0634: 0A           	asl
  1347 00:0635: 29 08 00     	and	#<$8
  1348 00:0638: 85 01        	sta	<R0
  1349 00:063A: A0 23 00     	ldy	#$23
  1350 00:063D: B7 09        	lda	[<L70+c_0],Y
  1351 00:063F: 29 F7 FF     	and	#<$fffffff7
  1352 00:0642: 05 01        	ora	<R0
  1353 00:0644: 97 09        	sta	[<L70+c_0],Y
  1354                        ;  return result;
  1355 00:0646: A5 05        	lda	<L71+result_1
  1356 00:0648: 29 FF 00     	and	#$ff
  1357 00:064B: A8           	tay
  1358 00:064C: A5 07        	lda	<L70+2
  1359 00:064E: 85 0D        	sta	<L70+2+6
  1360 00:0650: A5 06        	lda	<L70+1
  1361 00:0652: 85 0C        	sta	<L70+1+6
  1362 00:0654: 2B           	pld
  1363 00:0655: 3B           	tsc
  1364 00:0656: 18           	clc
  1365 00:0657: 69 0B 00     	adc	#L70+6
  Sun Jan  9 2022 21:05                                                Page 26


  1366 00:065A: 1B           	tcs
  1367 00:065B: 98           	tya
  1368 00:065C: 6B           	rtl
  1369                        ;}
  1370             00000005   L70	equ	5
  1371             00000005   L71	equ	5
  1372                        	ends
  1373                        	efunc
  1374                        ;
  1375                        ;// decrements a byte
  1376                        ;static  uint8_t i8080_dcr(i8080* const c, uint8_t
                     val) {
  1377                        	code
  1378                        	func
  1379                        ~~i8080_dcr:
  1380                        	longa	on
  1381                        	longi	on
  1382 00:065D: 3B           	tsc
  1383 00:065E: 38           	sec
  1384 00:065F: E9 09 00     	sbc	#L77
  1385 00:0662: 1B           	tcs
  1386 00:0663: 0B           	phd
  1387 00:0664: 5B           	tcd
  1388             00000004   c_0	set	4
  1389             00000008   val_0	set	8
  1390                        ;  uint8_t result = val - 1;
  1391                        ;  c->hf = !((result & 0xF) == 0xF);
  1392             00000000   result_1	set	0
  1393 00:0665: A5 11        	lda	<L77+val_0
  1394 00:0667: 29 FF 00     	and	#$ff
  1395 00:066A: 85 01        	sta	<R0
  1396 00:066C: 18           	clc
  1397 00:066D: 69 FF FF     	adc	#$ffff
  1398 00:0670: E2 20        	sep	#$20
  1399                        	longa	off
  1400 00:0672: 85 09        	sta	<L78+result_1
  1401 00:0674: C2 20        	rep	#$20
  1402                        	longa	on
  1403 00:0676: 64 01        	stz	<R0
  1404 00:0678: A5 09        	lda	<L78+result_1
  1405 00:067A: 29 0F 00     	and	#<$f
  1406 00:067D: C9 0F 00     	cmp	#<$f
  1407 00:0680: F0 02        	beq	L79
  1408 00:0682: E6 01        	inc	<R0
  1409                        L79:
  1410 00:0684: 06 01        	asl	<R0
  1411 00:0686: 06 01        	asl	<R0
  1412 00:0688: A5 01        	lda	<R0
  1413 00:068A: 29 04 00     	and	#<$4
  1414 00:068D: 85 01        	sta	<R0
  1415 00:068F: A0 23 00     	ldy	#$23
  1416 00:0692: B7 0D        	lda	[<L77+c_0],Y
  1417 00:0694: 29 FB FF     	and	#<$fffffffb
  1418 00:0697: 05 01        	ora	<R0
  1419 00:0699: 97 0D        	sta	[<L77+c_0],Y
  1420                        ;  SET_ZSP(c, result);
  1421 00:069B: 64 01        	stz	<R0
  1422 00:069D: A5 09        	lda	<L78+result_1
  Sun Jan  9 2022 21:05                                                Page 27


  1423 00:069F: 29 FF 00     	and	#$ff
  1424 00:06A2: D0 02        	bne	L81
  1425 00:06A4: E6 01        	inc	<R0
  1426                        L81:
  1427 00:06A6: 06 01        	asl	<R0
  1428 00:06A8: A5 01        	lda	<R0
  1429 00:06AA: 29 02 00     	and	#<$2
  1430 00:06AD: 85 01        	sta	<R0
  1431 00:06AF: A0 23 00     	ldy	#$23
  1432 00:06B2: B7 0D        	lda	[<L77+c_0],Y
  1433 00:06B4: 29 FD FF     	and	#<$fffffffd
  1434 00:06B7: 05 01        	ora	<R0
  1435 00:06B9: 97 0D        	sta	[<L77+c_0],Y
  1436 00:06BB: A5 09        	lda	<L78+result_1
  1437 00:06BD: 29 FF 00     	and	#$ff
  1438 00:06C0: A2 07 00     	ldx	#<$7
  1439                        	xref	~~~asr
  1440 00:06C3: 22 xx xx xx  	jsl	~~~asr
  1441 00:06C7: 29 01 00     	and	#<$1
  1442 00:06CA: 85 01        	sta	<R0
  1443 00:06CC: A0 23 00     	ldy	#$23
  1444 00:06CF: B7 0D        	lda	[<L77+c_0],Y
  1445 00:06D1: 29 FE FF     	and	#<$fffffffe
  1446 00:06D4: 05 01        	ora	<R0
  1447 00:06D6: 97 0D        	sta	[<L77+c_0],Y
  1448 00:06D8: D4 09        	pei	<L78+result_1
  1449 00:06DA: 22 xx xx xx  	jsl	~~parity
  1450 00:06DE: 0A           	asl
  1451 00:06DF: 0A           	asl
  1452 00:06E0: 0A           	asl
  1453 00:06E1: 29 08 00     	and	#<$8
  1454 00:06E4: 85 01        	sta	<R0
  1455 00:06E6: A0 23 00     	ldy	#$23
  1456 00:06E9: B7 0D        	lda	[<L77+c_0],Y
  1457 00:06EB: 29 F7 FF     	and	#<$fffffff7
  1458 00:06EE: 05 01        	ora	<R0
  1459 00:06F0: 97 0D        	sta	[<L77+c_0],Y
  1460                        ;  return result;
  1461 00:06F2: A5 09        	lda	<L78+result_1
  1462 00:06F4: 29 FF 00     	and	#$ff
  1463 00:06F7: A8           	tay
  1464 00:06F8: A5 0B        	lda	<L77+2
  1465 00:06FA: 85 11        	sta	<L77+2+6
  1466 00:06FC: A5 0A        	lda	<L77+1
  1467 00:06FE: 85 10        	sta	<L77+1+6
  1468 00:0700: 2B           	pld
  1469 00:0701: 3B           	tsc
  1470 00:0702: 18           	clc
  1471 00:0703: 69 0F 00     	adc	#L77+6
  1472 00:0706: 1B           	tcs
  1473 00:0707: 98           	tya
  1474 00:0708: 6B           	rtl
  1475                        ;}
  1476             00000009   L77	equ	9
  1477             00000009   L78	equ	9
  1478                        	ends
  1479                        	efunc
  1480                        ;
  Sun Jan  9 2022 21:05                                                Page 28


  1481                        ;// executes a logic "and" between register A and 
                    a byte, then stores the
  1482                        ;// result in register A
  1483                        ;static  void i8080_ana(i8080* const c, uint8_t va
                    l) {
  1484                        	code
  1485                        	func
  1486                        ~~i8080_ana:
  1487                        	longa	on
  1488                        	longi	on
  1489 00:0709: 3B           	tsc
  1490 00:070A: 38           	sec
  1491 00:070B: E9 11 00     	sbc	#L84
  1492 00:070E: 1B           	tcs
  1493 00:070F: 0B           	phd
  1494 00:0710: 5B           	tcd
  1495             00000004   c_0	set	4
  1496             00000008   val_0	set	8
  1497                        ;  uint8_t result = c->a & val;
  1498                        ;  c->cf = 0;
  1499             00000000   result_1	set	0
  1500 00:0711: E2 20        	sep	#$20
  1501                        	longa	off
  1502 00:0713: A5 19        	lda	<L84+val_0
  1503 00:0715: A0 1C 00     	ldy	#$1c
  1504 00:0718: 37 15        	and	[<L84+c_0],Y
  1505 00:071A: 85 11        	sta	<L85+result_1
  1506 00:071C: C2 20        	rep	#$20
  1507                        	longa	on
  1508 00:071E: A0 23 00     	ldy	#$23
  1509 00:0721: B7 15        	lda	[<L84+c_0],Y
  1510 00:0723: 29 EF FF     	and	#<$ffffffef
  1511 00:0726: 97 15        	sta	[<L84+c_0],Y
  1512                        ;  c->hf = ((c->a | val) & 0x08) != 0;
  1513 00:0728: 64 01        	stz	<R0
  1514 00:072A: A0 1C 00     	ldy	#$1c
  1515 00:072D: B7 15        	lda	[<L84+c_0],Y
  1516 00:072F: 29 FF 00     	and	#$ff
  1517 00:0732: 85 05        	sta	<R1
  1518 00:0734: A5 19        	lda	<L84+val_0
  1519 00:0736: 29 FF 00     	and	#$ff
  1520 00:0739: 05 05        	ora	<R1
  1521 00:073B: 29 08 00     	and	#<$8
  1522 00:073E: F0 02        	beq	L86
  1523 00:0740: E6 01        	inc	<R0
  1524                        L86:
  1525 00:0742: 06 01        	asl	<R0
  1526 00:0744: 06 01        	asl	<R0
  1527 00:0746: A5 01        	lda	<R0
  1528 00:0748: 29 04 00     	and	#<$4
  1529 00:074B: 85 01        	sta	<R0
  1530 00:074D: A0 23 00     	ldy	#$23
  1531 00:0750: B7 15        	lda	[<L84+c_0],Y
  1532 00:0752: 29 FB FF     	and	#<$fffffffb
  1533 00:0755: 05 01        	ora	<R0
  1534 00:0757: 97 15        	sta	[<L84+c_0],Y
  1535                        ;  SET_ZSP(c, result);
  1536 00:0759: 64 01        	stz	<R0
  Sun Jan  9 2022 21:05                                                Page 29


  1537 00:075B: A5 11        	lda	<L85+result_1
  1538 00:075D: 29 FF 00     	and	#$ff
  1539 00:0760: D0 02        	bne	L88
  1540 00:0762: E6 01        	inc	<R0
  1541                        L88:
  1542 00:0764: 06 01        	asl	<R0
  1543 00:0766: A5 01        	lda	<R0
  1544 00:0768: 29 02 00     	and	#<$2
  1545 00:076B: 85 01        	sta	<R0
  1546 00:076D: A0 23 00     	ldy	#$23
  1547 00:0770: B7 15        	lda	[<L84+c_0],Y
  1548 00:0772: 29 FD FF     	and	#<$fffffffd
  1549 00:0775: 05 01        	ora	<R0
  1550 00:0777: 97 15        	sta	[<L84+c_0],Y
  1551 00:0779: A5 11        	lda	<L85+result_1
  1552 00:077B: 29 FF 00     	and	#$ff
  1553 00:077E: A2 07 00     	ldx	#<$7
  1554                        	xref	~~~asr
  1555 00:0781: 22 xx xx xx  	jsl	~~~asr
  1556 00:0785: 29 01 00     	and	#<$1
  1557 00:0788: 85 01        	sta	<R0
  1558 00:078A: A0 23 00     	ldy	#$23
  1559 00:078D: B7 15        	lda	[<L84+c_0],Y
  1560 00:078F: 29 FE FF     	and	#<$fffffffe
  1561 00:0792: 05 01        	ora	<R0
  1562 00:0794: 97 15        	sta	[<L84+c_0],Y
  1563 00:0796: D4 11        	pei	<L85+result_1
  1564 00:0798: 22 xx xx xx  	jsl	~~parity
  1565 00:079C: 0A           	asl
  1566 00:079D: 0A           	asl
  1567 00:079E: 0A           	asl
  1568 00:079F: 29 08 00     	and	#<$8
  1569 00:07A2: 85 01        	sta	<R0
  1570 00:07A4: A0 23 00     	ldy	#$23
  1571 00:07A7: B7 15        	lda	[<L84+c_0],Y
  1572 00:07A9: 29 F7 FF     	and	#<$fffffff7
  1573 00:07AC: 05 01        	ora	<R0
  1574 00:07AE: 97 15        	sta	[<L84+c_0],Y
  1575                        ;  c->a = result;
  1576 00:07B0: E2 20        	sep	#$20
  1577                        	longa	off
  1578 00:07B2: A5 11        	lda	<L85+result_1
  1579 00:07B4: A0 1C 00     	ldy	#$1c
  1580 00:07B7: 97 15        	sta	[<L84+c_0],Y
  1581 00:07B9: C2 20        	rep	#$20
  1582                        	longa	on
  1583                        ;}
  1584 00:07BB: A5 13        	lda	<L84+2
  1585 00:07BD: 85 19        	sta	<L84+2+6
  1586 00:07BF: A5 12        	lda	<L84+1
  1587 00:07C1: 85 18        	sta	<L84+1+6
  1588 00:07C3: 2B           	pld
  1589 00:07C4: 3B           	tsc
  1590 00:07C5: 18           	clc
  1591 00:07C6: 69 17 00     	adc	#L84+6
  1592 00:07C9: 1B           	tcs
  1593 00:07CA: 6B           	rtl
  1594             00000011   L84	equ	17
  Sun Jan  9 2022 21:05                                                Page 30


  1595             00000011   L85	equ	17
  1596                        	ends
  1597                        	efunc
  1598                        ;
  1599                        ;// executes a logic "xor" between register A and 
                    a byte, then stores the
  1600                        ;// result in register A
  1601                        ;static  void i8080_xra(i8080* const c, uint8_t va
                    l) {
  1602                        	code
  1603                        	func
  1604                        ~~i8080_xra:
  1605                        	longa	on
  1606                        	longi	on
  1607 00:07CB: 3B           	tsc
  1608 00:07CC: 38           	sec
  1609 00:07CD: E9 04 00     	sbc	#L91
  1610 00:07D0: 1B           	tcs
  1611 00:07D1: 0B           	phd
  1612 00:07D2: 5B           	tcd
  1613             00000004   c_0	set	4
  1614             00000008   val_0	set	8
  1615                        ;  c->a ^= val;
  1616 00:07D3: A9 1C 00     	lda	#$1c
  1617 00:07D6: 18           	clc
  1618 00:07D7: 65 08        	adc	<L91+c_0
  1619 00:07D9: 85 01        	sta	<R0
  1620 00:07DB: A9 00 00     	lda	#$0
  1621 00:07DE: 65 0A        	adc	<L91+c_0+2
  1622 00:07E0: 85 03        	sta	<R0+2
  1623 00:07E2: E2 20        	sep	#$20
  1624                        	longa	off
  1625 00:07E4: A5 0C        	lda	<L91+val_0
  1626 00:07E6: 47 01        	eor	[<R0]
  1627 00:07E8: 87 01        	sta	[<R0]
  1628 00:07EA: C2 20        	rep	#$20
  1629                        	longa	on
  1630                        ;  c->cf = 0;
  1631 00:07EC: A0 23 00     	ldy	#$23
  1632 00:07EF: B7 08        	lda	[<L91+c_0],Y
  1633 00:07F1: 29 EF FF     	and	#<$ffffffef
  1634                        ;  c->hf = 0;
  1635 00:07F4: 29 FB FF     	and	#<$fffffffb
  1636 00:07F7: 97 08        	sta	[<L91+c_0],Y
  1637                        ;  SET_ZSP(c, c->a);
  1638 00:07F9: 64 01        	stz	<R0
  1639 00:07FB: A0 1C 00     	ldy	#$1c
  1640 00:07FE: B7 08        	lda	[<L91+c_0],Y
  1641 00:0800: 29 FF 00     	and	#$ff
  1642 00:0803: D0 02        	bne	L93
  1643 00:0805: E6 01        	inc	<R0
  1644                        L93:
  1645 00:0807: 06 01        	asl	<R0
  1646 00:0809: A5 01        	lda	<R0
  1647 00:080B: 29 02 00     	and	#<$2
  1648 00:080E: 85 01        	sta	<R0
  1649 00:0810: A0 23 00     	ldy	#$23
  1650 00:0813: B7 08        	lda	[<L91+c_0],Y
  Sun Jan  9 2022 21:05                                                Page 31


  1651 00:0815: 29 FD FF     	and	#<$fffffffd
  1652 00:0818: 05 01        	ora	<R0
  1653 00:081A: 97 08        	sta	[<L91+c_0],Y
  1654 00:081C: A0 1C 00     	ldy	#$1c
  1655 00:081F: B7 08        	lda	[<L91+c_0],Y
  1656 00:0821: 29 FF 00     	and	#$ff
  1657 00:0824: A2 07 00     	ldx	#<$7
  1658                        	xref	~~~asr
  1659 00:0827: 22 xx xx xx  	jsl	~~~asr
  1660 00:082B: 29 01 00     	and	#<$1
  1661 00:082E: 85 01        	sta	<R0
  1662 00:0830: A0 23 00     	ldy	#$23
  1663 00:0833: B7 08        	lda	[<L91+c_0],Y
  1664 00:0835: 29 FE FF     	and	#<$fffffffe
  1665 00:0838: 05 01        	ora	<R0
  1666 00:083A: 97 08        	sta	[<L91+c_0],Y
  1667 00:083C: A0 1C 00     	ldy	#$1c
  1668 00:083F: B7 08        	lda	[<L91+c_0],Y
  1669 00:0841: 48           	pha
  1670 00:0842: 22 xx xx xx  	jsl	~~parity
  1671 00:0846: 0A           	asl
  1672 00:0847: 0A           	asl
  1673 00:0848: 0A           	asl
  1674 00:0849: 29 08 00     	and	#<$8
  1675 00:084C: 85 01        	sta	<R0
  1676 00:084E: A0 23 00     	ldy	#$23
  1677 00:0851: B7 08        	lda	[<L91+c_0],Y
  1678 00:0853: 29 F7 FF     	and	#<$fffffff7
  1679 00:0856: 05 01        	ora	<R0
  1680 00:0858: 97 08        	sta	[<L91+c_0],Y
  1681                        ;}
  1682 00:085A: A5 06        	lda	<L91+2
  1683 00:085C: 85 0C        	sta	<L91+2+6
  1684 00:085E: A5 05        	lda	<L91+1
  1685 00:0860: 85 0B        	sta	<L91+1+6
  1686 00:0862: 2B           	pld
  1687 00:0863: 3B           	tsc
  1688 00:0864: 18           	clc
  1689 00:0865: 69 0A 00     	adc	#L91+6
  1690 00:0868: 1B           	tcs
  1691 00:0869: 6B           	rtl
  1692             00000004   L91	equ	4
  1693             00000005   L92	equ	5
  1694                        	ends
  1695                        	efunc
  1696                        ;
  1697                        ;// executes a logic "or" between register A and a
                     byte, then stores the
  1698                        ;// result in register A
  1699                        ;static  void i8080_ora(i8080* const c, uint8_t va
                    l) {
  1700                        	code
  1701                        	func
  1702                        ~~i8080_ora:
  1703                        	longa	on
  1704                        	longi	on
  1705 00:086A: 3B           	tsc
  1706 00:086B: 38           	sec
  Sun Jan  9 2022 21:05                                                Page 32


  1707 00:086C: E9 04 00     	sbc	#L96
  1708 00:086F: 1B           	tcs
  1709 00:0870: 0B           	phd
  1710 00:0871: 5B           	tcd
  1711             00000004   c_0	set	4
  1712             00000008   val_0	set	8
  1713                        ;  c->a |= val;
  1714 00:0872: A9 1C 00     	lda	#$1c
  1715 00:0875: 18           	clc
  1716 00:0876: 65 08        	adc	<L96+c_0
  1717 00:0878: 85 01        	sta	<R0
  1718 00:087A: A9 00 00     	lda	#$0
  1719 00:087D: 65 0A        	adc	<L96+c_0+2
  1720 00:087F: 85 03        	sta	<R0+2
  1721 00:0881: E2 20        	sep	#$20
  1722                        	longa	off
  1723 00:0883: A5 0C        	lda	<L96+val_0
  1724 00:0885: 07 01        	ora	[<R0]
  1725 00:0887: 87 01        	sta	[<R0]
  1726 00:0889: C2 20        	rep	#$20
  1727                        	longa	on
  1728                        ;  c->cf = 0;
  1729 00:088B: A0 23 00     	ldy	#$23
  1730 00:088E: B7 08        	lda	[<L96+c_0],Y
  1731 00:0890: 29 EF FF     	and	#<$ffffffef
  1732                        ;  c->hf = 0;
  1733 00:0893: 29 FB FF     	and	#<$fffffffb
  1734 00:0896: 97 08        	sta	[<L96+c_0],Y
  1735                        ;  SET_ZSP(c, c->a);
  1736 00:0898: 64 01        	stz	<R0
  1737 00:089A: A0 1C 00     	ldy	#$1c
  1738 00:089D: B7 08        	lda	[<L96+c_0],Y
  1739 00:089F: 29 FF 00     	and	#$ff
  1740 00:08A2: D0 02        	bne	L98
  1741 00:08A4: E6 01        	inc	<R0
  1742                        L98:
  1743 00:08A6: 06 01        	asl	<R0
  1744 00:08A8: A5 01        	lda	<R0
  1745 00:08AA: 29 02 00     	and	#<$2
  1746 00:08AD: 85 01        	sta	<R0
  1747 00:08AF: A0 23 00     	ldy	#$23
  1748 00:08B2: B7 08        	lda	[<L96+c_0],Y
  1749 00:08B4: 29 FD FF     	and	#<$fffffffd
  1750 00:08B7: 05 01        	ora	<R0
  1751 00:08B9: 97 08        	sta	[<L96+c_0],Y
  1752 00:08BB: A0 1C 00     	ldy	#$1c
  1753 00:08BE: B7 08        	lda	[<L96+c_0],Y
  1754 00:08C0: 29 FF 00     	and	#$ff
  1755 00:08C3: A2 07 00     	ldx	#<$7
  1756                        	xref	~~~asr
  1757 00:08C6: 22 xx xx xx  	jsl	~~~asr
  1758 00:08CA: 29 01 00     	and	#<$1
  1759 00:08CD: 85 01        	sta	<R0
  1760 00:08CF: A0 23 00     	ldy	#$23
  1761 00:08D2: B7 08        	lda	[<L96+c_0],Y
  1762 00:08D4: 29 FE FF     	and	#<$fffffffe
  1763 00:08D7: 05 01        	ora	<R0
  1764 00:08D9: 97 08        	sta	[<L96+c_0],Y
  Sun Jan  9 2022 21:05                                                Page 33


  1765 00:08DB: A0 1C 00     	ldy	#$1c
  1766 00:08DE: B7 08        	lda	[<L96+c_0],Y
  1767 00:08E0: 48           	pha
  1768 00:08E1: 22 xx xx xx  	jsl	~~parity
  1769 00:08E5: 0A           	asl
  1770 00:08E6: 0A           	asl
  1771 00:08E7: 0A           	asl
  1772 00:08E8: 29 08 00     	and	#<$8
  1773 00:08EB: 85 01        	sta	<R0
  1774 00:08ED: A0 23 00     	ldy	#$23
  1775 00:08F0: B7 08        	lda	[<L96+c_0],Y
  1776 00:08F2: 29 F7 FF     	and	#<$fffffff7
  1777 00:08F5: 05 01        	ora	<R0
  1778 00:08F7: 97 08        	sta	[<L96+c_0],Y
  1779                        ;}
  1780 00:08F9: A5 06        	lda	<L96+2
  1781 00:08FB: 85 0C        	sta	<L96+2+6
  1782 00:08FD: A5 05        	lda	<L96+1
  1783 00:08FF: 85 0B        	sta	<L96+1+6
  1784 00:0901: 2B           	pld
  1785 00:0902: 3B           	tsc
  1786 00:0903: 18           	clc
  1787 00:0904: 69 0A 00     	adc	#L96+6
  1788 00:0907: 1B           	tcs
  1789 00:0908: 6B           	rtl
  1790             00000004   L96	equ	4
  1791             00000005   L97	equ	5
  1792                        	ends
  1793                        	efunc
  1794                        ;
  1795                        ;// compares the register A to another byte
  1796                        ;static  void i8080_cmp(i8080* const c, uint8_t va
                    l) {
  1797                        	code
  1798                        	func
  1799                        ~~i8080_cmp:
  1800                        	longa	on
  1801                        	longi	on
  1802 00:0909: 3B           	tsc
  1803 00:090A: 38           	sec
  1804 00:090B: E9 0E 00     	sbc	#L101
  1805 00:090E: 1B           	tcs
  1806 00:090F: 0B           	phd
  1807 00:0910: 5B           	tcd
  1808             00000004   c_0	set	4
  1809             00000008   val_0	set	8
  1810                        ;  int16_t result = c->a - val;
  1811                        ;  c->cf = result >> 8;
  1812             00000000   result_1	set	0
  1813 00:0911: A5 16        	lda	<L101+val_0
  1814 00:0913: 29 FF 00     	and	#$ff
  1815 00:0916: 85 01        	sta	<R0
  1816 00:0918: A0 1C 00     	ldy	#$1c
  1817 00:091B: B7 12        	lda	[<L101+c_0],Y
  1818 00:091D: 29 FF 00     	and	#$ff
  1819 00:0920: 38           	sec
  1820 00:0921: E5 01        	sbc	<R0
  1821 00:0923: 85 0D        	sta	<L102+result_1
  Sun Jan  9 2022 21:05                                                Page 34


  1822 00:0925: A2 08 00     	ldx	#<$8
  1823                        	xref	~~~asr
  1824 00:0928: 22 xx xx xx  	jsl	~~~asr
  1825 00:092C: 0A           	asl
  1826 00:092D: 0A           	asl
  1827 00:092E: 0A           	asl
  1828 00:092F: 0A           	asl
  1829 00:0930: 29 10 00     	and	#<$10
  1830 00:0933: 85 01        	sta	<R0
  1831 00:0935: A0 23 00     	ldy	#$23
  1832 00:0938: B7 12        	lda	[<L101+c_0],Y
  1833 00:093A: 29 EF FF     	and	#<$ffffffef
  1834 00:093D: 05 01        	ora	<R0
  1835 00:093F: 97 12        	sta	[<L101+c_0],Y
  1836                        ;  c->hf = ~(c->a ^ result ^ val) & 0x10;
  1837 00:0941: A0 1C 00     	ldy	#$1c
  1838 00:0944: B7 12        	lda	[<L101+c_0],Y
  1839 00:0946: 29 FF 00     	and	#$ff
  1840 00:0949: 85 01        	sta	<R0
  1841 00:094B: A5 16        	lda	<L101+val_0
  1842 00:094D: 29 FF 00     	and	#$ff
  1843 00:0950: 45 01        	eor	<R0
  1844 00:0952: 85 09        	sta	<R2
  1845 00:0954: A5 0D        	lda	<L102+result_1
  1846 00:0956: 45 09        	eor	<R2
  1847 00:0958: 49 FF FF     	eor	#<$ffffffff
  1848 00:095B: 29 10 00     	and	#<$10
  1849 00:095E: 0A           	asl
  1850 00:095F: 0A           	asl
  1851 00:0960: 29 04 00     	and	#<$4
  1852 00:0963: 85 01        	sta	<R0
  1853 00:0965: A0 23 00     	ldy	#$23
  1854 00:0968: B7 12        	lda	[<L101+c_0],Y
  1855 00:096A: 29 FB FF     	and	#<$fffffffb
  1856 00:096D: 05 01        	ora	<R0
  1857 00:096F: 97 12        	sta	[<L101+c_0],Y
  1858                        ;  SET_ZSP(c, result & 0xFF);
  1859 00:0971: 64 01        	stz	<R0
  1860 00:0973: A5 0D        	lda	<L102+result_1
  1861 00:0975: 29 FF 00     	and	#<$ff
  1862 00:0978: D0 02        	bne	L103
  1863 00:097A: E6 01        	inc	<R0
  1864                        L103:
  1865 00:097C: 06 01        	asl	<R0
  1866 00:097E: A5 01        	lda	<R0
  1867 00:0980: 29 02 00     	and	#<$2
  1868 00:0983: 85 01        	sta	<R0
  1869 00:0985: A0 23 00     	ldy	#$23
  1870 00:0988: B7 12        	lda	[<L101+c_0],Y
  1871 00:098A: 29 FD FF     	and	#<$fffffffd
  1872 00:098D: 05 01        	ora	<R0
  1873 00:098F: 97 12        	sta	[<L101+c_0],Y
  1874 00:0991: A5 0D        	lda	<L102+result_1
  1875 00:0993: 29 FF 00     	and	#<$ff
  1876 00:0996: A2 07 00     	ldx	#<$7
  1877                        	xref	~~~asr
  1878 00:0999: 22 xx xx xx  	jsl	~~~asr
  1879 00:099D: 29 01 00     	and	#<$1
  Sun Jan  9 2022 21:05                                                Page 35


  1880 00:09A0: 85 01        	sta	<R0
  1881 00:09A2: A0 23 00     	ldy	#$23
  1882 00:09A5: B7 12        	lda	[<L101+c_0],Y
  1883 00:09A7: 29 FE FF     	and	#<$fffffffe
  1884 00:09AA: 05 01        	ora	<R0
  1885 00:09AC: 97 12        	sta	[<L101+c_0],Y
  1886 00:09AE: A5 0D        	lda	<L102+result_1
  1887 00:09B0: 29 FF 00     	and	#<$ff
  1888 00:09B3: 48           	pha
  1889 00:09B4: 22 xx xx xx  	jsl	~~parity
  1890 00:09B8: 0A           	asl
  1891 00:09B9: 0A           	asl
  1892 00:09BA: 0A           	asl
  1893 00:09BB: 29 08 00     	and	#<$8
  1894 00:09BE: 85 01        	sta	<R0
  1895 00:09C0: A0 23 00     	ldy	#$23
  1896 00:09C3: B7 12        	lda	[<L101+c_0],Y
  1897 00:09C5: 29 F7 FF     	and	#<$fffffff7
  1898 00:09C8: 05 01        	ora	<R0
  1899 00:09CA: 97 12        	sta	[<L101+c_0],Y
  1900                        ;}
  1901 00:09CC: A5 10        	lda	<L101+2
  1902 00:09CE: 85 16        	sta	<L101+2+6
  1903 00:09D0: A5 0F        	lda	<L101+1
  1904 00:09D2: 85 15        	sta	<L101+1+6
  1905 00:09D4: 2B           	pld
  1906 00:09D5: 3B           	tsc
  1907 00:09D6: 18           	clc
  1908 00:09D7: 69 14 00     	adc	#L101+6
  1909 00:09DA: 1B           	tcs
  1910 00:09DB: 6B           	rtl
  1911             0000000E   L101	equ	14
  1912             0000000D   L102	equ	13
  1913                        	ends
  1914                        	efunc
  1915                        ;
  1916                        ;// sets the program counter to a given address
  1917                        ;static  void i8080_jmp(i8080* const c, uint16_t a
                    ddr) {
  1918                        	code
  1919                        	func
  1920                        ~~i8080_jmp:
  1921                        	longa	on
  1922                        	longi	on
  1923 00:09DC: 3B           	tsc
  1924 00:09DD: 38           	sec
  1925 00:09DE: E9 00 00     	sbc	#L106
  1926 00:09E1: 1B           	tcs
  1927 00:09E2: 0B           	phd
  1928 00:09E3: 5B           	tcd
  1929             00000004   c_0	set	4
  1930             00000008   addr_0	set	8
  1931                        ;  c->pc = addr;
  1932 00:09E4: A5 08        	lda	<L106+addr_0
  1933 00:09E6: A0 18 00     	ldy	#$18
  1934 00:09E9: 97 04        	sta	[<L106+c_0],Y
  1935                        ;}
  1936 00:09EB: A5 02        	lda	<L106+2
  Sun Jan  9 2022 21:05                                                Page 36


  1937 00:09ED: 85 08        	sta	<L106+2+6
  1938 00:09EF: A5 01        	lda	<L106+1
  1939 00:09F1: 85 07        	sta	<L106+1+6
  1940 00:09F3: 2B           	pld
  1941 00:09F4: 3B           	tsc
  1942 00:09F5: 18           	clc
  1943 00:09F6: 69 06 00     	adc	#L106+6
  1944 00:09F9: 1B           	tcs
  1945 00:09FA: 6B           	rtl
  1946             00000000   L106	equ	0
  1947             00000001   L107	equ	1
  1948                        	ends
  1949                        	efunc
  1950                        ;
  1951                        ;// jumps to next address pointed by the next word
                     in memory if a condition
  1952                        ;// is met
  1953                        ;static  void i8080_cond_jmp(i8080* const c, bool 
                    condition) {
  1954                        	code
  1955                        	func
  1956                        ~~i8080_cond_jmp:
  1957                        	longa	on
  1958                        	longi	on
  1959 00:09FB: 3B           	tsc
  1960 00:09FC: 38           	sec
  1961 00:09FD: E9 02 00     	sbc	#L109
  1962 00:0A00: 1B           	tcs
  1963 00:0A01: 0B           	phd
  1964 00:0A02: 5B           	tcd
  1965             00000004   c_0	set	4
  1966             00000008   condition_0	set	8
  1967                        ;  uint16_t addr = i8080_next_word(c);
  1968                        ;  if (condition) {
  1969             00000000   addr_1	set	0
  1970 00:0A03: D4 08        	pei	<L109+c_0+2
  1971 00:0A05: D4 06        	pei	<L109+c_0
  1972 00:0A07: 22 xx xx xx  	jsl	~~i8080_next_word
  1973 00:0A0B: 85 01        	sta	<L110+addr_1
  1974 00:0A0D: A5 0A        	lda	<L109+condition_0
  1975 00:0A0F: F0 07        	beq	L112
  1976                        ;    c->pc = addr;
  1977 00:0A11: A5 01        	lda	<L110+addr_1
  1978 00:0A13: A0 18 00     	ldy	#$18
  1979 00:0A16: 97 06        	sta	[<L109+c_0],Y
  1980                        ;  }
  1981                        ;}
  1982                        L112:
  1983 00:0A18: A5 04        	lda	<L109+2
  1984 00:0A1A: 85 0A        	sta	<L109+2+6
  1985 00:0A1C: A5 03        	lda	<L109+1
  1986 00:0A1E: 85 09        	sta	<L109+1+6
  1987 00:0A20: 2B           	pld
  1988 00:0A21: 3B           	tsc
  1989 00:0A22: 18           	clc
  1990 00:0A23: 69 08 00     	adc	#L109+6
  1991 00:0A26: 1B           	tcs
  1992 00:0A27: 6B           	rtl
  Sun Jan  9 2022 21:05                                                Page 37


  1993             00000002   L109	equ	2
  1994             00000001   L110	equ	1
  1995                        	ends
  1996                        	efunc
  1997                        ;
  1998                        ;// pushes the current pc to the stack, then jumps
                     to an address
  1999                        ;static  void i8080_call(i8080* const c, uint16_t 
                    addr) {
  2000                        	code
  2001                        	func
  2002                        ~~i8080_call:
  2003                        	longa	on
  2004                        	longi	on
  2005 00:0A28: 3B           	tsc
  2006 00:0A29: 38           	sec
  2007 00:0A2A: E9 00 00     	sbc	#L113
  2008 00:0A2D: 1B           	tcs
  2009 00:0A2E: 0B           	phd
  2010 00:0A2F: 5B           	tcd
  2011             00000004   c_0	set	4
  2012             00000008   addr_0	set	8
  2013                        ;  i8080_push_stack(c, c->pc);
  2014 00:0A30: A0 18 00     	ldy	#$18
  2015 00:0A33: B7 04        	lda	[<L113+c_0],Y
  2016 00:0A35: 48           	pha
  2017 00:0A36: D4 06        	pei	<L113+c_0+2
  2018 00:0A38: D4 04        	pei	<L113+c_0
  2019 00:0A3A: 22 xx xx xx  	jsl	~~i8080_push_stack
  2020                        ;  i8080_jmp(c, addr);
  2021 00:0A3E: D4 08        	pei	<L113+addr_0
  2022 00:0A40: D4 06        	pei	<L113+c_0+2
  2023 00:0A42: D4 04        	pei	<L113+c_0
  2024 00:0A44: 22 xx xx xx  	jsl	~~i8080_jmp
  2025                        ;}
  2026 00:0A48: A5 02        	lda	<L113+2
  2027 00:0A4A: 85 08        	sta	<L113+2+6
  2028 00:0A4C: A5 01        	lda	<L113+1
  2029 00:0A4E: 85 07        	sta	<L113+1+6
  2030 00:0A50: 2B           	pld
  2031 00:0A51: 3B           	tsc
  2032 00:0A52: 18           	clc
  2033 00:0A53: 69 06 00     	adc	#L113+6
  2034 00:0A56: 1B           	tcs
  2035 00:0A57: 6B           	rtl
  2036             00000000   L113	equ	0
  2037             00000001   L114	equ	1
  2038                        	ends
  2039                        	efunc
  2040                        ;
  2041                        ;// calls to next word in memory if a condition is
                     met
  2042                        ;static  void i8080_cond_call(i8080* const c, bool
                     condition) {
  2043                        	code
  2044                        	func
  2045                        ~~i8080_cond_call:
  2046                        	longa	on
  Sun Jan  9 2022 21:05                                                Page 38


  2047                        	longi	on
  2048 00:0A58: 3B           	tsc
  2049 00:0A59: 38           	sec
  2050 00:0A5A: E9 06 00     	sbc	#L116
  2051 00:0A5D: 1B           	tcs
  2052 00:0A5E: 0B           	phd
  2053 00:0A5F: 5B           	tcd
  2054             00000004   c_0	set	4
  2055             00000008   condition_0	set	8
  2056                        ;  uint16_t addr = i8080_next_word(c);
  2057                        ;  if (condition) {
  2058             00000000   addr_1	set	0
  2059 00:0A60: D4 0C        	pei	<L116+c_0+2
  2060 00:0A62: D4 0A        	pei	<L116+c_0
  2061 00:0A64: 22 xx xx xx  	jsl	~~i8080_next_word
  2062 00:0A68: 85 05        	sta	<L117+addr_1
  2063 00:0A6A: A5 0E        	lda	<L116+condition_0
  2064 00:0A6C: F0 2B        	beq	L119
  2065                        ;    i8080_call(c, addr);
  2066 00:0A6E: D4 05        	pei	<L117+addr_1
  2067 00:0A70: D4 0C        	pei	<L116+c_0+2
  2068 00:0A72: D4 0A        	pei	<L116+c_0
  2069 00:0A74: 22 xx xx xx  	jsl	~~i8080_call
  2070                        ;    c->cyc += 6;
  2071 00:0A78: A9 14 00     	lda	#$14
  2072 00:0A7B: 18           	clc
  2073 00:0A7C: 65 0A        	adc	<L116+c_0
  2074 00:0A7E: 85 01        	sta	<R0
  2075 00:0A80: A9 00 00     	lda	#$0
  2076 00:0A83: 65 0C        	adc	<L116+c_0+2
  2077 00:0A85: 85 03        	sta	<R0+2
  2078 00:0A87: A9 06 00     	lda	#$6
  2079 00:0A8A: 18           	clc
  2080 00:0A8B: 67 01        	adc	[<R0]
  2081 00:0A8D: 87 01        	sta	[<R0]
  2082 00:0A8F: A9 00 00     	lda	#$0
  2083 00:0A92: A0 02 00     	ldy	#$2
  2084 00:0A95: 77 01        	adc	[<R0],Y
  2085 00:0A97: 97 01        	sta	[<R0],Y
  2086                        ;  }
  2087                        ;}
  2088                        L119:
  2089 00:0A99: A5 08        	lda	<L116+2
  2090 00:0A9B: 85 0E        	sta	<L116+2+6
  2091 00:0A9D: A5 07        	lda	<L116+1
  2092 00:0A9F: 85 0D        	sta	<L116+1+6
  2093 00:0AA1: 2B           	pld
  2094 00:0AA2: 3B           	tsc
  2095 00:0AA3: 18           	clc
  2096 00:0AA4: 69 0C 00     	adc	#L116+6
  2097 00:0AA7: 1B           	tcs
  2098 00:0AA8: 6B           	rtl
  2099             00000006   L116	equ	6
  2100             00000005   L117	equ	5
  2101                        	ends
  2102                        	efunc
  2103                        ;
  2104                        ;// returns from subroutine
  Sun Jan  9 2022 21:05                                                Page 39


  2105                        ;static  void i8080_ret(i8080* const c) {
  2106                        	code
  2107                        	func
  2108                        ~~i8080_ret:
  2109                        	longa	on
  2110                        	longi	on
  2111 00:0AA9: 3B           	tsc
  2112 00:0AAA: 38           	sec
  2113 00:0AAB: E9 00 00     	sbc	#L120
  2114 00:0AAE: 1B           	tcs
  2115 00:0AAF: 0B           	phd
  2116 00:0AB0: 5B           	tcd
  2117             00000004   c_0	set	4
  2118                        ;  c->pc = i8080_pop_stack(c);
  2119 00:0AB1: D4 06        	pei	<L120+c_0+2
  2120 00:0AB3: D4 04        	pei	<L120+c_0
  2121 00:0AB5: 22 xx xx xx  	jsl	~~i8080_pop_stack
  2122 00:0AB9: A0 18 00     	ldy	#$18
  2123 00:0ABC: 97 04        	sta	[<L120+c_0],Y
  2124                        ;}
  2125 00:0ABE: A5 02        	lda	<L120+2
  2126 00:0AC0: 85 06        	sta	<L120+2+4
  2127 00:0AC2: A5 01        	lda	<L120+1
  2128 00:0AC4: 85 05        	sta	<L120+1+4
  2129 00:0AC6: 2B           	pld
  2130 00:0AC7: 3B           	tsc
  2131 00:0AC8: 18           	clc
  2132 00:0AC9: 69 04 00     	adc	#L120+4
  2133 00:0ACC: 1B           	tcs
  2134 00:0ACD: 6B           	rtl
  2135             00000000   L120	equ	0
  2136             00000001   L121	equ	1
  2137                        	ends
  2138                        	efunc
  2139                        ;
  2140                        ;// returns from subroutine if a condition is met
  2141                        ;static  void i8080_cond_ret(i8080* const c, bool 
                    condition) {
  2142                        	code
  2143                        	func
  2144                        ~~i8080_cond_ret:
  2145                        	longa	on
  2146                        	longi	on
  2147 00:0ACE: 3B           	tsc
  2148 00:0ACF: 38           	sec
  2149 00:0AD0: E9 04 00     	sbc	#L123
  2150 00:0AD3: 1B           	tcs
  2151 00:0AD4: 0B           	phd
  2152 00:0AD5: 5B           	tcd
  2153             00000004   c_0	set	4
  2154             00000008   condition_0	set	8
  2155                        ;  if (condition) {
  2156 00:0AD6: A5 0C        	lda	<L123+condition_0
  2157 00:0AD8: F0 29        	beq	L126
  2158                        ;    i8080_ret(c);
  2159 00:0ADA: D4 0A        	pei	<L123+c_0+2
  2160 00:0ADC: D4 08        	pei	<L123+c_0
  2161 00:0ADE: 22 xx xx xx  	jsl	~~i8080_ret
  Sun Jan  9 2022 21:05                                                Page 40


  2162                        ;    c->cyc += 6;
  2163 00:0AE2: A9 14 00     	lda	#$14
  2164 00:0AE5: 18           	clc
  2165 00:0AE6: 65 08        	adc	<L123+c_0
  2166 00:0AE8: 85 01        	sta	<R0
  2167 00:0AEA: A9 00 00     	lda	#$0
  2168 00:0AED: 65 0A        	adc	<L123+c_0+2
  2169 00:0AEF: 85 03        	sta	<R0+2
  2170 00:0AF1: A9 06 00     	lda	#$6
  2171 00:0AF4: 18           	clc
  2172 00:0AF5: 67 01        	adc	[<R0]
  2173 00:0AF7: 87 01        	sta	[<R0]
  2174 00:0AF9: A9 00 00     	lda	#$0
  2175 00:0AFC: A0 02 00     	ldy	#$2
  2176 00:0AFF: 77 01        	adc	[<R0],Y
  2177 00:0B01: 97 01        	sta	[<R0],Y
  2178                        ;  }
  2179                        ;}
  2180                        L126:
  2181 00:0B03: A5 06        	lda	<L123+2
  2182 00:0B05: 85 0C        	sta	<L123+2+6
  2183 00:0B07: A5 05        	lda	<L123+1
  2184 00:0B09: 85 0B        	sta	<L123+1+6
  2185 00:0B0B: 2B           	pld
  2186 00:0B0C: 3B           	tsc
  2187 00:0B0D: 18           	clc
  2188 00:0B0E: 69 0A 00     	adc	#L123+6
  2189 00:0B11: 1B           	tcs
  2190 00:0B12: 6B           	rtl
  2191             00000004   L123	equ	4
  2192             00000005   L124	equ	5
  2193                        	ends
  2194                        	efunc
  2195                        ;
  2196                        ;// pushes register A and the flags into the stack
  2197                        ;static  void i8080_push_psw(i8080* const c) {
  2198                        	code
  2199                        	func
  2200                        ~~i8080_push_psw:
  2201                        	longa	on
  2202                        	longi	on
  2203 00:0B13: 3B           	tsc
  2204 00:0B14: 38           	sec
  2205 00:0B15: E9 09 00     	sbc	#L127
  2206 00:0B18: 1B           	tcs
  2207 00:0B19: 0B           	phd
  2208 00:0B1A: 5B           	tcd
  2209             00000004   c_0	set	4
  2210                        ;  // note: bit 3 and 5 are always 0
  2211                        ;  uint8_t psw;
  2212                        ;  psw = 0;
  2213             00000000   psw_1	set	0
  2214 00:0B1B: E2 20        	sep	#$20
  2215                        	longa	off
  2216 00:0B1D: 64 09        	stz	<L128+psw_1
  2217 00:0B1F: C2 20        	rep	#$20
  2218                        	longa	on
  2219                        ;  psw |= c->sf << 7;
  Sun Jan  9 2022 21:05                                                Page 41


  2220 00:0B21: A0 23 00     	ldy	#$23
  2221 00:0B24: B7 0D        	lda	[<L127+c_0],Y
  2222 00:0B26: 29 01 00     	and	#<$1
  2223 00:0B29: A2 07 00     	ldx	#<$7
  2224                        	xref	~~~casl
  2225 00:0B2C: 22 xx xx xx  	jsl	~~~casl
  2226 00:0B30: E2 20        	sep	#$20
  2227                        	longa	off
  2228 00:0B32: 04 09        	tsb	<L128+psw_1
  2229 00:0B34: C2 20        	rep	#$20
  2230                        	longa	on
  2231                        ;  psw |= c->zf << 6;
  2232 00:0B36: A0 23 00     	ldy	#$23
  2233 00:0B39: B7 0D        	lda	[<L127+c_0],Y
  2234 00:0B3B: 4A           	lsr
  2235 00:0B3C: 29 01 00     	and	#<$1
  2236 00:0B3F: A2 06 00     	ldx	#<$6
  2237                        	xref	~~~casl
  2238 00:0B42: 22 xx xx xx  	jsl	~~~casl
  2239 00:0B46: E2 20        	sep	#$20
  2240                        	longa	off
  2241 00:0B48: 04 09        	tsb	<L128+psw_1
  2242 00:0B4A: C2 20        	rep	#$20
  2243                        	longa	on
  2244                        ;  psw |= c->hf << 4;
  2245 00:0B4C: A0 23 00     	ldy	#$23
  2246 00:0B4F: B7 0D        	lda	[<L127+c_0],Y
  2247 00:0B51: 4A           	lsr
  2248 00:0B52: 4A           	lsr
  2249 00:0B53: 29 01 00     	and	#<$1
  2250 00:0B56: E2 20        	sep	#$20
  2251                        	longa	off
  2252 00:0B58: 0A           	asl	A
  2253 00:0B59: 0A           	asl	A
  2254 00:0B5A: 0A           	asl	A
  2255 00:0B5B: 0A           	asl	A
  2256 00:0B5C: 04 09        	tsb	<L128+psw_1
  2257 00:0B5E: C2 20        	rep	#$20
  2258                        	longa	on
  2259                        ;  psw |= c->pf << 2;
  2260 00:0B60: B7 0D        	lda	[<L127+c_0],Y
  2261 00:0B62: 4A           	lsr
  2262 00:0B63: 4A           	lsr
  2263 00:0B64: 4A           	lsr
  2264 00:0B65: 29 01 00     	and	#<$1
  2265 00:0B68: E2 20        	sep	#$20
  2266                        	longa	off
  2267 00:0B6A: 0A           	asl	A
  2268 00:0B6B: 0A           	asl	A
  2269 00:0B6C: 04 09        	tsb	<L128+psw_1
  2270                        ;  psw |= 1 << 1; // bit 1 is always 1
  2271 00:0B6E: A9 02        	lda	#$2
  2272 00:0B70: 04 09        	tsb	<L128+psw_1
  2273 00:0B72: C2 20        	rep	#$20
  2274                        	longa	on
  2275                        ;  psw |= c->cf << 0;
  2276 00:0B74: B7 0D        	lda	[<L127+c_0],Y
  2277 00:0B76: 4A           	lsr
  Sun Jan  9 2022 21:05                                                Page 42


  2278 00:0B77: 4A           	lsr
  2279 00:0B78: 4A           	lsr
  2280 00:0B79: 4A           	lsr
  2281 00:0B7A: 29 01 00     	and	#<$1
  2282 00:0B7D: E2 20        	sep	#$20
  2283                        	longa	off
  2284 00:0B7F: 04 09        	tsb	<L128+psw_1
  2285 00:0B81: C2 20        	rep	#$20
  2286                        	longa	on
  2287                        ;  i8080_push_stack(c, c->a << 8 | psw);
  2288 00:0B83: A0 1C 00     	ldy	#$1c
  2289 00:0B86: B7 0D        	lda	[<L127+c_0],Y
  2290 00:0B88: 29 FF 00     	and	#$ff
  2291 00:0B8B: EB           	xba
  2292 00:0B8C: 29 00 FF     	and	#$ff00
  2293 00:0B8F: 85 01        	sta	<R0
  2294 00:0B91: A5 09        	lda	<L128+psw_1
  2295 00:0B93: 29 FF 00     	and	#$ff
  2296 00:0B96: 05 01        	ora	<R0
  2297 00:0B98: 48           	pha
  2298 00:0B99: D4 0F        	pei	<L127+c_0+2
  2299 00:0B9B: D4 0D        	pei	<L127+c_0
  2300 00:0B9D: 22 xx xx xx  	jsl	~~i8080_push_stack
  2301                        ;}
  2302 00:0BA1: A5 0B        	lda	<L127+2
  2303 00:0BA3: 85 0F        	sta	<L127+2+4
  2304 00:0BA5: A5 0A        	lda	<L127+1
  2305 00:0BA7: 85 0E        	sta	<L127+1+4
  2306 00:0BA9: 2B           	pld
  2307 00:0BAA: 3B           	tsc
  2308 00:0BAB: 18           	clc
  2309 00:0BAC: 69 0D 00     	adc	#L127+4
  2310 00:0BAF: 1B           	tcs
  2311 00:0BB0: 6B           	rtl
  2312             00000009   L127	equ	9
  2313             00000009   L128	equ	9
  2314                        	ends
  2315                        	efunc
  2316                        ;
  2317                        ;// pops register A and the flags from the stack
  2318                        ;static  void i8080_pop_psw(i8080* const c) {
  2319                        	code
  2320                        	func
  2321                        ~~i8080_pop_psw:
  2322                        	longa	on
  2323                        	longi	on
  2324 00:0BB1: 3B           	tsc
  2325 00:0BB2: 38           	sec
  2326 00:0BB3: E9 07 00     	sbc	#L130
  2327 00:0BB6: 1B           	tcs
  2328 00:0BB7: 0B           	phd
  2329 00:0BB8: 5B           	tcd
  2330             00000004   c_0	set	4
  2331                        ;  uint8_t psw;
  2332                        ;  uint16_t af = i8080_pop_stack(c);
  2333                        ;  
  2334                        ;  c->a = af >> 8;
  2335             00000000   psw_1	set	0
  Sun Jan  9 2022 21:05                                                Page 43


  2336             00000001   af_1	set	1
  2337 00:0BB9: D4 0D        	pei	<L130+c_0+2
  2338 00:0BBB: D4 0B        	pei	<L130+c_0
  2339 00:0BBD: 22 xx xx xx  	jsl	~~i8080_pop_stack
  2340 00:0BC1: 85 06        	sta	<L131+af_1
  2341 00:0BC3: EB           	xba
  2342 00:0BC4: 29 FF 00     	and	#$00ff
  2343 00:0BC7: E2 20        	sep	#$20
  2344                        	longa	off
  2345 00:0BC9: A0 1C 00     	ldy	#$1c
  2346 00:0BCC: 97 0B        	sta	[<L130+c_0],Y
  2347 00:0BCE: C2 20        	rep	#$20
  2348                        	longa	on
  2349                        ;  psw = af & 0xFF;
  2350 00:0BD0: A5 06        	lda	<L131+af_1
  2351 00:0BD2: 29 FF 00     	and	#<$ff
  2352 00:0BD5: E2 20        	sep	#$20
  2353                        	longa	off
  2354 00:0BD7: 85 05        	sta	<L131+psw_1
  2355 00:0BD9: C2 20        	rep	#$20
  2356                        	longa	on
  2357                        ;
  2358                        ;  c->sf = (psw >> 7) & 1;
  2359 00:0BDB: A5 05        	lda	<L131+psw_1
  2360 00:0BDD: 29 FF 00     	and	#$ff
  2361 00:0BE0: A2 07 00     	ldx	#<$7
  2362                        	xref	~~~asr
  2363 00:0BE3: 22 xx xx xx  	jsl	~~~asr
  2364 00:0BE7: 29 01 00     	and	#<$1
  2365 00:0BEA: 29 01 00     	and	#<$1
  2366 00:0BED: 85 01        	sta	<R0
  2367 00:0BEF: A0 23 00     	ldy	#$23
  2368 00:0BF2: B7 0B        	lda	[<L130+c_0],Y
  2369 00:0BF4: 29 FE FF     	and	#<$fffffffe
  2370 00:0BF7: 05 01        	ora	<R0
  2371 00:0BF9: 97 0B        	sta	[<L130+c_0],Y
  2372                        ;  c->zf = (psw >> 6) & 1;
  2373 00:0BFB: A5 05        	lda	<L131+psw_1
  2374 00:0BFD: 29 FF 00     	and	#$ff
  2375 00:0C00: A2 06 00     	ldx	#<$6
  2376                        	xref	~~~asr
  2377 00:0C03: 22 xx xx xx  	jsl	~~~asr
  2378 00:0C07: 29 01 00     	and	#<$1
  2379 00:0C0A: 0A           	asl
  2380 00:0C0B: 29 02 00     	and	#<$2
  2381 00:0C0E: 85 01        	sta	<R0
  2382 00:0C10: A0 23 00     	ldy	#$23
  2383 00:0C13: B7 0B        	lda	[<L130+c_0],Y
  2384 00:0C15: 29 FD FF     	and	#<$fffffffd
  2385 00:0C18: 05 01        	ora	<R0
  2386 00:0C1A: 97 0B        	sta	[<L130+c_0],Y
  2387                        ;  c->hf = (psw >> 4) & 1;
  2388 00:0C1C: A5 05        	lda	<L131+psw_1
  2389 00:0C1E: 29 FF 00     	and	#$ff
  2390 00:0C21: A2 04 00     	ldx	#<$4
  2391                        	xref	~~~asr
  2392 00:0C24: 22 xx xx xx  	jsl	~~~asr
  2393 00:0C28: 29 01 00     	and	#<$1
  Sun Jan  9 2022 21:05                                                Page 44


  2394 00:0C2B: 0A           	asl
  2395 00:0C2C: 0A           	asl
  2396 00:0C2D: 29 04 00     	and	#<$4
  2397 00:0C30: 85 01        	sta	<R0
  2398 00:0C32: A0 23 00     	ldy	#$23
  2399 00:0C35: B7 0B        	lda	[<L130+c_0],Y
  2400 00:0C37: 29 FB FF     	and	#<$fffffffb
  2401 00:0C3A: 05 01        	ora	<R0
  2402 00:0C3C: 97 0B        	sta	[<L130+c_0],Y
  2403                        ;  c->pf = (psw >> 2) & 1;
  2404 00:0C3E: A5 05        	lda	<L131+psw_1
  2405 00:0C40: 29 FF 00     	and	#$ff
  2406 00:0C43: A2 02 00     	ldx	#<$2
  2407                        	xref	~~~asr
  2408 00:0C46: 22 xx xx xx  	jsl	~~~asr
  2409 00:0C4A: 29 01 00     	and	#<$1
  2410 00:0C4D: 0A           	asl
  2411 00:0C4E: 0A           	asl
  2412 00:0C4F: 0A           	asl
  2413 00:0C50: 29 08 00     	and	#<$8
  2414 00:0C53: 85 01        	sta	<R0
  2415 00:0C55: A0 23 00     	ldy	#$23
  2416 00:0C58: B7 0B        	lda	[<L130+c_0],Y
  2417 00:0C5A: 29 F7 FF     	and	#<$fffffff7
  2418 00:0C5D: 05 01        	ora	<R0
  2419 00:0C5F: 97 0B        	sta	[<L130+c_0],Y
  2420                        ;  c->cf = (psw >> 0) & 1;
  2421 00:0C61: A5 05        	lda	<L131+psw_1
  2422 00:0C63: 29 01 00     	and	#<$1
  2423 00:0C66: 0A           	asl
  2424 00:0C67: 0A           	asl
  2425 00:0C68: 0A           	asl
  2426 00:0C69: 0A           	asl
  2427 00:0C6A: 29 10 00     	and	#<$10
  2428 00:0C6D: 85 01        	sta	<R0
  2429 00:0C6F: B7 0B        	lda	[<L130+c_0],Y
  2430 00:0C71: 29 EF FF     	and	#<$ffffffef
  2431 00:0C74: 05 01        	ora	<R0
  2432 00:0C76: 97 0B        	sta	[<L130+c_0],Y
  2433                        ;}
  2434 00:0C78: A5 09        	lda	<L130+2
  2435 00:0C7A: 85 0D        	sta	<L130+2+4
  2436 00:0C7C: A5 08        	lda	<L130+1
  2437 00:0C7E: 85 0C        	sta	<L130+1+4
  2438 00:0C80: 2B           	pld
  2439 00:0C81: 3B           	tsc
  2440 00:0C82: 18           	clc
  2441 00:0C83: 69 0B 00     	adc	#L130+4
  2442 00:0C86: 1B           	tcs
  2443 00:0C87: 6B           	rtl
  2444             00000007   L130	equ	7
  2445             00000005   L131	equ	5
  2446                        	ends
  2447                        	efunc
  2448                        ;
  2449                        ;// rotate register A left
  2450                        ;static  void i8080_rlc(i8080* const c) {
  2451                        	code
  Sun Jan  9 2022 21:05                                                Page 45


  2452                        	func
  2453                        ~~i8080_rlc:
  2454                        	longa	on
  2455                        	longi	on
  2456 00:0C88: 3B           	tsc
  2457 00:0C89: 38           	sec
  2458 00:0C8A: E9 08 00     	sbc	#L133
  2459 00:0C8D: 1B           	tcs
  2460 00:0C8E: 0B           	phd
  2461 00:0C8F: 5B           	tcd
  2462             00000004   c_0	set	4
  2463                        ;  c->cf = c->a >> 7;
  2464 00:0C90: A0 1C 00     	ldy	#$1c
  2465 00:0C93: B7 0C        	lda	[<L133+c_0],Y
  2466 00:0C95: 29 FF 00     	and	#$ff
  2467 00:0C98: A2 07 00     	ldx	#<$7
  2468                        	xref	~~~asr
  2469 00:0C9B: 22 xx xx xx  	jsl	~~~asr
  2470 00:0C9F: 0A           	asl
  2471 00:0CA0: 0A           	asl
  2472 00:0CA1: 0A           	asl
  2473 00:0CA2: 0A           	asl
  2474 00:0CA3: 29 10 00     	and	#<$10
  2475 00:0CA6: 85 01        	sta	<R0
  2476 00:0CA8: A0 23 00     	ldy	#$23
  2477 00:0CAB: B7 0C        	lda	[<L133+c_0],Y
  2478 00:0CAD: 29 EF FF     	and	#<$ffffffef
  2479 00:0CB0: 05 01        	ora	<R0
  2480 00:0CB2: 97 0C        	sta	[<L133+c_0],Y
  2481                        ;  c->a = (c->a << 1) | c->cf;
  2482 00:0CB4: E2 20        	sep	#$20
  2483                        	longa	off
  2484 00:0CB6: A0 1C 00     	ldy	#$1c
  2485 00:0CB9: B7 0C        	lda	[<L133+c_0],Y
  2486 00:0CBB: 0A           	asl	A
  2487 00:0CBC: 85 01        	sta	<R0
  2488 00:0CBE: C2 20        	rep	#$20
  2489                        	longa	on
  2490 00:0CC0: A0 23 00     	ldy	#$23
  2491 00:0CC3: B7 0C        	lda	[<L133+c_0],Y
  2492 00:0CC5: 4A           	lsr
  2493 00:0CC6: 4A           	lsr
  2494 00:0CC7: 4A           	lsr
  2495 00:0CC8: 4A           	lsr
  2496 00:0CC9: 29 01 00     	and	#<$1
  2497 00:0CCC: E2 20        	sep	#$20
  2498                        	longa	off
  2499 00:0CCE: 05 01        	ora	<R0
  2500 00:0CD0: A0 1C 00     	ldy	#$1c
  2501 00:0CD3: 97 0C        	sta	[<L133+c_0],Y
  2502 00:0CD5: C2 20        	rep	#$20
  2503                        	longa	on
  2504                        ;}
  2505 00:0CD7: A5 0A        	lda	<L133+2
  2506 00:0CD9: 85 0E        	sta	<L133+2+4
  2507 00:0CDB: A5 09        	lda	<L133+1
  2508 00:0CDD: 85 0D        	sta	<L133+1+4
  2509 00:0CDF: 2B           	pld
  Sun Jan  9 2022 21:05                                                Page 46


  2510 00:0CE0: 3B           	tsc
  2511 00:0CE1: 18           	clc
  2512 00:0CE2: 69 0C 00     	adc	#L133+4
  2513 00:0CE5: 1B           	tcs
  2514 00:0CE6: 6B           	rtl
  2515             00000008   L133	equ	8
  2516             00000009   L134	equ	9
  2517                        	ends
  2518                        	efunc
  2519                        ;
  2520                        ;// rotate register A right
  2521                        ;static  void i8080_rrc(i8080* const c) {
  2522                        	code
  2523                        	func
  2524                        ~~i8080_rrc:
  2525                        	longa	on
  2526                        	longi	on
  2527 00:0CE7: 3B           	tsc
  2528 00:0CE8: 38           	sec
  2529 00:0CE9: E9 0C 00     	sbc	#L136
  2530 00:0CEC: 1B           	tcs
  2531 00:0CED: 0B           	phd
  2532 00:0CEE: 5B           	tcd
  2533             00000004   c_0	set	4
  2534                        ;  c->cf = c->a & 1;
  2535 00:0CEF: A0 1C 00     	ldy	#$1c
  2536 00:0CF2: B7 10        	lda	[<L136+c_0],Y
  2537 00:0CF4: 29 01 00     	and	#<$1
  2538 00:0CF7: 0A           	asl
  2539 00:0CF8: 0A           	asl
  2540 00:0CF9: 0A           	asl
  2541 00:0CFA: 0A           	asl
  2542 00:0CFB: 29 10 00     	and	#<$10
  2543 00:0CFE: 85 01        	sta	<R0
  2544 00:0D00: A0 23 00     	ldy	#$23
  2545 00:0D03: B7 10        	lda	[<L136+c_0],Y
  2546 00:0D05: 29 EF FF     	and	#<$ffffffef
  2547 00:0D08: 05 01        	ora	<R0
  2548 00:0D0A: 97 10        	sta	[<L136+c_0],Y
  2549                        ;  c->a = (c->a >> 1) | (c->cf << 7);
  2550 00:0D0C: E2 20        	sep	#$20
  2551                        	longa	off
  2552 00:0D0E: A0 1C 00     	ldy	#$1c
  2553 00:0D11: B7 10        	lda	[<L136+c_0],Y
  2554 00:0D13: 4A           	lsr	A
  2555 00:0D14: 85 01        	sta	<R0
  2556 00:0D16: C2 20        	rep	#$20
  2557                        	longa	on
  2558 00:0D18: A0 23 00     	ldy	#$23
  2559 00:0D1B: B7 10        	lda	[<L136+c_0],Y
  2560 00:0D1D: 4A           	lsr
  2561 00:0D1E: 4A           	lsr
  2562 00:0D1F: 4A           	lsr
  2563 00:0D20: 4A           	lsr
  2564 00:0D21: 29 01 00     	and	#<$1
  2565 00:0D24: A2 07 00     	ldx	#<$7
  2566                        	xref	~~~casl
  2567 00:0D27: 22 xx xx xx  	jsl	~~~casl
  Sun Jan  9 2022 21:05                                                Page 47


  2568 00:0D2B: E2 20        	sep	#$20
  2569                        	longa	off
  2570 00:0D2D: 05 01        	ora	<R0
  2571 00:0D2F: A0 1C 00     	ldy	#$1c
  2572 00:0D32: 97 10        	sta	[<L136+c_0],Y
  2573 00:0D34: C2 20        	rep	#$20
  2574                        	longa	on
  2575                        ;}
  2576 00:0D36: A5 0E        	lda	<L136+2
  2577 00:0D38: 85 12        	sta	<L136+2+4
  2578 00:0D3A: A5 0D        	lda	<L136+1
  2579 00:0D3C: 85 11        	sta	<L136+1+4
  2580 00:0D3E: 2B           	pld
  2581 00:0D3F: 3B           	tsc
  2582 00:0D40: 18           	clc
  2583 00:0D41: 69 10 00     	adc	#L136+4
  2584 00:0D44: 1B           	tcs
  2585 00:0D45: 6B           	rtl
  2586             0000000C   L136	equ	12
  2587             0000000D   L137	equ	13
  2588                        	ends
  2589                        	efunc
  2590                        ;
  2591                        ;// rotate register A left with the carry flag
  2592                        ;static  void i8080_ral(i8080* const c) {
  2593                        	code
  2594                        	func
  2595                        ~~i8080_ral:
  2596                        	longa	on
  2597                        	longi	on
  2598 00:0D46: 3B           	tsc
  2599 00:0D47: 38           	sec
  2600 00:0D48: E9 06 00     	sbc	#L139
  2601 00:0D4B: 1B           	tcs
  2602 00:0D4C: 0B           	phd
  2603 00:0D4D: 5B           	tcd
  2604             00000004   c_0	set	4
  2605                        ;  bool cy = c->cf;
  2606                        ;  c->cf = c->a >> 7;
  2607             00000000   cy_1	set	0
  2608 00:0D4E: A0 23 00     	ldy	#$23
  2609 00:0D51: B7 0A        	lda	[<L139+c_0],Y
  2610 00:0D53: 4A           	lsr
  2611 00:0D54: 4A           	lsr
  2612 00:0D55: 4A           	lsr
  2613 00:0D56: 4A           	lsr
  2614 00:0D57: 29 01 00     	and	#<$1
  2615 00:0D5A: 85 05        	sta	<L140+cy_1
  2616 00:0D5C: A0 1C 00     	ldy	#$1c
  2617 00:0D5F: B7 0A        	lda	[<L139+c_0],Y
  2618 00:0D61: 29 FF 00     	and	#$ff
  2619 00:0D64: A2 07 00     	ldx	#<$7
  2620                        	xref	~~~asr
  2621 00:0D67: 22 xx xx xx  	jsl	~~~asr
  2622 00:0D6B: 0A           	asl
  2623 00:0D6C: 0A           	asl
  2624 00:0D6D: 0A           	asl
  2625 00:0D6E: 0A           	asl
  Sun Jan  9 2022 21:05                                                Page 48


  2626 00:0D6F: 29 10 00     	and	#<$10
  2627 00:0D72: 85 01        	sta	<R0
  2628 00:0D74: A0 23 00     	ldy	#$23
  2629 00:0D77: B7 0A        	lda	[<L139+c_0],Y
  2630 00:0D79: 29 EF FF     	and	#<$ffffffef
  2631 00:0D7C: 05 01        	ora	<R0
  2632 00:0D7E: 97 0A        	sta	[<L139+c_0],Y
  2633                        ;  c->a = (c->a << 1) | cy;
  2634 00:0D80: E2 20        	sep	#$20
  2635                        	longa	off
  2636 00:0D82: A0 1C 00     	ldy	#$1c
  2637 00:0D85: B7 0A        	lda	[<L139+c_0],Y
  2638 00:0D87: 0A           	asl	A
  2639 00:0D88: 85 01        	sta	<R0
  2640 00:0D8A: A5 05        	lda	<L140+cy_1
  2641 00:0D8C: 05 01        	ora	<R0
  2642 00:0D8E: 97 0A        	sta	[<L139+c_0],Y
  2643 00:0D90: C2 20        	rep	#$20
  2644                        	longa	on
  2645                        ;}
  2646 00:0D92: A5 08        	lda	<L139+2
  2647 00:0D94: 85 0C        	sta	<L139+2+4
  2648 00:0D96: A5 07        	lda	<L139+1
  2649 00:0D98: 85 0B        	sta	<L139+1+4
  2650 00:0D9A: 2B           	pld
  2651 00:0D9B: 3B           	tsc
  2652 00:0D9C: 18           	clc
  2653 00:0D9D: 69 0A 00     	adc	#L139+4
  2654 00:0DA0: 1B           	tcs
  2655 00:0DA1: 6B           	rtl
  2656             00000006   L139	equ	6
  2657             00000005   L140	equ	5
  2658                        	ends
  2659                        	efunc
  2660                        ;
  2661                        ;// rotate register A right with the carry flag
  2662                        ;static  void i8080_rar(i8080* const c) {
  2663                        	code
  2664                        	func
  2665                        ~~i8080_rar:
  2666                        	longa	on
  2667                        	longi	on
  2668 00:0DA2: 3B           	tsc
  2669 00:0DA3: 38           	sec
  2670 00:0DA4: E9 0A 00     	sbc	#L142
  2671 00:0DA7: 1B           	tcs
  2672 00:0DA8: 0B           	phd
  2673 00:0DA9: 5B           	tcd
  2674             00000004   c_0	set	4
  2675                        ;  bool cy = c->cf;
  2676                        ;  c->cf = c->a & 1;
  2677             00000000   cy_1	set	0
  2678 00:0DAA: A0 23 00     	ldy	#$23
  2679 00:0DAD: B7 0E        	lda	[<L142+c_0],Y
  2680 00:0DAF: 4A           	lsr
  2681 00:0DB0: 4A           	lsr
  2682 00:0DB1: 4A           	lsr
  2683 00:0DB2: 4A           	lsr
  Sun Jan  9 2022 21:05                                                Page 49


  2684 00:0DB3: 29 01 00     	and	#<$1
  2685 00:0DB6: 85 09        	sta	<L143+cy_1
  2686 00:0DB8: A0 1C 00     	ldy	#$1c
  2687 00:0DBB: B7 0E        	lda	[<L142+c_0],Y
  2688 00:0DBD: 29 01 00     	and	#<$1
  2689 00:0DC0: 0A           	asl
  2690 00:0DC1: 0A           	asl
  2691 00:0DC2: 0A           	asl
  2692 00:0DC3: 0A           	asl
  2693 00:0DC4: 29 10 00     	and	#<$10
  2694 00:0DC7: 85 01        	sta	<R0
  2695 00:0DC9: A0 23 00     	ldy	#$23
  2696 00:0DCC: B7 0E        	lda	[<L142+c_0],Y
  2697 00:0DCE: 29 EF FF     	and	#<$ffffffef
  2698 00:0DD1: 05 01        	ora	<R0
  2699 00:0DD3: 97 0E        	sta	[<L142+c_0],Y
  2700                        ;  c->a = (c->a >> 1) | (cy << 7);
  2701 00:0DD5: E2 20        	sep	#$20
  2702                        	longa	off
  2703 00:0DD7: A0 1C 00     	ldy	#$1c
  2704 00:0DDA: B7 0E        	lda	[<L142+c_0],Y
  2705 00:0DDC: 4A           	lsr	A
  2706 00:0DDD: 85 01        	sta	<R0
  2707 00:0DDF: C2 20        	rep	#$20
  2708                        	longa	on
  2709 00:0DE1: A5 09        	lda	<L143+cy_1
  2710 00:0DE3: A2 07 00     	ldx	#<$7
  2711                        	xref	~~~casl
  2712 00:0DE6: 22 xx xx xx  	jsl	~~~casl
  2713 00:0DEA: E2 20        	sep	#$20
  2714                        	longa	off
  2715 00:0DEC: 05 01        	ora	<R0
  2716 00:0DEE: A0 1C 00     	ldy	#$1c
  2717 00:0DF1: 97 0E        	sta	[<L142+c_0],Y
  2718 00:0DF3: C2 20        	rep	#$20
  2719                        	longa	on
  2720                        ;}
  2721 00:0DF5: A5 0C        	lda	<L142+2
  2722 00:0DF7: 85 10        	sta	<L142+2+4
  2723 00:0DF9: A5 0B        	lda	<L142+1
  2724 00:0DFB: 85 0F        	sta	<L142+1+4
  2725 00:0DFD: 2B           	pld
  2726 00:0DFE: 3B           	tsc
  2727 00:0DFF: 18           	clc
  2728 00:0E00: 69 0E 00     	adc	#L142+4
  2729 00:0E03: 1B           	tcs
  2730 00:0E04: 6B           	rtl
  2731             0000000A   L142	equ	10
  2732             00000009   L143	equ	9
  2733                        	ends
  2734                        	efunc
  2735                        ;
  2736                        ;// Decimal Adjust Accumulator: the eight-bit numb
                    er in register A is adjusted
  2737                        ;// to form two four-bit binary-coded-decimal digi
                    ts.
  2738                        ;// For example, if A=$2B and DAA is executed, A b
                    ecomes $31.
  Sun Jan  9 2022 21:05                                                Page 50


  2739                        ;static  void i8080_daa(i8080* const c) {
  2740                        	code
  2741                        	func
  2742                        ~~i8080_daa:
  2743                        	longa	on
  2744                        	longi	on
  2745 00:0E05: 3B           	tsc
  2746 00:0E06: 38           	sec
  2747 00:0E07: E9 09 00     	sbc	#L145
  2748 00:0E0A: 1B           	tcs
  2749 00:0E0B: 0B           	phd
  2750 00:0E0C: 5B           	tcd
  2751             00000004   c_0	set	4
  2752                        ;  bool cy = c->cf;
  2753                        ;  uint8_t correction = 0;
  2754                        ;
  2755                        ;  uint8_t lsb = c->a & 0x0F;
  2756                        ;  uint8_t msb = c->a >> 4;
  2757                        ;
  2758                        ;  if (c->hf || lsb > 9) {
  2759             00000000   cy_1	set	0
  2760             00000002   correction_1	set	2
  2761             00000003   lsb_1	set	3
  2762             00000004   msb_1	set	4
  2763 00:0E0D: A0 23 00     	ldy	#$23
  2764 00:0E10: B7 0D        	lda	[<L145+c_0],Y
  2765 00:0E12: 4A           	lsr
  2766 00:0E13: 4A           	lsr
  2767 00:0E14: 4A           	lsr
  2768 00:0E15: 4A           	lsr
  2769 00:0E16: 29 01 00     	and	#<$1
  2770 00:0E19: 85 01        	sta	<R0
  2771 00:0E1B: 85 05        	sta	<L146+cy_1
  2772 00:0E1D: E2 20        	sep	#$20
  2773                        	longa	off
  2774 00:0E1F: 64 07        	stz	<L146+correction_1
  2775 00:0E21: A0 1C 00     	ldy	#$1c
  2776 00:0E24: B7 0D        	lda	[<L145+c_0],Y
  2777 00:0E26: 29 0F        	and	#<$f
  2778 00:0E28: 85 08        	sta	<L146+lsb_1
  2779 00:0E2A: B7 0D        	lda	[<L145+c_0],Y
  2780 00:0E2C: 4A           	lsr	A
  2781 00:0E2D: 4A           	lsr	A
  2782 00:0E2E: 4A           	lsr	A
  2783 00:0E2F: 4A           	lsr	A
  2784 00:0E30: 85 09        	sta	<L146+msb_1
  2785 00:0E32: C2 20        	rep	#$20
  2786                        	longa	on
  2787 00:0E34: A0 23 00     	ldy	#$23
  2788 00:0E37: B7 0D        	lda	[<L145+c_0],Y
  2789 00:0E39: 89 04 00     	bit	#$4
  2790 00:0E3C: D0 0A        	bne	L147
  2791 00:0E3E: E2 20        	sep	#$20
  2792                        	longa	off
  2793 00:0E40: A9 09        	lda	#$9
  2794 00:0E42: C5 08        	cmp	<L146+lsb_1
  2795 00:0E44: C2 20        	rep	#$20
  2796                        	longa	on
  Sun Jan  9 2022 21:05                                                Page 51


  2797 00:0E46: B0 0B        	bcs	L10029
  2798                        L147:
  2799                        ;    correction += 0x06;
  2800 00:0E48: E2 20        	sep	#$20
  2801                        	longa	off
  2802 00:0E4A: A9 06        	lda	#$6
  2803 00:0E4C: 18           	clc
  2804 00:0E4D: 65 07        	adc	<L146+correction_1
  2805 00:0E4F: 85 07        	sta	<L146+correction_1
  2806 00:0E51: C2 20        	rep	#$20
  2807                        	longa	on
  2808                        ;  }
  2809                        ;
  2810                        ;  if (c->cf || msb > 9 || (msb >= 9 && lsb > 9)) 
                    {
  2811                        L10029:
  2812 00:0E53: A0 23 00     	ldy	#$23
  2813 00:0E56: B7 0D        	lda	[<L145+c_0],Y
  2814 00:0E58: 89 10 00     	bit	#$10
  2815 00:0E5B: D0 1E        	bne	L150
  2816 00:0E5D: E2 20        	sep	#$20
  2817                        	longa	off
  2818 00:0E5F: A9 09        	lda	#$9
  2819 00:0E61: C5 09        	cmp	<L146+msb_1
  2820 00:0E63: C2 20        	rep	#$20
  2821                        	longa	on
  2822 00:0E65: 90 14        	bcc	L150
  2823 00:0E67: E2 20        	sep	#$20
  2824                        	longa	off
  2825 00:0E69: A5 09        	lda	<L146+msb_1
  2826 00:0E6B: C9 09        	cmp	#<$9
  2827 00:0E6D: C2 20        	rep	#$20
  2828                        	longa	on
  2829 00:0E6F: 90 1A        	bcc	L10030
  2830 00:0E71: E2 20        	sep	#$20
  2831                        	longa	off
  2832 00:0E73: A9 09        	lda	#$9
  2833 00:0E75: C5 08        	cmp	<L146+lsb_1
  2834 00:0E77: C2 20        	rep	#$20
  2835                        	longa	on
  2836 00:0E79: B0 10        	bcs	L10030
  2837                        L150:
  2838                        ;    correction += 0x60;
  2839 00:0E7B: E2 20        	sep	#$20
  2840                        	longa	off
  2841 00:0E7D: A9 60        	lda	#$60
  2842 00:0E7F: 18           	clc
  2843 00:0E80: 65 07        	adc	<L146+correction_1
  2844 00:0E82: 85 07        	sta	<L146+correction_1
  2845 00:0E84: C2 20        	rep	#$20
  2846                        	longa	on
  2847                        ;    cy = 1;
  2848 00:0E86: A9 01 00     	lda	#$1
  2849 00:0E89: 85 05        	sta	<L146+cy_1
  2850                        ;  }
  2851                        ;
  2852                        ;  i8080_add(c, &c->a, correction, 0);
  2853                        L10030:
  Sun Jan  9 2022 21:05                                                Page 52


  2854 00:0E8B: F4 00 00     	pea	#<$0
  2855 00:0E8E: D4 07        	pei	<L146+correction_1
  2856 00:0E90: A9 1C 00     	lda	#$1c
  2857 00:0E93: 18           	clc
  2858 00:0E94: 65 0D        	adc	<L145+c_0
  2859 00:0E96: 85 01        	sta	<R0
  2860 00:0E98: A9 00 00     	lda	#$0
  2861 00:0E9B: 65 0F        	adc	<L145+c_0+2
  2862 00:0E9D: 48           	pha
  2863 00:0E9E: D4 01        	pei	<R0
  2864 00:0EA0: D4 0F        	pei	<L145+c_0+2
  2865 00:0EA2: D4 0D        	pei	<L145+c_0
  2866 00:0EA4: 22 xx xx xx  	jsl	~~i8080_add
  2867                        ;  c->cf = cy;
  2868 00:0EA8: A5 05        	lda	<L146+cy_1
  2869 00:0EAA: 0A           	asl
  2870 00:0EAB: 0A           	asl
  2871 00:0EAC: 0A           	asl
  2872 00:0EAD: 0A           	asl
  2873 00:0EAE: 29 10 00     	and	#<$10
  2874 00:0EB1: 85 01        	sta	<R0
  2875 00:0EB3: A0 23 00     	ldy	#$23
  2876 00:0EB6: B7 0D        	lda	[<L145+c_0],Y
  2877 00:0EB8: 29 EF FF     	and	#<$ffffffef
  2878 00:0EBB: 05 01        	ora	<R0
  2879 00:0EBD: 97 0D        	sta	[<L145+c_0],Y
  2880                        ;}
  2881 00:0EBF: A5 0B        	lda	<L145+2
  2882 00:0EC1: 85 0F        	sta	<L145+2+4
  2883 00:0EC3: A5 0A        	lda	<L145+1
  2884 00:0EC5: 85 0E        	sta	<L145+1+4
  2885 00:0EC7: 2B           	pld
  2886 00:0EC8: 3B           	tsc
  2887 00:0EC9: 18           	clc
  2888 00:0ECA: 69 0D 00     	adc	#L145+4
  2889 00:0ECD: 1B           	tcs
  2890 00:0ECE: 6B           	rtl
  2891             00000009   L145	equ	9
  2892             00000005   L146	equ	5
  2893                        	ends
  2894                        	efunc
  2895                        ;
  2896                        ;// switches the value of registers DE and HL
  2897                        ;static  void i8080_xchg(i8080* const c) {
  2898                        	code
  2899                        	func
  2900                        ~~i8080_xchg:
  2901                        	longa	on
  2902                        	longi	on
  2903 00:0ECF: 3B           	tsc
  2904 00:0ED0: 38           	sec
  2905 00:0ED1: E9 02 00     	sbc	#L156
  2906 00:0ED4: 1B           	tcs
  2907 00:0ED5: 0B           	phd
  2908 00:0ED6: 5B           	tcd
  2909             00000004   c_0	set	4
  2910                        ;  uint16_t de = i8080_get_de(c);
  2911                        ;  i8080_set_de(c, i8080_get_hl(c));
  Sun Jan  9 2022 21:05                                                Page 53


  2912             00000000   de_1	set	0
  2913 00:0ED7: D4 08        	pei	<L156+c_0+2
  2914 00:0ED9: D4 06        	pei	<L156+c_0
  2915 00:0EDB: 22 xx xx xx  	jsl	~~i8080_get_de
  2916 00:0EDF: 85 01        	sta	<L157+de_1
  2917 00:0EE1: D4 08        	pei	<L156+c_0+2
  2918 00:0EE3: D4 06        	pei	<L156+c_0
  2919 00:0EE5: 22 xx xx xx  	jsl	~~i8080_get_hl
  2920 00:0EE9: 48           	pha
  2921 00:0EEA: D4 08        	pei	<L156+c_0+2
  2922 00:0EEC: D4 06        	pei	<L156+c_0
  2923 00:0EEE: 22 xx xx xx  	jsl	~~i8080_set_de
  2924                        ;  i8080_set_hl(c, de);
  2925 00:0EF2: D4 01        	pei	<L157+de_1
  2926 00:0EF4: D4 08        	pei	<L156+c_0+2
  2927 00:0EF6: D4 06        	pei	<L156+c_0
  2928 00:0EF8: 22 xx xx xx  	jsl	~~i8080_set_hl
  2929                        ;}
  2930 00:0EFC: A5 04        	lda	<L156+2
  2931 00:0EFE: 85 08        	sta	<L156+2+4
  2932 00:0F00: A5 03        	lda	<L156+1
  2933 00:0F02: 85 07        	sta	<L156+1+4
  2934 00:0F04: 2B           	pld
  2935 00:0F05: 3B           	tsc
  2936 00:0F06: 18           	clc
  2937 00:0F07: 69 06 00     	adc	#L156+4
  2938 00:0F0A: 1B           	tcs
  2939 00:0F0B: 6B           	rtl
  2940             00000002   L156	equ	2
  2941             00000001   L157	equ	1
  2942                        	ends
  2943                        	efunc
  2944                        ;
  2945                        ;// switches the value of a word at (sp) and HL
  2946                        ;static  void i8080_xthl(i8080* const c) {
  2947                        	code
  2948                        	func
  2949                        ~~i8080_xthl:
  2950                        	longa	on
  2951                        	longi	on
  2952 00:0F0C: 3B           	tsc
  2953 00:0F0D: 38           	sec
  2954 00:0F0E: E9 02 00     	sbc	#L159
  2955 00:0F11: 1B           	tcs
  2956 00:0F12: 0B           	phd
  2957 00:0F13: 5B           	tcd
  2958             00000004   c_0	set	4
  2959                        ;  uint16_t val = i8080_rw(c, c->sp);
  2960                        ;  i8080_ww(c, c->sp, i8080_get_hl(c));
  2961             00000000   val_1	set	0
  2962 00:0F14: A0 1A 00     	ldy	#$1a
  2963 00:0F17: B7 06        	lda	[<L159+c_0],Y
  2964 00:0F19: 48           	pha
  2965 00:0F1A: D4 08        	pei	<L159+c_0+2
  2966 00:0F1C: D4 06        	pei	<L159+c_0
  2967 00:0F1E: 22 xx xx xx  	jsl	~~i8080_rw
  2968 00:0F22: 85 01        	sta	<L160+val_1
  2969 00:0F24: D4 08        	pei	<L159+c_0+2
  Sun Jan  9 2022 21:05                                                Page 54


  2970 00:0F26: D4 06        	pei	<L159+c_0
  2971 00:0F28: 22 xx xx xx  	jsl	~~i8080_get_hl
  2972 00:0F2C: 48           	pha
  2973 00:0F2D: A0 1A 00     	ldy	#$1a
  2974 00:0F30: B7 06        	lda	[<L159+c_0],Y
  2975 00:0F32: 48           	pha
  2976 00:0F33: D4 08        	pei	<L159+c_0+2
  2977 00:0F35: D4 06        	pei	<L159+c_0
  2978 00:0F37: 22 xx xx xx  	jsl	~~i8080_ww
  2979                        ;  i8080_set_hl(c, val);
  2980 00:0F3B: D4 01        	pei	<L160+val_1
  2981 00:0F3D: D4 08        	pei	<L159+c_0+2
  2982 00:0F3F: D4 06        	pei	<L159+c_0
  2983 00:0F41: 22 xx xx xx  	jsl	~~i8080_set_hl
  2984                        ;}
  2985 00:0F45: A5 04        	lda	<L159+2
  2986 00:0F47: 85 08        	sta	<L159+2+4
  2987 00:0F49: A5 03        	lda	<L159+1
  2988 00:0F4B: 85 07        	sta	<L159+1+4
  2989 00:0F4D: 2B           	pld
  2990 00:0F4E: 3B           	tsc
  2991 00:0F4F: 18           	clc
  2992 00:0F50: 69 06 00     	adc	#L159+4
  2993 00:0F53: 1B           	tcs
  2994 00:0F54: 6B           	rtl
  2995             00000002   L159	equ	2
  2996             00000001   L160	equ	1
  2997                        	ends
  2998                        	efunc
  2999                        ;
  3000                        ;// executes one opcode
  3001                        ;static  void i8080_execute(i8080* const c, uint8_
                    t opcode) {
  3002                        	code
  3003                        	func
  3004                        ~~i8080_execute:
  3005                        	longa	on
  3006                        	longi	on
  3007 00:0F55: 3B           	tsc
  3008 00:0F56: 38           	sec
  3009 00:0F57: E9 0C 00     	sbc	#L162
  3010 00:0F5A: 1B           	tcs
  3011 00:0F5B: 0B           	phd
  3012 00:0F5C: 5B           	tcd
  3013             00000004   c_0	set	4
  3014             00000008   opcode_0	set	8
  3015                        ;  //c->cyc += OPCODES_CYCLES[opcode];
  3016                        ;
  3017                        ;  // when DI is executed, interrupts won't be ser
                    viced
  3018                        ;  // until the end of next instruction:
  3019                        ;  if (c->interrupt_delay > 0) {
  3020 00:0F5D: E2 20        	sep	#$20
  3021                        	longa	off
  3022 00:0F5F: A9 00        	lda	#$0
  3023 00:0F61: A0 26 00     	ldy	#$26
  3024 00:0F64: D7 10        	cmp	[<L162+c_0],Y
  3025 00:0F66: C2 20        	rep	#$20
  Sun Jan  9 2022 21:05                                                Page 55


  3026                        	longa	on
  3027 00:0F68: B0 1C        	bcs	L10031
  3028                        ;    c->interrupt_delay -= 1;
  3029 00:0F6A: 98           	tya
  3030 00:0F6B: 18           	clc
  3031 00:0F6C: 65 10        	adc	<L162+c_0
  3032 00:0F6E: 85 01        	sta	<R0
  3033 00:0F70: A9 00 00     	lda	#$0
  3034 00:0F73: 65 12        	adc	<L162+c_0+2
  3035 00:0F75: 85 03        	sta	<R0+2
  3036 00:0F77: A7 01        	lda	[<R0]
  3037 00:0F79: 29 FF 00     	and	#$ff
  3038 00:0F7C: 18           	clc
  3039 00:0F7D: 69 FF FF     	adc	#$ffff
  3040 00:0F80: E2 20        	sep	#$20
  3041                        	longa	off
  3042 00:0F82: 87 01        	sta	[<R0]
  3043 00:0F84: C2 20        	rep	#$20
  3044                        	longa	on
  3045                        ;  }
  3046                        ;
  3047                        ;  getchar();
  3048                        L10031:
  3049 00:0F86: AD xx xx     	lda	|~~stdin+2
  3050 00:0F89: 48           	pha
  3051 00:0F8A: AD xx xx     	lda	|~~stdin
  3052 00:0F8D: 48           	pha
  3053 00:0F8E: 22 xx xx xx  	jsl	~~fgetc
  3054                        ;  switch (opcode) {
  3055 00:0F92: A5 14        	lda	<L162+opcode_0
  3056 00:0F94: 29 FF 00     	and	#$ff
  3057                        	xref	~~~fsw
  3058 00:0F97: 22 xx xx xx  	jsl	~~~fsw
  3059 00:0F9B: 00 00        	dw	0
  3060 00:0F9D: 00 01        	dw	256
  3061 00:0F9F: xx xx        	dw	L215-1
  3062 00:0FA1: xx xx        	dw	L215-1
  3063 00:0FA3: xx xx        	dw	L10111-1
  3064 00:0FA5: xx xx        	dw	L10108-1
  3065 00:0FA7: xx xx        	dw	L10180-1
  3066 00:0FA9: xx xx        	dw	L10165-1
  3067 00:0FAB: xx xx        	dw	L10173-1
  3068 00:0FAD: xx xx        	dw	L10101-1
  3069 00:0FAF: xx xx        	dw	L10192-1
  3070 00:0FB1: xx xx        	dw	L215-1
  3071 00:0FB3: xx xx        	dw	L10156-1
  3072 00:0FB5: xx xx        	dw	L10042-1
  3073 00:0FB7: xx xx        	dw	L10184-1
  3074 00:0FB9: xx xx        	dw	L10166-1
  3075 00:0FBB: xx xx        	dw	L10174-1
  3076 00:0FBD: xx xx        	dw	L10102-1
  3077 00:0FBF: xx xx        	dw	L10193-1
  3078 00:0FC1: xx xx        	dw	L215-1
  3079 00:0FC3: xx xx        	dw	L10112-1
  3080 00:0FC5: xx xx        	dw	L10109-1
  3081 00:0FC7: xx xx        	dw	L10181-1
  3082 00:0FC9: xx xx        	dw	L10167-1
  3083 00:0FCB: xx xx        	dw	L10175-1
  Sun Jan  9 2022 21:05                                                Page 56


  3084 00:0FCD: xx xx        	dw	L10103-1
  3085 00:0FCF: xx xx        	dw	L10194-1
  3086 00:0FD1: xx xx        	dw	L215-1
  3087 00:0FD3: xx xx        	dw	L10157-1
  3088 00:0FD5: xx xx        	dw	L10043-1
  3089 00:0FD7: xx xx        	dw	L10185-1
  3090 00:0FD9: xx xx        	dw	L10168-1
  3091 00:0FDB: xx xx        	dw	L10176-1
  3092 00:0FDD: xx xx        	dw	L10104-1
  3093 00:0FDF: xx xx        	dw	L10195-1
  3094 00:0FE1: xx xx        	dw	L215-1
  3095 00:0FE3: xx xx        	dw	L10113-1
  3096 00:0FE5: xx xx        	dw	L10116-1
  3097 00:0FE7: xx xx        	dw	L10182-1
  3098 00:0FE9: xx xx        	dw	L10169-1
  3099 00:0FEB: xx xx        	dw	L10177-1
  3100 00:0FED: xx xx        	dw	L10105-1
  3101 00:0FEF: xx xx        	dw	L10188-1
  3102 00:0FF1: xx xx        	dw	L215-1
  3103 00:0FF3: xx xx        	dw	L10158-1
  3104 00:0FF5: xx xx        	dw	L10115-1
  3105 00:0FF7: xx xx        	dw	L10186-1
  3106 00:0FF9: xx xx        	dw	L10170-1
  3107 00:0FFB: xx xx        	dw	L10178-1
  3108 00:0FFD: xx xx        	dw	L10106-1
  3109 00:0FFF: xx xx        	dw	L10189-1
  3110 00:1001: xx xx        	dw	L215-1
  3111 00:1003: xx xx        	dw	L10114-1
  3112 00:1005: xx xx        	dw	L10110-1
  3113 00:1007: xx xx        	dw	L10183-1
  3114 00:1009: xx xx        	dw	L10171-1
  3115 00:100B: xx xx        	dw	L10179-1
  3116 00:100D: xx xx        	dw	L10107-1
  3117 00:100F: xx xx        	dw	L10190-1
  3118 00:1011: xx xx        	dw	L215-1
  3119 00:1013: xx xx        	dw	L10159-1
  3120 00:1015: xx xx        	dw	L10044-1
  3121 00:1017: xx xx        	dw	L10187-1
  3122 00:1019: xx xx        	dw	L10164-1
  3123 00:101B: xx xx        	dw	L10172-1
  3124 00:101D: xx xx        	dw	L10100-1
  3125 00:101F: xx xx        	dw	L10191-1
  3126 00:1021: xx xx        	dw	L10046-1
  3127 00:1023: xx xx        	dw	L10047-1
  3128 00:1025: xx xx        	dw	L10048-1
  3129 00:1027: xx xx        	dw	L10049-1
  3130 00:1029: xx xx        	dw	L10050-1
  3131 00:102B: xx xx        	dw	L10051-1
  3132 00:102D: xx xx        	dw	L10052-1
  3133 00:102F: xx xx        	dw	L10045-1
  3134 00:1031: xx xx        	dw	L10054-1
  3135 00:1033: xx xx        	dw	L10055-1
  3136 00:1035: xx xx        	dw	L10056-1
  3137 00:1037: xx xx        	dw	L10057-1
  3138 00:1039: xx xx        	dw	L10058-1
  3139 00:103B: xx xx        	dw	L10059-1
  3140 00:103D: xx xx        	dw	L10060-1
  3141 00:103F: xx xx        	dw	L10053-1
  Sun Jan  9 2022 21:05                                                Page 57


  3142 00:1041: xx xx        	dw	L10062-1
  3143 00:1043: xx xx        	dw	L10063-1
  3144 00:1045: xx xx        	dw	L10064-1
  3145 00:1047: xx xx        	dw	L10065-1
  3146 00:1049: xx xx        	dw	L10066-1
  3147 00:104B: xx xx        	dw	L10067-1
  3148 00:104D: xx xx        	dw	L10068-1
  3149 00:104F: xx xx        	dw	L10061-1
  3150 00:1051: xx xx        	dw	L10070-1
  3151 00:1053: xx xx        	dw	L10071-1
  3152 00:1055: xx xx        	dw	L10072-1
  3153 00:1057: xx xx        	dw	L10073-1
  3154 00:1059: xx xx        	dw	L10074-1
  3155 00:105B: xx xx        	dw	L10075-1
  3156 00:105D: xx xx        	dw	L10076-1
  3157 00:105F: xx xx        	dw	L10069-1
  3158 00:1061: xx xx        	dw	L10078-1
  3159 00:1063: xx xx        	dw	L10079-1
  3160 00:1065: xx xx        	dw	L10080-1
  3161 00:1067: xx xx        	dw	L10081-1
  3162 00:1069: xx xx        	dw	L10082-1
  3163 00:106B: xx xx        	dw	L10083-1
  3164 00:106D: xx xx        	dw	L10084-1
  3165 00:106F: xx xx        	dw	L10077-1
  3166 00:1071: xx xx        	dw	L10086-1
  3167 00:1073: xx xx        	dw	L10087-1
  3168 00:1075: xx xx        	dw	L10088-1
  3169 00:1077: xx xx        	dw	L10089-1
  3170 00:1079: xx xx        	dw	L10090-1
  3171 00:107B: xx xx        	dw	L10091-1
  3172 00:107D: xx xx        	dw	L10092-1
  3173 00:107F: xx xx        	dw	L10085-1
  3174 00:1081: xx xx        	dw	L10094-1
  3175 00:1083: xx xx        	dw	L10095-1
  3176 00:1085: xx xx        	dw	L10096-1
  3177 00:1087: xx xx        	dw	L10097-1
  3178 00:1089: xx xx        	dw	L10098-1
  3179 00:108B: xx xx        	dw	L10099-1
  3180 00:108D: xx xx        	dw	L10163-1
  3181 00:108F: xx xx        	dw	L10093-1
  3182 00:1091: xx xx        	dw	L10035-1
  3183 00:1093: xx xx        	dw	L10036-1
  3184 00:1095: xx xx        	dw	L10037-1
  3185 00:1097: xx xx        	dw	L10038-1
  3186 00:1099: xx xx        	dw	L10039-1
  3187 00:109B: xx xx        	dw	L10040-1
  3188 00:109D: xx xx        	dw	L10041-1
  3189 00:109F: xx xx        	dw	L10034-1
  3190 00:10A1: xx xx        	dw	L10121-1
  3191 00:10A3: xx xx        	dw	L10122-1
  3192 00:10A5: xx xx        	dw	L10123-1
  3193 00:10A7: xx xx        	dw	L10124-1
  3194 00:10A9: xx xx        	dw	L10125-1
  3195 00:10AB: xx xx        	dw	L10126-1
  3196 00:10AD: xx xx        	dw	L10127-1
  3197 00:10AF: xx xx        	dw	L10120-1
  3198 00:10B1: xx xx        	dw	L10130-1
  3199 00:10B3: xx xx        	dw	L10131-1
  Sun Jan  9 2022 21:05                                                Page 58


  3200 00:10B5: xx xx        	dw	L10132-1
  3201 00:10B7: xx xx        	dw	L10133-1
  3202 00:10B9: xx xx        	dw	L10134-1
  3203 00:10BB: xx xx        	dw	L10135-1
  3204 00:10BD: xx xx        	dw	L10136-1
  3205 00:10BF: xx xx        	dw	L10129-1
  3206 00:10C1: xx xx        	dw	L10139-1
  3207 00:10C3: xx xx        	dw	L10140-1
  3208 00:10C5: xx xx        	dw	L10141-1
  3209 00:10C7: xx xx        	dw	L10142-1
  3210 00:10C9: xx xx        	dw	L10143-1
  3211 00:10CB: xx xx        	dw	L10144-1
  3212 00:10CD: xx xx        	dw	L10145-1
  3213 00:10CF: xx xx        	dw	L10138-1
  3214 00:10D1: xx xx        	dw	L10148-1
  3215 00:10D3: xx xx        	dw	L10149-1
  3216 00:10D5: xx xx        	dw	L10150-1
  3217 00:10D7: xx xx        	dw	L10151-1
  3218 00:10D9: xx xx        	dw	L10152-1
  3219 00:10DB: xx xx        	dw	L10153-1
  3220 00:10DD: xx xx        	dw	L10154-1
  3221 00:10DF: xx xx        	dw	L10147-1
  3222 00:10E1: xx xx        	dw	L10197-1
  3223 00:10E3: xx xx        	dw	L10198-1
  3224 00:10E5: xx xx        	dw	L10199-1
  3225 00:10E7: xx xx        	dw	L10200-1
  3226 00:10E9: xx xx        	dw	L10201-1
  3227 00:10EB: xx xx        	dw	L10202-1
  3228 00:10ED: xx xx        	dw	L10203-1
  3229 00:10EF: xx xx        	dw	L10196-1
  3230 00:10F1: xx xx        	dw	L10206-1
  3231 00:10F3: xx xx        	dw	L10207-1
  3232 00:10F5: xx xx        	dw	L10208-1
  3233 00:10F7: xx xx        	dw	L10209-1
  3234 00:10F9: xx xx        	dw	L10210-1
  3235 00:10FB: xx xx        	dw	L10211-1
  3236 00:10FD: xx xx        	dw	L10212-1
  3237 00:10FF: xx xx        	dw	L10205-1
  3238 00:1101: xx xx        	dw	L10215-1
  3239 00:1103: xx xx        	dw	L10216-1
  3240 00:1105: xx xx        	dw	L10217-1
  3241 00:1107: xx xx        	dw	L10218-1
  3242 00:1109: xx xx        	dw	L10219-1
  3243 00:110B: xx xx        	dw	L10220-1
  3244 00:110D: xx xx        	dw	L10221-1
  3245 00:110F: xx xx        	dw	L10214-1
  3246 00:1111: xx xx        	dw	L10224-1
  3247 00:1113: xx xx        	dw	L10225-1
  3248 00:1115: xx xx        	dw	L10226-1
  3249 00:1117: xx xx        	dw	L10227-1
  3250 00:1119: xx xx        	dw	L10228-1
  3251 00:111B: xx xx        	dw	L10229-1
  3252 00:111D: xx xx        	dw	L10230-1
  3253 00:111F: xx xx        	dw	L10223-1
  3254 00:1121: xx xx        	dw	L10252-1
  3255 00:1123: xx xx        	dw	L10272-1
  3256 00:1125: xx xx        	dw	L10233-1
  3257 00:1127: xx xx        	dw	L10232-1
  Sun Jan  9 2022 21:05                                                Page 59


  3258 00:1129: xx xx        	dw	L10243-1
  3259 00:112B: xx xx        	dw	L10268-1
  3260 00:112D: xx xx        	dw	L10128-1
  3261 00:112F: xx xx        	dw	L10260-1
  3262 00:1131: xx xx        	dw	L10253-1
  3263 00:1133: xx xx        	dw	L10251-1
  3264 00:1135: xx xx        	dw	L10234-1
  3265 00:1137: xx xx        	dw	L10232-1
  3266 00:1139: xx xx        	dw	L10244-1
  3267 00:113B: xx xx        	dw	L10242-1
  3268 00:113D: xx xx        	dw	L10137-1
  3269 00:113F: xx xx        	dw	L10261-1
  3270 00:1141: xx xx        	dw	L10254-1
  3271 00:1143: xx xx        	dw	L10273-1
  3272 00:1145: xx xx        	dw	L10235-1
  3273 00:1147: xx xx        	dw	L10277-1
  3274 00:1149: xx xx        	dw	L10245-1
  3275 00:114B: xx xx        	dw	L10269-1
  3276 00:114D: xx xx        	dw	L10146-1
  3277 00:114F: xx xx        	dw	L10262-1
  3278 00:1151: xx xx        	dw	L10255-1
  3279 00:1153: xx xx        	dw	L10251-1
  3280 00:1155: xx xx        	dw	L10236-1
  3281 00:1157: xx xx        	dw	L10276-1
  3282 00:1159: xx xx        	dw	L10246-1
  3283 00:115B: xx xx        	dw	L10242-1
  3284 00:115D: xx xx        	dw	L10155-1
  3285 00:115F: xx xx        	dw	L10263-1
  3286 00:1161: xx xx        	dw	L10256-1
  3287 00:1163: xx xx        	dw	L10274-1
  3288 00:1165: xx xx        	dw	L10237-1
  3289 00:1167: xx xx        	dw	L10119-1
  3290 00:1169: xx xx        	dw	L10247-1
  3291 00:116B: xx xx        	dw	L10270-1
  3292 00:116D: xx xx        	dw	L10204-1
  3293 00:116F: xx xx        	dw	L10264-1
  3294 00:1171: xx xx        	dw	L10257-1
  3295 00:1173: xx xx        	dw	L10241-1
  3296 00:1175: xx xx        	dw	L10238-1
  3297 00:1177: xx xx        	dw	L10118-1
  3298 00:1179: xx xx        	dw	L10248-1
  3299 00:117B: xx xx        	dw	L10242-1
  3300 00:117D: xx xx        	dw	L10213-1
  3301 00:117F: xx xx        	dw	L10265-1
  3302 00:1181: xx xx        	dw	L10258-1
  3303 00:1183: xx xx        	dw	L10275-1
  3304 00:1185: xx xx        	dw	L10239-1
  3305 00:1187: xx xx        	dw	L10160-1
  3306 00:1189: xx xx        	dw	L10249-1
  3307 00:118B: xx xx        	dw	L10271-1
  3308 00:118D: xx xx        	dw	L10222-1
  3309 00:118F: xx xx        	dw	L10266-1
  3310 00:1191: xx xx        	dw	L10259-1
  3311 00:1193: xx xx        	dw	L10117-1
  3312 00:1195: xx xx        	dw	L10240-1
  3313 00:1197: xx xx        	dw	L10161-1
  3314 00:1199: xx xx        	dw	L10250-1
  3315 00:119B: xx xx        	dw	L10242-1
  Sun Jan  9 2022 21:05                                                Page 60


  3316 00:119D: xx xx        	dw	L10231-1
  3317 00:119F: xx xx        	dw	L10267-1
  3318                        ;  case 0x7F: c->a = c->a; break; // MOV A,A
  3319                        L10034:
  3320 00:11A1: E2 20        	sep	#$20
  3321                        	longa	off
  3322 00:11A3: A0 1C 00     	ldy	#$1c
  3323 00:11A6: B7 10        	lda	[<L162+c_0],Y
  3324 00:11A8: 97 10        	sta	[<L162+c_0],Y
  3325 00:11AA: C2 20        	rep	#$20
  3326                        	longa	on
  3327                        L215:
  3328 00:11AC: A5 0E        	lda	<L162+2
  3329 00:11AE: 85 14        	sta	<L162+2+6
  3330 00:11B0: A5 0D        	lda	<L162+1
  3331 00:11B2: 85 13        	sta	<L162+1+6
  3332 00:11B4: 2B           	pld
  3333 00:11B5: 3B           	tsc
  3334 00:11B6: 18           	clc
  3335 00:11B7: 69 12 00     	adc	#L162+6
  3336 00:11BA: 1B           	tcs
  3337 00:11BB: 6B           	rtl
  3338                        ;  case 0x78: c->a = c->b; break; // MOV A,B
  3339                        L10035:
  3340 00:11BC: E2 20        	sep	#$20
  3341                        	longa	off
  3342 00:11BE: A0 1D 00     	ldy	#$1d
  3343 00:11C1: B7 10        	lda	[<L162+c_0],Y
  3344 00:11C3: 88           	dey
  3345 00:11C4: 97 10        	sta	[<L162+c_0],Y
  3346 00:11C6: C2 20        	rep	#$20
  3347                        	longa	on
  3348 00:11C8: 80 E2        	bra	L215
  3349                        ;  case 0x79: c->a = c->c; break; // MOV A,C
  3350                        L10036:
  3351 00:11CA: E2 20        	sep	#$20
  3352                        	longa	off
  3353 00:11CC: A0 1E 00     	ldy	#$1e
  3354 00:11CF: B7 10        	lda	[<L162+c_0],Y
  3355 00:11D1: 88           	dey
  3356 00:11D2: 88           	dey
  3357 00:11D3: 97 10        	sta	[<L162+c_0],Y
  3358 00:11D5: C2 20        	rep	#$20
  3359                        	longa	on
  3360 00:11D7: 80 D3        	bra	L215
  3361                        ;  case 0x7A: c->a = c->d; break; // MOV A,D
  3362                        L10037:
  3363 00:11D9: E2 20        	sep	#$20
  3364                        	longa	off
  3365 00:11DB: A0 1F 00     	ldy	#$1f
  3366 00:11DE: B7 10        	lda	[<L162+c_0],Y
  3367 00:11E0: A0 1C 00     	ldy	#$1c
  3368 00:11E3: 97 10        	sta	[<L162+c_0],Y
  3369 00:11E5: C2 20        	rep	#$20
  3370                        	longa	on
  3371 00:11E7: 80 C3        	bra	L215
  3372                        ;  case 0x7B: c->a = c->e; break; // MOV A,E
  3373                        L10038:
  Sun Jan  9 2022 21:05                                                Page 61


  3374 00:11E9: E2 20        	sep	#$20
  3375                        	longa	off
  3376 00:11EB: A0 20 00     	ldy	#$20
  3377 00:11EE: B7 10        	lda	[<L162+c_0],Y
  3378 00:11F0: A0 1C 00     	ldy	#$1c
  3379 00:11F3: 97 10        	sta	[<L162+c_0],Y
  3380 00:11F5: C2 20        	rep	#$20
  3381                        	longa	on
  3382 00:11F7: 80 B3        	bra	L215
  3383                        ;  case 0x7C: c->a = c->h; break; // MOV A,H
  3384                        L10039:
  3385 00:11F9: E2 20        	sep	#$20
  3386                        	longa	off
  3387 00:11FB: A0 21 00     	ldy	#$21
  3388 00:11FE: B7 10        	lda	[<L162+c_0],Y
  3389 00:1200: A0 1C 00     	ldy	#$1c
  3390 00:1203: 97 10        	sta	[<L162+c_0],Y
  3391 00:1205: C2 20        	rep	#$20
  3392                        	longa	on
  3393 00:1207: 80 A3        	bra	L215
  3394                        ;  case 0x7D: c->a = c->l; break; // MOV A,L
  3395                        L10040:
  3396 00:1209: E2 20        	sep	#$20
  3397                        	longa	off
  3398 00:120B: A0 22 00     	ldy	#$22
  3399 00:120E: B7 10        	lda	[<L162+c_0],Y
  3400 00:1210: A0 1C 00     	ldy	#$1c
  3401 00:1213: 97 10        	sta	[<L162+c_0],Y
  3402 00:1215: C2 20        	rep	#$20
  3403                        	longa	on
  3404 00:1217: 80 93        	bra	L215
  3405                        ;  case 0x7E: c->a = i8080_rb(c, i8080_get_hl(c));
                     break; // MOV A,M
  3406                        L10041:
  3407 00:1219: D4 12        	pei	<L162+c_0+2
  3408 00:121B: D4 10        	pei	<L162+c_0
  3409 00:121D: 22 xx xx xx  	jsl	~~i8080_get_hl
  3410 00:1221: 48           	pha
  3411 00:1222: D4 12        	pei	<L162+c_0+2
  3412 00:1224: D4 10        	pei	<L162+c_0
  3413 00:1226: 22 xx xx xx  	jsl	~~i8080_rb
  3414 00:122A: E2 20        	sep	#$20
  3415                        	longa	off
  3416 00:122C: A0 1C 00     	ldy	#$1c
  3417 00:122F: 97 10        	sta	[<L162+c_0],Y
  3418 00:1231: C2 20        	rep	#$20
  3419                        	longa	on
  3420 00:1233: 82 76 FF     	brl	L215
  3421                        ;
  3422                        ;  case 0x0A: c->a = i8080_rb(c, i8080_get_bc(c));
                     break; // LDAX B
  3423                        L10042:
  3424 00:1236: D4 12        	pei	<L162+c_0+2
  3425 00:1238: D4 10        	pei	<L162+c_0
  3426 00:123A: 22 xx xx xx  	jsl	~~i8080_get_bc
  3427 00:123E: 48           	pha
  3428 00:123F: D4 12        	pei	<L162+c_0+2
  3429 00:1241: D4 10        	pei	<L162+c_0
  Sun Jan  9 2022 21:05                                                Page 62


  3430 00:1243: 22 xx xx xx  	jsl	~~i8080_rb
  3431 00:1247: E2 20        	sep	#$20
  3432                        	longa	off
  3433 00:1249: A0 1C 00     	ldy	#$1c
  3434 00:124C: 97 10        	sta	[<L162+c_0],Y
  3435 00:124E: C2 20        	rep	#$20
  3436                        	longa	on
  3437 00:1250: 82 59 FF     	brl	L215
  3438                        ;  case 0x1A: c->a = i8080_rb(c, i8080_get_de(c));
                     break; // LDAX D
  3439                        L10043:
  3440 00:1253: D4 12        	pei	<L162+c_0+2
  3441 00:1255: D4 10        	pei	<L162+c_0
  3442 00:1257: 22 xx xx xx  	jsl	~~i8080_get_de
  3443 00:125B: 48           	pha
  3444 00:125C: D4 12        	pei	<L162+c_0+2
  3445 00:125E: D4 10        	pei	<L162+c_0
  3446 00:1260: 22 xx xx xx  	jsl	~~i8080_rb
  3447 00:1264: E2 20        	sep	#$20
  3448                        	longa	off
  3449 00:1266: A0 1C 00     	ldy	#$1c
  3450 00:1269: 97 10        	sta	[<L162+c_0],Y
  3451 00:126B: C2 20        	rep	#$20
  3452                        	longa	on
  3453 00:126D: 82 3C FF     	brl	L215
  3454                        ;  case 0x3A: c->a = i8080_rb(c, i8080_next_word(c
                    )); break; // LDA word
  3455                        L10044:
  3456 00:1270: D4 12        	pei	<L162+c_0+2
  3457 00:1272: D4 10        	pei	<L162+c_0
  3458 00:1274: 22 xx xx xx  	jsl	~~i8080_next_word
  3459 00:1278: 48           	pha
  3460 00:1279: D4 12        	pei	<L162+c_0+2
  3461 00:127B: D4 10        	pei	<L162+c_0
  3462 00:127D: 22 xx xx xx  	jsl	~~i8080_rb
  3463 00:1281: E2 20        	sep	#$20
  3464                        	longa	off
  3465 00:1283: A0 1C 00     	ldy	#$1c
  3466 00:1286: 97 10        	sta	[<L162+c_0],Y
  3467 00:1288: C2 20        	rep	#$20
  3468                        	longa	on
  3469 00:128A: 82 1F FF     	brl	L215
  3470                        ;
  3471                        ;  case 0x47: c->b = c->a; break; // MOV B,A
  3472                        L10045:
  3473 00:128D: E2 20        	sep	#$20
  3474                        	longa	off
  3475 00:128F: A0 1C 00     	ldy	#$1c
  3476 00:1292: B7 10        	lda	[<L162+c_0],Y
  3477 00:1294: C8           	iny
  3478 00:1295: 97 10        	sta	[<L162+c_0],Y
  3479 00:1297: C2 20        	rep	#$20
  3480                        	longa	on
  3481 00:1299: 82 10 FF     	brl	L215
  3482                        ;  case 0x40: c->b = c->b; break; // MOV B,B
  3483                        L10046:
  3484 00:129C: E2 20        	sep	#$20
  3485                        	longa	off
  Sun Jan  9 2022 21:05                                                Page 63


  3486 00:129E: A0 1D 00     	ldy	#$1d
  3487 00:12A1: B7 10        	lda	[<L162+c_0],Y
  3488 00:12A3: 97 10        	sta	[<L162+c_0],Y
  3489 00:12A5: C2 20        	rep	#$20
  3490                        	longa	on
  3491 00:12A7: 82 02 FF     	brl	L215
  3492                        ;  case 0x41: c->b = c->c; break; // MOV B,C
  3493                        L10047:
  3494 00:12AA: E2 20        	sep	#$20
  3495                        	longa	off
  3496 00:12AC: A0 1E 00     	ldy	#$1e
  3497 00:12AF: B7 10        	lda	[<L162+c_0],Y
  3498 00:12B1: 88           	dey
  3499 00:12B2: 97 10        	sta	[<L162+c_0],Y
  3500 00:12B4: C2 20        	rep	#$20
  3501                        	longa	on
  3502 00:12B6: 82 F3 FE     	brl	L215
  3503                        ;  case 0x42: c->b = c->d; break; // MOV B,D
  3504                        L10048:
  3505 00:12B9: E2 20        	sep	#$20
  3506                        	longa	off
  3507 00:12BB: A0 1F 00     	ldy	#$1f
  3508 00:12BE: B7 10        	lda	[<L162+c_0],Y
  3509 00:12C0: 88           	dey
  3510 00:12C1: 88           	dey
  3511 00:12C2: 97 10        	sta	[<L162+c_0],Y
  3512 00:12C4: C2 20        	rep	#$20
  3513                        	longa	on
  3514 00:12C6: 82 E3 FE     	brl	L215
  3515                        ;  case 0x43: c->b = c->e; break; // MOV B,E
  3516                        L10049:
  3517 00:12C9: E2 20        	sep	#$20
  3518                        	longa	off
  3519 00:12CB: A0 20 00     	ldy	#$20
  3520 00:12CE: B7 10        	lda	[<L162+c_0],Y
  3521 00:12D0: A0 1D 00     	ldy	#$1d
  3522 00:12D3: 97 10        	sta	[<L162+c_0],Y
  3523 00:12D5: C2 20        	rep	#$20
  3524                        	longa	on
  3525 00:12D7: 82 D2 FE     	brl	L215
  3526                        ;  case 0x44: c->b = c->h; break; // MOV B,H
  3527                        L10050:
  3528 00:12DA: E2 20        	sep	#$20
  3529                        	longa	off
  3530 00:12DC: A0 21 00     	ldy	#$21
  3531 00:12DF: B7 10        	lda	[<L162+c_0],Y
  3532 00:12E1: A0 1D 00     	ldy	#$1d
  3533 00:12E4: 97 10        	sta	[<L162+c_0],Y
  3534 00:12E6: C2 20        	rep	#$20
  3535                        	longa	on
  3536 00:12E8: 82 C1 FE     	brl	L215
  3537                        ;  case 0x45: c->b = c->l; break; // MOV B,L
  3538                        L10051:
  3539 00:12EB: E2 20        	sep	#$20
  3540                        	longa	off
  3541 00:12ED: A0 22 00     	ldy	#$22
  3542 00:12F0: B7 10        	lda	[<L162+c_0],Y
  3543 00:12F2: A0 1D 00     	ldy	#$1d
  Sun Jan  9 2022 21:05                                                Page 64


  3544 00:12F5: 97 10        	sta	[<L162+c_0],Y
  3545 00:12F7: C2 20        	rep	#$20
  3546                        	longa	on
  3547 00:12F9: 82 B0 FE     	brl	L215
  3548                        ;  case 0x46: c->b = i8080_rb(c, i8080_get_hl(c));
                     break; // MOV B,M
  3549                        L10052:
  3550 00:12FC: D4 12        	pei	<L162+c_0+2
  3551 00:12FE: D4 10        	pei	<L162+c_0
  3552 00:1300: 22 xx xx xx  	jsl	~~i8080_get_hl
  3553 00:1304: 48           	pha
  3554 00:1305: D4 12        	pei	<L162+c_0+2
  3555 00:1307: D4 10        	pei	<L162+c_0
  3556 00:1309: 22 xx xx xx  	jsl	~~i8080_rb
  3557 00:130D: E2 20        	sep	#$20
  3558                        	longa	off
  3559 00:130F: A0 1D 00     	ldy	#$1d
  3560 00:1312: 97 10        	sta	[<L162+c_0],Y
  3561 00:1314: C2 20        	rep	#$20
  3562                        	longa	on
  3563 00:1316: 82 93 FE     	brl	L215
  3564                        ;
  3565                        ;  case 0x4F: c->c = c->a; break; // MOV C,A
  3566                        L10053:
  3567 00:1319: E2 20        	sep	#$20
  3568                        	longa	off
  3569 00:131B: A0 1C 00     	ldy	#$1c
  3570 00:131E: B7 10        	lda	[<L162+c_0],Y
  3571 00:1320: C8           	iny
  3572 00:1321: C8           	iny
  3573 00:1322: 97 10        	sta	[<L162+c_0],Y
  3574 00:1324: C2 20        	rep	#$20
  3575                        	longa	on
  3576 00:1326: 82 83 FE     	brl	L215
  3577                        ;  case 0x48: c->c = c->b; break; // MOV C,B
  3578                        L10054:
  3579 00:1329: E2 20        	sep	#$20
  3580                        	longa	off
  3581 00:132B: A0 1D 00     	ldy	#$1d
  3582 00:132E: B7 10        	lda	[<L162+c_0],Y
  3583 00:1330: C8           	iny
  3584 00:1331: 97 10        	sta	[<L162+c_0],Y
  3585 00:1333: C2 20        	rep	#$20
  3586                        	longa	on
  3587 00:1335: 82 74 FE     	brl	L215
  3588                        ;  case 0x49: c->c = c->c; break; // MOV C,C
  3589                        L10055:
  3590 00:1338: E2 20        	sep	#$20
  3591                        	longa	off
  3592 00:133A: A0 1E 00     	ldy	#$1e
  3593 00:133D: B7 10        	lda	[<L162+c_0],Y
  3594 00:133F: 97 10        	sta	[<L162+c_0],Y
  3595 00:1341: C2 20        	rep	#$20
  3596                        	longa	on
  3597 00:1343: 82 66 FE     	brl	L215
  3598                        ;  case 0x4A: c->c = c->d; break; // MOV C,D
  3599                        L10056:
  3600 00:1346: E2 20        	sep	#$20
  Sun Jan  9 2022 21:05                                                Page 65


  3601                        	longa	off
  3602 00:1348: A0 1F 00     	ldy	#$1f
  3603 00:134B: B7 10        	lda	[<L162+c_0],Y
  3604 00:134D: 88           	dey
  3605 00:134E: 97 10        	sta	[<L162+c_0],Y
  3606 00:1350: C2 20        	rep	#$20
  3607                        	longa	on
  3608 00:1352: 82 57 FE     	brl	L215
  3609                        ;  case 0x4B: c->c = c->e; break; // MOV C,E
  3610                        L10057:
  3611 00:1355: E2 20        	sep	#$20
  3612                        	longa	off
  3613 00:1357: A0 20 00     	ldy	#$20
  3614 00:135A: B7 10        	lda	[<L162+c_0],Y
  3615 00:135C: 88           	dey
  3616 00:135D: 88           	dey
  3617 00:135E: 97 10        	sta	[<L162+c_0],Y
  3618 00:1360: C2 20        	rep	#$20
  3619                        	longa	on
  3620 00:1362: 82 47 FE     	brl	L215
  3621                        ;  case 0x4C: c->c = c->h; break; // MOV C,H
  3622                        L10058:
  3623 00:1365: E2 20        	sep	#$20
  3624                        	longa	off
  3625 00:1367: A0 21 00     	ldy	#$21
  3626 00:136A: B7 10        	lda	[<L162+c_0],Y
  3627 00:136C: A0 1E 00     	ldy	#$1e
  3628 00:136F: 97 10        	sta	[<L162+c_0],Y
  3629 00:1371: C2 20        	rep	#$20
  3630                        	longa	on
  3631 00:1373: 82 36 FE     	brl	L215
  3632                        ;  case 0x4D: c->c = c->l; break; // MOV C,L
  3633                        L10059:
  3634 00:1376: E2 20        	sep	#$20
  3635                        	longa	off
  3636 00:1378: A0 22 00     	ldy	#$22
  3637 00:137B: B7 10        	lda	[<L162+c_0],Y
  3638 00:137D: A0 1E 00     	ldy	#$1e
  3639 00:1380: 97 10        	sta	[<L162+c_0],Y
  3640 00:1382: C2 20        	rep	#$20
  3641                        	longa	on
  3642 00:1384: 82 25 FE     	brl	L215
  3643                        ;  case 0x4E: c->c = i8080_rb(c, i8080_get_hl(c));
                     break; // MOV C,M
  3644                        L10060:
  3645 00:1387: D4 12        	pei	<L162+c_0+2
  3646 00:1389: D4 10        	pei	<L162+c_0
  3647 00:138B: 22 xx xx xx  	jsl	~~i8080_get_hl
  3648 00:138F: 48           	pha
  3649 00:1390: D4 12        	pei	<L162+c_0+2
  3650 00:1392: D4 10        	pei	<L162+c_0
  3651 00:1394: 22 xx xx xx  	jsl	~~i8080_rb
  3652 00:1398: E2 20        	sep	#$20
  3653                        	longa	off
  3654 00:139A: A0 1E 00     	ldy	#$1e
  3655 00:139D: 97 10        	sta	[<L162+c_0],Y
  3656 00:139F: C2 20        	rep	#$20
  3657                        	longa	on
  Sun Jan  9 2022 21:05                                                Page 66


  3658 00:13A1: 82 08 FE     	brl	L215
  3659                        ;
  3660                        ;  case 0x57: c->d = c->a; break; // MOV D,A
  3661                        L10061:
  3662 00:13A4: E2 20        	sep	#$20
  3663                        	longa	off
  3664 00:13A6: A0 1C 00     	ldy	#$1c
  3665 00:13A9: B7 10        	lda	[<L162+c_0],Y
  3666 00:13AB: A0 1F 00     	ldy	#$1f
  3667 00:13AE: 97 10        	sta	[<L162+c_0],Y
  3668 00:13B0: C2 20        	rep	#$20
  3669                        	longa	on
  3670 00:13B2: 82 F7 FD     	brl	L215
  3671                        ;  case 0x50: c->d = c->b; break; // MOV D,B
  3672                        L10062:
  3673 00:13B5: E2 20        	sep	#$20
  3674                        	longa	off
  3675 00:13B7: A0 1D 00     	ldy	#$1d
  3676 00:13BA: B7 10        	lda	[<L162+c_0],Y
  3677 00:13BC: C8           	iny
  3678 00:13BD: C8           	iny
  3679 00:13BE: 97 10        	sta	[<L162+c_0],Y
  3680 00:13C0: C2 20        	rep	#$20
  3681                        	longa	on
  3682 00:13C2: 82 E7 FD     	brl	L215
  3683                        ;  case 0x51: c->d = c->c; break; // MOV D,C
  3684                        L10063:
  3685 00:13C5: E2 20        	sep	#$20
  3686                        	longa	off
  3687 00:13C7: A0 1E 00     	ldy	#$1e
  3688 00:13CA: B7 10        	lda	[<L162+c_0],Y
  3689 00:13CC: C8           	iny
  3690 00:13CD: 97 10        	sta	[<L162+c_0],Y
  3691 00:13CF: C2 20        	rep	#$20
  3692                        	longa	on
  3693 00:13D1: 82 D8 FD     	brl	L215
  3694                        ;  case 0x52: c->d = c->d; break; // MOV D,D
  3695                        L10064:
  3696 00:13D4: E2 20        	sep	#$20
  3697                        	longa	off
  3698 00:13D6: A0 1F 00     	ldy	#$1f
  3699 00:13D9: B7 10        	lda	[<L162+c_0],Y
  3700 00:13DB: 97 10        	sta	[<L162+c_0],Y
  3701 00:13DD: C2 20        	rep	#$20
  3702                        	longa	on
  3703 00:13DF: 82 CA FD     	brl	L215
  3704                        ;  case 0x53: c->d = c->e; break; // MOV D,E
  3705                        L10065:
  3706 00:13E2: E2 20        	sep	#$20
  3707                        	longa	off
  3708 00:13E4: A0 20 00     	ldy	#$20
  3709 00:13E7: B7 10        	lda	[<L162+c_0],Y
  3710 00:13E9: 88           	dey
  3711 00:13EA: 97 10        	sta	[<L162+c_0],Y
  3712 00:13EC: C2 20        	rep	#$20
  3713                        	longa	on
  3714 00:13EE: 82 BB FD     	brl	L215
  3715                        ;  case 0x54: c->d = c->h; break; // MOV D,H
  Sun Jan  9 2022 21:05                                                Page 67


  3716                        L10066:
  3717 00:13F1: E2 20        	sep	#$20
  3718                        	longa	off
  3719 00:13F3: A0 21 00     	ldy	#$21
  3720 00:13F6: B7 10        	lda	[<L162+c_0],Y
  3721 00:13F8: 88           	dey
  3722 00:13F9: 88           	dey
  3723 00:13FA: 97 10        	sta	[<L162+c_0],Y
  3724 00:13FC: C2 20        	rep	#$20
  3725                        	longa	on
  3726 00:13FE: 82 AB FD     	brl	L215
  3727                        ;  case 0x55: c->d = c->l; break; // MOV D,L
  3728                        L10067:
  3729 00:1401: E2 20        	sep	#$20
  3730                        	longa	off
  3731 00:1403: A0 22 00     	ldy	#$22
  3732 00:1406: B7 10        	lda	[<L162+c_0],Y
  3733 00:1408: A0 1F 00     	ldy	#$1f
  3734 00:140B: 97 10        	sta	[<L162+c_0],Y
  3735 00:140D: C2 20        	rep	#$20
  3736                        	longa	on
  3737 00:140F: 82 9A FD     	brl	L215
  3738                        ;  case 0x56: c->d = i8080_rb(c, i8080_get_hl(c));
                     break; // MOV D,M
  3739                        L10068:
  3740 00:1412: D4 12        	pei	<L162+c_0+2
  3741 00:1414: D4 10        	pei	<L162+c_0
  3742 00:1416: 22 xx xx xx  	jsl	~~i8080_get_hl
  3743 00:141A: 48           	pha
  3744 00:141B: D4 12        	pei	<L162+c_0+2
  3745 00:141D: D4 10        	pei	<L162+c_0
  3746 00:141F: 22 xx xx xx  	jsl	~~i8080_rb
  3747 00:1423: E2 20        	sep	#$20
  3748                        	longa	off
  3749 00:1425: A0 1F 00     	ldy	#$1f
  3750 00:1428: 97 10        	sta	[<L162+c_0],Y
  3751 00:142A: C2 20        	rep	#$20
  3752                        	longa	on
  3753 00:142C: 82 7D FD     	brl	L215
  3754                        ;
  3755                        ;  case 0x5F: c->e = c->a; break; // MOV E,A
  3756                        L10069:
  3757 00:142F: E2 20        	sep	#$20
  3758                        	longa	off
  3759 00:1431: A0 1C 00     	ldy	#$1c
  3760 00:1434: B7 10        	lda	[<L162+c_0],Y
  3761 00:1436: A0 20 00     	ldy	#$20
  3762 00:1439: 97 10        	sta	[<L162+c_0],Y
  3763 00:143B: C2 20        	rep	#$20
  3764                        	longa	on
  3765 00:143D: 82 6C FD     	brl	L215
  3766                        ;  case 0x58: c->e = c->b; break; // MOV E,B
  3767                        L10070:
  3768 00:1440: E2 20        	sep	#$20
  3769                        	longa	off
  3770 00:1442: A0 1D 00     	ldy	#$1d
  3771 00:1445: B7 10        	lda	[<L162+c_0],Y
  3772 00:1447: A0 20 00     	ldy	#$20
  Sun Jan  9 2022 21:05                                                Page 68


  3773 00:144A: 97 10        	sta	[<L162+c_0],Y
  3774 00:144C: C2 20        	rep	#$20
  3775                        	longa	on
  3776 00:144E: 82 5B FD     	brl	L215
  3777                        ;  case 0x59: c->e = c->c; break; // MOV E,C
  3778                        L10071:
  3779 00:1451: E2 20        	sep	#$20
  3780                        	longa	off
  3781 00:1453: A0 1E 00     	ldy	#$1e
  3782 00:1456: B7 10        	lda	[<L162+c_0],Y
  3783 00:1458: C8           	iny
  3784 00:1459: C8           	iny
  3785 00:145A: 97 10        	sta	[<L162+c_0],Y
  3786 00:145C: C2 20        	rep	#$20
  3787                        	longa	on
  3788 00:145E: 82 4B FD     	brl	L215
  3789                        ;  case 0x5A: c->e = c->d; break; // MOV E,D
  3790                        L10072:
  3791 00:1461: E2 20        	sep	#$20
  3792                        	longa	off
  3793 00:1463: A0 1F 00     	ldy	#$1f
  3794 00:1466: B7 10        	lda	[<L162+c_0],Y
  3795 00:1468: C8           	iny
  3796 00:1469: 97 10        	sta	[<L162+c_0],Y
  3797 00:146B: C2 20        	rep	#$20
  3798                        	longa	on
  3799 00:146D: 82 3C FD     	brl	L215
  3800                        ;  case 0x5B: c->e = c->e; break; // MOV E,E
  3801                        L10073:
  3802 00:1470: E2 20        	sep	#$20
  3803                        	longa	off
  3804 00:1472: A0 20 00     	ldy	#$20
  3805 00:1475: B7 10        	lda	[<L162+c_0],Y
  3806 00:1477: 97 10        	sta	[<L162+c_0],Y
  3807 00:1479: C2 20        	rep	#$20
  3808                        	longa	on
  3809 00:147B: 82 2E FD     	brl	L215
  3810                        ;  case 0x5C: c->e = c->h; break; // MOV E,H
  3811                        L10074:
  3812 00:147E: E2 20        	sep	#$20
  3813                        	longa	off
  3814 00:1480: A0 21 00     	ldy	#$21
  3815 00:1483: B7 10        	lda	[<L162+c_0],Y
  3816 00:1485: 88           	dey
  3817 00:1486: 97 10        	sta	[<L162+c_0],Y
  3818 00:1488: C2 20        	rep	#$20
  3819                        	longa	on
  3820 00:148A: 82 1F FD     	brl	L215
  3821                        ;  case 0x5D: c->e = c->l; break; // MOV E,L
  3822                        L10075:
  3823 00:148D: E2 20        	sep	#$20
  3824                        	longa	off
  3825 00:148F: A0 22 00     	ldy	#$22
  3826 00:1492: B7 10        	lda	[<L162+c_0],Y
  3827 00:1494: 88           	dey
  3828 00:1495: 88           	dey
  3829 00:1496: 97 10        	sta	[<L162+c_0],Y
  3830 00:1498: C2 20        	rep	#$20
  Sun Jan  9 2022 21:05                                                Page 69


  3831                        	longa	on
  3832 00:149A: 82 0F FD     	brl	L215
  3833                        ;  case 0x5E: c->e = i8080_rb(c, i8080_get_hl(c));
                     break; // MOV E,M
  3834                        L10076:
  3835 00:149D: D4 12        	pei	<L162+c_0+2
  3836 00:149F: D4 10        	pei	<L162+c_0
  3837 00:14A1: 22 xx xx xx  	jsl	~~i8080_get_hl
  3838 00:14A5: 48           	pha
  3839 00:14A6: D4 12        	pei	<L162+c_0+2
  3840 00:14A8: D4 10        	pei	<L162+c_0
  3841 00:14AA: 22 xx xx xx  	jsl	~~i8080_rb
  3842 00:14AE: E2 20        	sep	#$20
  3843                        	longa	off
  3844 00:14B0: A0 20 00     	ldy	#$20
  3845 00:14B3: 97 10        	sta	[<L162+c_0],Y
  3846 00:14B5: C2 20        	rep	#$20
  3847                        	longa	on
  3848 00:14B7: 82 F2 FC     	brl	L215
  3849                        ;
  3850                        ;  case 0x67: c->h = c->a; break; // MOV H,A
  3851                        L10077:
  3852 00:14BA: E2 20        	sep	#$20
  3853                        	longa	off
  3854 00:14BC: A0 1C 00     	ldy	#$1c
  3855 00:14BF: B7 10        	lda	[<L162+c_0],Y
  3856 00:14C1: A0 21 00     	ldy	#$21
  3857 00:14C4: 97 10        	sta	[<L162+c_0],Y
  3858 00:14C6: C2 20        	rep	#$20
  3859                        	longa	on
  3860 00:14C8: 82 E1 FC     	brl	L215
  3861                        ;  case 0x60: c->h = c->b; break; // MOV H,B
  3862                        L10078:
  3863 00:14CB: E2 20        	sep	#$20
  3864                        	longa	off
  3865 00:14CD: A0 1D 00     	ldy	#$1d
  3866 00:14D0: B7 10        	lda	[<L162+c_0],Y
  3867 00:14D2: A0 21 00     	ldy	#$21
  3868 00:14D5: 97 10        	sta	[<L162+c_0],Y
  3869 00:14D7: C2 20        	rep	#$20
  3870                        	longa	on
  3871 00:14D9: 82 D0 FC     	brl	L215
  3872                        ;  case 0x61: c->h = c->c; break; // MOV H,C
  3873                        L10079:
  3874 00:14DC: E2 20        	sep	#$20
  3875                        	longa	off
  3876 00:14DE: A0 1E 00     	ldy	#$1e
  3877 00:14E1: B7 10        	lda	[<L162+c_0],Y
  3878 00:14E3: A0 21 00     	ldy	#$21
  3879 00:14E6: 97 10        	sta	[<L162+c_0],Y
  3880 00:14E8: C2 20        	rep	#$20
  3881                        	longa	on
  3882 00:14EA: 82 BF FC     	brl	L215
  3883                        ;  case 0x62: c->h = c->d; break; // MOV H,D
  3884                        L10080:
  3885 00:14ED: E2 20        	sep	#$20
  3886                        	longa	off
  3887 00:14EF: A0 1F 00     	ldy	#$1f
  Sun Jan  9 2022 21:05                                                Page 70


  3888 00:14F2: B7 10        	lda	[<L162+c_0],Y
  3889 00:14F4: C8           	iny
  3890 00:14F5: C8           	iny
  3891 00:14F6: 97 10        	sta	[<L162+c_0],Y
  3892 00:14F8: C2 20        	rep	#$20
  3893                        	longa	on
  3894 00:14FA: 82 AF FC     	brl	L215
  3895                        ;  case 0x63: c->h = c->e; break; // MOV H,E
  3896                        L10081:
  3897 00:14FD: E2 20        	sep	#$20
  3898                        	longa	off
  3899 00:14FF: A0 20 00     	ldy	#$20
  3900 00:1502: B7 10        	lda	[<L162+c_0],Y
  3901 00:1504: C8           	iny
  3902 00:1505: 97 10        	sta	[<L162+c_0],Y
  3903 00:1507: C2 20        	rep	#$20
  3904                        	longa	on
  3905 00:1509: 82 A0 FC     	brl	L215
  3906                        ;  case 0x64: c->h = c->h; break; // MOV H,H
  3907                        L10082:
  3908 00:150C: E2 20        	sep	#$20
  3909                        	longa	off
  3910 00:150E: A0 21 00     	ldy	#$21
  3911 00:1511: B7 10        	lda	[<L162+c_0],Y
  3912 00:1513: 97 10        	sta	[<L162+c_0],Y
  3913 00:1515: C2 20        	rep	#$20
  3914                        	longa	on
  3915 00:1517: 82 92 FC     	brl	L215
  3916                        ;  case 0x65: c->h = c->l; break; // MOV H,L
  3917                        L10083:
  3918 00:151A: E2 20        	sep	#$20
  3919                        	longa	off
  3920 00:151C: A0 22 00     	ldy	#$22
  3921 00:151F: B7 10        	lda	[<L162+c_0],Y
  3922 00:1521: 88           	dey
  3923 00:1522: 97 10        	sta	[<L162+c_0],Y
  3924 00:1524: C2 20        	rep	#$20
  3925                        	longa	on
  3926 00:1526: 82 83 FC     	brl	L215
  3927                        ;  case 0x66: c->h = i8080_rb(c, i8080_get_hl(c));
                     break; // MOV H,M
  3928                        L10084:
  3929 00:1529: D4 12        	pei	<L162+c_0+2
  3930 00:152B: D4 10        	pei	<L162+c_0
  3931 00:152D: 22 xx xx xx  	jsl	~~i8080_get_hl
  3932 00:1531: 48           	pha
  3933 00:1532: D4 12        	pei	<L162+c_0+2
  3934 00:1534: D4 10        	pei	<L162+c_0
  3935 00:1536: 22 xx xx xx  	jsl	~~i8080_rb
  3936 00:153A: E2 20        	sep	#$20
  3937                        	longa	off
  3938 00:153C: A0 21 00     	ldy	#$21
  3939 00:153F: 97 10        	sta	[<L162+c_0],Y
  3940 00:1541: C2 20        	rep	#$20
  3941                        	longa	on
  3942 00:1543: 82 66 FC     	brl	L215
  3943                        ;
  3944                        ;  case 0x6F: c->l = c->a; break; // MOV L,A
  Sun Jan  9 2022 21:05                                                Page 71


  3945                        L10085:
  3946 00:1546: E2 20        	sep	#$20
  3947                        	longa	off
  3948 00:1548: A0 1C 00     	ldy	#$1c
  3949 00:154B: B7 10        	lda	[<L162+c_0],Y
  3950 00:154D: A0 22 00     	ldy	#$22
  3951 00:1550: 97 10        	sta	[<L162+c_0],Y
  3952 00:1552: C2 20        	rep	#$20
  3953                        	longa	on
  3954 00:1554: 82 55 FC     	brl	L215
  3955                        ;  case 0x68: c->l = c->b; break; // MOV L,B
  3956                        L10086:
  3957 00:1557: E2 20        	sep	#$20
  3958                        	longa	off
  3959 00:1559: A0 1D 00     	ldy	#$1d
  3960 00:155C: B7 10        	lda	[<L162+c_0],Y
  3961 00:155E: A0 22 00     	ldy	#$22
  3962 00:1561: 97 10        	sta	[<L162+c_0],Y
  3963 00:1563: C2 20        	rep	#$20
  3964                        	longa	on
  3965 00:1565: 82 44 FC     	brl	L215
  3966                        ;  case 0x69: c->l = c->c; break; // MOV L,C
  3967                        L10087:
  3968 00:1568: E2 20        	sep	#$20
  3969                        	longa	off
  3970 00:156A: A0 1E 00     	ldy	#$1e
  3971 00:156D: B7 10        	lda	[<L162+c_0],Y
  3972 00:156F: A0 22 00     	ldy	#$22
  3973 00:1572: 97 10        	sta	[<L162+c_0],Y
  3974 00:1574: C2 20        	rep	#$20
  3975                        	longa	on
  3976 00:1576: 82 33 FC     	brl	L215
  3977                        ;  case 0x6A: c->l = c->d; break; // MOV L,D
  3978                        L10088:
  3979 00:1579: E2 20        	sep	#$20
  3980                        	longa	off
  3981 00:157B: A0 1F 00     	ldy	#$1f
  3982 00:157E: B7 10        	lda	[<L162+c_0],Y
  3983 00:1580: A0 22 00     	ldy	#$22
  3984 00:1583: 97 10        	sta	[<L162+c_0],Y
  3985 00:1585: C2 20        	rep	#$20
  3986                        	longa	on
  3987 00:1587: 82 22 FC     	brl	L215
  3988                        ;  case 0x6B: c->l = c->e; break; // MOV L,E
  3989                        L10089:
  3990 00:158A: E2 20        	sep	#$20
  3991                        	longa	off
  3992 00:158C: A0 20 00     	ldy	#$20
  3993 00:158F: B7 10        	lda	[<L162+c_0],Y
  3994 00:1591: C8           	iny
  3995 00:1592: C8           	iny
  3996 00:1593: 97 10        	sta	[<L162+c_0],Y
  3997 00:1595: C2 20        	rep	#$20
  3998                        	longa	on
  3999 00:1597: 82 12 FC     	brl	L215
  4000                        ;  case 0x6C: c->l = c->h; break; // MOV L,H
  4001                        L10090:
  4002 00:159A: E2 20        	sep	#$20
  Sun Jan  9 2022 21:05                                                Page 72


  4003                        	longa	off
  4004 00:159C: A0 21 00     	ldy	#$21
  4005 00:159F: B7 10        	lda	[<L162+c_0],Y
  4006 00:15A1: C8           	iny
  4007 00:15A2: 97 10        	sta	[<L162+c_0],Y
  4008 00:15A4: C2 20        	rep	#$20
  4009                        	longa	on
  4010 00:15A6: 82 03 FC     	brl	L215
  4011                        ;  case 0x6D: c->l = c->l; break; // MOV L,L
  4012                        L10091:
  4013 00:15A9: E2 20        	sep	#$20
  4014                        	longa	off
  4015 00:15AB: A0 22 00     	ldy	#$22
  4016 00:15AE: B7 10        	lda	[<L162+c_0],Y
  4017 00:15B0: 97 10        	sta	[<L162+c_0],Y
  4018 00:15B2: C2 20        	rep	#$20
  4019                        	longa	on
  4020 00:15B4: 82 F5 FB     	brl	L215
  4021                        ;  case 0x6E: c->l = i8080_rb(c, i8080_get_hl(c));
                     break; // MOV L,M
  4022                        L10092:
  4023 00:15B7: D4 12        	pei	<L162+c_0+2
  4024 00:15B9: D4 10        	pei	<L162+c_0
  4025 00:15BB: 22 xx xx xx  	jsl	~~i8080_get_hl
  4026 00:15BF: 48           	pha
  4027 00:15C0: D4 12        	pei	<L162+c_0+2
  4028 00:15C2: D4 10        	pei	<L162+c_0
  4029 00:15C4: 22 xx xx xx  	jsl	~~i8080_rb
  4030 00:15C8: E2 20        	sep	#$20
  4031                        	longa	off
  4032 00:15CA: A0 22 00     	ldy	#$22
  4033 00:15CD: 97 10        	sta	[<L162+c_0],Y
  4034 00:15CF: C2 20        	rep	#$20
  4035                        	longa	on
  4036 00:15D1: 82 D8 FB     	brl	L215
  4037                        ;
  4038                        ;  case 0x77: i8080_wb(c, i8080_get_hl(c), c->a); 
                    break; // MOV M,A
  4039                        L10093:
  4040 00:15D4: A0 1C 00     	ldy	#$1c
  4041                        L20008:
  4042 00:15D7: B7 10        	lda	[<L162+c_0],Y
  4043                        L20056:
  4044 00:15D9: 48           	pha
  4045 00:15DA: D4 12        	pei	<L162+c_0+2
  4046 00:15DC: D4 10        	pei	<L162+c_0
  4047 00:15DE: 22 xx xx xx  	jsl	~~i8080_get_hl
  4048                        L20060:
  4049 00:15E2: 48           	pha
  4050 00:15E3: D4 12        	pei	<L162+c_0+2
  4051 00:15E5: D4 10        	pei	<L162+c_0
  4052 00:15E7: 22 xx xx xx  	jsl	~~i8080_wb
  4053 00:15EB: 82 BE FB     	brl	L215
  4054                        ;  case 0x70: i8080_wb(c, i8080_get_hl(c), c->b); 
                    break; // MOV M,B
  4055                        L10094:
  4056 00:15EE: A0 1D 00     	ldy	#$1d
  4057 00:15F1: 80 E4        	bra	L20008
  Sun Jan  9 2022 21:05                                                Page 73


  4058                        ;  case 0x71: i8080_wb(c, i8080_get_hl(c), c->c); 
                    break; // MOV M,C
  4059                        L10095:
  4060 00:15F3: A0 1E 00     	ldy	#$1e
  4061 00:15F6: 80 DF        	bra	L20008
  4062                        ;  case 0x72: i8080_wb(c, i8080_get_hl(c), c->d); 
                    break; // MOV M,D
  4063                        L10096:
  4064 00:15F8: A0 1F 00     	ldy	#$1f
  4065 00:15FB: 80 DA        	bra	L20008
  4066                        ;  case 0x73: i8080_wb(c, i8080_get_hl(c), c->e); 
                    break; // MOV M,E
  4067                        L10097:
  4068 00:15FD: A0 20 00     	ldy	#$20
  4069 00:1600: 80 D5        	bra	L20008
  4070                        ;  case 0x74: i8080_wb(c, i8080_get_hl(c), c->h); 
                    break; // MOV M,H
  4071                        L10098:
  4072 00:1602: A0 21 00     	ldy	#$21
  4073 00:1605: 80 D0        	bra	L20008
  4074                        ;  case 0x75: i8080_wb(c, i8080_get_hl(c), c->l); 
                    break; // MOV M,L
  4075                        L10099:
  4076 00:1607: A0 22 00     	ldy	#$22
  4077 00:160A: 80 CB        	bra	L20008
  4078                        ;
  4079                        ;  case 0x3E: c->a = i8080_next_byte(c); break; //
                     MVI A,byte
  4080                        L10100:
  4081 00:160C: D4 12        	pei	<L162+c_0+2
  4082 00:160E: D4 10        	pei	<L162+c_0
  4083 00:1610: 22 xx xx xx  	jsl	~~i8080_next_byte
  4084 00:1614: E2 20        	sep	#$20
  4085                        	longa	off
  4086 00:1616: A0 1C 00     	ldy	#$1c
  4087 00:1619: 97 10        	sta	[<L162+c_0],Y
  4088 00:161B: C2 20        	rep	#$20
  4089                        	longa	on
  4090 00:161D: 82 8C FB     	brl	L215
  4091                        ;  case 0x06: c->b = i8080_next_byte(c); break; //
                     MVI B,byte
  4092                        L10101:
  4093 00:1620: D4 12        	pei	<L162+c_0+2
  4094 00:1622: D4 10        	pei	<L162+c_0
  4095 00:1624: 22 xx xx xx  	jsl	~~i8080_next_byte
  4096 00:1628: E2 20        	sep	#$20
  4097                        	longa	off
  4098 00:162A: A0 1D 00     	ldy	#$1d
  4099 00:162D: 97 10        	sta	[<L162+c_0],Y
  4100 00:162F: C2 20        	rep	#$20
  4101                        	longa	on
  4102 00:1631: 82 78 FB     	brl	L215
  4103                        ;  case 0x0E: c->c = i8080_next_byte(c); break; //
                     MVI C,byte
  4104                        L10102:
  4105 00:1634: D4 12        	pei	<L162+c_0+2
  4106 00:1636: D4 10        	pei	<L162+c_0
  4107 00:1638: 22 xx xx xx  	jsl	~~i8080_next_byte
  Sun Jan  9 2022 21:05                                                Page 74


  4108 00:163C: E2 20        	sep	#$20
  4109                        	longa	off
  4110 00:163E: A0 1E 00     	ldy	#$1e
  4111 00:1641: 97 10        	sta	[<L162+c_0],Y
  4112 00:1643: C2 20        	rep	#$20
  4113                        	longa	on
  4114 00:1645: 82 64 FB     	brl	L215
  4115                        ;  case 0x16: c->d = i8080_next_byte(c); break; //
                     MVI D,byte
  4116                        L10103:
  4117 00:1648: D4 12        	pei	<L162+c_0+2
  4118 00:164A: D4 10        	pei	<L162+c_0
  4119 00:164C: 22 xx xx xx  	jsl	~~i8080_next_byte
  4120 00:1650: E2 20        	sep	#$20
  4121                        	longa	off
  4122 00:1652: A0 1F 00     	ldy	#$1f
  4123 00:1655: 97 10        	sta	[<L162+c_0],Y
  4124 00:1657: C2 20        	rep	#$20
  4125                        	longa	on
  4126 00:1659: 82 50 FB     	brl	L215
  4127                        ;  case 0x1E: c->e = i8080_next_byte(c); break; //
                     MVI E,byte
  4128                        L10104:
  4129 00:165C: D4 12        	pei	<L162+c_0+2
  4130 00:165E: D4 10        	pei	<L162+c_0
  4131 00:1660: 22 xx xx xx  	jsl	~~i8080_next_byte
  4132 00:1664: E2 20        	sep	#$20
  4133                        	longa	off
  4134 00:1666: A0 20 00     	ldy	#$20
  4135 00:1669: 97 10        	sta	[<L162+c_0],Y
  4136 00:166B: C2 20        	rep	#$20
  4137                        	longa	on
  4138 00:166D: 82 3C FB     	brl	L215
  4139                        ;  case 0x26: c->h = i8080_next_byte(c); break; //
                     MVI H,byte
  4140                        L10105:
  4141 00:1670: D4 12        	pei	<L162+c_0+2
  4142 00:1672: D4 10        	pei	<L162+c_0
  4143 00:1674: 22 xx xx xx  	jsl	~~i8080_next_byte
  4144 00:1678: E2 20        	sep	#$20
  4145                        	longa	off
  4146 00:167A: A0 21 00     	ldy	#$21
  4147 00:167D: 97 10        	sta	[<L162+c_0],Y
  4148 00:167F: C2 20        	rep	#$20
  4149                        	longa	on
  4150 00:1681: 82 28 FB     	brl	L215
  4151                        ;  case 0x2E: c->l = i8080_next_byte(c); break; //
                     MVI L,byte
  4152                        L10106:
  4153 00:1684: D4 12        	pei	<L162+c_0+2
  4154 00:1686: D4 10        	pei	<L162+c_0
  4155 00:1688: 22 xx xx xx  	jsl	~~i8080_next_byte
  4156 00:168C: E2 20        	sep	#$20
  4157                        	longa	off
  4158 00:168E: A0 22 00     	ldy	#$22
  4159 00:1691: 97 10        	sta	[<L162+c_0],Y
  4160 00:1693: C2 20        	rep	#$20
  4161                        	longa	on
  Sun Jan  9 2022 21:05                                                Page 75


  4162 00:1695: 82 14 FB     	brl	L215
  4163                        ;  case 0x36:
  4164                        L10107:
  4165                        ;    i8080_wb(c, i8080_get_hl(c), i8080_next_byte(
                    c));
  4166 00:1698: D4 12        	pei	<L162+c_0+2
  4167 00:169A: D4 10        	pei	<L162+c_0
  4168 00:169C: 22 xx xx xx  	jsl	~~i8080_next_byte
  4169                        ;    break; // MVI M,byte
  4170 00:16A0: 82 36 FF     	brl	L20056
  4171                        ;
  4172                        ;  case 0x02: i8080_wb(c, i8080_get_bc(c), c->a); 
                    break; // STAX B
  4173                        L10108:
  4174 00:16A3: A0 1C 00     	ldy	#$1c
  4175 00:16A6: B7 10        	lda	[<L162+c_0],Y
  4176 00:16A8: 48           	pha
  4177 00:16A9: D4 12        	pei	<L162+c_0+2
  4178 00:16AB: D4 10        	pei	<L162+c_0
  4179 00:16AD: 22 xx xx xx  	jsl	~~i8080_get_bc
  4180 00:16B1: 82 2E FF     	brl	L20060
  4181                        ;  case 0x12: i8080_wb(c, i8080_get_de(c), c->a); 
                    break; // STAX D
  4182                        L10109:
  4183 00:16B4: A0 1C 00     	ldy	#$1c
  4184 00:16B7: B7 10        	lda	[<L162+c_0],Y
  4185 00:16B9: 48           	pha
  4186 00:16BA: D4 12        	pei	<L162+c_0+2
  4187 00:16BC: D4 10        	pei	<L162+c_0
  4188 00:16BE: 22 xx xx xx  	jsl	~~i8080_get_de
  4189 00:16C2: 82 1D FF     	brl	L20060
  4190                        ;  case 0x32: i8080_wb(c, i8080_next_word(c), c->a
                    ); break; // STA word
  4191                        L10110:
  4192 00:16C5: A0 1C 00     	ldy	#$1c
  4193 00:16C8: B7 10        	lda	[<L162+c_0],Y
  4194 00:16CA: 48           	pha
  4195 00:16CB: D4 12        	pei	<L162+c_0+2
  4196 00:16CD: D4 10        	pei	<L162+c_0
  4197 00:16CF: 22 xx xx xx  	jsl	~~i8080_next_word
  4198 00:16D3: 82 0C FF     	brl	L20060
  4199                        ;
  4200                        ;  case 0x01: i8080_set_bc(c, i8080_next_word(c));
                     break; // LXI B,word
  4201                        L10111:
  4202 00:16D6: D4 12        	pei	<L162+c_0+2
  4203 00:16D8: D4 10        	pei	<L162+c_0
  4204 00:16DA: 22 xx xx xx  	jsl	~~i8080_next_word
  4205                        L20082:
  4206 00:16DE: 48           	pha
  4207 00:16DF: D4 12        	pei	<L162+c_0+2
  4208 00:16E1: D4 10        	pei	<L162+c_0
  4209 00:16E3: 22 xx xx xx  	jsl	~~i8080_set_bc
  4210 00:16E7: 82 C2 FA     	brl	L215
  4211                        ;  case 0x11: i8080_set_de(c, i8080_next_word(c));
                     break; // LXI D,word
  4212                        L10112:
  4213 00:16EA: D4 12        	pei	<L162+c_0+2
  Sun Jan  9 2022 21:05                                                Page 76


  4214 00:16EC: D4 10        	pei	<L162+c_0
  4215 00:16EE: 22 xx xx xx  	jsl	~~i8080_next_word
  4216                        L20092:
  4217 00:16F2: 48           	pha
  4218 00:16F3: D4 12        	pei	<L162+c_0+2
  4219 00:16F5: D4 10        	pei	<L162+c_0
  4220 00:16F7: 22 xx xx xx  	jsl	~~i8080_set_de
  4221 00:16FB: 82 AE FA     	brl	L215
  4222                        ;  case 0x21: i8080_set_hl(c, i8080_next_word(c));
                     break; // LXI H,word
  4223                        L10113:
  4224 00:16FE: D4 12        	pei	<L162+c_0+2
  4225 00:1700: D4 10        	pei	<L162+c_0
  4226 00:1702: 22 xx xx xx  	jsl	~~i8080_next_word
  4227                        L20102:
  4228 00:1706: 48           	pha
  4229 00:1707: D4 12        	pei	<L162+c_0+2
  4230 00:1709: D4 10        	pei	<L162+c_0
  4231 00:170B: 22 xx xx xx  	jsl	~~i8080_set_hl
  4232 00:170F: 82 9A FA     	brl	L215
  4233                        ;  case 0x31: c->sp = i8080_next_word(c); break; /
                    / LXI SP,word
  4234                        L10114:
  4235 00:1712: D4 12        	pei	<L162+c_0+2
  4236 00:1714: D4 10        	pei	<L162+c_0
  4237 00:1716: 22 xx xx xx  	jsl	~~i8080_next_word
  4238                        L20113:
  4239 00:171A: A0 1A 00     	ldy	#$1a
  4240                        L20114:
  4241 00:171D: 97 10        	sta	[<L162+c_0],Y
  4242 00:171F: 82 8A FA     	brl	L215
  4243                        ;  case 0x2A: i8080_set_hl(c, i8080_rw(c, i8080_ne
                    xt_word(c))); break; // LHLD
  4244                        L10115:
  4245 00:1722: D4 12        	pei	<L162+c_0+2
  4246 00:1724: D4 10        	pei	<L162+c_0
  4247 00:1726: 22 xx xx xx  	jsl	~~i8080_next_word
  4248 00:172A: 48           	pha
  4249 00:172B: D4 12        	pei	<L162+c_0+2
  4250 00:172D: D4 10        	pei	<L162+c_0
  4251 00:172F: 22 xx xx xx  	jsl	~~i8080_rw
  4252 00:1733: 80 D1        	bra	L20102
  4253                        ;  case 0x22: i8080_ww(c, i8080_next_word(c), i808
                    0_get_hl(c)); break; // SHLD
  4254                        L10116:
  4255 00:1735: D4 12        	pei	<L162+c_0+2
  4256 00:1737: D4 10        	pei	<L162+c_0
  4257 00:1739: 22 xx xx xx  	jsl	~~i8080_get_hl
  4258 00:173D: 48           	pha
  4259 00:173E: D4 12        	pei	<L162+c_0+2
  4260 00:1740: D4 10        	pei	<L162+c_0
  4261 00:1742: 22 xx xx xx  	jsl	~~i8080_next_word
  4262 00:1746: 48           	pha
  4263 00:1747: D4 12        	pei	<L162+c_0+2
  4264 00:1749: D4 10        	pei	<L162+c_0
  4265 00:174B: 22 xx xx xx  	jsl	~~i8080_ww
  4266 00:174F: 82 5A FA     	brl	L215
  4267                        ;  case 0xF9: c->sp = i8080_get_hl(c); break; // S
  Sun Jan  9 2022 21:05                                                Page 77


                    PHL
  4268                        L10117:
  4269 00:1752: D4 12        	pei	<L162+c_0+2
  4270 00:1754: D4 10        	pei	<L162+c_0
  4271 00:1756: 22 xx xx xx  	jsl	~~i8080_get_hl
  4272 00:175A: 80 BE        	bra	L20113
  4273                        ;
  4274                        ;  case 0xEB: i8080_xchg(c); break; // XCHG
  4275                        L10118:
  4276 00:175C: D4 12        	pei	<L162+c_0+2
  4277 00:175E: D4 10        	pei	<L162+c_0
  4278 00:1760: 22 xx xx xx  	jsl	~~i8080_xchg
  4279 00:1764: 82 45 FA     	brl	L215
  4280                        ;  case 0xE3: i8080_xthl(c); break; // XTHL
  4281                        L10119:
  4282 00:1767: D4 12        	pei	<L162+c_0+2
  4283 00:1769: D4 10        	pei	<L162+c_0
  4284 00:176B: 22 xx xx xx  	jsl	~~i8080_xthl
  4285 00:176F: 82 3A FA     	brl	L215
  4286                        ;
  4287                        ;  case 0x87: i8080_add(c, &c->a, c->a, 0); break;
                     // ADD A
  4288                        L10120:
  4289 00:1772: F4 00 00     	pea	#<$0
  4290 00:1775: A0 1C 00     	ldy	#$1c
  4291                        L20128:
  4292 00:1778: B7 10        	lda	[<L162+c_0],Y
  4293                        L20206:
  4294 00:177A: 48           	pha
  4295 00:177B: A9 1C 00     	lda	#$1c
  4296 00:177E: 18           	clc
  4297 00:177F: 65 10        	adc	<L162+c_0
  4298 00:1781: 85 01        	sta	<R0
  4299 00:1783: A9 00 00     	lda	#$0
  4300 00:1786: 65 12        	adc	<L162+c_0+2
  4301 00:1788: 48           	pha
  4302 00:1789: D4 01        	pei	<R0
  4303                        L20221:
  4304 00:178B: D4 12        	pei	<L162+c_0+2
  4305 00:178D: D4 10        	pei	<L162+c_0
  4306 00:178F: 22 xx xx xx  	jsl	~~i8080_add
  4307 00:1793: 82 16 FA     	brl	L215
  4308                        ;  case 0x80: i8080_add(c, &c->a, c->b, 0); break;
                     // ADD B
  4309                        L10121:
  4310 00:1796: F4 00 00     	pea	#<$0
  4311 00:1799: A0 1D 00     	ldy	#$1d
  4312 00:179C: 80 DA        	bra	L20128
  4313                        ;  case 0x81: i8080_add(c, &c->a, c->c, 0); break;
                     // ADD C
  4314                        L10122:
  4315 00:179E: F4 00 00     	pea	#<$0
  4316 00:17A1: A0 1E 00     	ldy	#$1e
  4317 00:17A4: 80 D2        	bra	L20128
  4318                        ;  case 0x82: i8080_add(c, &c->a, c->d, 0); break;
                     // ADD D
  4319                        L10123:
  4320 00:17A6: F4 00 00     	pea	#<$0
  Sun Jan  9 2022 21:05                                                Page 78


  4321 00:17A9: A0 1F 00     	ldy	#$1f
  4322 00:17AC: 80 CA        	bra	L20128
  4323                        ;  case 0x83: i8080_add(c, &c->a, c->e, 0); break;
                     // ADD E
  4324                        L10124:
  4325 00:17AE: F4 00 00     	pea	#<$0
  4326 00:17B1: A0 20 00     	ldy	#$20
  4327 00:17B4: 80 C2        	bra	L20128
  4328                        ;  case 0x84: i8080_add(c, &c->a, c->h, 0); break;
                     // ADD H
  4329                        L10125:
  4330 00:17B6: F4 00 00     	pea	#<$0
  4331 00:17B9: A0 21 00     	ldy	#$21
  4332 00:17BC: 80 BA        	bra	L20128
  4333                        ;  case 0x85: i8080_add(c, &c->a, c->l, 0); break;
                     // ADD L
  4334                        L10126:
  4335 00:17BE: F4 00 00     	pea	#<$0
  4336 00:17C1: A0 22 00     	ldy	#$22
  4337 00:17C4: 80 B2        	bra	L20128
  4338                        ;  case 0x86:
  4339                        L10127:
  4340                        ;    i8080_add(c, &c->a, i8080_rb(c, i8080_get_hl(
                    c)), 0);
  4341 00:17C6: F4 00 00     	pea	#<$0
  4342 00:17C9: D4 12        	pei	<L162+c_0+2
  4343 00:17CB: D4 10        	pei	<L162+c_0
  4344 00:17CD: 22 xx xx xx  	jsl	~~i8080_get_hl
  4345 00:17D1: 48           	pha
  4346 00:17D2: D4 12        	pei	<L162+c_0+2
  4347 00:17D4: D4 10        	pei	<L162+c_0
  4348 00:17D6: 22 xx xx xx  	jsl	~~i8080_rb
  4349                        ;    break; // ADD M
  4350 00:17DA: 80 9E        	bra	L20206
  4351                        ;  case 0xC6: i8080_add(c, &c->a, i8080_next_byte(
                    c), 0); break; // ADI byte
  4352                        L10128:
  4353 00:17DC: F4 00 00     	pea	#<$0
  4354 00:17DF: D4 12        	pei	<L162+c_0+2
  4355 00:17E1: D4 10        	pei	<L162+c_0
  4356 00:17E3: 22 xx xx xx  	jsl	~~i8080_next_byte
  4357 00:17E7: 80 91        	bra	L20206
  4358                        ;
  4359                        ;  case 0x8F: i8080_add(c, &c->a, c->a, c->cf); br
                    eak; // ADC A
  4360                        L10129:
  4361 00:17E9: A0 23 00     	ldy	#$23
  4362 00:17EC: B7 10        	lda	[<L162+c_0],Y
  4363 00:17EE: 4A           	lsr
  4364 00:17EF: 4A           	lsr
  4365 00:17F0: 4A           	lsr
  4366 00:17F1: 4A           	lsr
  4367 00:17F2: 29 01 00     	and	#<$1
  4368 00:17F5: 48           	pha
  4369 00:17F6: A0 1C 00     	ldy	#$1c
  4370                        L20248:
  4371 00:17F9: B7 10        	lda	[<L162+c_0],Y
  4372                        L20308:
  Sun Jan  9 2022 21:05                                                Page 79


  4373 00:17FB: 48           	pha
  4374 00:17FC: A9 1C 00     	lda	#$1c
  4375 00:17FF: 18           	clc
  4376 00:1800: 65 10        	adc	<L162+c_0
  4377 00:1802: 85 05        	sta	<R1
  4378 00:1804: A9 00 00     	lda	#$0
  4379 00:1807: 65 12        	adc	<L162+c_0+2
  4380 00:1809: 48           	pha
  4381 00:180A: D4 05        	pei	<R1
  4382 00:180C: 82 7C FF     	brl	L20221
  4383                        ;  case 0x88: i8080_add(c, &c->a, c->b, c->cf); br
                    eak; // ADC B
  4384                        L10130:
  4385 00:180F: A0 23 00     	ldy	#$23
  4386 00:1812: B7 10        	lda	[<L162+c_0],Y
  4387 00:1814: 4A           	lsr
  4388 00:1815: 4A           	lsr
  4389 00:1816: 4A           	lsr
  4390 00:1817: 4A           	lsr
  4391 00:1818: 29 01 00     	and	#<$1
  4392 00:181B: 48           	pha
  4393 00:181C: A0 1D 00     	ldy	#$1d
  4394 00:181F: 80 D8        	bra	L20248
  4395                        ;  case 0x89: i8080_add(c, &c->a, c->c, c->cf); br
                    eak; // ADC C
  4396                        L10131:
  4397 00:1821: A0 23 00     	ldy	#$23
  4398 00:1824: B7 10        	lda	[<L162+c_0],Y
  4399 00:1826: 4A           	lsr
  4400 00:1827: 4A           	lsr
  4401 00:1828: 4A           	lsr
  4402 00:1829: 4A           	lsr
  4403 00:182A: 29 01 00     	and	#<$1
  4404 00:182D: 48           	pha
  4405 00:182E: A0 1E 00     	ldy	#$1e
  4406 00:1831: 80 C6        	bra	L20248
  4407                        ;  case 0x8A: i8080_add(c, &c->a, c->d, c->cf); br
                    eak; // ADC D
  4408                        L10132:
  4409 00:1833: A0 23 00     	ldy	#$23
  4410 00:1836: B7 10        	lda	[<L162+c_0],Y
  4411 00:1838: 4A           	lsr
  4412 00:1839: 4A           	lsr
  4413 00:183A: 4A           	lsr
  4414 00:183B: 4A           	lsr
  4415 00:183C: 29 01 00     	and	#<$1
  4416 00:183F: 48           	pha
  4417 00:1840: A0 1F 00     	ldy	#$1f
  4418 00:1843: 80 B4        	bra	L20248
  4419                        ;  case 0x8B: i8080_add(c, &c->a, c->e, c->cf); br
                    eak; // ADC E
  4420                        L10133:
  4421 00:1845: A0 23 00     	ldy	#$23
  4422 00:1848: B7 10        	lda	[<L162+c_0],Y
  4423 00:184A: 4A           	lsr
  4424 00:184B: 4A           	lsr
  4425 00:184C: 4A           	lsr
  4426 00:184D: 4A           	lsr
  Sun Jan  9 2022 21:05                                                Page 80


  4427 00:184E: 29 01 00     	and	#<$1
  4428 00:1851: 48           	pha
  4429 00:1852: A0 20 00     	ldy	#$20
  4430 00:1855: 80 A2        	bra	L20248
  4431                        ;  case 0x8C: i8080_add(c, &c->a, c->h, c->cf); br
                    eak; // ADC H
  4432                        L10134:
  4433 00:1857: A0 23 00     	ldy	#$23
  4434 00:185A: B7 10        	lda	[<L162+c_0],Y
  4435 00:185C: 4A           	lsr
  4436 00:185D: 4A           	lsr
  4437 00:185E: 4A           	lsr
  4438 00:185F: 4A           	lsr
  4439 00:1860: 29 01 00     	and	#<$1
  4440 00:1863: 48           	pha
  4441 00:1864: 88           	dey
  4442                        L20767:
  4443 00:1865: 88           	dey
  4444 00:1866: 80 91        	bra	L20248
  4445                        ;  case 0x8D: i8080_add(c, &c->a, c->l, c->cf); br
                    eak; // ADC L
  4446                        L10135:
  4447 00:1868: A0 23 00     	ldy	#$23
  4448 00:186B: B7 10        	lda	[<L162+c_0],Y
  4449 00:186D: 4A           	lsr
  4450 00:186E: 4A           	lsr
  4451 00:186F: 4A           	lsr
  4452 00:1870: 4A           	lsr
  4453 00:1871: 29 01 00     	and	#<$1
  4454 00:1874: 48           	pha
  4455 00:1875: 80 EE        	bra	L20767
  4456                        ;  case 0x8E:
  4457                        L10136:
  4458                        ;    i8080_add(c, &c->a, i8080_rb(c, i8080_get_hl(
                    c)), c->cf);
  4459 00:1877: A0 23 00     	ldy	#$23
  4460 00:187A: B7 10        	lda	[<L162+c_0],Y
  4461 00:187C: 4A           	lsr
  4462 00:187D: 4A           	lsr
  4463 00:187E: 4A           	lsr
  4464 00:187F: 4A           	lsr
  4465 00:1880: 29 01 00     	and	#<$1
  4466 00:1883: 48           	pha
  4467 00:1884: D4 12        	pei	<L162+c_0+2
  4468 00:1886: D4 10        	pei	<L162+c_0
  4469 00:1888: 22 xx xx xx  	jsl	~~i8080_get_hl
  4470 00:188C: 48           	pha
  4471 00:188D: D4 12        	pei	<L162+c_0+2
  4472 00:188F: D4 10        	pei	<L162+c_0
  4473 00:1891: 22 xx xx xx  	jsl	~~i8080_rb
  4474                        ;    break; // ADC M
  4475 00:1895: 82 63 FF     	brl	L20308
  4476                        ;  case 0xCE: i8080_add(c, &c->a, i8080_next_byte(
                    c), c->cf); break; // ACI byte
  4477                        L10137:
  4478 00:1898: A0 23 00     	ldy	#$23
  4479 00:189B: B7 10        	lda	[<L162+c_0],Y
  4480 00:189D: 4A           	lsr
  Sun Jan  9 2022 21:05                                                Page 81


  4481 00:189E: 4A           	lsr
  4482 00:189F: 4A           	lsr
  4483 00:18A0: 4A           	lsr
  4484 00:18A1: 29 01 00     	and	#<$1
  4485 00:18A4: 48           	pha
  4486 00:18A5: D4 12        	pei	<L162+c_0+2
  4487 00:18A7: D4 10        	pei	<L162+c_0
  4488 00:18A9: 22 xx xx xx  	jsl	~~i8080_next_byte
  4489 00:18AD: 82 4B FF     	brl	L20308
  4490                        ;
  4491                        ;  case 0x97: i8080_sub(c, &c->a, c->a, 0); break;
                     // SUB A
  4492                        L10138:
  4493 00:18B0: F4 00 00     	pea	#<$0
  4494 00:18B3: A0 1C 00     	ldy	#$1c
  4495                        L20331:
  4496 00:18B6: B7 10        	lda	[<L162+c_0],Y
  4497                        L20409:
  4498 00:18B8: 48           	pha
  4499 00:18B9: A9 1C 00     	lda	#$1c
  4500 00:18BC: 18           	clc
  4501 00:18BD: 65 10        	adc	<L162+c_0
  4502 00:18BF: 85 01        	sta	<R0
  4503 00:18C1: A9 00 00     	lda	#$0
  4504 00:18C4: 65 12        	adc	<L162+c_0+2
  4505 00:18C6: 48           	pha
  4506 00:18C7: D4 01        	pei	<R0
  4507                        L20424:
  4508 00:18C9: D4 12        	pei	<L162+c_0+2
  4509 00:18CB: D4 10        	pei	<L162+c_0
  4510 00:18CD: 22 xx xx xx  	jsl	~~i8080_sub
  4511 00:18D1: 82 D8 F8     	brl	L215
  4512                        ;  case 0x90: i8080_sub(c, &c->a, c->b, 0); break;
                     // SUB B
  4513                        L10139:
  4514 00:18D4: F4 00 00     	pea	#<$0
  4515 00:18D7: A0 1D 00     	ldy	#$1d
  4516 00:18DA: 80 DA        	bra	L20331
  4517                        ;  case 0x91: i8080_sub(c, &c->a, c->c, 0); break;
                     // SUB C
  4518                        L10140:
  4519 00:18DC: F4 00 00     	pea	#<$0
  4520 00:18DF: A0 1E 00     	ldy	#$1e
  4521 00:18E2: 80 D2        	bra	L20331
  4522                        ;  case 0x92: i8080_sub(c, &c->a, c->d, 0); break;
                     // SUB D
  4523                        L10141:
  4524 00:18E4: F4 00 00     	pea	#<$0
  4525 00:18E7: A0 1F 00     	ldy	#$1f
  4526 00:18EA: 80 CA        	bra	L20331
  4527                        ;  case 0x93: i8080_sub(c, &c->a, c->e, 0); break;
                     // SUB E
  4528                        L10142:
  4529 00:18EC: F4 00 00     	pea	#<$0
  4530 00:18EF: A0 20 00     	ldy	#$20
  4531 00:18F2: 80 C2        	bra	L20331
  4532                        ;  case 0x94: i8080_sub(c, &c->a, c->h, 0); break;
                     // SUB H
  Sun Jan  9 2022 21:05                                                Page 82


  4533                        L10143:
  4534 00:18F4: F4 00 00     	pea	#<$0
  4535 00:18F7: A0 21 00     	ldy	#$21
  4536 00:18FA: 80 BA        	bra	L20331
  4537                        ;  case 0x95: i8080_sub(c, &c->a, c->l, 0); break;
                     // SUB L
  4538                        L10144:
  4539 00:18FC: F4 00 00     	pea	#<$0
  4540 00:18FF: A0 22 00     	ldy	#$22
  4541 00:1902: 80 B2        	bra	L20331
  4542                        ;  case 0x96:
  4543                        L10145:
  4544                        ;    i8080_sub(c, &c->a, i8080_rb(c, i8080_get_hl(
                    c)), 0);
  4545 00:1904: F4 00 00     	pea	#<$0
  4546 00:1907: D4 12        	pei	<L162+c_0+2
  4547 00:1909: D4 10        	pei	<L162+c_0
  4548 00:190B: 22 xx xx xx  	jsl	~~i8080_get_hl
  4549 00:190F: 48           	pha
  4550 00:1910: D4 12        	pei	<L162+c_0+2
  4551 00:1912: D4 10        	pei	<L162+c_0
  4552 00:1914: 22 xx xx xx  	jsl	~~i8080_rb
  4553                        ;    break; // SUB M
  4554 00:1918: 80 9E        	bra	L20409
  4555                        ;  case 0xD6: i8080_sub(c, &c->a, i8080_next_byte(
                    c), 0); break; // SUI byte
  4556                        L10146:
  4557 00:191A: F4 00 00     	pea	#<$0
  4558 00:191D: D4 12        	pei	<L162+c_0+2
  4559 00:191F: D4 10        	pei	<L162+c_0
  4560 00:1921: 22 xx xx xx  	jsl	~~i8080_next_byte
  4561 00:1925: 80 91        	bra	L20409
  4562                        ;
  4563                        ;  case 0x9F: i8080_sub(c, &c->a, c->a, c->cf); br
                    eak; // SBB A
  4564                        L10147:
  4565 00:1927: A0 23 00     	ldy	#$23
  4566 00:192A: B7 10        	lda	[<L162+c_0],Y
  4567 00:192C: 4A           	lsr
  4568 00:192D: 4A           	lsr
  4569 00:192E: 4A           	lsr
  4570 00:192F: 4A           	lsr
  4571 00:1930: 29 01 00     	and	#<$1
  4572 00:1933: 48           	pha
  4573 00:1934: A0 1C 00     	ldy	#$1c
  4574                        L20451:
  4575 00:1937: B7 10        	lda	[<L162+c_0],Y
  4576                        L20511:
  4577 00:1939: 48           	pha
  4578 00:193A: A9 1C 00     	lda	#$1c
  4579 00:193D: 18           	clc
  4580 00:193E: 65 10        	adc	<L162+c_0
  4581 00:1940: 85 05        	sta	<R1
  4582 00:1942: A9 00 00     	lda	#$0
  4583 00:1945: 65 12        	adc	<L162+c_0+2
  4584 00:1947: 48           	pha
  4585 00:1948: D4 05        	pei	<R1
  4586 00:194A: 82 7C FF     	brl	L20424
  Sun Jan  9 2022 21:05                                                Page 83


  4587                        ;  case 0x98: i8080_sub(c, &c->a, c->b, c->cf); br
                    eak; // SBB B
  4588                        L10148:
  4589 00:194D: A0 23 00     	ldy	#$23
  4590 00:1950: B7 10        	lda	[<L162+c_0],Y
  4591 00:1952: 4A           	lsr
  4592 00:1953: 4A           	lsr
  4593 00:1954: 4A           	lsr
  4594 00:1955: 4A           	lsr
  4595 00:1956: 29 01 00     	and	#<$1
  4596 00:1959: 48           	pha
  4597 00:195A: A0 1D 00     	ldy	#$1d
  4598 00:195D: 80 D8        	bra	L20451
  4599                        ;  case 0x99: i8080_sub(c, &c->a, c->c, c->cf); br
                    eak; // SBB C
  4600                        L10149:
  4601 00:195F: A0 23 00     	ldy	#$23
  4602 00:1962: B7 10        	lda	[<L162+c_0],Y
  4603 00:1964: 4A           	lsr
  4604 00:1965: 4A           	lsr
  4605 00:1966: 4A           	lsr
  4606 00:1967: 4A           	lsr
  4607 00:1968: 29 01 00     	and	#<$1
  4608 00:196B: 48           	pha
  4609 00:196C: A0 1E 00     	ldy	#$1e
  4610 00:196F: 80 C6        	bra	L20451
  4611                        ;  case 0x9A: i8080_sub(c, &c->a, c->d, c->cf); br
                    eak; // SBB D
  4612                        L10150:
  4613 00:1971: A0 23 00     	ldy	#$23
  4614 00:1974: B7 10        	lda	[<L162+c_0],Y
  4615 00:1976: 4A           	lsr
  4616 00:1977: 4A           	lsr
  4617 00:1978: 4A           	lsr
  4618 00:1979: 4A           	lsr
  4619 00:197A: 29 01 00     	and	#<$1
  4620 00:197D: 48           	pha
  4621 00:197E: A0 1F 00     	ldy	#$1f
  4622 00:1981: 80 B4        	bra	L20451
  4623                        ;  case 0x9B: i8080_sub(c, &c->a, c->e, c->cf); br
                    eak; // SBB E
  4624                        L10151:
  4625 00:1983: A0 23 00     	ldy	#$23
  4626 00:1986: B7 10        	lda	[<L162+c_0],Y
  4627 00:1988: 4A           	lsr
  4628 00:1989: 4A           	lsr
  4629 00:198A: 4A           	lsr
  4630 00:198B: 4A           	lsr
  4631 00:198C: 29 01 00     	and	#<$1
  4632 00:198F: 48           	pha
  4633 00:1990: A0 20 00     	ldy	#$20
  4634 00:1993: 80 A2        	bra	L20451
  4635                        ;  case 0x9C: i8080_sub(c, &c->a, c->h, c->cf); br
                    eak; // SBB H
  4636                        L10152:
  4637 00:1995: A0 23 00     	ldy	#$23
  4638 00:1998: B7 10        	lda	[<L162+c_0],Y
  4639 00:199A: 4A           	lsr
  Sun Jan  9 2022 21:05                                                Page 84


  4640 00:199B: 4A           	lsr
  4641 00:199C: 4A           	lsr
  4642 00:199D: 4A           	lsr
  4643 00:199E: 29 01 00     	and	#<$1
  4644 00:19A1: 48           	pha
  4645 00:19A2: 88           	dey
  4646                        L20768:
  4647 00:19A3: 88           	dey
  4648 00:19A4: 80 91        	bra	L20451
  4649                        ;  case 0x9D: i8080_sub(c, &c->a, c->l, c->cf); br
                    eak; // SBB L
  4650                        L10153:
  4651 00:19A6: A0 23 00     	ldy	#$23
  4652 00:19A9: B7 10        	lda	[<L162+c_0],Y
  4653 00:19AB: 4A           	lsr
  4654 00:19AC: 4A           	lsr
  4655 00:19AD: 4A           	lsr
  4656 00:19AE: 4A           	lsr
  4657 00:19AF: 29 01 00     	and	#<$1
  4658 00:19B2: 48           	pha
  4659 00:19B3: 80 EE        	bra	L20768
  4660                        ;  case 0x9E:
  4661                        L10154:
  4662                        ;    i8080_sub(c, &c->a, i8080_rb(c, i8080_get_hl(
                    c)), c->cf);
  4663 00:19B5: A0 23 00     	ldy	#$23
  4664 00:19B8: B7 10        	lda	[<L162+c_0],Y
  4665 00:19BA: 4A           	lsr
  4666 00:19BB: 4A           	lsr
  4667 00:19BC: 4A           	lsr
  4668 00:19BD: 4A           	lsr
  4669 00:19BE: 29 01 00     	and	#<$1
  4670 00:19C1: 48           	pha
  4671 00:19C2: D4 12        	pei	<L162+c_0+2
  4672 00:19C4: D4 10        	pei	<L162+c_0
  4673 00:19C6: 22 xx xx xx  	jsl	~~i8080_get_hl
  4674 00:19CA: 48           	pha
  4675 00:19CB: D4 12        	pei	<L162+c_0+2
  4676 00:19CD: D4 10        	pei	<L162+c_0
  4677 00:19CF: 22 xx xx xx  	jsl	~~i8080_rb
  4678                        ;    break; // SBB M
  4679 00:19D3: 82 63 FF     	brl	L20511
  4680                        ;  case 0xDE: i8080_sub(c, &c->a, i8080_next_byte(
                    c), c->cf); break; // SBI byte
  4681                        L10155:
  4682 00:19D6: A0 23 00     	ldy	#$23
  4683 00:19D9: B7 10        	lda	[<L162+c_0],Y
  4684 00:19DB: 4A           	lsr
  4685 00:19DC: 4A           	lsr
  4686 00:19DD: 4A           	lsr
  4687 00:19DE: 4A           	lsr
  4688 00:19DF: 29 01 00     	and	#<$1
  4689 00:19E2: 48           	pha
  4690 00:19E3: D4 12        	pei	<L162+c_0+2
  4691 00:19E5: D4 10        	pei	<L162+c_0
  4692 00:19E7: 22 xx xx xx  	jsl	~~i8080_next_byte
  4693 00:19EB: 82 4B FF     	brl	L20511
  4694                        ;
  Sun Jan  9 2022 21:05                                                Page 85


  4695                        ;  case 0x09: i8080_dad(c, i8080_get_bc(c)); break
                    ; // DAD B
  4696                        L10156:
  4697 00:19EE: D4 12        	pei	<L162+c_0+2
  4698 00:19F0: D4 10        	pei	<L162+c_0
  4699 00:19F2: 22 xx xx xx  	jsl	~~i8080_get_bc
  4700                        L20524:
  4701 00:19F6: 48           	pha
  4702 00:19F7: D4 12        	pei	<L162+c_0+2
  4703 00:19F9: D4 10        	pei	<L162+c_0
  4704 00:19FB: 22 xx xx xx  	jsl	~~i8080_dad
  4705 00:19FF: 82 AA F7     	brl	L215
  4706                        ;  case 0x19: i8080_dad(c, i8080_get_de(c)); break
                    ; // DAD D
  4707                        L10157:
  4708 00:1A02: D4 12        	pei	<L162+c_0+2
  4709 00:1A04: D4 10        	pei	<L162+c_0
  4710 00:1A06: 22 xx xx xx  	jsl	~~i8080_get_de
  4711 00:1A0A: 80 EA        	bra	L20524
  4712                        ;  case 0x29: i8080_dad(c, i8080_get_hl(c)); break
                    ; // DAD H
  4713                        L10158:
  4714 00:1A0C: D4 12        	pei	<L162+c_0+2
  4715 00:1A0E: D4 10        	pei	<L162+c_0
  4716 00:1A10: 22 xx xx xx  	jsl	~~i8080_get_hl
  4717 00:1A14: 80 E0        	bra	L20524
  4718                        ;  case 0x39: i8080_dad(c, c->sp); break; // DAD S
                    P
  4719                        L10159:
  4720 00:1A16: A0 1A 00     	ldy	#$1a
  4721 00:1A19: B7 10        	lda	[<L162+c_0],Y
  4722 00:1A1B: 80 D9        	bra	L20524
  4723                        ;
  4724                        ;  case 0xF3: c->iff = 0; break; // DI
  4725                        L10160:
  4726 00:1A1D: A0 23 00     	ldy	#$23
  4727 00:1A20: B7 10        	lda	[<L162+c_0],Y
  4728 00:1A22: 29 DF FF     	and	#<$ffffffdf
  4729                        L20531:
  4730 00:1A25: A0 23 00     	ldy	#$23
  4731 00:1A28: 82 F2 FC     	brl	L20114
  4732                        ;  case 0xFB:
  4733                        L10161:
  4734                        ;    c->iff = 1;
  4735 00:1A2B: A0 23 00     	ldy	#$23
  4736 00:1A2E: B7 10        	lda	[<L162+c_0],Y
  4737 00:1A30: 09 20 00     	ora	#<$20
  4738 00:1A33: 97 10        	sta	[<L162+c_0],Y
  4739                        ;    c->interrupt_delay = 1;
  4740 00:1A35: E2 20        	sep	#$20
  4741                        	longa	off
  4742 00:1A37: A9 01        	lda	#$1
  4743 00:1A39: A0 26 00     	ldy	#$26
  4744 00:1A3C: 97 10        	sta	[<L162+c_0],Y
  4745 00:1A3E: C2 20        	rep	#$20
  4746                        	longa	on
  4747                        ;    break; // EI
  4748 00:1A40: 82 69 F7     	brl	L215
  Sun Jan  9 2022 21:05                                                Page 86


  4749                        ;  case 0x00: break; // NOP
  4750                        ;  case 0x76: c->halted = 1; break; // HLT
  4751                        L10163:
  4752 00:1A43: A0 23 00     	ldy	#$23
  4753 00:1A46: B7 10        	lda	[<L162+c_0],Y
  4754 00:1A48: 09 40 00     	ora	#<$40
  4755 00:1A4B: 80 D8        	bra	L20531
  4756                        ;
  4757                        ;  case 0x3C: c->a = i8080_inr(c, c->a); break; //
                     INR A
  4758                        L10164:
  4759 00:1A4D: A0 1C 00     	ldy	#$1c
  4760 00:1A50: B7 10        	lda	[<L162+c_0],Y
  4761 00:1A52: 48           	pha
  4762 00:1A53: D4 12        	pei	<L162+c_0+2
  4763 00:1A55: D4 10        	pei	<L162+c_0
  4764 00:1A57: 22 xx xx xx  	jsl	~~i8080_inr
  4765 00:1A5B: E2 20        	sep	#$20
  4766                        	longa	off
  4767 00:1A5D: A0 1C 00     	ldy	#$1c
  4768 00:1A60: 97 10        	sta	[<L162+c_0],Y
  4769 00:1A62: C2 20        	rep	#$20
  4770                        	longa	on
  4771 00:1A64: 82 45 F7     	brl	L215
  4772                        ;  case 0x04: c->b = i8080_inr(c, c->b); break; //
                     INR B
  4773                        L10165:
  4774 00:1A67: A0 1D 00     	ldy	#$1d
  4775 00:1A6A: B7 10        	lda	[<L162+c_0],Y
  4776 00:1A6C: 48           	pha
  4777 00:1A6D: D4 12        	pei	<L162+c_0+2
  4778 00:1A6F: D4 10        	pei	<L162+c_0
  4779 00:1A71: 22 xx xx xx  	jsl	~~i8080_inr
  4780 00:1A75: E2 20        	sep	#$20
  4781                        	longa	off
  4782 00:1A77: A0 1D 00     	ldy	#$1d
  4783 00:1A7A: 97 10        	sta	[<L162+c_0],Y
  4784 00:1A7C: C2 20        	rep	#$20
  4785                        	longa	on
  4786 00:1A7E: 82 2B F7     	brl	L215
  4787                        ;  case 0x0C: c->c = i8080_inr(c, c->c); break; //
                     INR C
  4788                        L10166:
  4789 00:1A81: A0 1E 00     	ldy	#$1e
  4790 00:1A84: B7 10        	lda	[<L162+c_0],Y
  4791 00:1A86: 48           	pha
  4792 00:1A87: D4 12        	pei	<L162+c_0+2
  4793 00:1A89: D4 10        	pei	<L162+c_0
  4794 00:1A8B: 22 xx xx xx  	jsl	~~i8080_inr
  4795 00:1A8F: E2 20        	sep	#$20
  4796                        	longa	off
  4797 00:1A91: A0 1E 00     	ldy	#$1e
  4798 00:1A94: 97 10        	sta	[<L162+c_0],Y
  4799 00:1A96: C2 20        	rep	#$20
  4800                        	longa	on
  4801 00:1A98: 82 11 F7     	brl	L215
  4802                        ;  case 0x14: c->d = i8080_inr(c, c->d); break; //
                     INR D
  Sun Jan  9 2022 21:05                                                Page 87


  4803                        L10167:
  4804 00:1A9B: A0 1F 00     	ldy	#$1f
  4805 00:1A9E: B7 10        	lda	[<L162+c_0],Y
  4806 00:1AA0: 48           	pha
  4807 00:1AA1: D4 12        	pei	<L162+c_0+2
  4808 00:1AA3: D4 10        	pei	<L162+c_0
  4809 00:1AA5: 22 xx xx xx  	jsl	~~i8080_inr
  4810 00:1AA9: E2 20        	sep	#$20
  4811                        	longa	off
  4812 00:1AAB: A0 1F 00     	ldy	#$1f
  4813 00:1AAE: 97 10        	sta	[<L162+c_0],Y
  4814 00:1AB0: C2 20        	rep	#$20
  4815                        	longa	on
  4816 00:1AB2: 82 F7 F6     	brl	L215
  4817                        ;  case 0x1C: c->e = i8080_inr(c, c->e); break; //
                     INR E
  4818                        L10168:
  4819 00:1AB5: A0 20 00     	ldy	#$20
  4820 00:1AB8: B7 10        	lda	[<L162+c_0],Y
  4821 00:1ABA: 48           	pha
  4822 00:1ABB: D4 12        	pei	<L162+c_0+2
  4823 00:1ABD: D4 10        	pei	<L162+c_0
  4824 00:1ABF: 22 xx xx xx  	jsl	~~i8080_inr
  4825 00:1AC3: E2 20        	sep	#$20
  4826                        	longa	off
  4827 00:1AC5: A0 20 00     	ldy	#$20
  4828 00:1AC8: 97 10        	sta	[<L162+c_0],Y
  4829 00:1ACA: C2 20        	rep	#$20
  4830                        	longa	on
  4831 00:1ACC: 82 DD F6     	brl	L215
  4832                        ;  case 0x24: c->h = i8080_inr(c, c->h); break; //
                     INR H
  4833                        L10169:
  4834 00:1ACF: A0 21 00     	ldy	#$21
  4835 00:1AD2: B7 10        	lda	[<L162+c_0],Y
  4836 00:1AD4: 48           	pha
  4837 00:1AD5: D4 12        	pei	<L162+c_0+2
  4838 00:1AD7: D4 10        	pei	<L162+c_0
  4839 00:1AD9: 22 xx xx xx  	jsl	~~i8080_inr
  4840 00:1ADD: E2 20        	sep	#$20
  4841                        	longa	off
  4842 00:1ADF: A0 21 00     	ldy	#$21
  4843 00:1AE2: 97 10        	sta	[<L162+c_0],Y
  4844 00:1AE4: C2 20        	rep	#$20
  4845                        	longa	on
  4846 00:1AE6: 82 C3 F6     	brl	L215
  4847                        ;  case 0x2C: c->l = i8080_inr(c, c->l); break; //
                     INR L
  4848                        L10170:
  4849 00:1AE9: A0 22 00     	ldy	#$22
  4850 00:1AEC: B7 10        	lda	[<L162+c_0],Y
  4851 00:1AEE: 48           	pha
  4852 00:1AEF: D4 12        	pei	<L162+c_0+2
  4853 00:1AF1: D4 10        	pei	<L162+c_0
  4854 00:1AF3: 22 xx xx xx  	jsl	~~i8080_inr
  4855 00:1AF7: E2 20        	sep	#$20
  4856                        	longa	off
  4857 00:1AF9: A0 22 00     	ldy	#$22
  Sun Jan  9 2022 21:05                                                Page 88


  4858 00:1AFC: 97 10        	sta	[<L162+c_0],Y
  4859 00:1AFE: C2 20        	rep	#$20
  4860                        	longa	on
  4861 00:1B00: 82 A9 F6     	brl	L215
  4862                        ;  case 0x34:
  4863                        L10171:
  4864                        ;    i8080_wb(c, i8080_get_hl(c), i8080_inr(c, i80
                    80_rb(c, i8080_get_hl(c))));
  4865 00:1B03: D4 12        	pei	<L162+c_0+2
  4866 00:1B05: D4 10        	pei	<L162+c_0
  4867 00:1B07: 22 xx xx xx  	jsl	~~i8080_get_hl
  4868 00:1B0B: 48           	pha
  4869 00:1B0C: D4 12        	pei	<L162+c_0+2
  4870 00:1B0E: D4 10        	pei	<L162+c_0
  4871 00:1B10: 22 xx xx xx  	jsl	~~i8080_rb
  4872 00:1B14: 48           	pha
  4873 00:1B15: D4 12        	pei	<L162+c_0+2
  4874 00:1B17: D4 10        	pei	<L162+c_0
  4875 00:1B19: 22 xx xx xx  	jsl	~~i8080_inr
  4876                        ;    break; // INR M
  4877 00:1B1D: 82 B9 FA     	brl	L20056
  4878                        ;
  4879                        ;  case 0x3D: c->a = i8080_dcr(c, c->a); break; //
                     DCR A
  4880                        L10172:
  4881 00:1B20: A0 1C 00     	ldy	#$1c
  4882 00:1B23: B7 10        	lda	[<L162+c_0],Y
  4883 00:1B25: 48           	pha
  4884 00:1B26: D4 12        	pei	<L162+c_0+2
  4885 00:1B28: D4 10        	pei	<L162+c_0
  4886 00:1B2A: 22 xx xx xx  	jsl	~~i8080_dcr
  4887 00:1B2E: E2 20        	sep	#$20
  4888                        	longa	off
  4889 00:1B30: A0 1C 00     	ldy	#$1c
  4890 00:1B33: 97 10        	sta	[<L162+c_0],Y
  4891 00:1B35: C2 20        	rep	#$20
  4892                        	longa	on
  4893 00:1B37: 82 72 F6     	brl	L215
  4894                        ;  case 0x05: c->b = i8080_dcr(c, c->b); break; //
                     DCR B
  4895                        L10173:
  4896 00:1B3A: A0 1D 00     	ldy	#$1d
  4897 00:1B3D: B7 10        	lda	[<L162+c_0],Y
  4898 00:1B3F: 48           	pha
  4899 00:1B40: D4 12        	pei	<L162+c_0+2
  4900 00:1B42: D4 10        	pei	<L162+c_0
  4901 00:1B44: 22 xx xx xx  	jsl	~~i8080_dcr
  4902 00:1B48: E2 20        	sep	#$20
  4903                        	longa	off
  4904 00:1B4A: A0 1D 00     	ldy	#$1d
  4905 00:1B4D: 97 10        	sta	[<L162+c_0],Y
  4906 00:1B4F: C2 20        	rep	#$20
  4907                        	longa	on
  4908 00:1B51: 82 58 F6     	brl	L215
  4909                        ;  case 0x0D: c->c = i8080_dcr(c, c->c); break; //
                     DCR C
  4910                        L10174:
  4911 00:1B54: A0 1E 00     	ldy	#$1e
  Sun Jan  9 2022 21:05                                                Page 89


  4912 00:1B57: B7 10        	lda	[<L162+c_0],Y
  4913 00:1B59: 48           	pha
  4914 00:1B5A: D4 12        	pei	<L162+c_0+2
  4915 00:1B5C: D4 10        	pei	<L162+c_0
  4916 00:1B5E: 22 xx xx xx  	jsl	~~i8080_dcr
  4917 00:1B62: E2 20        	sep	#$20
  4918                        	longa	off
  4919 00:1B64: A0 1E 00     	ldy	#$1e
  4920 00:1B67: 97 10        	sta	[<L162+c_0],Y
  4921 00:1B69: C2 20        	rep	#$20
  4922                        	longa	on
  4923 00:1B6B: 82 3E F6     	brl	L215
  4924                        ;  case 0x15: c->d = i8080_dcr(c, c->d); break; //
                     DCR D
  4925                        L10175:
  4926 00:1B6E: A0 1F 00     	ldy	#$1f
  4927 00:1B71: B7 10        	lda	[<L162+c_0],Y
  4928 00:1B73: 48           	pha
  4929 00:1B74: D4 12        	pei	<L162+c_0+2
  4930 00:1B76: D4 10        	pei	<L162+c_0
  4931 00:1B78: 22 xx xx xx  	jsl	~~i8080_dcr
  4932 00:1B7C: E2 20        	sep	#$20
  4933                        	longa	off
  4934 00:1B7E: A0 1F 00     	ldy	#$1f
  4935 00:1B81: 97 10        	sta	[<L162+c_0],Y
  4936 00:1B83: C2 20        	rep	#$20
  4937                        	longa	on
  4938 00:1B85: 82 24 F6     	brl	L215
  4939                        ;  case 0x1D: c->e = i8080_dcr(c, c->e); break; //
                     DCR E
  4940                        L10176:
  4941 00:1B88: A0 20 00     	ldy	#$20
  4942 00:1B8B: B7 10        	lda	[<L162+c_0],Y
  4943 00:1B8D: 48           	pha
  4944 00:1B8E: D4 12        	pei	<L162+c_0+2
  4945 00:1B90: D4 10        	pei	<L162+c_0
  4946 00:1B92: 22 xx xx xx  	jsl	~~i8080_dcr
  4947 00:1B96: E2 20        	sep	#$20
  4948                        	longa	off
  4949 00:1B98: A0 20 00     	ldy	#$20
  4950 00:1B9B: 97 10        	sta	[<L162+c_0],Y
  4951 00:1B9D: C2 20        	rep	#$20
  4952                        	longa	on
  4953 00:1B9F: 82 0A F6     	brl	L215
  4954                        ;  case 0x25: c->h = i8080_dcr(c, c->h); break; //
                     DCR H
  4955                        L10177:
  4956 00:1BA2: A0 21 00     	ldy	#$21
  4957 00:1BA5: B7 10        	lda	[<L162+c_0],Y
  4958 00:1BA7: 48           	pha
  4959 00:1BA8: D4 12        	pei	<L162+c_0+2
  4960 00:1BAA: D4 10        	pei	<L162+c_0
  4961 00:1BAC: 22 xx xx xx  	jsl	~~i8080_dcr
  4962 00:1BB0: E2 20        	sep	#$20
  4963                        	longa	off
  4964 00:1BB2: A0 21 00     	ldy	#$21
  4965 00:1BB5: 97 10        	sta	[<L162+c_0],Y
  4966 00:1BB7: C2 20        	rep	#$20
  Sun Jan  9 2022 21:05                                                Page 90


  4967                        	longa	on
  4968 00:1BB9: 82 F0 F5     	brl	L215
  4969                        ;  case 0x2D: c->l = i8080_dcr(c, c->l); break; //
                     DCR L
  4970                        L10178:
  4971 00:1BBC: A0 22 00     	ldy	#$22
  4972 00:1BBF: B7 10        	lda	[<L162+c_0],Y
  4973 00:1BC1: 48           	pha
  4974 00:1BC2: D4 12        	pei	<L162+c_0+2
  4975 00:1BC4: D4 10        	pei	<L162+c_0
  4976 00:1BC6: 22 xx xx xx  	jsl	~~i8080_dcr
  4977 00:1BCA: E2 20        	sep	#$20
  4978                        	longa	off
  4979 00:1BCC: A0 22 00     	ldy	#$22
  4980 00:1BCF: 97 10        	sta	[<L162+c_0],Y
  4981 00:1BD1: C2 20        	rep	#$20
  4982                        	longa	on
  4983 00:1BD3: 82 D6 F5     	brl	L215
  4984                        ;  case 0x35:
  4985                        L10179:
  4986                        ;    i8080_wb(c, i8080_get_hl(c), i8080_dcr(c, i80
                    80_rb(c, i8080_get_hl(c))));
  4987 00:1BD6: D4 12        	pei	<L162+c_0+2
  4988 00:1BD8: D4 10        	pei	<L162+c_0
  4989 00:1BDA: 22 xx xx xx  	jsl	~~i8080_get_hl
  4990 00:1BDE: 48           	pha
  4991 00:1BDF: D4 12        	pei	<L162+c_0+2
  4992 00:1BE1: D4 10        	pei	<L162+c_0
  4993 00:1BE3: 22 xx xx xx  	jsl	~~i8080_rb
  4994 00:1BE7: 48           	pha
  4995 00:1BE8: D4 12        	pei	<L162+c_0+2
  4996 00:1BEA: D4 10        	pei	<L162+c_0
  4997 00:1BEC: 22 xx xx xx  	jsl	~~i8080_dcr
  4998                        ;    break; // DCR M
  4999 00:1BF0: 82 E6 F9     	brl	L20056
  5000                        ;
  5001                        ;  case 0x03: i8080_set_bc(c, i8080_get_bc(c) + 1)
                    ; break; // INX B
  5002                        L10180:
  5003 00:1BF3: D4 12        	pei	<L162+c_0+2
  5004 00:1BF5: D4 10        	pei	<L162+c_0
  5005 00:1BF7: 22 xx xx xx  	jsl	~~i8080_get_bc
  5006 00:1BFB: 1A           	ina
  5007 00:1BFC: 82 DF FA     	brl	L20082
  5008                        ;  case 0x13: i8080_set_de(c, i8080_get_de(c) + 1)
                    ; break; // INX D
  5009                        L10181:
  5010 00:1BFF: D4 12        	pei	<L162+c_0+2
  5011 00:1C01: D4 10        	pei	<L162+c_0
  5012 00:1C03: 22 xx xx xx  	jsl	~~i8080_get_de
  5013 00:1C07: 1A           	ina
  5014 00:1C08: 82 E7 FA     	brl	L20092
  5015                        ;  case 0x23: i8080_set_hl(c, i8080_get_hl(c) + 1)
                    ; break; // INX H
  5016                        L10182:
  5017 00:1C0B: D4 12        	pei	<L162+c_0+2
  5018 00:1C0D: D4 10        	pei	<L162+c_0
  5019 00:1C0F: 22 xx xx xx  	jsl	~~i8080_get_hl
  Sun Jan  9 2022 21:05                                                Page 91


  5020 00:1C13: 1A           	ina
  5021 00:1C14: 82 EF FA     	brl	L20102
  5022                        ;  case 0x33: c->sp += 1; break; // INX SP
  5023                        L10183:
  5024 00:1C17: A9 1A 00     	lda	#$1a
  5025 00:1C1A: 18           	clc
  5026 00:1C1B: 65 10        	adc	<L162+c_0
  5027 00:1C1D: 85 01        	sta	<R0
  5028 00:1C1F: A9 00 00     	lda	#$0
  5029 00:1C22: 65 12        	adc	<L162+c_0+2
  5030 00:1C24: 85 03        	sta	<R0+2
  5031 00:1C26: A7 01        	lda	[<R0]
  5032 00:1C28: 1A           	ina
  5033                        L20532:
  5034 00:1C29: 87 01        	sta	[<R0]
  5035 00:1C2B: 82 7E F5     	brl	L215
  5036                        ;
  5037                        ;  case 0x0B: i8080_set_bc(c, i8080_get_bc(c) - 1)
                    ; break; // DCX B
  5038                        L10184:
  5039 00:1C2E: D4 12        	pei	<L162+c_0+2
  5040 00:1C30: D4 10        	pei	<L162+c_0
  5041 00:1C32: 22 xx xx xx  	jsl	~~i8080_get_bc
  5042 00:1C36: 18           	clc
  5043 00:1C37: 69 FF FF     	adc	#$ffff
  5044 00:1C3A: 82 A1 FA     	brl	L20082
  5045                        ;  case 0x1B: i8080_set_de(c, i8080_get_de(c) - 1)
                    ; break; // DCX D
  5046                        L10185:
  5047 00:1C3D: D4 12        	pei	<L162+c_0+2
  5048 00:1C3F: D4 10        	pei	<L162+c_0
  5049 00:1C41: 22 xx xx xx  	jsl	~~i8080_get_de
  5050 00:1C45: 18           	clc
  5051 00:1C46: 69 FF FF     	adc	#$ffff
  5052 00:1C49: 82 A6 FA     	brl	L20092
  5053                        ;  case 0x2B: i8080_set_hl(c, i8080_get_hl(c) - 1)
                    ; break; // DCX H
  5054                        L10186:
  5055 00:1C4C: D4 12        	pei	<L162+c_0+2
  5056 00:1C4E: D4 10        	pei	<L162+c_0
  5057 00:1C50: 22 xx xx xx  	jsl	~~i8080_get_hl
  5058 00:1C54: 18           	clc
  5059 00:1C55: 69 FF FF     	adc	#$ffff
  5060 00:1C58: 82 AB FA     	brl	L20102
  5061                        ;  case 0x3B: c->sp -= 1; break; // DCX SP
  5062                        L10187:
  5063 00:1C5B: A9 1A 00     	lda	#$1a
  5064 00:1C5E: 18           	clc
  5065 00:1C5F: 65 10        	adc	<L162+c_0
  5066 00:1C61: 85 01        	sta	<R0
  5067 00:1C63: A9 00 00     	lda	#$0
  5068 00:1C66: 65 12        	adc	<L162+c_0+2
  5069 00:1C68: 85 03        	sta	<R0+2
  5070 00:1C6A: A9 FF FF     	lda	#$ffff
  5071 00:1C6D: 18           	clc
  5072 00:1C6E: 67 01        	adc	[<R0]
  5073 00:1C70: 80 B7        	bra	L20532
  5074                        ;
  Sun Jan  9 2022 21:05                                                Page 92


  5075                        ;  case 0x27: i8080_daa(c); break; // DAA
  5076                        L10188:
  5077 00:1C72: D4 12        	pei	<L162+c_0+2
  5078 00:1C74: D4 10        	pei	<L162+c_0
  5079 00:1C76: 22 xx xx xx  	jsl	~~i8080_daa
  5080 00:1C7A: 82 2F F5     	brl	L215
  5081                        ;  case 0x2F: c->a = ~c->a; break; // CMA
  5082                        L10189:
  5083 00:1C7D: E2 20        	sep	#$20
  5084                        	longa	off
  5085 00:1C7F: A0 1C 00     	ldy	#$1c
  5086 00:1C82: B7 10        	lda	[<L162+c_0],Y
  5087 00:1C84: 49 FF        	eor	#<$ffffffff
  5088 00:1C86: 97 10        	sta	[<L162+c_0],Y
  5089 00:1C88: C2 20        	rep	#$20
  5090                        	longa	on
  5091 00:1C8A: 82 1F F5     	brl	L215
  5092                        ;  case 0x37: c->cf = 1; break; // STC
  5093                        L10190:
  5094 00:1C8D: A0 23 00     	ldy	#$23
  5095 00:1C90: B7 10        	lda	[<L162+c_0],Y
  5096 00:1C92: 09 10 00     	ora	#<$10
  5097 00:1C95: 82 8D FD     	brl	L20531
  5098                        ;  case 0x3F: c->cf = !c->cf; break; // CMC
  5099                        L10191:
  5100 00:1C98: 64 01        	stz	<R0
  5101 00:1C9A: A0 23 00     	ldy	#$23
  5102 00:1C9D: B7 10        	lda	[<L162+c_0],Y
  5103 00:1C9F: 89 10 00     	bit	#$10
  5104 00:1CA2: D0 02        	bne	L165
  5105 00:1CA4: E6 01        	inc	<R0
  5106                        L165:
  5107 00:1CA6: 06 01        	asl	<R0
  5108 00:1CA8: 06 01        	asl	<R0
  5109 00:1CAA: 06 01        	asl	<R0
  5110 00:1CAC: 06 01        	asl	<R0
  5111 00:1CAE: A5 01        	lda	<R0
  5112 00:1CB0: 29 10 00     	and	#<$10
  5113 00:1CB3: 85 01        	sta	<R0
  5114 00:1CB5: A0 23 00     	ldy	#$23
  5115 00:1CB8: B7 10        	lda	[<L162+c_0],Y
  5116 00:1CBA: 29 EF FF     	and	#<$ffffffef
  5117 00:1CBD: 97 10        	sta	[<L162+c_0],Y
  5118 00:1CBF: 05 01        	ora	<R0
  5119 00:1CC1: 82 61 FD     	brl	L20531
  5120                        ;
  5121                        ;  case 0x07: i8080_rlc(c); break; // RLC (rotate 
                    left)
  5122                        L10192:
  5123 00:1CC4: D4 12        	pei	<L162+c_0+2
  5124 00:1CC6: D4 10        	pei	<L162+c_0
  5125 00:1CC8: 22 xx xx xx  	jsl	~~i8080_rlc
  5126 00:1CCC: 82 DD F4     	brl	L215
  5127                        ;  case 0x0F: i8080_rrc(c); break; // RRC (rotate 
                    right)
  5128                        L10193:
  5129 00:1CCF: D4 12        	pei	<L162+c_0+2
  5130 00:1CD1: D4 10        	pei	<L162+c_0
  Sun Jan  9 2022 21:05                                                Page 93


  5131 00:1CD3: 22 xx xx xx  	jsl	~~i8080_rrc
  5132 00:1CD7: 82 D2 F4     	brl	L215
  5133                        ;  case 0x17: i8080_ral(c); break; // RAL
  5134                        L10194:
  5135 00:1CDA: D4 12        	pei	<L162+c_0+2
  5136 00:1CDC: D4 10        	pei	<L162+c_0
  5137 00:1CDE: 22 xx xx xx  	jsl	~~i8080_ral
  5138 00:1CE2: 82 C7 F4     	brl	L215
  5139                        ;  case 0x1F: i8080_rar(c); break; // RAR
  5140                        L10195:
  5141 00:1CE5: D4 12        	pei	<L162+c_0+2
  5142 00:1CE7: D4 10        	pei	<L162+c_0
  5143 00:1CE9: 22 xx xx xx  	jsl	~~i8080_rar
  5144 00:1CED: 82 BC F4     	brl	L215
  5145                        ;
  5146                        ;  case 0xA7: i8080_ana(c, c->a); break; // ANA A
  5147                        L10196:
  5148 00:1CF0: A0 1C 00     	ldy	#$1c
  5149                        L20537:
  5150 00:1CF3: B7 10        	lda	[<L162+c_0],Y
  5151                        L20561:
  5152 00:1CF5: 48           	pha
  5153 00:1CF6: D4 12        	pei	<L162+c_0+2
  5154 00:1CF8: D4 10        	pei	<L162+c_0
  5155 00:1CFA: 22 xx xx xx  	jsl	~~i8080_ana
  5156 00:1CFE: 82 AB F4     	brl	L215
  5157                        ;  case 0xA0: i8080_ana(c, c->b); break; // ANA B
  5158                        L10197:
  5159 00:1D01: A0 1D 00     	ldy	#$1d
  5160 00:1D04: 80 ED        	bra	L20537
  5161                        ;  case 0xA1: i8080_ana(c, c->c); break; // ANA C
  5162                        L10198:
  5163 00:1D06: A0 1E 00     	ldy	#$1e
  5164 00:1D09: 80 E8        	bra	L20537
  5165                        ;  case 0xA2: i8080_ana(c, c->d); break; // ANA D
  5166                        L10199:
  5167 00:1D0B: A0 1F 00     	ldy	#$1f
  5168 00:1D0E: 80 E3        	bra	L20537
  5169                        ;  case 0xA3: i8080_ana(c, c->e); break; // ANA E
  5170                        L10200:
  5171 00:1D10: A0 20 00     	ldy	#$20
  5172 00:1D13: 80 DE        	bra	L20537
  5173                        ;  case 0xA4: i8080_ana(c, c->h); break; // ANA H
  5174                        L10201:
  5175 00:1D15: A0 21 00     	ldy	#$21
  5176 00:1D18: 80 D9        	bra	L20537
  5177                        ;  case 0xA5: i8080_ana(c, c->l); break; // ANA L
  5178                        L10202:
  5179 00:1D1A: A0 22 00     	ldy	#$22
  5180 00:1D1D: 80 D4        	bra	L20537
  5181                        ;  case 0xA6: i8080_ana(c, i8080_rb(c, i8080_get_h
                    l(c))); break; // ANA M
  5182                        L10203:
  5183 00:1D1F: D4 12        	pei	<L162+c_0+2
  5184 00:1D21: D4 10        	pei	<L162+c_0
  5185 00:1D23: 22 xx xx xx  	jsl	~~i8080_get_hl
  5186 00:1D27: 48           	pha
  5187 00:1D28: D4 12        	pei	<L162+c_0+2
  Sun Jan  9 2022 21:05                                                Page 94


  5188 00:1D2A: D4 10        	pei	<L162+c_0
  5189 00:1D2C: 22 xx xx xx  	jsl	~~i8080_rb
  5190 00:1D30: 80 C3        	bra	L20561
  5191                        ;  case 0xE6: i8080_ana(c, i8080_next_byte(c)); br
                    eak; // ANI byte
  5192                        L10204:
  5193 00:1D32: D4 12        	pei	<L162+c_0+2
  5194 00:1D34: D4 10        	pei	<L162+c_0
  5195 00:1D36: 22 xx xx xx  	jsl	~~i8080_next_byte
  5196 00:1D3A: 80 B9        	bra	L20561
  5197                        ;
  5198                        ;  case 0xAF: i8080_xra(c, c->a); break; // XRA A
  5199                        L10205:
  5200 00:1D3C: A0 1C 00     	ldy	#$1c
  5201                        L20569:
  5202 00:1D3F: B7 10        	lda	[<L162+c_0],Y
  5203                        L20593:
  5204 00:1D41: 48           	pha
  5205 00:1D42: D4 12        	pei	<L162+c_0+2
  5206 00:1D44: D4 10        	pei	<L162+c_0
  5207 00:1D46: 22 xx xx xx  	jsl	~~i8080_xra
  5208 00:1D4A: 82 5F F4     	brl	L215
  5209                        ;  case 0xA8: i8080_xra(c, c->b); break; // XRA B
  5210                        L10206:
  5211 00:1D4D: A0 1D 00     	ldy	#$1d
  5212 00:1D50: 80 ED        	bra	L20569
  5213                        ;  case 0xA9: i8080_xra(c, c->c); break; // XRA C
  5214                        L10207:
  5215 00:1D52: A0 1E 00     	ldy	#$1e
  5216 00:1D55: 80 E8        	bra	L20569
  5217                        ;  case 0xAA: i8080_xra(c, c->d); break; // XRA D
  5218                        L10208:
  5219 00:1D57: A0 1F 00     	ldy	#$1f
  5220 00:1D5A: 80 E3        	bra	L20569
  5221                        ;  case 0xAB: i8080_xra(c, c->e); break; // XRA E
  5222                        L10209:
  5223 00:1D5C: A0 20 00     	ldy	#$20
  5224 00:1D5F: 80 DE        	bra	L20569
  5225                        ;  case 0xAC: i8080_xra(c, c->h); break; // XRA H
  5226                        L10210:
  5227 00:1D61: A0 21 00     	ldy	#$21
  5228 00:1D64: 80 D9        	bra	L20569
  5229                        ;  case 0xAD: i8080_xra(c, c->l); break; // XRA L
  5230                        L10211:
  5231 00:1D66: A0 22 00     	ldy	#$22
  5232 00:1D69: 80 D4        	bra	L20569
  5233                        ;  case 0xAE: i8080_xra(c, i8080_rb(c, i8080_get_h
                    l(c))); break; // XRA M
  5234                        L10212:
  5235 00:1D6B: D4 12        	pei	<L162+c_0+2
  5236 00:1D6D: D4 10        	pei	<L162+c_0
  5237 00:1D6F: 22 xx xx xx  	jsl	~~i8080_get_hl
  5238 00:1D73: 48           	pha
  5239 00:1D74: D4 12        	pei	<L162+c_0+2
  5240 00:1D76: D4 10        	pei	<L162+c_0
  5241 00:1D78: 22 xx xx xx  	jsl	~~i8080_rb
  5242 00:1D7C: 80 C3        	bra	L20593
  5243                        ;  case 0xEE: i8080_xra(c, i8080_next_byte(c)); br
  Sun Jan  9 2022 21:05                                                Page 95


                    eak; // XRI byte
  5244                        L10213:
  5245 00:1D7E: D4 12        	pei	<L162+c_0+2
  5246 00:1D80: D4 10        	pei	<L162+c_0
  5247 00:1D82: 22 xx xx xx  	jsl	~~i8080_next_byte
  5248 00:1D86: 80 B9        	bra	L20593
  5249                        ;
  5250                        ;  case 0xB7: i8080_ora(c, c->a); break; // ORA A
  5251                        L10214:
  5252 00:1D88: A0 1C 00     	ldy	#$1c
  5253                        L20601:
  5254 00:1D8B: B7 10        	lda	[<L162+c_0],Y
  5255                        L20625:
  5256 00:1D8D: 48           	pha
  5257 00:1D8E: D4 12        	pei	<L162+c_0+2
  5258 00:1D90: D4 10        	pei	<L162+c_0
  5259 00:1D92: 22 xx xx xx  	jsl	~~i8080_ora
  5260 00:1D96: 82 13 F4     	brl	L215
  5261                        ;  case 0xB0: i8080_ora(c, c->b); break; // ORA B
  5262                        L10215:
  5263 00:1D99: A0 1D 00     	ldy	#$1d
  5264 00:1D9C: 80 ED        	bra	L20601
  5265                        ;  case 0xB1: i8080_ora(c, c->c); break; // ORA C
  5266                        L10216:
  5267 00:1D9E: A0 1E 00     	ldy	#$1e
  5268 00:1DA1: 80 E8        	bra	L20601
  5269                        ;  case 0xB2: i8080_ora(c, c->d); break; // ORA D
  5270                        L10217:
  5271 00:1DA3: A0 1F 00     	ldy	#$1f
  5272 00:1DA6: 80 E3        	bra	L20601
  5273                        ;  case 0xB3: i8080_ora(c, c->e); break; // ORA E
  5274                        L10218:
  5275 00:1DA8: A0 20 00     	ldy	#$20
  5276 00:1DAB: 80 DE        	bra	L20601
  5277                        ;  case 0xB4: i8080_ora(c, c->h); break; // ORA H
  5278                        L10219:
  5279 00:1DAD: A0 21 00     	ldy	#$21
  5280 00:1DB0: 80 D9        	bra	L20601
  5281                        ;  case 0xB5: i8080_ora(c, c->l); break; // ORA L
  5282                        L10220:
  5283 00:1DB2: A0 22 00     	ldy	#$22
  5284 00:1DB5: 80 D4        	bra	L20601
  5285                        ;  case 0xB6: i8080_ora(c, i8080_rb(c, i8080_get_h
                    l(c))); break; // ORA M
  5286                        L10221:
  5287 00:1DB7: D4 12        	pei	<L162+c_0+2
  5288 00:1DB9: D4 10        	pei	<L162+c_0
  5289 00:1DBB: 22 xx xx xx  	jsl	~~i8080_get_hl
  5290 00:1DBF: 48           	pha
  5291 00:1DC0: D4 12        	pei	<L162+c_0+2
  5292 00:1DC2: D4 10        	pei	<L162+c_0
  5293 00:1DC4: 22 xx xx xx  	jsl	~~i8080_rb
  5294 00:1DC8: 80 C3        	bra	L20625
  5295                        ;  case 0xF6: i8080_ora(c, i8080_next_byte(c)); br
                    eak; // ORI byte
  5296                        L10222:
  5297 00:1DCA: D4 12        	pei	<L162+c_0+2
  5298 00:1DCC: D4 10        	pei	<L162+c_0
  Sun Jan  9 2022 21:05                                                Page 96


  5299 00:1DCE: 22 xx xx xx  	jsl	~~i8080_next_byte
  5300 00:1DD2: 80 B9        	bra	L20625
  5301                        ;
  5302                        ;  case 0xBF: i8080_cmp(c, c->a); break; // CMP A
  5303                        L10223:
  5304 00:1DD4: A0 1C 00     	ldy	#$1c
  5305                        L20633:
  5306 00:1DD7: B7 10        	lda	[<L162+c_0],Y
  5307                        L20657:
  5308 00:1DD9: 48           	pha
  5309 00:1DDA: D4 12        	pei	<L162+c_0+2
  5310 00:1DDC: D4 10        	pei	<L162+c_0
  5311 00:1DDE: 22 xx xx xx  	jsl	~~i8080_cmp
  5312 00:1DE2: 82 C7 F3     	brl	L215
  5313                        ;  case 0xB8: i8080_cmp(c, c->b); break; // CMP B
  5314                        L10224:
  5315 00:1DE5: A0 1D 00     	ldy	#$1d
  5316 00:1DE8: 80 ED        	bra	L20633
  5317                        ;  case 0xB9: i8080_cmp(c, c->c); break; // CMP C
  5318                        L10225:
  5319 00:1DEA: A0 1E 00     	ldy	#$1e
  5320 00:1DED: 80 E8        	bra	L20633
  5321                        ;  case 0xBA: i8080_cmp(c, c->d); break; // CMP D
  5322                        L10226:
  5323 00:1DEF: A0 1F 00     	ldy	#$1f
  5324 00:1DF2: 80 E3        	bra	L20633
  5325                        ;  case 0xBB: i8080_cmp(c, c->e); break; // CMP E
  5326                        L10227:
  5327 00:1DF4: A0 20 00     	ldy	#$20
  5328 00:1DF7: 80 DE        	bra	L20633
  5329                        ;  case 0xBC: i8080_cmp(c, c->h); break; // CMP H
  5330                        L10228:
  5331 00:1DF9: A0 21 00     	ldy	#$21
  5332 00:1DFC: 80 D9        	bra	L20633
  5333                        ;  case 0xBD: i8080_cmp(c, c->l); break; // CMP L
  5334                        L10229:
  5335 00:1DFE: A0 22 00     	ldy	#$22
  5336 00:1E01: 80 D4        	bra	L20633
  5337                        ;  case 0xBE: i8080_cmp(c, i8080_rb(c, i8080_get_h
                    l(c))); break; // CMP M
  5338                        L10230:
  5339 00:1E03: D4 12        	pei	<L162+c_0+2
  5340 00:1E05: D4 10        	pei	<L162+c_0
  5341 00:1E07: 22 xx xx xx  	jsl	~~i8080_get_hl
  5342 00:1E0B: 48           	pha
  5343 00:1E0C: D4 12        	pei	<L162+c_0+2
  5344 00:1E0E: D4 10        	pei	<L162+c_0
  5345 00:1E10: 22 xx xx xx  	jsl	~~i8080_rb
  5346 00:1E14: 80 C3        	bra	L20657
  5347                        ;  case 0xFE: i8080_cmp(c, i8080_next_byte(c)); br
                    eak; // CPI byte
  5348                        L10231:
  5349 00:1E16: D4 12        	pei	<L162+c_0+2
  5350 00:1E18: D4 10        	pei	<L162+c_0
  5351 00:1E1A: 22 xx xx xx  	jsl	~~i8080_next_byte
  5352 00:1E1E: 80 B9        	bra	L20657
  5353                        ;
  5354                        ;  case 0xC3: i8080_jmp(c, i8080_next_word(c)); br
  Sun Jan  9 2022 21:05                                                Page 97


                    eak; // JMP
  5355                        L10232:
  5356 00:1E20: D4 12        	pei	<L162+c_0+2
  5357 00:1E22: D4 10        	pei	<L162+c_0
  5358 00:1E24: 22 xx xx xx  	jsl	~~i8080_next_word
  5359 00:1E28: 48           	pha
  5360 00:1E29: D4 12        	pei	<L162+c_0+2
  5361 00:1E2B: D4 10        	pei	<L162+c_0
  5362 00:1E2D: 22 xx xx xx  	jsl	~~i8080_jmp
  5363 00:1E31: 82 78 F3     	brl	L215
  5364                        ;  case 0xC2: i8080_cond_jmp(c, c->zf == 0); break
                    ; // JNZ
  5365                        L10233:
  5366 00:1E34: 64 01        	stz	<R0
  5367 00:1E36: A0 23 00     	ldy	#$23
  5368 00:1E39: B7 10        	lda	[<L162+c_0],Y
  5369 00:1E3B: 89 02 00     	bit	#$2
  5370                        L20764:
  5371 00:1E3E: D0 02        	bne	L167
  5372                        L20761:
  5373 00:1E40: E6 01        	inc	<R0
  5374                        L167:
  5375 00:1E42: D4 01        	pei	<R0
  5376 00:1E44: D4 12        	pei	<L162+c_0+2
  5377 00:1E46: D4 10        	pei	<L162+c_0
  5378 00:1E48: 22 xx xx xx  	jsl	~~i8080_cond_jmp
  5379 00:1E4C: 82 5D F3     	brl	L215
  5380                        ;  case 0xCA: i8080_cond_jmp(c, c->zf == 1); break
                    ; // JZ
  5381                        L10234:
  5382 00:1E4F: 64 01        	stz	<R0
  5383 00:1E51: A0 23 00     	ldy	#$23
  5384 00:1E54: B7 10        	lda	[<L162+c_0],Y
  5385 00:1E56: 89 02 00     	bit	#$2
  5386                        L20769:
  5387 00:1E59: F0 E7        	beq	L167
  5388 00:1E5B: 80 E3        	bra	L20761
  5389                        ;  case 0xD2: i8080_cond_jmp(c, c->cf == 0); break
                    ; // JNC
  5390                        L10235:
  5391 00:1E5D: 64 01        	stz	<R0
  5392 00:1E5F: A0 23 00     	ldy	#$23
  5393 00:1E62: B7 10        	lda	[<L162+c_0],Y
  5394 00:1E64: 89 10 00     	bit	#$10
  5395 00:1E67: 80 D5        	bra	L20764
  5396                        ;  case 0xDA: i8080_cond_jmp(c, c->cf == 1); break
                    ; // JC
  5397                        L10236:
  5398 00:1E69: 64 01        	stz	<R0
  5399 00:1E6B: A0 23 00     	ldy	#$23
  5400 00:1E6E: B7 10        	lda	[<L162+c_0],Y
  5401 00:1E70: 89 10 00     	bit	#$10
  5402 00:1E73: 80 E4        	bra	L20769
  5403                        ;  case 0xE2: i8080_cond_jmp(c, c->pf == 0); break
                    ; // JPO
  5404                        L10237:
  5405 00:1E75: 64 01        	stz	<R0
  5406 00:1E77: A0 23 00     	ldy	#$23
  Sun Jan  9 2022 21:05                                                Page 98


  5407 00:1E7A: B7 10        	lda	[<L162+c_0],Y
  5408 00:1E7C: 89 08 00     	bit	#$8
  5409 00:1E7F: 80 BD        	bra	L20764
  5410                        ;  case 0xEA: i8080_cond_jmp(c, c->pf == 1); break
                    ; // JPE
  5411                        L10238:
  5412 00:1E81: 64 01        	stz	<R0
  5413 00:1E83: A0 23 00     	ldy	#$23
  5414 00:1E86: B7 10        	lda	[<L162+c_0],Y
  5415 00:1E88: 89 08 00     	bit	#$8
  5416 00:1E8B: 80 CC        	bra	L20769
  5417                        ;  case 0xF2: i8080_cond_jmp(c, c->sf == 0); break
                    ; // JP
  5418                        L10239:
  5419 00:1E8D: 64 01        	stz	<R0
  5420 00:1E8F: A0 23 00     	ldy	#$23
  5421 00:1E92: B7 10        	lda	[<L162+c_0],Y
  5422 00:1E94: 89 01 00     	bit	#$1
  5423 00:1E97: 80 A5        	bra	L20764
  5424                        ;  case 0xFA: i8080_cond_jmp(c, c->sf == 1); break
                    ; // JM
  5425                        L10240:
  5426 00:1E99: 64 01        	stz	<R0
  5427 00:1E9B: A0 23 00     	ldy	#$23
  5428 00:1E9E: B7 10        	lda	[<L162+c_0],Y
  5429 00:1EA0: 89 01 00     	bit	#$1
  5430 00:1EA3: 80 B4        	bra	L20769
  5431                        ;
  5432                        ;  case 0xE9: c->pc = i8080_get_hl(c); break; // P
                    CHL
  5433                        L10241:
  5434 00:1EA5: D4 12        	pei	<L162+c_0+2
  5435 00:1EA7: D4 10        	pei	<L162+c_0
  5436 00:1EA9: 22 xx xx xx  	jsl	~~i8080_get_hl
  5437 00:1EAD: A0 18 00     	ldy	#$18
  5438 00:1EB0: 82 6A F8     	brl	L20114
  5439                        ;  case 0xCD: i8080_call(c, i8080_next_word(c)); b
                    reak; // CALL
  5440                        L10242:
  5441 00:1EB3: D4 12        	pei	<L162+c_0+2
  5442 00:1EB5: D4 10        	pei	<L162+c_0
  5443 00:1EB7: 22 xx xx xx  	jsl	~~i8080_next_word
  5444 00:1EBB: 48           	pha
  5445                        L20690:
  5446 00:1EBC: D4 12        	pei	<L162+c_0+2
  5447 00:1EBE: D4 10        	pei	<L162+c_0
  5448 00:1EC0: 22 xx xx xx  	jsl	~~i8080_call
  5449 00:1EC4: 82 E5 F2     	brl	L215
  5450                        ;
  5451                        ;  case 0xC4: i8080_cond_call(c, c->zf == 0); brea
                    k; // CNZ
  5452                        L10243:
  5453 00:1EC7: 64 01        	stz	<R0
  5454 00:1EC9: A0 23 00     	ldy	#$23
  5455 00:1ECC: B7 10        	lda	[<L162+c_0],Y
  5456 00:1ECE: 89 02 00     	bit	#$2
  5457                        L20765:
  5458 00:1ED1: D0 02        	bne	L183
  Sun Jan  9 2022 21:05                                                Page 99


  5459                        L20762:
  5460 00:1ED3: E6 01        	inc	<R0
  5461                        L183:
  5462 00:1ED5: D4 01        	pei	<R0
  5463 00:1ED7: D4 12        	pei	<L162+c_0+2
  5464 00:1ED9: D4 10        	pei	<L162+c_0
  5465 00:1EDB: 22 xx xx xx  	jsl	~~i8080_cond_call
  5466 00:1EDF: 82 CA F2     	brl	L215
  5467                        ;  case 0xCC: i8080_cond_call(c, c->zf == 1); brea
                    k; // CZ
  5468                        L10244:
  5469 00:1EE2: 64 01        	stz	<R0
  5470 00:1EE4: A0 23 00     	ldy	#$23
  5471 00:1EE7: B7 10        	lda	[<L162+c_0],Y
  5472 00:1EE9: 89 02 00     	bit	#$2
  5473                        L20770:
  5474 00:1EEC: F0 E7        	beq	L183
  5475 00:1EEE: 80 E3        	bra	L20762
  5476                        ;  case 0xD4: i8080_cond_call(c, c->cf == 0); brea
                    k; // CNC
  5477                        L10245:
  5478 00:1EF0: 64 01        	stz	<R0
  5479 00:1EF2: A0 23 00     	ldy	#$23
  5480 00:1EF5: B7 10        	lda	[<L162+c_0],Y
  5481 00:1EF7: 89 10 00     	bit	#$10
  5482 00:1EFA: 80 D5        	bra	L20765
  5483                        ;  case 0xDC: i8080_cond_call(c, c->cf == 1); brea
                    k; // CC
  5484                        L10246:
  5485 00:1EFC: 64 01        	stz	<R0
  5486 00:1EFE: A0 23 00     	ldy	#$23
  5487 00:1F01: B7 10        	lda	[<L162+c_0],Y
  5488 00:1F03: 89 10 00     	bit	#$10
  5489 00:1F06: 80 E4        	bra	L20770
  5490                        ;  case 0xE4: i8080_cond_call(c, c->pf == 0); brea
                    k; // CPO
  5491                        L10247:
  5492 00:1F08: 64 01        	stz	<R0
  5493 00:1F0A: A0 23 00     	ldy	#$23
  5494 00:1F0D: B7 10        	lda	[<L162+c_0],Y
  5495 00:1F0F: 89 08 00     	bit	#$8
  5496 00:1F12: 80 BD        	bra	L20765
  5497                        ;  case 0xEC: i8080_cond_call(c, c->pf == 1); brea
                    k; // CPE
  5498                        L10248:
  5499 00:1F14: 64 01        	stz	<R0
  5500 00:1F16: A0 23 00     	ldy	#$23
  5501 00:1F19: B7 10        	lda	[<L162+c_0],Y
  5502 00:1F1B: 89 08 00     	bit	#$8
  5503 00:1F1E: 80 CC        	bra	L20770
  5504                        ;  case 0xF4: i8080_cond_call(c, c->sf == 0); brea
                    k; // CP
  5505                        L10249:
  5506 00:1F20: 64 01        	stz	<R0
  5507 00:1F22: A0 23 00     	ldy	#$23
  5508 00:1F25: B7 10        	lda	[<L162+c_0],Y
  5509 00:1F27: 89 01 00     	bit	#$1
  5510 00:1F2A: 80 A5        	bra	L20765
  Sun Jan  9 2022 21:05                                                Page 100


  5511                        ;  case 0xFC: i8080_cond_call(c, c->sf == 1); brea
                    k; // CM
  5512                        L10250:
  5513 00:1F2C: 64 01        	stz	<R0
  5514 00:1F2E: A0 23 00     	ldy	#$23
  5515 00:1F31: B7 10        	lda	[<L162+c_0],Y
  5516 00:1F33: 89 01 00     	bit	#$1
  5517 00:1F36: 80 B4        	bra	L20770
  5518                        ;
  5519                        ;  case 0xC9: i8080_ret(c); break; // RET
  5520                        L10251:
  5521 00:1F38: D4 12        	pei	<L162+c_0+2
  5522 00:1F3A: D4 10        	pei	<L162+c_0
  5523 00:1F3C: 22 xx xx xx  	jsl	~~i8080_ret
  5524 00:1F40: 82 69 F2     	brl	L215
  5525                        ;  case 0xC0: i8080_cond_ret(c, c->zf == 0); break
                    ; // RNZ
  5526                        L10252:
  5527 00:1F43: 64 01        	stz	<R0
  5528 00:1F45: A0 23 00     	ldy	#$23
  5529 00:1F48: B7 10        	lda	[<L162+c_0],Y
  5530 00:1F4A: 89 02 00     	bit	#$2
  5531                        L20766:
  5532 00:1F4D: D0 02        	bne	L199
  5533                        L20763:
  5534 00:1F4F: E6 01        	inc	<R0
  5535                        L199:
  5536 00:1F51: D4 01        	pei	<R0
  5537 00:1F53: D4 12        	pei	<L162+c_0+2
  5538 00:1F55: D4 10        	pei	<L162+c_0
  5539 00:1F57: 22 xx xx xx  	jsl	~~i8080_cond_ret
  5540 00:1F5B: 82 4E F2     	brl	L215
  5541                        ;  case 0xC8: i8080_cond_ret(c, c->zf == 1); break
                    ; // RZ
  5542                        L10253:
  5543 00:1F5E: 64 01        	stz	<R0
  5544 00:1F60: A0 23 00     	ldy	#$23
  5545 00:1F63: B7 10        	lda	[<L162+c_0],Y
  5546 00:1F65: 89 02 00     	bit	#$2
  5547                        L20771:
  5548 00:1F68: F0 E7        	beq	L199
  5549 00:1F6A: 80 E3        	bra	L20763
  5550                        ;  case 0xD0: i8080_cond_ret(c, c->cf == 0); break
                    ; // RNC
  5551                        L10254:
  5552 00:1F6C: 64 01        	stz	<R0
  5553 00:1F6E: A0 23 00     	ldy	#$23
  5554 00:1F71: B7 10        	lda	[<L162+c_0],Y
  5555 00:1F73: 89 10 00     	bit	#$10
  5556 00:1F76: 80 D5        	bra	L20766
  5557                        ;  case 0xD8: i8080_cond_ret(c, c->cf == 1); break
                    ; // RC
  5558                        L10255:
  5559 00:1F78: 64 01        	stz	<R0
  5560 00:1F7A: A0 23 00     	ldy	#$23
  5561 00:1F7D: B7 10        	lda	[<L162+c_0],Y
  5562 00:1F7F: 89 10 00     	bit	#$10
  5563 00:1F82: 80 E4        	bra	L20771
  Sun Jan  9 2022 21:05                                                Page 101


  5564                        ;  case 0xE0: i8080_cond_ret(c, c->pf == 0); break
                    ; // RPO
  5565                        L10256:
  5566 00:1F84: 64 01        	stz	<R0
  5567 00:1F86: A0 23 00     	ldy	#$23
  5568 00:1F89: B7 10        	lda	[<L162+c_0],Y
  5569 00:1F8B: 89 08 00     	bit	#$8
  5570 00:1F8E: 80 BD        	bra	L20766
  5571                        ;  case 0xE8: i8080_cond_ret(c, c->pf == 1); break
                    ; // RPE
  5572                        L10257:
  5573 00:1F90: 64 01        	stz	<R0
  5574 00:1F92: A0 23 00     	ldy	#$23
  5575 00:1F95: B7 10        	lda	[<L162+c_0],Y
  5576 00:1F97: 89 08 00     	bit	#$8
  5577 00:1F9A: 80 CC        	bra	L20771
  5578                        ;  case 0xF0: i8080_cond_ret(c, c->sf == 0); break
                    ; // RP
  5579                        L10258:
  5580 00:1F9C: 64 01        	stz	<R0
  5581 00:1F9E: A0 23 00     	ldy	#$23
  5582 00:1FA1: B7 10        	lda	[<L162+c_0],Y
  5583 00:1FA3: 89 01 00     	bit	#$1
  5584 00:1FA6: 80 A5        	bra	L20766
  5585                        ;  case 0xF8: i8080_cond_ret(c, c->sf == 1); break
                    ; // RM
  5586                        L10259:
  5587 00:1FA8: 64 01        	stz	<R0
  5588 00:1FAA: A0 23 00     	ldy	#$23
  5589 00:1FAD: B7 10        	lda	[<L162+c_0],Y
  5590 00:1FAF: 89 01 00     	bit	#$1
  5591 00:1FB2: 80 B4        	bra	L20771
  5592                        ;
  5593                        ;  case 0xC7: i8080_call(c, 0x00); break; // RST 0
  5594                        L10260:
  5595 00:1FB4: F4 00 00     	pea	#<$0
  5596 00:1FB7: 82 02 FF     	brl	L20690
  5597                        ;  case 0xCF: i8080_call(c, 0x08); break; // RST 1
  5598                        L10261:
  5599 00:1FBA: F4 08 00     	pea	#<$8
  5600 00:1FBD: 82 FC FE     	brl	L20690
  5601                        ;  case 0xD7: i8080_call(c, 0x10); break; // RST 2
  5602                        L10262:
  5603 00:1FC0: F4 10 00     	pea	#<$10
  5604 00:1FC3: 82 F6 FE     	brl	L20690
  5605                        ;  case 0xDF: i8080_call(c, 0x18); break; // RST 3
  5606                        L10263:
  5607 00:1FC6: F4 18 00     	pea	#<$18
  5608 00:1FC9: 82 F0 FE     	brl	L20690
  5609                        ;  case 0xE7: i8080_call(c, 0x20); break; // RST 4
  5610                        L10264:
  5611 00:1FCC: F4 20 00     	pea	#<$20
  5612 00:1FCF: 82 EA FE     	brl	L20690
  5613                        ;  case 0xEF: i8080_call(c, 0x28); break; // RST 5
  5614                        L10265:
  5615 00:1FD2: F4 28 00     	pea	#<$28
  5616 00:1FD5: 82 E4 FE     	brl	L20690
  5617                        ;  case 0xF7: i8080_call(c, 0x30); break; // RST 6
  Sun Jan  9 2022 21:05                                                Page 102


  5618                        L10266:
  5619 00:1FD8: F4 30 00     	pea	#<$30
  5620 00:1FDB: 82 DE FE     	brl	L20690
  5621                        ;  case 0xFF: i8080_call(c, 0x38); break; // RST 7
  5622                        L10267:
  5623 00:1FDE: F4 38 00     	pea	#<$38
  5624 00:1FE1: 82 D8 FE     	brl	L20690
  5625                        ;
  5626                        ;  case 0xC5: i8080_push_stack(c, i8080_get_bc(c))
                    ; break; // PUSH B
  5627                        L10268:
  5628 00:1FE4: D4 12        	pei	<L162+c_0+2
  5629 00:1FE6: D4 10        	pei	<L162+c_0
  5630 00:1FE8: 22 xx xx xx  	jsl	~~i8080_get_bc
  5631                        L20757:
  5632 00:1FEC: 48           	pha
  5633 00:1FED: D4 12        	pei	<L162+c_0+2
  5634 00:1FEF: D4 10        	pei	<L162+c_0
  5635 00:1FF1: 22 xx xx xx  	jsl	~~i8080_push_stack
  5636 00:1FF5: 82 B4 F1     	brl	L215
  5637                        ;  case 0xD5: i8080_push_stack(c, i8080_get_de(c))
                    ; break; // PUSH D
  5638                        L10269:
  5639 00:1FF8: D4 12        	pei	<L162+c_0+2
  5640 00:1FFA: D4 10        	pei	<L162+c_0
  5641 00:1FFC: 22 xx xx xx  	jsl	~~i8080_get_de
  5642 00:2000: 80 EA        	bra	L20757
  5643                        ;  case 0xE5: i8080_push_stack(c, i8080_get_hl(c))
                    ; break; // PUSH H
  5644                        L10270:
  5645 00:2002: D4 12        	pei	<L162+c_0+2
  5646 00:2004: D4 10        	pei	<L162+c_0
  5647 00:2006: 22 xx xx xx  	jsl	~~i8080_get_hl
  5648 00:200A: 80 E0        	bra	L20757
  5649                        ;  case 0xF5: i8080_push_psw(c); break; // PUSH PS
                    W
  5650                        L10271:
  5651 00:200C: D4 12        	pei	<L162+c_0+2
  5652 00:200E: D4 10        	pei	<L162+c_0
  5653 00:2010: 22 xx xx xx  	jsl	~~i8080_push_psw
  5654 00:2014: 82 95 F1     	brl	L215
  5655                        ;  case 0xC1: i8080_set_bc(c, i8080_pop_stack(c));
                     break; // POP B
  5656                        L10272:
  5657 00:2017: D4 12        	pei	<L162+c_0+2
  5658 00:2019: D4 10        	pei	<L162+c_0
  5659 00:201B: 22 xx xx xx  	jsl	~~i8080_pop_stack
  5660 00:201F: 82 BC F6     	brl	L20082
  5661                        ;  case 0xD1: i8080_set_de(c, i8080_pop_stack(c));
                     break; // POP D
  5662                        L10273:
  5663 00:2022: D4 12        	pei	<L162+c_0+2
  5664 00:2024: D4 10        	pei	<L162+c_0
  5665 00:2026: 22 xx xx xx  	jsl	~~i8080_pop_stack
  5666 00:202A: 82 C5 F6     	brl	L20092
  5667                        ;  case 0xE1: i8080_set_hl(c, i8080_pop_stack(c));
                     break; // POP H
  5668                        L10274:
  Sun Jan  9 2022 21:05                                                Page 103


  5669 00:202D: D4 12        	pei	<L162+c_0+2
  5670 00:202F: D4 10        	pei	<L162+c_0
  5671 00:2031: 22 xx xx xx  	jsl	~~i8080_pop_stack
  5672 00:2035: 82 CE F6     	brl	L20102
  5673                        ;  case 0xF1: i8080_pop_psw(c); break; // POP PSW
  5674                        L10275:
  5675 00:2038: D4 12        	pei	<L162+c_0+2
  5676 00:203A: D4 10        	pei	<L162+c_0
  5677 00:203C: 22 xx xx xx  	jsl	~~i8080_pop_psw
  5678 00:2040: 82 69 F1     	brl	L215
  5679                        ;
  5680                        ;  case 0xDB: c->a = c->port_in(c->userdata, i8080
                    _next_byte(c)); break; // IN
  5681                        L10276:
  5682 00:2043: D4 12        	pei	<L162+c_0+2
  5683 00:2045: D4 10        	pei	<L162+c_0
  5684 00:2047: 22 xx xx xx  	jsl	~~i8080_next_byte
  5685 00:204B: 48           	pha
  5686 00:204C: A0 12 00     	ldy	#$12
  5687 00:204F: B7 10        	lda	[<L162+c_0],Y
  5688 00:2051: 48           	pha
  5689 00:2052: 88           	dey
  5690 00:2053: 88           	dey
  5691 00:2054: B7 10        	lda	[<L162+c_0],Y
  5692 00:2056: 48           	pha
  5693 00:2057: A0 0A 00     	ldy	#$a
  5694 00:205A: B7 10        	lda	[<L162+c_0],Y
  5695 00:205C: AA           	tax
  5696 00:205D: 88           	dey
  5697 00:205E: 88           	dey
  5698 00:205F: B7 10        	lda	[<L162+c_0],Y
  5699                        	xref	~~~lcal
  5700 00:2061: 22 xx xx xx  	jsl	~~~lcal
  5701 00:2065: E2 20        	sep	#$20
  5702                        	longa	off
  5703 00:2067: A0 1C 00     	ldy	#$1c
  5704 00:206A: 97 10        	sta	[<L162+c_0],Y
  5705 00:206C: C2 20        	rep	#$20
  5706                        	longa	on
  5707 00:206E: 82 3B F1     	brl	L215
  5708                        ;  case 0xD3: c->port_out(c->userdata, i8080_next_
                    byte(c), c->a); break; // OUT
  5709                        L10277:
  5710 00:2071: A0 1C 00     	ldy	#$1c
  5711 00:2074: B7 10        	lda	[<L162+c_0],Y
  5712 00:2076: 48           	pha
  5713 00:2077: D4 12        	pei	<L162+c_0+2
  5714 00:2079: D4 10        	pei	<L162+c_0
  5715 00:207B: 22 xx xx xx  	jsl	~~i8080_next_byte
  5716 00:207F: 48           	pha
  5717 00:2080: A0 12 00     	ldy	#$12
  5718 00:2083: B7 10        	lda	[<L162+c_0],Y
  5719 00:2085: 48           	pha
  5720 00:2086: 88           	dey
  5721 00:2087: 88           	dey
  5722 00:2088: B7 10        	lda	[<L162+c_0],Y
  5723 00:208A: 48           	pha
  5724 00:208B: 88           	dey
  Sun Jan  9 2022 21:05                                                Page 104


  5725 00:208C: 88           	dey
  5726 00:208D: B7 10        	lda	[<L162+c_0],Y
  5727 00:208F: AA           	tax
  5728 00:2090: 88           	dey
  5729 00:2091: 88           	dey
  5730 00:2092: B7 10        	lda	[<L162+c_0],Y
  5731                        	xref	~~~lcal
  5732 00:2094: 22 xx xx xx  	jsl	~~~lcal
  5733 00:2098: 82 11 F1     	brl	L215
  5734                        ;
  5735                        ;  case 0x08:
  5736                        ;  case 0x10:
  5737                        ;  case 0x18:
  5738                        ;  case 0x20:
  5739                        ;  case 0x28:
  5740                        ;  case 0x30:
  5741                        ;  case 0x38: break; // undocumented NOPs
  5742                        ;
  5743                        ;  case 0xD9: i8080_ret(c); break; // undocumented
                     RET
  5744                        ;
  5745                        ;  case 0xDD:
  5746                        ;  case 0xED:
  5747                        ;  case 0xFD: i8080_call(c, i8080_next_word(c)); b
                    reak; // undocumented CALLs
  5748                        ;
  5749                        ;  case 0xCB: i8080_jmp(c, i8080_next_word(c)); br
                    eak; // undocumented JMP
  5750                        ;  }
  5751                        ;}
  5752             0000000C   L162	equ	12
  5753             0000000D   L163	equ	13
  5754                        	ends
  5755                        	efunc
  5756                        ;
  5757                        ;// initialises the emulator with default values
  5758                        ;void i8080_init(i8080* const c) {
  5759                        	code
  5760                        	xdef	~~i8080_init
  5761                        	func
  5762                        ~~i8080_init:
  5763                        	longa	on
  5764                        	longi	on
  5765 00:209B: 3B           	tsc
  5766 00:209C: 38           	sec
  5767 00:209D: E9 00 00     	sbc	#L216
  5768 00:20A0: 1B           	tcs
  5769 00:20A1: 0B           	phd
  5770 00:20A2: 5B           	tcd
  5771             00000004   c_0	set	4
  5772                        ;  c->read_byte = NULL;
  5773 00:20A3: A9 00 00     	lda	#$0
  5774 00:20A6: 87 04        	sta	[<L216+c_0]
  5775 00:20A8: A0 02 00     	ldy	#$2
  5776 00:20AB: 97 04        	sta	[<L216+c_0],Y
  5777                        ;  c->write_byte = NULL;
  5778 00:20AD: C8           	iny
  5779 00:20AE: C8           	iny
  Sun Jan  9 2022 21:05                                                Page 105


  5780 00:20AF: 97 04        	sta	[<L216+c_0],Y
  5781 00:20B1: C8           	iny
  5782 00:20B2: C8           	iny
  5783 00:20B3: 97 04        	sta	[<L216+c_0],Y
  5784                        ;  c->port_in = NULL;
  5785 00:20B5: C8           	iny
  5786 00:20B6: C8           	iny
  5787 00:20B7: 97 04        	sta	[<L216+c_0],Y
  5788 00:20B9: C8           	iny
  5789 00:20BA: C8           	iny
  5790 00:20BB: 97 04        	sta	[<L216+c_0],Y
  5791                        ;  c->port_out = NULL;
  5792 00:20BD: C8           	iny
  5793 00:20BE: C8           	iny
  5794 00:20BF: 97 04        	sta	[<L216+c_0],Y
  5795 00:20C1: C8           	iny
  5796 00:20C2: C8           	iny
  5797 00:20C3: 97 04        	sta	[<L216+c_0],Y
  5798                        ;  c->userdata = NULL;
  5799 00:20C5: C8           	iny
  5800 00:20C6: C8           	iny
  5801 00:20C7: 97 04        	sta	[<L216+c_0],Y
  5802 00:20C9: C8           	iny
  5803 00:20CA: C8           	iny
  5804 00:20CB: 97 04        	sta	[<L216+c_0],Y
  5805                        ;
  5806                        ;  c->cyc = 0;
  5807 00:20CD: C8           	iny
  5808 00:20CE: C8           	iny
  5809 00:20CF: 97 04        	sta	[<L216+c_0],Y
  5810 00:20D1: C8           	iny
  5811 00:20D2: C8           	iny
  5812 00:20D3: 97 04        	sta	[<L216+c_0],Y
  5813                        ;
  5814                        ;  c->pc = 0;
  5815 00:20D5: C8           	iny
  5816 00:20D6: C8           	iny
  5817 00:20D7: 97 04        	sta	[<L216+c_0],Y
  5818                        ;  c->sp = 0;
  5819 00:20D9: C8           	iny
  5820 00:20DA: C8           	iny
  5821 00:20DB: 97 04        	sta	[<L216+c_0],Y
  5822                        ;
  5823                        ;  c->a = 0;
  5824 00:20DD: E2 20        	sep	#$20
  5825                        	longa	off
  5826 00:20DF: A9 00        	lda	#$0
  5827 00:20E1: C8           	iny
  5828 00:20E2: C8           	iny
  5829 00:20E3: 97 04        	sta	[<L216+c_0],Y
  5830                        ;  c->b = 0;
  5831 00:20E5: C8           	iny
  5832 00:20E6: 97 04        	sta	[<L216+c_0],Y
  5833                        ;  c->c = 0;
  5834 00:20E8: C8           	iny
  5835 00:20E9: 97 04        	sta	[<L216+c_0],Y
  5836                        ;  c->d = 0;
  5837 00:20EB: C8           	iny
  Sun Jan  9 2022 21:05                                                Page 106


  5838 00:20EC: 97 04        	sta	[<L216+c_0],Y
  5839                        ;  c->e = 0;
  5840 00:20EE: C8           	iny
  5841 00:20EF: 97 04        	sta	[<L216+c_0],Y
  5842                        ;  c->h = 0;
  5843 00:20F1: C8           	iny
  5844 00:20F2: 97 04        	sta	[<L216+c_0],Y
  5845                        ;  c->l = 0;
  5846 00:20F4: C8           	iny
  5847 00:20F5: 97 04        	sta	[<L216+c_0],Y
  5848 00:20F7: C2 20        	rep	#$20
  5849                        	longa	on
  5850                        ;
  5851                        ;  c->sf = 0;
  5852 00:20F9: C8           	iny
  5853 00:20FA: B7 04        	lda	[<L216+c_0],Y
  5854 00:20FC: 29 FE FF     	and	#<$fffffffe
  5855                        ;  c->zf = 0;
  5856 00:20FF: 29 FD FF     	and	#<$fffffffd
  5857                        ;  c->hf = 0;
  5858 00:2102: 29 FB FF     	and	#<$fffffffb
  5859                        ;  c->pf = 0;
  5860 00:2105: 29 F7 FF     	and	#<$fffffff7
  5861                        ;  c->cf = 0;
  5862 00:2108: 29 EF FF     	and	#<$ffffffef
  5863                        ;  c->iff = 0;
  5864 00:210B: 29 DF FF     	and	#<$ffffffdf
  5865                        ;
  5866                        ;  c->halted = 0;
  5867 00:210E: 29 BF FF     	and	#<$ffffffbf
  5868                        ;  c->interrupt_pending = 0;
  5869 00:2111: 29 7F FF     	and	#<$ffffff7f
  5870 00:2114: 97 04        	sta	[<L216+c_0],Y
  5871                        ;  c->interrupt_vector = 0;
  5872 00:2116: E2 20        	sep	#$20
  5873                        	longa	off
  5874 00:2118: A9 00        	lda	#$0
  5875 00:211A: C8           	iny
  5876 00:211B: C8           	iny
  5877 00:211C: 97 04        	sta	[<L216+c_0],Y
  5878                        ;  c->interrupt_delay = 0;
  5879 00:211E: C8           	iny
  5880 00:211F: 97 04        	sta	[<L216+c_0],Y
  5881 00:2121: C2 20        	rep	#$20
  5882                        	longa	on
  5883                        ;}
  5884 00:2123: A5 02        	lda	<L216+2
  5885 00:2125: 85 06        	sta	<L216+2+4
  5886 00:2127: A5 01        	lda	<L216+1
  5887 00:2129: 85 05        	sta	<L216+1+4
  5888 00:212B: 2B           	pld
  5889 00:212C: 3B           	tsc
  5890 00:212D: 18           	clc
  5891 00:212E: 69 04 00     	adc	#L216+4
  5892 00:2131: 1B           	tcs
  5893 00:2132: 6B           	rtl
  5894             00000000   L216	equ	0
  5895             00000001   L217	equ	1
  Sun Jan  9 2022 21:05                                                Page 107


  5896                        	ends
  5897                        	efunc
  5898                        ;
  5899                        ;// executes one instruction
  5900                        ;void i8080_step(i8080* const c) {
  5901                        	code
  5902                        	xdef	~~i8080_step
  5903                        	func
  5904                        ~~i8080_step:
  5905                        	longa	on
  5906                        	longi	on
  5907 00:2133: 3B           	tsc
  5908 00:2134: 38           	sec
  5909 00:2135: E9 00 00     	sbc	#L219
  5910 00:2138: 1B           	tcs
  5911 00:2139: 0B           	phd
  5912 00:213A: 5B           	tcd
  5913             00000004   c_0	set	4
  5914                        ;  // interrupt processing: if an interrupt is pen
                    ding and IFF is set,
  5915                        ;  // we execute the interrupt vector passed by th
                    e user.
  5916                        ;  if (c->interrupt_pending && c->iff && c->interr
                    upt_delay == 0) {
  5917 00:213B: A0 23 00     	ldy	#$23
  5918 00:213E: B7 04        	lda	[<L219+c_0],Y
  5919 00:2140: 89 80 00     	bit	#$80
  5920 00:2143: F0 27        	beq	L10290
  5921 00:2145: B7 04        	lda	[<L219+c_0],Y
  5922 00:2147: 89 20 00     	bit	#$20
  5923 00:214A: F0 20        	beq	L10290
  5924 00:214C: A0 26 00     	ldy	#$26
  5925 00:214F: B7 04        	lda	[<L219+c_0],Y
  5926 00:2151: 29 FF 00     	and	#$ff
  5927 00:2154: D0 16        	bne	L10290
  5928                        ;    c->interrupt_pending = 0;
  5929 00:2156: A0 23 00     	ldy	#$23
  5930 00:2159: B7 04        	lda	[<L219+c_0],Y
  5931 00:215B: 29 7F FF     	and	#<$ffffff7f
  5932                        ;    c->iff = 0;
  5933 00:215E: 29 DF FF     	and	#<$ffffffdf
  5934                        ;    c->halted = 0;
  5935 00:2161: 29 BF FF     	and	#<$ffffffbf
  5936 00:2164: 97 04        	sta	[<L219+c_0],Y
  5937                        ;
  5938                        ;    i8080_execute(c, c->interrupt_vector);
  5939 00:2166: C8           	iny
  5940 00:2167: C8           	iny
  5941 00:2168: B7 04        	lda	[<L219+c_0],Y
  5942 00:216A: 80 12        	bra	L20775
  5943                        ;  } else if (!c->halted) {
  5944                        L10290:
  5945 00:216C: A0 23 00     	ldy	#$23
  5946 00:216F: B7 04        	lda	[<L219+c_0],Y
  5947 00:2171: 89 40 00     	bit	#$40
  5948 00:2174: D0 11        	bne	L225
  5949                        ;    i8080_execute(c, i8080_next_byte(c));
  5950 00:2176: D4 06        	pei	<L219+c_0+2
  Sun Jan  9 2022 21:05                                                Page 108


  5951 00:2178: D4 04        	pei	<L219+c_0
  5952 00:217A: 22 xx xx xx  	jsl	~~i8080_next_byte
  5953                        L20775:
  5954 00:217E: 48           	pha
  5955 00:217F: D4 06        	pei	<L219+c_0+2
  5956 00:2181: D4 04        	pei	<L219+c_0
  5957 00:2183: 22 xx xx xx  	jsl	~~i8080_execute
  5958                        ;  }
  5959                        ;}
  5960                        L225:
  5961 00:2187: A5 02        	lda	<L219+2
  5962 00:2189: 85 06        	sta	<L219+2+4
  5963 00:218B: A5 01        	lda	<L219+1
  5964 00:218D: 85 05        	sta	<L219+1+4
  5965 00:218F: 2B           	pld
  5966 00:2190: 3B           	tsc
  5967 00:2191: 18           	clc
  5968 00:2192: 69 04 00     	adc	#L219+4
  5969 00:2195: 1B           	tcs
  5970 00:2196: 6B           	rtl
  5971             00000000   L219	equ	0
  5972             00000001   L220	equ	1
  5973                        	ends
  5974                        	efunc
  5975                        ;
  5976                        ;// asks for an interrupt to be serviced
  5977                        ;void i8080_interrupt(i8080* const c, uint8_t opco
                    de) {
  5978                        	code
  5979                        	xdef	~~i8080_interrupt
  5980                        	func
  5981                        ~~i8080_interrupt:
  5982                        	longa	on
  5983                        	longi	on
  5984 00:2197: 3B           	tsc
  5985 00:2198: 38           	sec
  5986 00:2199: E9 00 00     	sbc	#L226
  5987 00:219C: 1B           	tcs
  5988 00:219D: 0B           	phd
  5989 00:219E: 5B           	tcd
  5990             00000004   c_0	set	4
  5991             00000008   opcode_0	set	8
  5992                        ;  c->interrupt_pending = 1;
  5993 00:219F: A0 23 00     	ldy	#$23
  5994 00:21A2: B7 04        	lda	[<L226+c_0],Y
  5995 00:21A4: 09 80 00     	ora	#<$80
  5996 00:21A7: 97 04        	sta	[<L226+c_0],Y
  5997                        ;  c->interrupt_vector = opcode;
  5998 00:21A9: E2 20        	sep	#$20
  5999                        	longa	off
  6000 00:21AB: A5 08        	lda	<L226+opcode_0
  6001 00:21AD: C8           	iny
  6002 00:21AE: C8           	iny
  6003 00:21AF: 97 04        	sta	[<L226+c_0],Y
  6004 00:21B1: C2 20        	rep	#$20
  6005                        	longa	on
  6006                        ;}
  6007 00:21B3: A5 02        	lda	<L226+2
  Sun Jan  9 2022 21:05                                                Page 109


  6008 00:21B5: 85 08        	sta	<L226+2+6
  6009 00:21B7: A5 01        	lda	<L226+1
  6010 00:21B9: 85 07        	sta	<L226+1+6
  6011 00:21BB: 2B           	pld
  6012 00:21BC: 3B           	tsc
  6013 00:21BD: 18           	clc
  6014 00:21BE: 69 06 00     	adc	#L226+6
  6015 00:21C1: 1B           	tcs
  6016 00:21C2: 6B           	rtl
  6017             00000000   L226	equ	0
  6018             00000001   L227	equ	1
  6019                        	ends
  6020                        	efunc
  6021                        ;
  6022                        ;// outputs a debug trace of the emulator state to
                     the standard output,
  6023                        ;// including registers and flags
  6024                        ;void i8080_debug_output(i8080* const c, bool prin
                    t_disassembly) {
  6025                        	code
  6026                        	xdef	~~i8080_debug_output
  6027                        	func
  6028                        ~~i8080_debug_output:
  6029                        	longa	on
  6030                        	longi	on
  6031 00:21C3: 3B           	tsc
  6032 00:21C4: 38           	sec
  6033 00:21C5: E9 09 00     	sbc	#L229
  6034 00:21C8: 1B           	tcs
  6035 00:21C9: 0B           	phd
  6036 00:21CA: 5B           	tcd
  6037             00000004   c_0	set	4
  6038             00000008   print_disassembly_0	set	8
  6039                        ;  uint8_t f = 0;
  6040                        ;  f |= c->sf << 7;
  6041             00000000   f_1	set	0
  6042 00:21CB: E2 20        	sep	#$20
  6043                        	longa	off
  6044 00:21CD: 64 09        	stz	<L230+f_1
  6045 00:21CF: C2 20        	rep	#$20
  6046                        	longa	on
  6047 00:21D1: A0 23 00     	ldy	#$23
  6048 00:21D4: B7 0D        	lda	[<L229+c_0],Y
  6049 00:21D6: 29 01 00     	and	#<$1
  6050 00:21D9: A2 07 00     	ldx	#<$7
  6051                        	xref	~~~casl
  6052 00:21DC: 22 xx xx xx  	jsl	~~~casl
  6053 00:21E0: E2 20        	sep	#$20
  6054                        	longa	off
  6055 00:21E2: 04 09        	tsb	<L230+f_1
  6056 00:21E4: C2 20        	rep	#$20
  6057                        	longa	on
  6058                        ;  f |= c->zf << 6;
  6059 00:21E6: A0 23 00     	ldy	#$23
  6060 00:21E9: B7 0D        	lda	[<L229+c_0],Y
  6061 00:21EB: 4A           	lsr
  6062 00:21EC: 29 01 00     	and	#<$1
  6063 00:21EF: A2 06 00     	ldx	#<$6
  Sun Jan  9 2022 21:05                                                Page 110


  6064                        	xref	~~~casl
  6065 00:21F2: 22 xx xx xx  	jsl	~~~casl
  6066 00:21F6: E2 20        	sep	#$20
  6067                        	longa	off
  6068 00:21F8: 04 09        	tsb	<L230+f_1
  6069 00:21FA: C2 20        	rep	#$20
  6070                        	longa	on
  6071                        ;  f |= c->hf << 4;
  6072 00:21FC: A0 23 00     	ldy	#$23
  6073 00:21FF: B7 0D        	lda	[<L229+c_0],Y
  6074 00:2201: 4A           	lsr
  6075 00:2202: 4A           	lsr
  6076 00:2203: 29 01 00     	and	#<$1
  6077 00:2206: E2 20        	sep	#$20
  6078                        	longa	off
  6079 00:2208: 0A           	asl	A
  6080 00:2209: 0A           	asl	A
  6081 00:220A: 0A           	asl	A
  6082 00:220B: 0A           	asl	A
  6083 00:220C: 04 09        	tsb	<L230+f_1
  6084 00:220E: C2 20        	rep	#$20
  6085                        	longa	on
  6086                        ;  f |= c->pf << 2;
  6087 00:2210: B7 0D        	lda	[<L229+c_0],Y
  6088 00:2212: 4A           	lsr
  6089 00:2213: 4A           	lsr
  6090 00:2214: 4A           	lsr
  6091 00:2215: 29 01 00     	and	#<$1
  6092 00:2218: E2 20        	sep	#$20
  6093                        	longa	off
  6094 00:221A: 0A           	asl	A
  6095 00:221B: 0A           	asl	A
  6096 00:221C: 04 09        	tsb	<L230+f_1
  6097                        ;  f |= 1 << 1; // bit 1 is always 1
  6098 00:221E: A9 02        	lda	#$2
  6099 00:2220: 04 09        	tsb	<L230+f_1
  6100 00:2222: C2 20        	rep	#$20
  6101                        	longa	on
  6102                        ;  f |= c->cf << 0;
  6103 00:2224: B7 0D        	lda	[<L229+c_0],Y
  6104 00:2226: 4A           	lsr
  6105 00:2227: 4A           	lsr
  6106 00:2228: 4A           	lsr
  6107 00:2229: 4A           	lsr
  6108 00:222A: 29 01 00     	and	#<$1
  6109 00:222D: E2 20        	sep	#$20
  6110                        	longa	off
  6111 00:222F: 04 09        	tsb	<L230+f_1
  6112 00:2231: C2 20        	rep	#$20
  6113                        	longa	on
  6114                        ; 
  6115                        ;  //CYC: %lu",
  6116                        ;  printf("PC: %04X, AF: %04X, BC: %04X, DE: %04X,
                     HL: %04X, SP: %04X",
  6117                        ;      c->pc, c->a << 8 | f, i8080_get_bc(c), i808
                    0_get_de(c), i8080_get_hl(c),
  6118                        ;      c->sp/*, c->cyc*/);
  6119 00:2233: A0 1A 00     	ldy	#$1a
  Sun Jan  9 2022 21:05                                                Page 111


  6120 00:2236: B7 0D        	lda	[<L229+c_0],Y
  6121 00:2238: 48           	pha
  6122 00:2239: D4 0F        	pei	<L229+c_0+2
  6123 00:223B: D4 0D        	pei	<L229+c_0
  6124 00:223D: 22 xx xx xx  	jsl	~~i8080_get_hl
  6125 00:2241: 48           	pha
  6126 00:2242: D4 0F        	pei	<L229+c_0+2
  6127 00:2244: D4 0D        	pei	<L229+c_0
  6128 00:2246: 22 xx xx xx  	jsl	~~i8080_get_de
  6129 00:224A: 48           	pha
  6130 00:224B: D4 0F        	pei	<L229+c_0+2
  6131 00:224D: D4 0D        	pei	<L229+c_0
  6132 00:224F: 22 xx xx xx  	jsl	~~i8080_get_bc
  6133 00:2253: 48           	pha
  6134 00:2254: A0 1C 00     	ldy	#$1c
  6135 00:2257: B7 0D        	lda	[<L229+c_0],Y
  6136 00:2259: 29 FF 00     	and	#$ff
  6137 00:225C: EB           	xba
  6138 00:225D: 29 00 FF     	and	#$ff00
  6139 00:2260: 85 01        	sta	<R0
  6140 00:2262: A5 09        	lda	<L230+f_1
  6141 00:2264: 29 FF 00     	and	#$ff
  6142 00:2267: 05 01        	ora	<R0
  6143 00:2269: 48           	pha
  6144 00:226A: A0 18 00     	ldy	#$18
  6145 00:226D: B7 0D        	lda	[<L229+c_0],Y
  6146 00:226F: 48           	pha
  6147 00:2270: F4 xx xx     	pea	#^L1
  6148 00:2273: F4 xx xx     	pea	#<L1
  6149 00:2276: F4 12 00     	pea	#18
  6150 00:2279: 22 xx xx xx  	jsl	~~printf
  6151                        ;
  6152                        ;  printf(" (%02X %02X %02X %02X)", i8080_rb(c, c-
                    >pc), i8080_rb(c, c->pc + 1),
  6153                        ;      i8080_rb(c, c->pc + 2), i8080_rb(c, c->pc +
                     3));
  6154 00:227D: 18           	clc
  6155 00:227E: A9 03 00     	lda	#$3
  6156 00:2281: A0 18 00     	ldy	#$18
  6157 00:2284: 77 0D        	adc	[<L229+c_0],Y
  6158 00:2286: 48           	pha
  6159 00:2287: D4 0F        	pei	<L229+c_0+2
  6160 00:2289: D4 0D        	pei	<L229+c_0
  6161 00:228B: 22 xx xx xx  	jsl	~~i8080_rb
  6162 00:228F: E2 20        	sep	#$20
  6163                        	longa	off
  6164 00:2291: 85 01        	sta	<R0
  6165 00:2293: C2 20        	rep	#$20
  6166                        	longa	on
  6167 00:2295: A5 01        	lda	<R0
  6168 00:2297: 29 FF 00     	and	#$ff
  6169 00:229A: 48           	pha
  6170 00:229B: 18           	clc
  6171 00:229C: A9 02 00     	lda	#$2
  6172 00:229F: A0 18 00     	ldy	#$18
  6173 00:22A2: 77 0D        	adc	[<L229+c_0],Y
  6174 00:22A4: 48           	pha
  6175 00:22A5: D4 0F        	pei	<L229+c_0+2
  Sun Jan  9 2022 21:05                                                Page 112


  6176 00:22A7: D4 0D        	pei	<L229+c_0
  6177 00:22A9: 22 xx xx xx  	jsl	~~i8080_rb
  6178 00:22AD: E2 20        	sep	#$20
  6179                        	longa	off
  6180 00:22AF: 85 01        	sta	<R0
  6181 00:22B1: C2 20        	rep	#$20
  6182                        	longa	on
  6183 00:22B3: A5 01        	lda	<R0
  6184 00:22B5: 29 FF 00     	and	#$ff
  6185 00:22B8: 48           	pha
  6186 00:22B9: A0 18 00     	ldy	#$18
  6187 00:22BC: B7 0D        	lda	[<L229+c_0],Y
  6188 00:22BE: 1A           	ina
  6189 00:22BF: 48           	pha
  6190 00:22C0: D4 0F        	pei	<L229+c_0+2
  6191 00:22C2: D4 0D        	pei	<L229+c_0
  6192 00:22C4: 22 xx xx xx  	jsl	~~i8080_rb
  6193 00:22C8: E2 20        	sep	#$20
  6194                        	longa	off
  6195 00:22CA: 85 01        	sta	<R0
  6196 00:22CC: C2 20        	rep	#$20
  6197                        	longa	on
  6198 00:22CE: A5 01        	lda	<R0
  6199 00:22D0: 29 FF 00     	and	#$ff
  6200 00:22D3: 48           	pha
  6201 00:22D4: A0 18 00     	ldy	#$18
  6202 00:22D7: B7 0D        	lda	[<L229+c_0],Y
  6203 00:22D9: 48           	pha
  6204 00:22DA: D4 0F        	pei	<L229+c_0+2
  6205 00:22DC: D4 0D        	pei	<L229+c_0
  6206 00:22DE: 22 xx xx xx  	jsl	~~i8080_rb
  6207 00:22E2: E2 20        	sep	#$20
  6208                        	longa	off
  6209 00:22E4: 85 01        	sta	<R0
  6210 00:22E6: C2 20        	rep	#$20
  6211                        	longa	on
  6212 00:22E8: A5 01        	lda	<R0
  6213 00:22EA: 29 FF 00     	and	#$ff
  6214 00:22ED: 48           	pha
  6215 00:22EE: F4 xx xx     	pea	#^L1+59
  6216 00:22F1: F4 xx xx     	pea	#<L1+59
  6217 00:22F4: F4 0E 00     	pea	#14
  6218 00:22F7: 22 xx xx xx  	jsl	~~printf
  6219                        ;/*
  6220                        ;  if (print_disassembly) {
  6221                        ;    printf(" - %s", DISASSEMBLE_TABLE[i8080_rb(c,
                     c->pc)]);
  6222                        ;  }
  6223                        ;*/
  6224                        ;  printf("\n");
  6225 00:22FB: F4 xx xx     	pea	#^L1+82
  6226 00:22FE: F4 xx xx     	pea	#<L1+82
  6227 00:2301: F4 06 00     	pea	#6
  6228 00:2304: 22 xx xx xx  	jsl	~~printf
  6229                        ;}
  6230 00:2308: A5 0B        	lda	<L229+2
  6231 00:230A: 85 11        	sta	<L229+2+6
  6232 00:230C: A5 0A        	lda	<L229+1
  Sun Jan  9 2022 21:05                                                Page 113


  6233 00:230E: 85 10        	sta	<L229+1+6
  6234 00:2310: 2B           	pld
  6235 00:2311: 3B           	tsc
  6236 00:2312: 18           	clc
  6237 00:2313: 69 0F 00     	adc	#L229+6
  6238 00:2316: 1B           	tcs
  6239 00:2317: 6B           	rtl
  6240             00000009   L229	equ	9
  6241             00000009   L230	equ	9
  6242                        	ends
  6243                        	efunc
  6244                        	data
  6245                        L1:
  6246 00:0000: 50 43 3A 20  	db	$50,$43,$3A,$20,$25,$30,$34,$58,$2C,$20,
                    $41,$46,$3A,$20,$25
       00:0004: 25 30 34 58 
       00:0008: 2C 20 41 46 
       00:000C: 3A 20 25 
  6247 00:000F: 30 34 58 2C  	db	$30,$34,$58,$2C,$20,$42,$43,$3A,$20,$25,
                    $30,$34,$58,$2C,$20
       00:0013: 20 42 43 3A 
       00:0017: 20 25 30 34 
       00:001B: 58 2C 20 
  6248 00:001E: 44 45 3A 20  	db	$44,$45,$3A,$20,$25,$30,$34,$58,$2C,$20,
                    $48,$4C,$3A,$20,$25
       00:0022: 25 30 34 58 
       00:0026: 2C 20 48 4C 
       00:002A: 3A 20 25 
  6249 00:002D: 30 34 58 2C  	db	$30,$34,$58,$2C,$20,$53,$50,$3A,$20,$25,
                    $30,$34,$58,$00,$20
       00:0031: 20 53 50 3A 
       00:0035: 20 25 30 34 
       00:0039: 58 00 20 
  6250 00:003C: 28 25 30 32  	db	$28,$25,$30,$32,$58,$20,$25,$30,$32,$58,
                    $20,$25,$30,$32,$58
       00:0040: 58 20 25 30 
       00:0044: 32 58 20 25 
       00:0048: 30 32 58 
  6251 00:004B: 20 25 30 32  	db	$20,$25,$30,$32,$58,$29,$00,$0A,$00
       00:004F: 58 29 00 0A 
       00:0053: 00 
  6252 00:0054:              	ends
  6253                        ;
  6254                        ;#undef SET_ZSP
  6255                        ;
  6256                        	xref	~~fgetc
  6257                        	xref	~~printf
  6258                        	xref	~~stdin


      Lines assembled: 6258
      Errors: 0
