  Thu Nov 19 2020 16:41                                                Page 1


                     ***************************************
                     **      WDC 65C816 Macro Assembler   **
                     **                                   **
                     **     Version 3.49.1- Feb  6 2006    **
                     ***************************************

     1                        ;:ts=8
     2             00000001   R0	equ	1
     3             00000005   R1	equ	5
     4             00000009   R2	equ	9
     5             0000000D   R3	equ	13
     6                        	code
     7                        	xdef	~~inflate_fast
     8                        	func
     9                        ~~inflate_fast:
    10                        	longa	on
    11                        	longi	on
    12 00:0000: 3B           	tsc
    13 00:0001: 38           	sec
    14 00:0002: E9 52 00     	sbc	#L2
    15 00:0005: 1B           	tcs
    16 00:0006: 0B           	phd
    17 00:0007: 5B           	tcd
    18             00000004   strm_0	set	4
    19             00000008   start_0	set	8
    20             00000000   state_1	set	0
    21             00000004   in_1	set	4
    22             00000008   last_1	set	8
    23             0000000C   out_1	set	12
    24             00000010   beg_1	set	16
    25             00000014   end_1	set	20
    26             00000018   wsize_1	set	24
    27             0000001A   whave_1	set	26
    28             0000001C   wnext_1	set	28
    29             0000001E   window_1	set	30
    30             00000022   hold_1	set	34
    31             00000026   bits_1	set	38
    32             00000028   lcode_1	set	40
    33             0000002C   dcode_1	set	44
    34             00000030   lmask_1	set	48
    35             00000032   dmask_1	set	50
    36             00000034   here_1	set	52
    37             00000038   op_1	set	56
    38             0000003A   len_1	set	58
    39             0000003C   dist_1	set	60
    40             0000003E   from_1	set	62
    41 00:0008: A0 18 00     	ldy	#$18
    42 00:000B: B7 56        	lda	[<L2+strm_0],Y
    43 00:000D: 85 11        	sta	<L3+state_1
    44 00:000F: C8           	iny
    45 00:0010: C8           	iny
    46 00:0011: B7 56        	lda	[<L2+strm_0],Y
    47 00:0013: 85 13        	sta	<L3+state_1+2
    48 00:0015: A7 56        	lda	[<L2+strm_0]
    49 00:0017: 85 15        	sta	<L3+in_1
    50 00:0019: A0 02 00     	ldy	#$2
    51 00:001C: B7 56        	lda	[<L2+strm_0],Y
    52 00:001E: 85 17        	sta	<L3+in_1+2
  Thu Nov 19 2020 16:41                                                Page 2


    53 00:0020: 18           	clc
    54 00:0021: A9 FB FF     	lda	#$fffb
    55 00:0024: C8           	iny
    56 00:0025: C8           	iny
    57 00:0026: 77 56        	adc	[<L2+strm_0],Y
    58 00:0028: 85 01        	sta	<R0
    59 00:002A: 64 03        	stz	<R0+2
    60 00:002C: A5 15        	lda	<L3+in_1
    61 00:002E: 18           	clc
    62 00:002F: 65 01        	adc	<R0
    63 00:0031: 85 19        	sta	<L3+last_1
    64 00:0033: A5 17        	lda	<L3+in_1+2
    65 00:0035: 65 03        	adc	<R0+2
    66 00:0037: 85 1B        	sta	<L3+last_1+2
    67 00:0039: A0 0A 00     	ldy	#$a
    68 00:003C: B7 56        	lda	[<L2+strm_0],Y
    69 00:003E: 85 1D        	sta	<L3+out_1
    70 00:0040: C8           	iny
    71 00:0041: C8           	iny
    72 00:0042: B7 56        	lda	[<L2+strm_0],Y
    73 00:0044: 85 1F        	sta	<L3+out_1+2
    74 00:0046: 38           	sec
    75 00:0047: A5 5A        	lda	<L2+start_0
    76 00:0049: C8           	iny
    77 00:004A: C8           	iny
    78 00:004B: F7 56        	sbc	[<L2+strm_0],Y
    79 00:004D: 85 01        	sta	<R0
    80 00:004F: 64 03        	stz	<R0+2
    81 00:0051: 38           	sec
    82 00:0052: A5 1D        	lda	<L3+out_1
    83 00:0054: E5 01        	sbc	<R0
    84 00:0056: 85 21        	sta	<L3+beg_1
    85 00:0058: A5 1F        	lda	<L3+out_1+2
    86 00:005A: E5 03        	sbc	<R0+2
    87 00:005C: 85 23        	sta	<L3+beg_1+2
    88 00:005E: A9 FF FE     	lda	#$feff
    89 00:0061: 18           	clc
    90 00:0062: 77 56        	adc	[<L2+strm_0],Y
    91 00:0064: 85 01        	sta	<R0
    92 00:0066: 64 03        	stz	<R0+2
    93 00:0068: A5 1D        	lda	<L3+out_1
    94 00:006A: 18           	clc
    95 00:006B: 65 01        	adc	<R0
    96 00:006D: 85 25        	sta	<L3+end_1
    97 00:006F: A5 1F        	lda	<L3+out_1+2
    98 00:0071: 65 03        	adc	<R0+2
    99 00:0073: 85 27        	sta	<L3+end_1+2
   100 00:0075: A0 1E 00     	ldy	#$1e
   101 00:0078: B7 11        	lda	[<L3+state_1],Y
   102 00:007A: 85 29        	sta	<L3+wsize_1
   103 00:007C: C8           	iny
   104 00:007D: C8           	iny
   105 00:007E: B7 11        	lda	[<L3+state_1],Y
   106 00:0080: 85 2B        	sta	<L3+whave_1
   107 00:0082: C8           	iny
   108 00:0083: C8           	iny
   109 00:0084: B7 11        	lda	[<L3+state_1],Y
   110 00:0086: 85 2D        	sta	<L3+wnext_1
  Thu Nov 19 2020 16:41                                                Page 3


   111 00:0088: C8           	iny
   112 00:0089: C8           	iny
   113 00:008A: B7 11        	lda	[<L3+state_1],Y
   114 00:008C: 85 2F        	sta	<L3+window_1
   115 00:008E: C8           	iny
   116 00:008F: C8           	iny
   117 00:0090: B7 11        	lda	[<L3+state_1],Y
   118 00:0092: 85 31        	sta	<L3+window_1+2
   119 00:0094: C8           	iny
   120 00:0095: C8           	iny
   121 00:0096: B7 11        	lda	[<L3+state_1],Y
   122 00:0098: 85 33        	sta	<L3+hold_1
   123 00:009A: C8           	iny
   124 00:009B: C8           	iny
   125 00:009C: B7 11        	lda	[<L3+state_1],Y
   126 00:009E: 85 35        	sta	<L3+hold_1+2
   127 00:00A0: C8           	iny
   128 00:00A1: C8           	iny
   129 00:00A2: B7 11        	lda	[<L3+state_1],Y
   130 00:00A4: 85 37        	sta	<L3+bits_1
   131 00:00A6: A0 34 00     	ldy	#$34
   132 00:00A9: B7 11        	lda	[<L3+state_1],Y
   133 00:00AB: 85 39        	sta	<L3+lcode_1
   134 00:00AD: C8           	iny
   135 00:00AE: C8           	iny
   136 00:00AF: B7 11        	lda	[<L3+state_1],Y
   137 00:00B1: 85 3B        	sta	<L3+lcode_1+2
   138 00:00B3: C8           	iny
   139 00:00B4: C8           	iny
   140 00:00B5: B7 11        	lda	[<L3+state_1],Y
   141 00:00B7: 85 3D        	sta	<L3+dcode_1
   142 00:00B9: C8           	iny
   143 00:00BA: C8           	iny
   144 00:00BB: B7 11        	lda	[<L3+state_1],Y
   145 00:00BD: 85 3F        	sta	<L3+dcode_1+2
   146 00:00BF: C8           	iny
   147 00:00C0: C8           	iny
   148 00:00C1: B7 11        	lda	[<L3+state_1],Y
   149 00:00C3: 48           	pha
   150 00:00C4: A9 01 00     	lda	#$1
   151 00:00C7: FA           	plx
   152                        	xref	~~~asl
   153 00:00C8: 22 xx xx xx  	jsl	~~~asl
   154 00:00CC: 18           	clc
   155 00:00CD: 69 FF FF     	adc	#$ffff
   156 00:00D0: 85 41        	sta	<L3+lmask_1
   157 00:00D2: A0 3E 00     	ldy	#$3e
   158 00:00D5: B7 11        	lda	[<L3+state_1],Y
   159 00:00D7: 48           	pha
   160 00:00D8: A9 01 00     	lda	#$1
   161 00:00DB: FA           	plx
   162                        	xref	~~~asl
   163 00:00DC: 22 xx xx xx  	jsl	~~~asl
   164 00:00E0: 18           	clc
   165 00:00E1: 69 FF FF     	adc	#$ffff
   166 00:00E4: 85 43        	sta	<L3+dmask_1
   167                        L10003:
   168 00:00E6: A5 37        	lda	<L3+bits_1
  Thu Nov 19 2020 16:41                                                Page 4


   169 00:00E8: C9 0F 00     	cmp	#<$f
   170 00:00EB: B0 5C        	bcs	L10004
   171 00:00ED: A7 15        	lda	[<L3+in_1]
   172 00:00EF: 29 FF 00     	and	#$ff
   173 00:00F2: 85 05        	sta	<R1
   174 00:00F4: 64 07        	stz	<R1+2
   175 00:00F6: D4 07        	pei	<R1+2
   176 00:00F8: D4 05        	pei	<R1
   177 00:00FA: A5 37        	lda	<L3+bits_1
   178                        	xref	~~~lasl
   179 00:00FC: 22 xx xx xx  	jsl	~~~lasl
   180 00:0100: 86 03        	stx	<R0+2
   181 00:0102: 18           	clc
   182 00:0103: 65 33        	adc	<L3+hold_1
   183 00:0105: 85 33        	sta	<L3+hold_1
   184 00:0107: A5 03        	lda	<R0+2
   185 00:0109: 65 35        	adc	<L3+hold_1+2
   186 00:010B: 85 35        	sta	<L3+hold_1+2
   187 00:010D: E6 15        	inc	<L3+in_1
   188 00:010F: D0 02        	bne	L5
   189 00:0111: E6 17        	inc	<L3+in_1+2
   190                        L5:
   191 00:0113: A9 08 00     	lda	#$8
   192 00:0116: 18           	clc
   193 00:0117: 65 37        	adc	<L3+bits_1
   194 00:0119: 85 37        	sta	<L3+bits_1
   195 00:011B: A7 15        	lda	[<L3+in_1]
   196 00:011D: 29 FF 00     	and	#$ff
   197 00:0120: 85 05        	sta	<R1
   198 00:0122: 64 07        	stz	<R1+2
   199 00:0124: D4 07        	pei	<R1+2
   200 00:0126: D4 05        	pei	<R1
   201 00:0128: A5 37        	lda	<L3+bits_1
   202                        	xref	~~~lasl
   203 00:012A: 22 xx xx xx  	jsl	~~~lasl
   204 00:012E: 86 03        	stx	<R0+2
   205 00:0130: 18           	clc
   206 00:0131: 65 33        	adc	<L3+hold_1
   207 00:0133: 85 33        	sta	<L3+hold_1
   208 00:0135: A5 03        	lda	<R0+2
   209 00:0137: 65 35        	adc	<L3+hold_1+2
   210 00:0139: 85 35        	sta	<L3+hold_1+2
   211 00:013B: E6 15        	inc	<L3+in_1
   212 00:013D: D0 02        	bne	L6
   213 00:013F: E6 17        	inc	<L3+in_1+2
   214                        L6:
   215 00:0141: A9 08 00     	lda	#$8
   216 00:0144: 18           	clc
   217 00:0145: 65 37        	adc	<L3+bits_1
   218 00:0147: 85 37        	sta	<L3+bits_1
   219                        L10004:
   220 00:0149: A5 41        	lda	<L3+lmask_1
   221 00:014B: 85 05        	sta	<R1
   222 00:014D: 64 07        	stz	<R1+2
   223 00:014F: A5 33        	lda	<L3+hold_1
   224 00:0151: 25 05        	and	<R1
   225 00:0153: 85 09        	sta	<R2
   226 00:0155: A5 35        	lda	<L3+hold_1+2
  Thu Nov 19 2020 16:41                                                Page 5


   227 00:0157: 25 07        	and	<R1+2
   228 00:0159: 48           	pha
   229 00:015A: D4 09        	pei	<R2
   230                        L20062:
   231 00:015C: A9 02 00     	lda	#$2
   232                        	xref	~~~lasl
   233 00:015F: 22 xx xx xx  	jsl	~~~lasl
   234 00:0163: 85 01        	sta	<R0
   235 00:0165: 86 03        	stx	<R0+2
   236 00:0167: A5 39        	lda	<L3+lcode_1
   237 00:0169: 18           	clc
   238 00:016A: 65 01        	adc	<R0
   239 00:016C: 85 05        	sta	<R1
   240 00:016E: A5 3B        	lda	<L3+lcode_1+2
   241 00:0170: 65 03        	adc	<R0+2
   242 00:0172: 48           	pha
   243 00:0173: D4 05        	pei	<R1
   244 00:0175: 18           	clc
   245 00:0176: 7B           	tdc
   246 00:0177: 69 45 00     	adc	#<L3+here_1
   247 00:017A: 85 01        	sta	<R0
   248 00:017C: A9 00 00     	lda	#$0
   249 00:017F: 48           	pha
   250 00:0180: D4 01        	pei	<R0
   251 00:0182: A9 04 00     	lda	#$4
   252                        	xref	~~~fmov
   253 00:0185: 22 xx xx xx  	jsl	~~~fmov
   254 00:0189: A5 46        	lda	<L3+here_1+1
   255 00:018B: 29 FF 00     	and	#$ff
   256 00:018E: 85 49        	sta	<L3+op_1
   257 00:0190: D4 35        	pei	<L3+hold_1+2
   258 00:0192: D4 33        	pei	<L3+hold_1
   259 00:0194: A5 49        	lda	<L3+op_1
   260                        	xref	~~~llsr
   261 00:0196: 22 xx xx xx  	jsl	~~~llsr
   262 00:019A: 85 33        	sta	<L3+hold_1
   263 00:019C: 86 35        	stx	<L3+hold_1+2
   264 00:019E: 38           	sec
   265 00:019F: A5 37        	lda	<L3+bits_1
   266 00:01A1: E5 49        	sbc	<L3+op_1
   267 00:01A3: 85 37        	sta	<L3+bits_1
   268 00:01A5: A5 45        	lda	<L3+here_1
   269 00:01A7: 29 FF 00     	and	#$ff
   270 00:01AA: 85 49        	sta	<L3+op_1
   271 00:01AC: A5 49        	lda	<L3+op_1
   272 00:01AE: F0 03        	beq	*+5
   273 00:01B0: 82 1A 01     	brl	L10006
   274 00:01B3: E2 20        	sep	#$20
   275                        	longa	off
   276 00:01B5: A5 47        	lda	<L3+here_1+2
   277 00:01B7: 87 1D        	sta	[<L3+out_1]
   278 00:01B9: C2 20        	rep	#$20
   279                        	longa	on
   280                        L20018:
   281 00:01BB: E6 1D        	inc	<L3+out_1
   282 00:01BD: D0 02        	bne	L10001
   283 00:01BF: E6 1F        	inc	<L3+out_1+2
   284                        L10001:
  Thu Nov 19 2020 16:41                                                Page 6


   285 00:01C1: A5 15        	lda	<L3+in_1
   286 00:01C3: C5 19        	cmp	<L3+last_1
   287 00:01C5: A5 17        	lda	<L3+in_1+2
   288 00:01C7: E5 1B        	sbc	<L3+last_1+2
   289 00:01C9: B0 03        	bcs	*+5
   290 00:01CB: 82 FE 05     	brl	L72
   291                        L10002:
   292 00:01CE: A5 37        	lda	<L3+bits_1
   293 00:01D0: 4A           	lsr	A
   294 00:01D1: 4A           	lsr	A
   295 00:01D2: 4A           	lsr	A
   296 00:01D3: 85 4B        	sta	<L3+len_1
   297 00:01D5: 85 01        	sta	<R0
   298 00:01D7: 64 03        	stz	<R0+2
   299 00:01D9: 38           	sec
   300 00:01DA: A5 15        	lda	<L3+in_1
   301 00:01DC: E5 01        	sbc	<R0
   302 00:01DE: 85 15        	sta	<L3+in_1
   303 00:01E0: A5 17        	lda	<L3+in_1+2
   304 00:01E2: E5 03        	sbc	<R0+2
   305 00:01E4: 85 17        	sta	<L3+in_1+2
   306 00:01E6: A5 4B        	lda	<L3+len_1
   307 00:01E8: 0A           	asl	A
   308 00:01E9: 0A           	asl	A
   309 00:01EA: 0A           	asl	A
   310 00:01EB: 85 01        	sta	<R0
   311 00:01ED: 38           	sec
   312 00:01EE: A5 37        	lda	<L3+bits_1
   313 00:01F0: E5 01        	sbc	<R0
   314 00:01F2: 85 37        	sta	<L3+bits_1
   315 00:01F4: A9 01 00     	lda	#$1
   316 00:01F7: A6 37        	ldx	<L3+bits_1
   317                        	xref	~~~asl
   318 00:01F9: 22 xx xx xx  	jsl	~~~asl
   319 00:01FD: 18           	clc
   320 00:01FE: 69 FF FF     	adc	#$ffff
   321 00:0201: 85 01        	sta	<R0
   322 00:0203: 64 03        	stz	<R0+2
   323 00:0205: A5 33        	lda	<L3+hold_1
   324 00:0207: 25 01        	and	<R0
   325 00:0209: 85 33        	sta	<L3+hold_1
   326 00:020B: A5 35        	lda	<L3+hold_1+2
   327 00:020D: 25 03        	and	<R0+2
   328 00:020F: 85 35        	sta	<L3+hold_1+2
   329 00:0211: A5 15        	lda	<L3+in_1
   330 00:0213: 87 56        	sta	[<L2+strm_0]
   331 00:0215: A5 17        	lda	<L3+in_1+2
   332 00:0217: A0 02 00     	ldy	#$2
   333 00:021A: 97 56        	sta	[<L2+strm_0],Y
   334 00:021C: A5 1D        	lda	<L3+out_1
   335 00:021E: A0 0A 00     	ldy	#$a
   336 00:0221: 97 56        	sta	[<L2+strm_0],Y
   337 00:0223: A5 1F        	lda	<L3+out_1+2
   338 00:0225: C8           	iny
   339 00:0226: C8           	iny
   340 00:0227: 97 56        	sta	[<L2+strm_0],Y
   341 00:0229: A5 15        	lda	<L3+in_1
   342 00:022B: C5 19        	cmp	<L3+last_1
  Thu Nov 19 2020 16:41                                                Page 7


   343 00:022D: A5 17        	lda	<L3+in_1+2
   344 00:022F: E5 1B        	sbc	<L3+last_1+2
   345 00:0231: B0 03        	bcs	*+5
   346 00:0233: 82 A6 05     	brl	L75
   347 00:0236: 38           	sec
   348 00:0237: A5 15        	lda	<L3+in_1
   349 00:0239: E5 19        	sbc	<L3+last_1
   350 00:023B: 85 01        	sta	<R0
   351 00:023D: A5 17        	lda	<L3+in_1+2
   352 00:023F: E5 1B        	sbc	<L3+last_1+2
   353 00:0241: 85 03        	sta	<R0+2
   354 00:0243: 38           	sec
   355 00:0244: A9 05 00     	lda	#$5
   356 00:0247: E5 01        	sbc	<R0
   357 00:0249: 85 05        	sta	<R1
   358 00:024B: A9 00 00     	lda	#$0
   359 00:024E: E5 03        	sbc	<R0+2
   360                        L20017:
   361 00:0250: 85 07        	sta	<R1+2
   362 00:0252: A6 07        	ldx	<R1+2
   363 00:0254: A5 05        	lda	<R1
   364 00:0256: 86 03        	stx	<R0+2
   365 00:0258: A0 04 00     	ldy	#$4
   366 00:025B: 97 56        	sta	[<L2+strm_0],Y
   367 00:025D: A5 1D        	lda	<L3+out_1
   368 00:025F: C5 25        	cmp	<L3+end_1
   369 00:0261: A5 1F        	lda	<L3+out_1+2
   370 00:0263: E5 27        	sbc	<L3+end_1+2
   371 00:0265: B0 1C        	bcs	L20006
   372 00:0267: 38           	sec
   373 00:0268: A5 25        	lda	<L3+end_1
   374 00:026A: E5 1D        	sbc	<L3+out_1
   375 00:026C: 85 01        	sta	<R0
   376 00:026E: A5 27        	lda	<L3+end_1+2
   377 00:0270: E5 1F        	sbc	<L3+out_1+2
   378 00:0272: 85 03        	sta	<R0+2
   379 00:0274: A9 01 01     	lda	#$101
   380 00:0277: 18           	clc
   381 00:0278: 65 01        	adc	<R0
   382 00:027A: 85 05        	sta	<R1
   383 00:027C: A9 00 00     	lda	#$0
   384 00:027F: 65 03        	adc	<R0+2
   385 00:0281: 80 1A        	bra	L20013
   386                        L20006:
   387 00:0283: 38           	sec
   388 00:0284: A5 1D        	lda	<L3+out_1
   389 00:0286: E5 25        	sbc	<L3+end_1
   390 00:0288: 85 01        	sta	<R0
   391 00:028A: A5 1F        	lda	<L3+out_1+2
   392 00:028C: E5 27        	sbc	<L3+end_1+2
   393 00:028E: 85 03        	sta	<R0+2
   394 00:0290: 38           	sec
   395 00:0291: A9 01 01     	lda	#$101
   396 00:0294: E5 01        	sbc	<R0
   397 00:0296: 85 05        	sta	<R1
   398 00:0298: A9 00 00     	lda	#$0
   399 00:029B: E5 03        	sbc	<R0+2
   400                        L20013:
  Thu Nov 19 2020 16:41                                                Page 8


   401 00:029D: 85 07        	sta	<R1+2
   402 00:029F: A6 07        	ldx	<R1+2
   403 00:02A1: A5 05        	lda	<R1
   404 00:02A3: 86 03        	stx	<R0+2
   405 00:02A5: A0 0E 00     	ldy	#$e
   406 00:02A8: 97 56        	sta	[<L2+strm_0],Y
   407 00:02AA: A5 33        	lda	<L3+hold_1
   408 00:02AC: A0 28 00     	ldy	#$28
   409 00:02AF: 97 11        	sta	[<L3+state_1],Y
   410 00:02B1: A5 35        	lda	<L3+hold_1+2
   411 00:02B3: C8           	iny
   412 00:02B4: C8           	iny
   413 00:02B5: 97 11        	sta	[<L3+state_1],Y
   414 00:02B7: A5 37        	lda	<L3+bits_1
   415 00:02B9: C8           	iny
   416 00:02BA: C8           	iny
   417 00:02BB: 97 11        	sta	[<L3+state_1],Y
   418 00:02BD: A5 54        	lda	<L2+2
   419 00:02BF: 85 5A        	sta	<L2+2+6
   420 00:02C1: A5 53        	lda	<L2+1
   421 00:02C3: 85 59        	sta	<L2+1+6
   422 00:02C5: 2B           	pld
   423 00:02C6: 3B           	tsc
   424 00:02C7: 18           	clc
   425 00:02C8: 69 58 00     	adc	#L2+6
   426 00:02CB: 1B           	tcs
   427 00:02CC: 6B           	rtl
   428                        L10006:
   429 00:02CD: A5 49        	lda	<L3+op_1
   430 00:02CF: 29 10 00     	and	#<$10
   431 00:02D2: D0 03        	bne	*+5
   432 00:02D4: 82 9F 04     	brl	L10008
   433 00:02D7: A5 47        	lda	<L3+here_1+2
   434 00:02D9: 85 4B        	sta	<L3+len_1
   435 00:02DB: A9 F0 FF     	lda	#$fff0
   436 00:02DE: 14 49        	trb	<L3+op_1
   437 00:02E0: A5 49        	lda	<L3+op_1
   438 00:02E2: F0 5D        	beq	L10009
   439 00:02E4: A5 37        	lda	<L3+bits_1
   440 00:02E6: C5 49        	cmp	<L3+op_1
   441 00:02E8: B0 2E        	bcs	L10010
   442 00:02EA: A7 15        	lda	[<L3+in_1]
   443 00:02EC: 29 FF 00     	and	#$ff
   444 00:02EF: 85 05        	sta	<R1
   445 00:02F1: 64 07        	stz	<R1+2
   446 00:02F3: D4 07        	pei	<R1+2
   447 00:02F5: D4 05        	pei	<R1
   448 00:02F7: A5 37        	lda	<L3+bits_1
   449                        	xref	~~~lasl
   450 00:02F9: 22 xx xx xx  	jsl	~~~lasl
   451 00:02FD: 86 03        	stx	<R0+2
   452 00:02FF: 18           	clc
   453 00:0300: 65 33        	adc	<L3+hold_1
   454 00:0302: 85 33        	sta	<L3+hold_1
   455 00:0304: A5 03        	lda	<R0+2
   456 00:0306: 65 35        	adc	<L3+hold_1+2
   457 00:0308: 85 35        	sta	<L3+hold_1+2
   458 00:030A: E6 15        	inc	<L3+in_1
  Thu Nov 19 2020 16:41                                                Page 9


   459 00:030C: D0 02        	bne	L12
   460 00:030E: E6 17        	inc	<L3+in_1+2
   461                        L12:
   462 00:0310: A9 08 00     	lda	#$8
   463 00:0313: 18           	clc
   464 00:0314: 65 37        	adc	<L3+bits_1
   465 00:0316: 85 37        	sta	<L3+bits_1
   466                        L10010:
   467 00:0318: A9 01 00     	lda	#$1
   468 00:031B: A6 49        	ldx	<L3+op_1
   469                        	xref	~~~asl
   470 00:031D: 22 xx xx xx  	jsl	~~~asl
   471 00:0321: 18           	clc
   472 00:0322: 69 FF FF     	adc	#$ffff
   473 00:0325: 25 33        	and	<L3+hold_1
   474 00:0327: 18           	clc
   475 00:0328: 65 4B        	adc	<L3+len_1
   476 00:032A: 85 4B        	sta	<L3+len_1
   477 00:032C: D4 35        	pei	<L3+hold_1+2
   478 00:032E: D4 33        	pei	<L3+hold_1
   479 00:0330: A5 49        	lda	<L3+op_1
   480                        	xref	~~~llsr
   481 00:0332: 22 xx xx xx  	jsl	~~~llsr
   482 00:0336: 85 33        	sta	<L3+hold_1
   483 00:0338: 86 35        	stx	<L3+hold_1+2
   484 00:033A: 38           	sec
   485 00:033B: A5 37        	lda	<L3+bits_1
   486 00:033D: E5 49        	sbc	<L3+op_1
   487 00:033F: 85 37        	sta	<L3+bits_1
   488                        L10009:
   489 00:0341: A5 37        	lda	<L3+bits_1
   490 00:0343: C9 0F 00     	cmp	#<$f
   491 00:0346: B0 5C        	bcs	L10011
   492 00:0348: A7 15        	lda	[<L3+in_1]
   493 00:034A: 29 FF 00     	and	#$ff
   494 00:034D: 85 05        	sta	<R1
   495 00:034F: 64 07        	stz	<R1+2
   496 00:0351: D4 07        	pei	<R1+2
   497 00:0353: D4 05        	pei	<R1
   498 00:0355: A5 37        	lda	<L3+bits_1
   499                        	xref	~~~lasl
   500 00:0357: 22 xx xx xx  	jsl	~~~lasl
   501 00:035B: 86 03        	stx	<R0+2
   502 00:035D: 18           	clc
   503 00:035E: 65 33        	adc	<L3+hold_1
   504 00:0360: 85 33        	sta	<L3+hold_1
   505 00:0362: A5 03        	lda	<R0+2
   506 00:0364: 65 35        	adc	<L3+hold_1+2
   507 00:0366: 85 35        	sta	<L3+hold_1+2
   508 00:0368: E6 15        	inc	<L3+in_1
   509 00:036A: D0 02        	bne	L14
   510 00:036C: E6 17        	inc	<L3+in_1+2
   511                        L14:
   512 00:036E: A9 08 00     	lda	#$8
   513 00:0371: 18           	clc
   514 00:0372: 65 37        	adc	<L3+bits_1
   515 00:0374: 85 37        	sta	<L3+bits_1
   516 00:0376: A7 15        	lda	[<L3+in_1]
  Thu Nov 19 2020 16:41                                                Page 10


   517 00:0378: 29 FF 00     	and	#$ff
   518 00:037B: 85 05        	sta	<R1
   519 00:037D: 64 07        	stz	<R1+2
   520 00:037F: D4 07        	pei	<R1+2
   521 00:0381: D4 05        	pei	<R1
   522 00:0383: A5 37        	lda	<L3+bits_1
   523                        	xref	~~~lasl
   524 00:0385: 22 xx xx xx  	jsl	~~~lasl
   525 00:0389: 86 03        	stx	<R0+2
   526 00:038B: 18           	clc
   527 00:038C: 65 33        	adc	<L3+hold_1
   528 00:038E: 85 33        	sta	<L3+hold_1
   529 00:0390: A5 03        	lda	<R0+2
   530 00:0392: 65 35        	adc	<L3+hold_1+2
   531 00:0394: 85 35        	sta	<L3+hold_1+2
   532 00:0396: E6 15        	inc	<L3+in_1
   533 00:0398: D0 02        	bne	L15
   534 00:039A: E6 17        	inc	<L3+in_1+2
   535                        L15:
   536 00:039C: A9 08 00     	lda	#$8
   537 00:039F: 18           	clc
   538 00:03A0: 65 37        	adc	<L3+bits_1
   539 00:03A2: 85 37        	sta	<L3+bits_1
   540                        L10011:
   541 00:03A4: A5 43        	lda	<L3+dmask_1
   542 00:03A6: 85 05        	sta	<R1
   543 00:03A8: 64 07        	stz	<R1+2
   544 00:03AA: A5 33        	lda	<L3+hold_1
   545 00:03AC: 25 05        	and	<R1
   546 00:03AE: 85 09        	sta	<R2
   547 00:03B0: A5 35        	lda	<L3+hold_1+2
   548 00:03B2: 25 07        	and	<R1+2
   549 00:03B4: 48           	pha
   550 00:03B5: D4 09        	pei	<R2
   551                        L20061:
   552 00:03B7: A9 02 00     	lda	#$2
   553                        	xref	~~~lasl
   554 00:03BA: 22 xx xx xx  	jsl	~~~lasl
   555 00:03BE: 85 01        	sta	<R0
   556 00:03C0: 86 03        	stx	<R0+2
   557 00:03C2: A5 3D        	lda	<L3+dcode_1
   558 00:03C4: 18           	clc
   559 00:03C5: 65 01        	adc	<R0
   560 00:03C7: 85 05        	sta	<R1
   561 00:03C9: A5 3F        	lda	<L3+dcode_1+2
   562 00:03CB: 65 03        	adc	<R0+2
   563 00:03CD: 85 07        	sta	<R1+2
   564 00:03CF: 48           	pha
   565 00:03D0: D4 05        	pei	<R1
   566 00:03D2: 18           	clc
   567 00:03D3: 7B           	tdc
   568 00:03D4: 69 45 00     	adc	#<L3+here_1
   569 00:03D7: 85 01        	sta	<R0
   570 00:03D9: A9 00 00     	lda	#$0
   571 00:03DC: 85 03        	sta	<R0+2
   572 00:03DE: 48           	pha
   573 00:03DF: D4 01        	pei	<R0
   574 00:03E1: A9 04 00     	lda	#$4
  Thu Nov 19 2020 16:41                                                Page 11


   575                        	xref	~~~fmov
   576 00:03E4: 22 xx xx xx  	jsl	~~~fmov
   577 00:03E8: A5 46        	lda	<L3+here_1+1
   578 00:03EA: 29 FF 00     	and	#$ff
   579 00:03ED: 85 49        	sta	<L3+op_1
   580 00:03EF: D4 35        	pei	<L3+hold_1+2
   581 00:03F1: D4 33        	pei	<L3+hold_1
   582 00:03F3: A5 49        	lda	<L3+op_1
   583                        	xref	~~~llsr
   584 00:03F5: 22 xx xx xx  	jsl	~~~llsr
   585 00:03F9: 85 33        	sta	<L3+hold_1
   586 00:03FB: 86 35        	stx	<L3+hold_1+2
   587 00:03FD: 38           	sec
   588 00:03FE: A5 37        	lda	<L3+bits_1
   589 00:0400: E5 49        	sbc	<L3+op_1
   590 00:0402: 85 37        	sta	<L3+bits_1
   591 00:0404: A5 45        	lda	<L3+here_1
   592 00:0406: 29 FF 00     	and	#$ff
   593 00:0409: 85 49        	sta	<L3+op_1
   594 00:040B: 29 10 00     	and	#<$10
   595 00:040E: D0 03        	bne	*+5
   596 00:0410: 82 1A 03     	brl	L10013
   597 00:0413: A5 47        	lda	<L3+here_1+2
   598 00:0415: 85 4D        	sta	<L3+dist_1
   599 00:0417: A9 F0 FF     	lda	#$fff0
   600 00:041A: 14 49        	trb	<L3+op_1
   601 00:041C: A5 37        	lda	<L3+bits_1
   602 00:041E: C5 49        	cmp	<L3+op_1
   603 00:0420: B0 60        	bcs	L10014
   604 00:0422: A7 15        	lda	[<L3+in_1]
   605 00:0424: 29 FF 00     	and	#$ff
   606 00:0427: 85 05        	sta	<R1
   607 00:0429: 64 07        	stz	<R1+2
   608 00:042B: D4 07        	pei	<R1+2
   609 00:042D: D4 05        	pei	<R1
   610 00:042F: A5 37        	lda	<L3+bits_1
   611                        	xref	~~~lasl
   612 00:0431: 22 xx xx xx  	jsl	~~~lasl
   613 00:0435: 86 03        	stx	<R0+2
   614 00:0437: 18           	clc
   615 00:0438: 65 33        	adc	<L3+hold_1
   616 00:043A: 85 33        	sta	<L3+hold_1
   617 00:043C: A5 03        	lda	<R0+2
   618 00:043E: 65 35        	adc	<L3+hold_1+2
   619 00:0440: 85 35        	sta	<L3+hold_1+2
   620 00:0442: E6 15        	inc	<L3+in_1
   621 00:0444: D0 02        	bne	L18
   622 00:0446: E6 17        	inc	<L3+in_1+2
   623                        L18:
   624 00:0448: A9 08 00     	lda	#$8
   625 00:044B: 18           	clc
   626 00:044C: 65 37        	adc	<L3+bits_1
   627 00:044E: 85 37        	sta	<L3+bits_1
   628 00:0450: C5 49        	cmp	<L3+op_1
   629 00:0452: B0 2E        	bcs	L10014
   630 00:0454: A7 15        	lda	[<L3+in_1]
   631 00:0456: 29 FF 00     	and	#$ff
   632 00:0459: 85 05        	sta	<R1
  Thu Nov 19 2020 16:41                                                Page 12


   633 00:045B: 64 07        	stz	<R1+2
   634 00:045D: D4 07        	pei	<R1+2
   635 00:045F: D4 05        	pei	<R1
   636 00:0461: A5 37        	lda	<L3+bits_1
   637                        	xref	~~~lasl
   638 00:0463: 22 xx xx xx  	jsl	~~~lasl
   639 00:0467: 86 03        	stx	<R0+2
   640 00:0469: 18           	clc
   641 00:046A: 65 33        	adc	<L3+hold_1
   642 00:046C: 85 33        	sta	<L3+hold_1
   643 00:046E: A5 03        	lda	<R0+2
   644 00:0470: 65 35        	adc	<L3+hold_1+2
   645 00:0472: 85 35        	sta	<L3+hold_1+2
   646 00:0474: E6 15        	inc	<L3+in_1
   647 00:0476: D0 02        	bne	L20
   648 00:0478: E6 17        	inc	<L3+in_1+2
   649                        L20:
   650 00:047A: A9 08 00     	lda	#$8
   651 00:047D: 18           	clc
   652 00:047E: 65 37        	adc	<L3+bits_1
   653 00:0480: 85 37        	sta	<L3+bits_1
   654                        L10014:
   655 00:0482: A9 01 00     	lda	#$1
   656 00:0485: A6 49        	ldx	<L3+op_1
   657                        	xref	~~~asl
   658 00:0487: 22 xx xx xx  	jsl	~~~asl
   659 00:048B: 18           	clc
   660 00:048C: 69 FF FF     	adc	#$ffff
   661 00:048F: 25 33        	and	<L3+hold_1
   662 00:0491: 18           	clc
   663 00:0492: 65 4D        	adc	<L3+dist_1
   664 00:0494: 85 4D        	sta	<L3+dist_1
   665 00:0496: D4 35        	pei	<L3+hold_1+2
   666 00:0498: D4 33        	pei	<L3+hold_1
   667 00:049A: A5 49        	lda	<L3+op_1
   668                        	xref	~~~llsr
   669 00:049C: 22 xx xx xx  	jsl	~~~llsr
   670 00:04A0: 85 33        	sta	<L3+hold_1
   671 00:04A2: 86 35        	stx	<L3+hold_1+2
   672 00:04A4: 38           	sec
   673 00:04A5: A5 37        	lda	<L3+bits_1
   674 00:04A7: E5 49        	sbc	<L3+op_1
   675 00:04A9: 85 37        	sta	<L3+bits_1
   676 00:04AB: 38           	sec
   677 00:04AC: A5 1D        	lda	<L3+out_1
   678 00:04AE: E5 21        	sbc	<L3+beg_1
   679 00:04B0: 85 01        	sta	<R0
   680 00:04B2: A5 1F        	lda	<L3+out_1+2
   681 00:04B4: E5 23        	sbc	<L3+beg_1+2
   682 00:04B6: 85 03        	sta	<R0+2
   683 00:04B8: A5 01        	lda	<R0
   684 00:04BA: 85 49        	sta	<L3+op_1
   685 00:04BC: C5 4D        	cmp	<L3+dist_1
   686 00:04BE: 90 03        	bcc	*+5
   687 00:04C0: 82 DE 01     	brl	L10016
   688 00:04C3: 38           	sec
   689 00:04C4: A5 4D        	lda	<L3+dist_1
   690 00:04C6: E5 49        	sbc	<L3+op_1
  Thu Nov 19 2020 16:41                                                Page 13


   691 00:04C8: 85 49        	sta	<L3+op_1
   692 00:04CA: A5 2B        	lda	<L3+whave_1
   693 00:04CC: C5 49        	cmp	<L3+op_1
   694 00:04CE: B0 22        	bcs	L10017
   695 00:04D0: A0 9C 1B     	ldy	#$1b9c
   696 00:04D3: B7 11        	lda	[<L3+state_1],Y
   697 00:04D5: F0 1B        	beq	L10017
   698 00:04D7: A9 xx xx     	lda	#<L1
   699 00:04DA: A0 14 00     	ldy	#$14
   700 00:04DD: 97 56        	sta	[<L2+strm_0],Y
   701 00:04DF: A9 xx xx     	lda	#^L1
   702                        L20067:
   703 00:04E2: A0 16 00     	ldy	#$16
   704 00:04E5: 97 56        	sta	[<L2+strm_0],Y
   705 00:04E7: A9 51 3F     	lda	#$3f51
   706                        L20069:
   707 00:04EA: A0 04 00     	ldy	#$4
   708 00:04ED: 97 11        	sta	[<L3+state_1],Y
   709 00:04EF: 82 DC FC     	brl	L10002
   710                        L10017:
   711 00:04F2: A5 2F        	lda	<L3+window_1
   712 00:04F4: 85 4F        	sta	<L3+from_1
   713 00:04F6: A5 31        	lda	<L3+window_1+2
   714 00:04F8: 85 51        	sta	<L3+from_1+2
   715 00:04FA: A5 2D        	lda	<L3+wnext_1
   716 00:04FC: F0 03        	beq	*+5
   717 00:04FE: 82 D6 00     	brl	L10019
   718 00:0501: 38           	sec
   719 00:0502: A5 29        	lda	<L3+wsize_1
   720 00:0504: E5 49        	sbc	<L3+op_1
   721 00:0506: 85 01        	sta	<R0
   722 00:0508: 64 03        	stz	<R0+2
   723 00:050A: A5 4F        	lda	<L3+from_1
   724 00:050C: 18           	clc
   725 00:050D: 65 01        	adc	<R0
   726 00:050F: 85 4F        	sta	<L3+from_1
   727 00:0511: A5 51        	lda	<L3+from_1+2
   728 00:0513: 65 03        	adc	<R0+2
   729 00:0515: 85 51        	sta	<L3+from_1+2
   730 00:0517: A5 49        	lda	<L3+op_1
   731 00:0519: C5 4B        	cmp	<L3+len_1
   732 00:051B: 90 03        	bcc	*+5
   733 00:051D: 82 41 01     	brl	L10039
   734 00:0520: 38           	sec
   735 00:0521: A5 4B        	lda	<L3+len_1
   736 00:0523: E5 49        	sbc	<L3+op_1
   737 00:0525: 85 4B        	sta	<L3+len_1
   738                        L10023:
   739 00:0527: E2 20        	sep	#$20
   740                        	longa	off
   741 00:0529: A7 4F        	lda	[<L3+from_1]
   742 00:052B: 87 1D        	sta	[<L3+out_1]
   743 00:052D: C2 20        	rep	#$20
   744                        	longa	on
   745 00:052F: E6 4F        	inc	<L3+from_1
   746 00:0531: D0 02        	bne	L26
   747 00:0533: E6 51        	inc	<L3+from_1+2
   748                        L26:
  Thu Nov 19 2020 16:41                                                Page 14


   749 00:0535: E6 1D        	inc	<L3+out_1
   750 00:0537: D0 02        	bne	L10021
   751 00:0539: E6 1F        	inc	<L3+out_1+2
   752                        L10021:
   753 00:053B: C6 49        	dec	<L3+op_1
   754 00:053D: A5 49        	lda	<L3+op_1
   755 00:053F: D0 E6        	bne	L10023
   756 00:0541: 80 7E        	bra	L20082
   757                        L20096:
   758 00:0543: A5 29        	lda	<L3+wsize_1
   759 00:0545: 18           	clc
   760 00:0546: 65 2D        	adc	<L3+wnext_1
   761 00:0548: 38           	sec
   762 00:0549: E5 49        	sbc	<L3+op_1
   763 00:054B: 85 01        	sta	<R0
   764 00:054D: 64 03        	stz	<R0+2
   765 00:054F: A5 4F        	lda	<L3+from_1
   766 00:0551: 18           	clc
   767 00:0552: 65 01        	adc	<R0
   768 00:0554: 85 4F        	sta	<L3+from_1
   769 00:0556: A5 51        	lda	<L3+from_1+2
   770 00:0558: 65 03        	adc	<R0+2
   771 00:055A: 85 51        	sta	<L3+from_1+2
   772 00:055C: 38           	sec
   773 00:055D: A5 49        	lda	<L3+op_1
   774 00:055F: E5 2D        	sbc	<L3+wnext_1
   775 00:0561: 85 49        	sta	<L3+op_1
   776 00:0563: C5 4B        	cmp	<L3+len_1
   777 00:0565: 90 03        	bcc	*+5
   778 00:0567: 82 F7 00     	brl	L10039
   779 00:056A: 38           	sec
   780 00:056B: A5 4B        	lda	<L3+len_1
   781 00:056D: E5 49        	sbc	<L3+op_1
   782 00:056F: 85 4B        	sta	<L3+len_1
   783                        L10029:
   784 00:0571: E2 20        	sep	#$20
   785                        	longa	off
   786 00:0573: A7 4F        	lda	[<L3+from_1]
   787 00:0575: 87 1D        	sta	[<L3+out_1]
   788 00:0577: C2 20        	rep	#$20
   789                        	longa	on
   790 00:0579: E6 4F        	inc	<L3+from_1
   791 00:057B: D0 02        	bne	L31
   792 00:057D: E6 51        	inc	<L3+from_1+2
   793                        L31:
   794 00:057F: E6 1D        	inc	<L3+out_1
   795 00:0581: D0 02        	bne	L10027
   796 00:0583: E6 1F        	inc	<L3+out_1+2
   797                        L10027:
   798 00:0585: C6 49        	dec	<L3+op_1
   799 00:0587: A5 49        	lda	<L3+op_1
   800 00:0589: D0 E6        	bne	L10029
   801 00:058B: A5 2F        	lda	<L3+window_1
   802 00:058D: 85 4F        	sta	<L3+from_1
   803 00:058F: A5 31        	lda	<L3+window_1+2
   804 00:0591: 85 51        	sta	<L3+from_1+2
   805 00:0593: A5 2D        	lda	<L3+wnext_1
   806 00:0595: C5 4B        	cmp	<L3+len_1
  Thu Nov 19 2020 16:41                                                Page 15


   807 00:0597: 90 03        	bcc	*+5
   808 00:0599: 82 C5 00     	brl	L10039
   809 00:059C: A5 2D        	lda	<L3+wnext_1
   810 00:059E: 85 49        	sta	<L3+op_1
   811 00:05A0: 38           	sec
   812 00:05A1: A5 4B        	lda	<L3+len_1
   813 00:05A3: E5 49        	sbc	<L3+op_1
   814 00:05A5: 85 4B        	sta	<L3+len_1
   815                        L10033:
   816 00:05A7: E2 20        	sep	#$20
   817                        	longa	off
   818 00:05A9: A7 4F        	lda	[<L3+from_1]
   819 00:05AB: 87 1D        	sta	[<L3+out_1]
   820 00:05AD: C2 20        	rep	#$20
   821                        	longa	on
   822 00:05AF: E6 4F        	inc	<L3+from_1
   823 00:05B1: D0 02        	bne	L35
   824 00:05B3: E6 51        	inc	<L3+from_1+2
   825                        L35:
   826 00:05B5: E6 1D        	inc	<L3+out_1
   827 00:05B7: D0 02        	bne	L10031
   828 00:05B9: E6 1F        	inc	<L3+out_1+2
   829                        L10031:
   830 00:05BB: C6 49        	dec	<L3+op_1
   831 00:05BD: A5 49        	lda	<L3+op_1
   832 00:05BF: D0 E6        	bne	L10033
   833                        L20082:
   834 00:05C1: A5 4D        	lda	<L3+dist_1
   835 00:05C3: 85 01        	sta	<R0
   836 00:05C5: 64 03        	stz	<R0+2
   837 00:05C7: 38           	sec
   838 00:05C8: A5 1D        	lda	<L3+out_1
   839 00:05CA: E5 01        	sbc	<R0
   840 00:05CC: 85 4F        	sta	<L3+from_1
   841 00:05CE: A5 1F        	lda	<L3+out_1+2
   842 00:05D0: E5 03        	sbc	<R0+2
   843 00:05D2: 85 51        	sta	<L3+from_1+2
   844 00:05D4: 82 8A 00     	brl	L10039
   845                        L10019:
   846 00:05D7: A5 2D        	lda	<L3+wnext_1
   847 00:05D9: C5 49        	cmp	<L3+op_1
   848 00:05DB: B0 03        	bcs	*+5
   849 00:05DD: 82 63 FF     	brl	L20096
   850 00:05E0: 38           	sec
   851 00:05E1: A5 2D        	lda	<L3+wnext_1
   852 00:05E3: E5 49        	sbc	<L3+op_1
   853 00:05E5: 85 01        	sta	<R0
   854 00:05E7: 64 03        	stz	<R0+2
   855 00:05E9: A5 4F        	lda	<L3+from_1
   856 00:05EB: 18           	clc
   857 00:05EC: 65 01        	adc	<R0
   858 00:05EE: 85 4F        	sta	<L3+from_1
   859 00:05F0: A5 51        	lda	<L3+from_1+2
   860 00:05F2: 65 03        	adc	<R0+2
   861 00:05F4: 85 51        	sta	<L3+from_1+2
   862 00:05F6: A5 49        	lda	<L3+op_1
   863 00:05F8: C5 4B        	cmp	<L3+len_1
   864 00:05FA: B0 65        	bcs	L10039
  Thu Nov 19 2020 16:41                                                Page 16


   865 00:05FC: 38           	sec
   866 00:05FD: A5 4B        	lda	<L3+len_1
   867 00:05FF: E5 49        	sbc	<L3+op_1
   868 00:0601: 85 4B        	sta	<L3+len_1
   869                        L10038:
   870 00:0603: E2 20        	sep	#$20
   871                        	longa	off
   872 00:0605: A7 4F        	lda	[<L3+from_1]
   873 00:0607: 87 1D        	sta	[<L3+out_1]
   874 00:0609: C2 20        	rep	#$20
   875                        	longa	on
   876 00:060B: E6 4F        	inc	<L3+from_1
   877 00:060D: D0 02        	bne	L39
   878 00:060F: E6 51        	inc	<L3+from_1+2
   879                        L39:
   880 00:0611: E6 1D        	inc	<L3+out_1
   881 00:0613: D0 02        	bne	L10036
   882 00:0615: E6 1F        	inc	<L3+out_1+2
   883                        L10036:
   884 00:0617: C6 49        	dec	<L3+op_1
   885 00:0619: A5 49        	lda	<L3+op_1
   886 00:061B: D0 E6        	bne	L10038
   887 00:061D: 80 A2        	bra	L20082
   888                        L20001:
   889 00:061F: E2 20        	sep	#$20
   890                        	longa	off
   891 00:0621: A7 4F        	lda	[<L3+from_1]
   892 00:0623: 87 1D        	sta	[<L3+out_1]
   893 00:0625: C2 20        	rep	#$20
   894                        	longa	on
   895 00:0627: E6 4F        	inc	<L3+from_1
   896 00:0629: D0 02        	bne	L43
   897 00:062B: E6 51        	inc	<L3+from_1+2
   898                        L43:
   899 00:062D: E6 1D        	inc	<L3+out_1
   900 00:062F: D0 02        	bne	L44
   901 00:0631: E6 1F        	inc	<L3+out_1+2
   902                        L44:
   903 00:0633: E2 20        	sep	#$20
   904                        	longa	off
   905 00:0635: A7 4F        	lda	[<L3+from_1]
   906 00:0637: 87 1D        	sta	[<L3+out_1]
   907 00:0639: C2 20        	rep	#$20
   908                        	longa	on
   909 00:063B: E6 4F        	inc	<L3+from_1
   910 00:063D: D0 02        	bne	L45
   911 00:063F: E6 51        	inc	<L3+from_1+2
   912                        L45:
   913 00:0641: E6 1D        	inc	<L3+out_1
   914 00:0643: D0 02        	bne	L46
   915 00:0645: E6 1F        	inc	<L3+out_1+2
   916                        L46:
   917 00:0647: E2 20        	sep	#$20
   918                        	longa	off
   919 00:0649: A7 4F        	lda	[<L3+from_1]
   920 00:064B: 87 1D        	sta	[<L3+out_1]
   921 00:064D: C2 20        	rep	#$20
   922                        	longa	on
  Thu Nov 19 2020 16:41                                                Page 17


   923 00:064F: E6 4F        	inc	<L3+from_1
   924 00:0651: D0 02        	bne	L47
   925 00:0653: E6 51        	inc	<L3+from_1+2
   926                        L47:
   927 00:0655: E6 1D        	inc	<L3+out_1
   928 00:0657: D0 02        	bne	L48
   929 00:0659: E6 1F        	inc	<L3+out_1+2
   930                        L48:
   931 00:065B: C6 4B        	dec	<L3+len_1
   932 00:065D: C6 4B        	dec	<L3+len_1
   933 00:065F: C6 4B        	dec	<L3+len_1
   934                        L10039:
   935 00:0661: A9 02 00     	lda	#$2
   936 00:0664: C5 4B        	cmp	<L3+len_1
   937 00:0666: 90 B7        	bcc	L20001
   938 00:0668: A5 4B        	lda	<L3+len_1
   939 00:066A: D0 03        	bne	*+5
   940 00:066C: 82 52 FB     	brl	L10001
   941 00:066F: E2 20        	sep	#$20
   942                        	longa	off
   943 00:0671: A7 4F        	lda	[<L3+from_1]
   944 00:0673: 87 1D        	sta	[<L3+out_1]
   945 00:0675: C2 20        	rep	#$20
   946                        	longa	on
   947 00:0677: E6 4F        	inc	<L3+from_1
   948 00:0679: D0 02        	bne	L50
   949 00:067B: E6 51        	inc	<L3+from_1+2
   950                        L50:
   951 00:067D: E6 1D        	inc	<L3+out_1
   952 00:067F: D0 02        	bne	L51
   953 00:0681: E6 1F        	inc	<L3+out_1+2
   954                        L51:
   955 00:0683: A9 01 00     	lda	#$1
   956 00:0686: C5 4B        	cmp	<L3+len_1
   957 00:0688: 90 03        	bcc	*+5
   958 00:068A: 82 34 FB     	brl	L10001
   959 00:068D: E2 20        	sep	#$20
   960                        	longa	off
   961 00:068F: A7 4F        	lda	[<L3+from_1]
   962 00:0691: 87 1D        	sta	[<L3+out_1]
   963 00:0693: C2 20        	rep	#$20
   964                        	longa	on
   965                        L20094:
   966 00:0695: E6 4F        	inc	<L3+from_1
   967 00:0697: F0 03        	beq	*+5
   968 00:0699: 82 1F FB     	brl	L20018
   969 00:069C: E6 51        	inc	<L3+from_1+2
   970 00:069E: 82 1A FB     	brl	L20018
   971                        L10016:
   972 00:06A1: A5 4D        	lda	<L3+dist_1
   973 00:06A3: 85 01        	sta	<R0
   974 00:06A5: 64 03        	stz	<R0+2
   975 00:06A7: 38           	sec
   976 00:06A8: A5 1D        	lda	<L3+out_1
   977 00:06AA: E5 01        	sbc	<R0
   978 00:06AC: 85 4F        	sta	<L3+from_1
   979 00:06AE: A5 1F        	lda	<L3+out_1+2
   980 00:06B0: E5 03        	sbc	<R0+2
  Thu Nov 19 2020 16:41                                                Page 18


   981 00:06B2: 85 51        	sta	<L3+from_1+2
   982                        L10046:
   983 00:06B4: E2 20        	sep	#$20
   984                        	longa	off
   985 00:06B6: A7 4F        	lda	[<L3+from_1]
   986 00:06B8: 87 1D        	sta	[<L3+out_1]
   987 00:06BA: C2 20        	rep	#$20
   988                        	longa	on
   989 00:06BC: E6 4F        	inc	<L3+from_1
   990 00:06BE: D0 02        	bne	L55
   991 00:06C0: E6 51        	inc	<L3+from_1+2
   992                        L55:
   993 00:06C2: E6 1D        	inc	<L3+out_1
   994 00:06C4: D0 02        	bne	L56
   995 00:06C6: E6 1F        	inc	<L3+out_1+2
   996                        L56:
   997 00:06C8: E2 20        	sep	#$20
   998                        	longa	off
   999 00:06CA: A7 4F        	lda	[<L3+from_1]
  1000 00:06CC: 87 1D        	sta	[<L3+out_1]
  1001 00:06CE: C2 20        	rep	#$20
  1002                        	longa	on
  1003 00:06D0: E6 4F        	inc	<L3+from_1
  1004 00:06D2: D0 02        	bne	L57
  1005 00:06D4: E6 51        	inc	<L3+from_1+2
  1006                        L57:
  1007 00:06D6: E6 1D        	inc	<L3+out_1
  1008 00:06D8: D0 02        	bne	L58
  1009 00:06DA: E6 1F        	inc	<L3+out_1+2
  1010                        L58:
  1011 00:06DC: E2 20        	sep	#$20
  1012                        	longa	off
  1013 00:06DE: A7 4F        	lda	[<L3+from_1]
  1014 00:06E0: 87 1D        	sta	[<L3+out_1]
  1015 00:06E2: C2 20        	rep	#$20
  1016                        	longa	on
  1017 00:06E4: E6 4F        	inc	<L3+from_1
  1018 00:06E6: D0 02        	bne	L59
  1019 00:06E8: E6 51        	inc	<L3+from_1+2
  1020                        L59:
  1021 00:06EA: E6 1D        	inc	<L3+out_1
  1022 00:06EC: D0 02        	bne	L60
  1023 00:06EE: E6 1F        	inc	<L3+out_1+2
  1024                        L60:
  1025 00:06F0: C6 4B        	dec	<L3+len_1
  1026 00:06F2: C6 4B        	dec	<L3+len_1
  1027 00:06F4: C6 4B        	dec	<L3+len_1
  1028 00:06F6: A9 02 00     	lda	#$2
  1029 00:06F9: C5 4B        	cmp	<L3+len_1
  1030 00:06FB: 90 B7        	bcc	L10046
  1031 00:06FD: A5 4B        	lda	<L3+len_1
  1032 00:06FF: D0 03        	bne	*+5
  1033 00:0701: 82 BD FA     	brl	L10001
  1034 00:0704: E2 20        	sep	#$20
  1035                        	longa	off
  1036 00:0706: A7 4F        	lda	[<L3+from_1]
  1037 00:0708: 87 1D        	sta	[<L3+out_1]
  1038 00:070A: C2 20        	rep	#$20
  Thu Nov 19 2020 16:41                                                Page 19


  1039                        	longa	on
  1040 00:070C: E6 4F        	inc	<L3+from_1
  1041 00:070E: D0 02        	bne	L63
  1042 00:0710: E6 51        	inc	<L3+from_1+2
  1043                        L63:
  1044 00:0712: E6 1D        	inc	<L3+out_1
  1045 00:0714: D0 02        	bne	L64
  1046 00:0716: E6 1F        	inc	<L3+out_1+2
  1047                        L64:
  1048 00:0718: A9 01 00     	lda	#$1
  1049 00:071B: C5 4B        	cmp	<L3+len_1
  1050 00:071D: 90 03        	bcc	*+5
  1051 00:071F: 82 9F FA     	brl	L10001
  1052 00:0722: E2 20        	sep	#$20
  1053                        	longa	off
  1054 00:0724: A7 4F        	lda	[<L3+from_1]
  1055 00:0726: 87 1D        	sta	[<L3+out_1]
  1056 00:0728: C2 20        	rep	#$20
  1057                        	longa	on
  1058 00:072A: 82 68 FF     	brl	L20094
  1059                        L10013:
  1060 00:072D: A5 49        	lda	<L3+op_1
  1061 00:072F: 29 40 00     	and	#<$40
  1062 00:0732: D0 34        	bne	L10050
  1063 00:0734: A9 01 00     	lda	#$1
  1064 00:0737: A6 49        	ldx	<L3+op_1
  1065                        	xref	~~~asl
  1066 00:0739: 22 xx xx xx  	jsl	~~~asl
  1067 00:073D: 18           	clc
  1068 00:073E: 69 FF FF     	adc	#$ffff
  1069 00:0741: 85 05        	sta	<R1
  1070 00:0743: 64 07        	stz	<R1+2
  1071 00:0745: A5 33        	lda	<L3+hold_1
  1072 00:0747: 25 05        	and	<R1
  1073 00:0749: 85 09        	sta	<R2
  1074 00:074B: A5 35        	lda	<L3+hold_1+2
  1075 00:074D: 25 07        	and	<R1+2
  1076 00:074F: 85 0B        	sta	<R2+2
  1077 00:0751: A5 47        	lda	<L3+here_1+2
  1078 00:0753: 85 05        	sta	<R1
  1079 00:0755: 64 07        	stz	<R1+2
  1080 00:0757: A5 05        	lda	<R1
  1081 00:0759: 18           	clc
  1082 00:075A: 65 09        	adc	<R2
  1083 00:075C: 85 0D        	sta	<R3
  1084 00:075E: A5 07        	lda	<R1+2
  1085 00:0760: 65 0B        	adc	<R2+2
  1086 00:0762: 48           	pha
  1087 00:0763: D4 0D        	pei	<R3
  1088 00:0765: 82 4F FC     	brl	L20061
  1089                        L10050:
  1090 00:0768: A9 xx xx     	lda	#<L1+30
  1091 00:076B: A0 14 00     	ldy	#$14
  1092 00:076E: 97 56        	sta	[<L2+strm_0],Y
  1093 00:0770: A9 xx xx     	lda	#^L1+30
  1094 00:0773: 82 6C FD     	brl	L20067
  1095                        L10008:
  1096 00:0776: A5 49        	lda	<L3+op_1
  Thu Nov 19 2020 16:41                                                Page 20


  1097 00:0778: 29 40 00     	and	#<$40
  1098 00:077B: D0 34        	bne	L10052
  1099 00:077D: A9 01 00     	lda	#$1
  1100 00:0780: A6 49        	ldx	<L3+op_1
  1101                        	xref	~~~asl
  1102 00:0782: 22 xx xx xx  	jsl	~~~asl
  1103 00:0786: 18           	clc
  1104 00:0787: 69 FF FF     	adc	#$ffff
  1105 00:078A: 85 05        	sta	<R1
  1106 00:078C: 64 07        	stz	<R1+2
  1107 00:078E: A5 33        	lda	<L3+hold_1
  1108 00:0790: 25 05        	and	<R1
  1109 00:0792: 85 09        	sta	<R2
  1110 00:0794: A5 35        	lda	<L3+hold_1+2
  1111 00:0796: 25 07        	and	<R1+2
  1112 00:0798: 85 0B        	sta	<R2+2
  1113 00:079A: A5 47        	lda	<L3+here_1+2
  1114 00:079C: 85 05        	sta	<R1
  1115 00:079E: 64 07        	stz	<R1+2
  1116 00:07A0: A5 05        	lda	<R1
  1117 00:07A2: 18           	clc
  1118 00:07A3: 65 09        	adc	<R2
  1119 00:07A5: 85 0D        	sta	<R3
  1120 00:07A7: A5 07        	lda	<R1+2
  1121 00:07A9: 65 0B        	adc	<R2+2
  1122 00:07AB: 48           	pha
  1123 00:07AC: D4 0D        	pei	<R3
  1124 00:07AE: 82 AB F9     	brl	L20062
  1125                        L10052:
  1126 00:07B1: A5 49        	lda	<L3+op_1
  1127 00:07B3: 29 20 00     	and	#<$20
  1128 00:07B6: F0 06        	beq	L10053
  1129 00:07B8: A9 3F 3F     	lda	#$3f3f
  1130 00:07BB: 82 2C FD     	brl	L20069
  1131                        L10053:
  1132 00:07BE: A9 xx xx     	lda	#<L1+52
  1133 00:07C1: A0 14 00     	ldy	#$14
  1134 00:07C4: 97 56        	sta	[<L2+strm_0],Y
  1135 00:07C6: A9 xx xx     	lda	#^L1+52
  1136 00:07C9: 82 16 FD     	brl	L20067
  1137                        L72:
  1138 00:07CC: A5 1D        	lda	<L3+out_1
  1139 00:07CE: C5 25        	cmp	<L3+end_1
  1140 00:07D0: A5 1F        	lda	<L3+out_1+2
  1141 00:07D2: E5 27        	sbc	<L3+end_1+2
  1142 00:07D4: 90 03        	bcc	*+5
  1143 00:07D6: 82 F5 F9     	brl	L10002
  1144 00:07D9: 82 0A F9     	brl	L10003
  1145                        L75:
  1146 00:07DC: 38           	sec
  1147 00:07DD: A5 19        	lda	<L3+last_1
  1148 00:07DF: E5 15        	sbc	<L3+in_1
  1149 00:07E1: 85 01        	sta	<R0
  1150 00:07E3: A5 1B        	lda	<L3+last_1+2
  1151 00:07E5: E5 17        	sbc	<L3+in_1+2
  1152 00:07E7: 85 03        	sta	<R0+2
  1153 00:07E9: A9 05 00     	lda	#$5
  1154 00:07EC: 18           	clc
  Thu Nov 19 2020 16:41                                                Page 21


  1155 00:07ED: 65 01        	adc	<R0
  1156 00:07EF: 85 05        	sta	<R1
  1157 00:07F1: A9 00 00     	lda	#$0
  1158 00:07F4: 65 03        	adc	<R0+2
  1159 00:07F6: 82 57 FA     	brl	L20017
  1160             00000052   L2	equ	82
  1161             00000011   L3	equ	17
  1162                        	ends
  1163                        	efunc
  1164                        	data
  1165                        L1:
  1166 00:0000: 69 6E 76 61  	db	$69,$6E,$76,$61,$6C,$69,$64,$20,$64,$69,
                    $73,$74,$61,$6E,$63
       00:0004: 6C 69 64 20 
       00:0008: 64 69 73 74 
       00:000C: 61 6E 63 
  1167 00:000F: 65 20 74 6F  	db	$65,$20,$74,$6F,$6F,$20,$66,$61,$72,$20,
                    $62,$61,$63,$6B,$00
       00:0013: 6F 20 66 61 
       00:0017: 72 20 62 61 
       00:001B: 63 6B 00 
  1168 00:001E: 69 6E 76 61  	db	$69,$6E,$76,$61,$6C,$69,$64,$20,$64,$69,
                    $73,$74,$61,$6E,$63
       00:0022: 6C 69 64 20 
       00:0026: 64 69 73 74 
       00:002A: 61 6E 63 
  1169 00:002D: 65 20 63 6F  	db	$65,$20,$63,$6F,$64,$65,$00,$69,$6E,$76,
                    $61,$6C,$69,$64,$20
       00:0031: 64 65 00 69 
       00:0035: 6E 76 61 6C 
       00:0039: 69 64 20 
  1170 00:003C: 6C 69 74 65  	db	$6C,$69,$74,$65,$72,$61,$6C,$2F,$6C,$65,
                    $6E,$67,$74,$68,$20
       00:0040: 72 61 6C 2F 
       00:0044: 6C 65 6E 67 
       00:0048: 74 68 20 
  1171 00:004B: 63 6F 64 65  	db	$63,$6F,$64,$65,$00
       00:004F: 00 
  1172 00:0050:              	ends


      Lines assembled: 1172
      Errors: 0
