  Thu Nov 19 2020 16:41                                                Page 1


                     ***************************************
                     **      WDC 65C816 Macro Assembler   **
                     **                                   **
                     **     Version 3.49.1- Feb  6 2006    **
                     ***************************************

     1                        ;:ts=8
     2             00000001   R0	equ	1
     3             00000005   R1	equ	5
     4             00000009   R2	equ	9
     5             0000000D   R3	equ	13
     6                        	data
     7                        	xdef	~~inflate_copyright
     8                        ~~inflate_copyright:
     9 00:0000: 20 69 6E 66  	db	$20,$69,$6E,$66,$6C,$61,$74,$65,$20,$31
       00:0004: 6C 61 74 65 
       00:0008: 20 31 
    10 00:000A: 2E 32 2E 31  	db	$2E,$32,$2E,$31,$31,$20,$43,$6F,$70,$79
       00:000E: 31 20 43 6F 
       00:0012: 70 79 
    11 00:0014: 72 69 67 68  	db	$72,$69,$67,$68,$74,$20,$31,$39,$39,$35
       00:0018: 74 20 31 39 
       00:001C: 39 35 
    12 00:001E: 2D 32 30 31  	db	$2D,$32,$30,$31,$37,$20,$4D,$61,$72,$6B
       00:0022: 37 20 4D 61 
       00:0026: 72 6B 
    13 00:0028: 20 41 64 6C  	db	$20,$41,$64,$6C,$65,$72,$20,$0
       00:002C: 65 72 20 00 
    14 00:0030:              	ends
    15                        	code
    16                        	xdef	~~inflate_table
    17                        	func
    18                        ~~inflate_table:
    19                        	longa	on
    20                        	longi	on
    21 00:0000: 3B           	tsc
    22 00:0001: 38           	sec
    23 00:0002: E9 92 00     	sbc	#L2
    24 00:0005: 1B           	tcs
    25 00:0006: 0B           	phd
    26 00:0007: 5B           	tcd
    27             00000004   type_0	set	4
    28             00000006   lens_0	set	6
    29             0000000A   codes_0	set	10
    30             0000000C   table_0	set	12
    31             00000010   bits_0	set	16
    32             00000014   work_0	set	20
    33             00000000   len_1	set	0
    34             00000002   sym_1	set	2
    35             00000004   min_1	set	4
    36             00000006   max_1	set	6
    37             00000008   root_1	set	8
    38             0000000A   curr_1	set	10
    39             0000000C   drop_1	set	12
    40             0000000E   left_1	set	14
    41             00000010   used_1	set	16
    42             00000012   huff_1	set	18
    43             00000014   incr_1	set	20
  Thu Nov 19 2020 16:41                                                Page 2


    44             00000016   fill_1	set	22
    45             00000018   low_1	set	24
    46             0000001A   mask_1	set	26
    47             0000001C   here_1	set	28
    48             00000020   next_1	set	32
    49             00000024   base_1	set	36
    50             00000028   extra_1	set	40
    51             0000002C   match_1	set	44
    52             0000002E   count_1	set	46
    53             0000004E   offs_1	set	78
    54 00:0008: 64 25        	stz	<L3+len_1
    55                        L10003:
    56 00:000A: A5 25        	lda	<L3+len_1
    57 00:000C: 85 05        	sta	<R1
    58 00:000E: 64 07        	stz	<R1+2
    59 00:0010: D4 07        	pei	<R1+2
    60 00:0012: D4 05        	pei	<R1
    61 00:0014: A9 01 00     	lda	#$1
    62                        	xref	~~~lasl
    63 00:0017: 22 xx xx xx  	jsl	~~~lasl
    64 00:001B: 85 01        	sta	<R0
    65 00:001D: 86 03        	stx	<R0+2
    66 00:001F: 18           	clc
    67 00:0020: 7B           	tdc
    68 00:0021: 69 53 00     	adc	#<L3+count_1
    69 00:0024: 85 09        	sta	<R2
    70 00:0026: A9 00 00     	lda	#$0
    71 00:0029: 85 0B        	sta	<R2+2
    72 00:002B: A5 09        	lda	<R2
    73 00:002D: 18           	clc
    74 00:002E: 65 01        	adc	<R0
    75 00:0030: 85 0D        	sta	<R3
    76 00:0032: A5 0B        	lda	<R2+2
    77 00:0034: 65 03        	adc	<R0+2
    78 00:0036: 85 0F        	sta	<R3+2
    79 00:0038: A9 00 00     	lda	#$0
    80 00:003B: 87 0D        	sta	[<R3]
    81 00:003D: E6 25        	inc	<L3+len_1
    82 00:003F: A9 0F 00     	lda	#$f
    83 00:0042: C5 25        	cmp	<L3+len_1
    84 00:0044: B0 C4        	bcs	L10003
    85 00:0046: 64 27        	stz	<L3+sym_1
    86 00:0048: 80 57        	bra	L10007
    87                        L10006:
    88 00:004A: A5 27        	lda	<L3+sym_1
    89 00:004C: 85 09        	sta	<R2
    90 00:004E: 64 0B        	stz	<R2+2
    91 00:0050: D4 0B        	pei	<R2+2
    92 00:0052: D4 09        	pei	<R2
    93 00:0054: A9 01 00     	lda	#$1
    94                        	xref	~~~lasl
    95 00:0057: 22 xx xx xx  	jsl	~~~lasl
    96 00:005B: 85 05        	sta	<R1
    97 00:005D: 86 07        	stx	<R1+2
    98 00:005F: A5 98        	lda	<L2+lens_0
    99 00:0061: 18           	clc
   100 00:0062: 65 05        	adc	<R1
   101 00:0064: 85 0D        	sta	<R3
  Thu Nov 19 2020 16:41                                                Page 3


   102 00:0066: A5 9A        	lda	<L2+lens_0+2
   103 00:0068: 65 07        	adc	<R1+2
   104 00:006A: 85 0F        	sta	<R3+2
   105 00:006C: A7 0D        	lda	[<R3]
   106 00:006E: 85 05        	sta	<R1
   107 00:0070: 64 07        	stz	<R1+2
   108 00:0072: D4 07        	pei	<R1+2
   109 00:0074: D4 05        	pei	<R1
   110 00:0076: A9 01 00     	lda	#$1
   111                        	xref	~~~lasl
   112 00:0079: 22 xx xx xx  	jsl	~~~lasl
   113 00:007D: 85 01        	sta	<R0
   114 00:007F: 86 03        	stx	<R0+2
   115 00:0081: 18           	clc
   116 00:0082: 7B           	tdc
   117 00:0083: 69 53 00     	adc	#<L3+count_1
   118 00:0086: 85 0D        	sta	<R3
   119 00:0088: A9 00 00     	lda	#$0
   120 00:008B: 85 0F        	sta	<R3+2
   121 00:008D: A5 0D        	lda	<R3
   122 00:008F: 18           	clc
   123 00:0090: 65 01        	adc	<R0
   124 00:0092: 85 11        	sta	<17
   125 00:0094: A5 0F        	lda	<R3+2
   126 00:0096: 65 03        	adc	<R0+2
   127 00:0098: 85 13        	sta	<17+2
   128 00:009A: A7 11        	lda	[<17]
   129 00:009C: 1A           	ina
   130 00:009D: 87 11        	sta	[<17]
   131 00:009F: E6 27        	inc	<L3+sym_1
   132                        L10007:
   133 00:00A1: A5 27        	lda	<L3+sym_1
   134 00:00A3: C5 9C        	cmp	<L2+codes_0
   135 00:00A5: 90 A3        	bcc	L10006
   136 00:00A7: A7 A2        	lda	[<L2+bits_0]
   137 00:00A9: 85 2D        	sta	<L3+root_1
   138 00:00AB: A9 0F 00     	lda	#$f
   139 00:00AE: 85 2B        	sta	<L3+max_1
   140                        L10010:
   141 00:00B0: A5 2B        	lda	<L3+max_1
   142 00:00B2: 85 05        	sta	<R1
   143 00:00B4: 64 07        	stz	<R1+2
   144 00:00B6: D4 07        	pei	<R1+2
   145 00:00B8: D4 05        	pei	<R1
   146 00:00BA: A9 01 00     	lda	#$1
   147                        	xref	~~~lasl
   148 00:00BD: 22 xx xx xx  	jsl	~~~lasl
   149 00:00C1: 85 01        	sta	<R0
   150 00:00C3: 86 03        	stx	<R0+2
   151 00:00C5: 18           	clc
   152 00:00C6: 7B           	tdc
   153 00:00C7: 69 53 00     	adc	#<L3+count_1
   154 00:00CA: 85 09        	sta	<R2
   155 00:00CC: A9 00 00     	lda	#$0
   156 00:00CF: 85 0B        	sta	<R2+2
   157 00:00D1: A5 09        	lda	<R2
   158 00:00D3: 18           	clc
   159 00:00D4: 65 01        	adc	<R0
  Thu Nov 19 2020 16:41                                                Page 4


   160 00:00D6: 85 0D        	sta	<R3
   161 00:00D8: A5 0B        	lda	<R2+2
   162 00:00DA: 65 03        	adc	<R0+2
   163 00:00DC: 85 0F        	sta	<R3+2
   164 00:00DE: A7 0D        	lda	[<R3]
   165 00:00E0: D0 09        	bne	L10009
   166 00:00E2: C6 2B        	dec	<L3+max_1
   167 00:00E4: A5 2B        	lda	<L3+max_1
   168 00:00E6: C9 01 00     	cmp	#<$1
   169 00:00E9: B0 C5        	bcs	L10010
   170                        L10009:
   171 00:00EB: A5 2B        	lda	<L3+max_1
   172 00:00ED: C5 2D        	cmp	<L3+root_1
   173 00:00EF: B0 04        	bcs	L10011
   174 00:00F1: A5 2B        	lda	<L3+max_1
   175 00:00F3: 85 2D        	sta	<L3+root_1
   176                        L10011:
   177 00:00F5: A5 2B        	lda	<L3+max_1
   178 00:00F7: F0 03        	beq	*+5
   179 00:00F9: 82 83 00     	brl	L10012
   180 00:00FC: E2 20        	sep	#$20
   181                        	longa	off
   182 00:00FE: A9 40        	lda	#$40
   183 00:0100: 85 41        	sta	<L3+here_1
   184 00:0102: A9 01        	lda	#$1
   185 00:0104: 85 42        	sta	<L3+here_1+1
   186 00:0106: C2 20        	rep	#$20
   187                        	longa	on
   188 00:0108: 64 43        	stz	<L3+here_1+2
   189 00:010A: 18           	clc
   190 00:010B: 7B           	tdc
   191 00:010C: 69 41 00     	adc	#<L3+here_1
   192 00:010F: 85 01        	sta	<R0
   193 00:0111: A9 00 00     	lda	#$0
   194 00:0114: 48           	pha
   195 00:0115: D4 01        	pei	<R0
   196 00:0117: A0 02 00     	ldy	#$2
   197 00:011A: B7 9E        	lda	[<L2+table_0],Y
   198 00:011C: 48           	pha
   199 00:011D: A7 9E        	lda	[<L2+table_0]
   200 00:011F: 48           	pha
   201 00:0120: A9 04 00     	lda	#$4
   202                        	xref	~~~fmov
   203 00:0123: 22 xx xx xx  	jsl	~~~fmov
   204 00:0127: A9 04 00     	lda	#$4
   205 00:012A: 18           	clc
   206 00:012B: 67 9E        	adc	[<L2+table_0]
   207 00:012D: 87 9E        	sta	[<L2+table_0]
   208 00:012F: A9 00 00     	lda	#$0
   209 00:0132: A0 02 00     	ldy	#$2
   210 00:0135: 77 9E        	adc	[<L2+table_0],Y
   211 00:0137: 97 9E        	sta	[<L2+table_0],Y
   212 00:0139: 18           	clc
   213 00:013A: 7B           	tdc
   214 00:013B: 69 41 00     	adc	#<L3+here_1
   215 00:013E: 85 01        	sta	<R0
   216 00:0140: A9 00 00     	lda	#$0
   217 00:0143: 48           	pha
  Thu Nov 19 2020 16:41                                                Page 5


   218 00:0144: D4 01        	pei	<R0
   219 00:0146: B7 9E        	lda	[<L2+table_0],Y
   220 00:0148: 48           	pha
   221 00:0149: A7 9E        	lda	[<L2+table_0]
   222 00:014B: 48           	pha
   223 00:014C: A9 04 00     	lda	#$4
   224                        	xref	~~~fmov
   225 00:014F: 22 xx xx xx  	jsl	~~~fmov
   226 00:0153: A9 04 00     	lda	#$4
   227 00:0156: 18           	clc
   228 00:0157: 67 9E        	adc	[<L2+table_0]
   229 00:0159: 87 9E        	sta	[<L2+table_0]
   230 00:015B: A9 00 00     	lda	#$0
   231 00:015E: A0 02 00     	ldy	#$2
   232 00:0161: 77 9E        	adc	[<L2+table_0],Y
   233 00:0163: 97 9E        	sta	[<L2+table_0],Y
   234 00:0165: A9 01 00     	lda	#$1
   235                        L20006:
   236 00:0168: 87 A2        	sta	[<L2+bits_0]
   237 00:016A: A9 00 00     	lda	#$0
   238                        L14:
   239 00:016D: A8           	tay
   240 00:016E: A5 94        	lda	<L2+2
   241 00:0170: 85 A8        	sta	<L2+2+20
   242 00:0172: A5 93        	lda	<L2+1
   243 00:0174: 85 A7        	sta	<L2+1+20
   244 00:0176: 2B           	pld
   245 00:0177: 3B           	tsc
   246 00:0178: 18           	clc
   247 00:0179: 69 A6 00     	adc	#L2+20
   248 00:017C: 1B           	tcs
   249 00:017D: 98           	tya
   250 00:017E: 6B           	rtl
   251                        L10012:
   252 00:017F: A9 01 00     	lda	#$1
   253 00:0182: 85 29        	sta	<L3+min_1
   254 00:0184: 80 34        	bra	L10016
   255                        L10015:
   256 00:0186: A5 29        	lda	<L3+min_1
   257 00:0188: 85 05        	sta	<R1
   258 00:018A: 64 07        	stz	<R1+2
   259 00:018C: D4 07        	pei	<R1+2
   260 00:018E: D4 05        	pei	<R1
   261 00:0190: A9 01 00     	lda	#$1
   262                        	xref	~~~lasl
   263 00:0193: 22 xx xx xx  	jsl	~~~lasl
   264 00:0197: 85 01        	sta	<R0
   265 00:0199: 86 03        	stx	<R0+2
   266 00:019B: 18           	clc
   267 00:019C: 7B           	tdc
   268 00:019D: 69 53 00     	adc	#<L3+count_1
   269 00:01A0: 85 09        	sta	<R2
   270 00:01A2: A9 00 00     	lda	#$0
   271 00:01A5: 85 0B        	sta	<R2+2
   272 00:01A7: A5 09        	lda	<R2
   273 00:01A9: 18           	clc
   274 00:01AA: 65 01        	adc	<R0
   275 00:01AC: 85 0D        	sta	<R3
  Thu Nov 19 2020 16:41                                                Page 6


   276 00:01AE: A5 0B        	lda	<R2+2
   277 00:01B0: 65 03        	adc	<R0+2
   278 00:01B2: 85 0F        	sta	<R3+2
   279 00:01B4: A7 0D        	lda	[<R3]
   280 00:01B6: D0 08        	bne	L10014
   281 00:01B8: E6 29        	inc	<L3+min_1
   282                        L10016:
   283 00:01BA: A5 29        	lda	<L3+min_1
   284 00:01BC: C5 2B        	cmp	<L3+max_1
   285 00:01BE: 90 C6        	bcc	L10015
   286                        L10014:
   287 00:01C0: A5 2D        	lda	<L3+root_1
   288 00:01C2: C5 29        	cmp	<L3+min_1
   289 00:01C4: B0 04        	bcs	L10017
   290 00:01C6: A5 29        	lda	<L3+min_1
   291 00:01C8: 85 2D        	sta	<L3+root_1
   292                        L10017:
   293 00:01CA: A9 01 00     	lda	#$1
   294 00:01CD: 85 33        	sta	<L3+left_1
   295 00:01CF: 85 25        	sta	<L3+len_1
   296                        L10020:
   297 00:01D1: 06 33        	asl	<L3+left_1
   298 00:01D3: A5 25        	lda	<L3+len_1
   299 00:01D5: 85 05        	sta	<R1
   300 00:01D7: 64 07        	stz	<R1+2
   301 00:01D9: D4 07        	pei	<R1+2
   302 00:01DB: D4 05        	pei	<R1
   303 00:01DD: A9 01 00     	lda	#$1
   304                        	xref	~~~lasl
   305 00:01E0: 22 xx xx xx  	jsl	~~~lasl
   306 00:01E4: 85 01        	sta	<R0
   307 00:01E6: 86 03        	stx	<R0+2
   308 00:01E8: 18           	clc
   309 00:01E9: 7B           	tdc
   310 00:01EA: 69 53 00     	adc	#<L3+count_1
   311 00:01ED: 85 09        	sta	<R2
   312 00:01EF: A9 00 00     	lda	#$0
   313 00:01F2: 85 0B        	sta	<R2+2
   314 00:01F4: A5 09        	lda	<R2
   315 00:01F6: 18           	clc
   316 00:01F7: 65 01        	adc	<R0
   317 00:01F9: 85 0D        	sta	<R3
   318 00:01FB: A5 0B        	lda	<R2+2
   319 00:01FD: 65 03        	adc	<R0+2
   320 00:01FF: 85 0F        	sta	<R3+2
   321 00:0201: 38           	sec
   322 00:0202: A5 33        	lda	<L3+left_1
   323 00:0204: E7 0D        	sbc	[<R3]
   324 00:0206: 85 33        	sta	<L3+left_1
   325 00:0208: A5 33        	lda	<L3+left_1
   326 00:020A: 10 06        	bpl	L10018
   327 00:020C: A9 FB FF     	lda	#$fffb
   328 00:020F: 82 5B FF     	brl	L14
   329                        L10018:
   330 00:0212: E6 25        	inc	<L3+len_1
   331 00:0214: A9 0F 00     	lda	#$f
   332 00:0217: C5 25        	cmp	<L3+len_1
   333 00:0219: B0 B6        	bcs	L10020
  Thu Nov 19 2020 16:41                                                Page 7


   334 00:021B: 38           	sec
   335 00:021C: A9 00 00     	lda	#$0
   336 00:021F: E5 33        	sbc	<L3+left_1
   337 00:0221: 70 03        	bvs	L20
   338 00:0223: 49 00 80     	eor	#$8000
   339                        L20:
   340 00:0226: 30 11        	bmi	L10022
   341 00:0228: A5 96        	lda	<L2+type_0
   342 00:022A: F0 07        	beq	L22
   343 00:022C: A5 2B        	lda	<L3+max_1
   344 00:022E: C9 01 00     	cmp	#<$1
   345 00:0231: F0 06        	beq	L10022
   346                        L22:
   347 00:0233: A9 FE FF     	lda	#$fffe
   348 00:0236: 82 34 FF     	brl	L14
   349                        L10022:
   350 00:0239: 64 75        	stz	<L3+offs_1+2
   351 00:023B: A9 01 00     	lda	#$1
   352 00:023E: 85 25        	sta	<L3+len_1
   353                        L10025:
   354 00:0240: A5 25        	lda	<L3+len_1
   355 00:0242: 1A           	ina
   356 00:0243: 85 05        	sta	<R1
   357 00:0245: 64 07        	stz	<R1+2
   358 00:0247: D4 07        	pei	<R1+2
   359 00:0249: D4 05        	pei	<R1
   360 00:024B: A9 01 00     	lda	#$1
   361                        	xref	~~~lasl
   362 00:024E: 22 xx xx xx  	jsl	~~~lasl
   363 00:0252: 85 01        	sta	<R0
   364 00:0254: 86 03        	stx	<R0+2
   365 00:0256: 18           	clc
   366 00:0257: 7B           	tdc
   367 00:0258: 69 73 00     	adc	#<L3+offs_1
   368 00:025B: 85 09        	sta	<R2
   369 00:025D: A9 00 00     	lda	#$0
   370 00:0260: 85 0B        	sta	<R2+2
   371 00:0262: A5 09        	lda	<R2
   372 00:0264: 18           	clc
   373 00:0265: 65 01        	adc	<R0
   374 00:0267: 85 0D        	sta	<R3
   375 00:0269: A5 0B        	lda	<R2+2
   376 00:026B: 65 03        	adc	<R0+2
   377 00:026D: 85 0F        	sta	<R3+2
   378 00:026F: A5 25        	lda	<L3+len_1
   379 00:0271: 85 09        	sta	<R2
   380 00:0273: 64 0B        	stz	<R2+2
   381 00:0275: D4 0B        	pei	<R2+2
   382 00:0277: D4 09        	pei	<R2
   383 00:0279: A9 01 00     	lda	#$1
   384                        	xref	~~~lasl
   385 00:027C: 22 xx xx xx  	jsl	~~~lasl
   386 00:0280: 85 01        	sta	<R0
   387 00:0282: 86 03        	stx	<R0+2
   388 00:0284: 18           	clc
   389 00:0285: 7B           	tdc
   390 00:0286: 69 53 00     	adc	#<L3+count_1
   391 00:0289: 85 11        	sta	<17
  Thu Nov 19 2020 16:41                                                Page 8


   392 00:028B: A9 00 00     	lda	#$0
   393 00:028E: 85 13        	sta	<17+2
   394 00:0290: A5 11        	lda	<17
   395 00:0292: 18           	clc
   396 00:0293: 65 01        	adc	<R0
   397 00:0295: 85 15        	sta	<21
   398 00:0297: A5 13        	lda	<17+2
   399 00:0299: 65 03        	adc	<R0+2
   400 00:029B: 85 17        	sta	<21+2
   401 00:029D: A5 25        	lda	<L3+len_1
   402 00:029F: 85 11        	sta	<17
   403 00:02A1: 64 13        	stz	<17+2
   404 00:02A3: D4 13        	pei	<17+2
   405 00:02A5: D4 11        	pei	<17
   406 00:02A7: A9 01 00     	lda	#$1
   407                        	xref	~~~lasl
   408 00:02AA: 22 xx xx xx  	jsl	~~~lasl
   409 00:02AE: 85 01        	sta	<R0
   410 00:02B0: 86 03        	stx	<R0+2
   411 00:02B2: 18           	clc
   412 00:02B3: 7B           	tdc
   413 00:02B4: 69 73 00     	adc	#<L3+offs_1
   414 00:02B7: 85 19        	sta	<25
   415 00:02B9: A9 00 00     	lda	#$0
   416 00:02BC: 85 1B        	sta	<25+2
   417 00:02BE: A5 19        	lda	<25
   418 00:02C0: 18           	clc
   419 00:02C1: 65 01        	adc	<R0
   420 00:02C3: 85 1D        	sta	<29
   421 00:02C5: A5 1B        	lda	<25+2
   422 00:02C7: 65 03        	adc	<R0+2
   423 00:02C9: 85 1F        	sta	<29+2
   424 00:02CB: A7 1D        	lda	[<29]
   425 00:02CD: 18           	clc
   426 00:02CE: 67 15        	adc	[<21]
   427 00:02D0: 87 0D        	sta	[<R3]
   428 00:02D2: E6 25        	inc	<L3+len_1
   429 00:02D4: A5 25        	lda	<L3+len_1
   430 00:02D6: C9 0F 00     	cmp	#<$f
   431 00:02D9: B0 03        	bcs	*+5
   432 00:02DB: 82 62 FF     	brl	L10025
   433 00:02DE: 64 27        	stz	<L3+sym_1
   434 00:02E0: 82 F6 00     	brl	L10029
   435                        L10028:
   436 00:02E3: A5 27        	lda	<L3+sym_1
   437 00:02E5: 85 05        	sta	<R1
   438 00:02E7: 64 07        	stz	<R1+2
   439 00:02E9: D4 07        	pei	<R1+2
   440 00:02EB: D4 05        	pei	<R1
   441 00:02ED: A9 01 00     	lda	#$1
   442                        	xref	~~~lasl
   443 00:02F0: 22 xx xx xx  	jsl	~~~lasl
   444 00:02F4: 85 01        	sta	<R0
   445 00:02F6: 86 03        	stx	<R0+2
   446 00:02F8: A5 98        	lda	<L2+lens_0
   447 00:02FA: 18           	clc
   448 00:02FB: 65 01        	adc	<R0
   449 00:02FD: 85 09        	sta	<R2
  Thu Nov 19 2020 16:41                                                Page 9


   450 00:02FF: A5 9A        	lda	<L2+lens_0+2
   451 00:0301: 65 03        	adc	<R0+2
   452 00:0303: 85 0B        	sta	<R2+2
   453 00:0305: A7 09        	lda	[<R2]
   454 00:0307: D0 03        	bne	*+5
   455 00:0309: 82 CB 00     	brl	L10026
   456 00:030C: A5 27        	lda	<L3+sym_1
   457 00:030E: 85 0D        	sta	<R3
   458 00:0310: 64 0F        	stz	<R3+2
   459 00:0312: D4 0F        	pei	<R3+2
   460 00:0314: D4 0D        	pei	<R3
   461 00:0316: A9 01 00     	lda	#$1
   462                        	xref	~~~lasl
   463 00:0319: 22 xx xx xx  	jsl	~~~lasl
   464 00:031D: 85 09        	sta	<R2
   465 00:031F: 86 0B        	stx	<R2+2
   466 00:0321: A5 98        	lda	<L2+lens_0
   467 00:0323: 18           	clc
   468 00:0324: 65 09        	adc	<R2
   469 00:0326: 85 11        	sta	<17
   470 00:0328: A5 9A        	lda	<L2+lens_0+2
   471 00:032A: 65 0B        	adc	<R2+2
   472 00:032C: 85 13        	sta	<17+2
   473 00:032E: A7 11        	lda	[<17]
   474 00:0330: 85 09        	sta	<R2
   475 00:0332: 64 0B        	stz	<R2+2
   476 00:0334: D4 0B        	pei	<R2+2
   477 00:0336: D4 09        	pei	<R2
   478 00:0338: A9 01 00     	lda	#$1
   479                        	xref	~~~lasl
   480 00:033B: 22 xx xx xx  	jsl	~~~lasl
   481 00:033F: 85 05        	sta	<R1
   482 00:0341: 86 07        	stx	<R1+2
   483 00:0343: 18           	clc
   484 00:0344: 7B           	tdc
   485 00:0345: 69 73 00     	adc	#<L3+offs_1
   486 00:0348: 85 11        	sta	<17
   487 00:034A: A9 00 00     	lda	#$0
   488 00:034D: 85 13        	sta	<17+2
   489 00:034F: A5 11        	lda	<17
   490 00:0351: 18           	clc
   491 00:0352: 65 05        	adc	<R1
   492 00:0354: 85 15        	sta	<21
   493 00:0356: A5 13        	lda	<17+2
   494 00:0358: 65 07        	adc	<R1+2
   495 00:035A: 85 17        	sta	<21+2
   496 00:035C: A7 15        	lda	[<21]
   497 00:035E: 85 05        	sta	<R1
   498 00:0360: 64 07        	stz	<R1+2
   499 00:0362: D4 07        	pei	<R1+2
   500 00:0364: D4 05        	pei	<R1
   501 00:0366: A9 01 00     	lda	#$1
   502                        	xref	~~~lasl
   503 00:0369: 22 xx xx xx  	jsl	~~~lasl
   504 00:036D: 85 01        	sta	<R0
   505 00:036F: 86 03        	stx	<R0+2
   506 00:0371: A5 A6        	lda	<L2+work_0
   507 00:0373: 18           	clc
  Thu Nov 19 2020 16:41                                                Page 10


   508 00:0374: 65 01        	adc	<R0
   509 00:0376: 85 11        	sta	<17
   510 00:0378: A5 A8        	lda	<L2+work_0+2
   511 00:037A: 65 03        	adc	<R0+2
   512 00:037C: 85 13        	sta	<17+2
   513 00:037E: A5 27        	lda	<L3+sym_1
   514 00:0380: 87 11        	sta	[<17]
   515 00:0382: A5 27        	lda	<L3+sym_1
   516 00:0384: 85 19        	sta	<25
   517 00:0386: 64 1B        	stz	<25+2
   518 00:0388: D4 1B        	pei	<25+2
   519 00:038A: D4 19        	pei	<25
   520 00:038C: A9 01 00     	lda	#$1
   521                        	xref	~~~lasl
   522 00:038F: 22 xx xx xx  	jsl	~~~lasl
   523 00:0393: 85 15        	sta	<21
   524 00:0395: 86 17        	stx	<21+2
   525 00:0397: A5 98        	lda	<L2+lens_0
   526 00:0399: 18           	clc
   527 00:039A: 65 15        	adc	<21
   528 00:039C: 85 1D        	sta	<29
   529 00:039E: A5 9A        	lda	<L2+lens_0+2
   530 00:03A0: 65 17        	adc	<21+2
   531 00:03A2: 85 1F        	sta	<29+2
   532 00:03A4: A7 1D        	lda	[<29]
   533 00:03A6: 85 15        	sta	<21
   534 00:03A8: 64 17        	stz	<21+2
   535 00:03AA: D4 17        	pei	<21+2
   536 00:03AC: D4 15        	pei	<21
   537 00:03AE: A9 01 00     	lda	#$1
   538                        	xref	~~~lasl
   539 00:03B1: 22 xx xx xx  	jsl	~~~lasl
   540 00:03B5: 85 01        	sta	<R0
   541 00:03B7: 86 03        	stx	<R0+2
   542 00:03B9: 18           	clc
   543 00:03BA: 7B           	tdc
   544 00:03BB: 69 73 00     	adc	#<L3+offs_1
   545 00:03BE: 85 1D        	sta	<29
   546 00:03C0: A9 00 00     	lda	#$0
   547 00:03C3: 85 1F        	sta	<29+2
   548 00:03C5: A5 1D        	lda	<29
   549 00:03C7: 18           	clc
   550 00:03C8: 65 01        	adc	<R0
   551 00:03CA: 85 21        	sta	<33
   552 00:03CC: A5 1F        	lda	<29+2
   553 00:03CE: 65 03        	adc	<R0+2
   554 00:03D0: 85 23        	sta	<33+2
   555 00:03D2: A7 21        	lda	[<33]
   556 00:03D4: 1A           	ina
   557 00:03D5: 87 21        	sta	[<33]
   558                        L10026:
   559 00:03D7: E6 27        	inc	<L3+sym_1
   560                        L10029:
   561 00:03D9: A5 27        	lda	<L3+sym_1
   562 00:03DB: C5 9C        	cmp	<L2+codes_0
   563 00:03DD: B0 03        	bcs	*+5
   564 00:03DF: 82 01 FF     	brl	L10028
   565 00:03E2: A5 96        	lda	<L2+type_0
  Thu Nov 19 2020 16:41                                                Page 11


   566                        	xref	~~~swt
   567 00:03E4: 22 xx xx xx  	jsl	~~~swt
   568 00:03E8: 02 00        	dw	2
   569 00:03EA: 00 00        	dw	0
   570 00:03EC: xx xx        	dw	L10033-1
   571 00:03EE: 01 00        	dw	1
   572 00:03F0: xx xx        	dw	L10034-1
   573 00:03F2: xx xx        	dw	L10035-1
   574                        L10033:
   575 00:03F4: A5 A6        	lda	<L2+work_0
   576 00:03F6: 85 4D        	sta	<L3+extra_1
   577 00:03F8: A5 A8        	lda	<L2+work_0+2
   578 00:03FA: 85 4F        	sta	<L3+extra_1+2
   579 00:03FC: A5 A6        	lda	<L2+work_0
   580 00:03FE: 85 49        	sta	<L3+base_1
   581 00:0400: A5 A8        	lda	<L2+work_0+2
   582 00:0402: 85 4B        	sta	<L3+base_1+2
   583 00:0404: A9 14 00     	lda	#$14
   584                        L20000:
   585 00:0407: 85 51        	sta	<L3+match_1
   586                        L10032:
   587 00:0409: 64 37        	stz	<L3+huff_1
   588 00:040B: 64 27        	stz	<L3+sym_1
   589 00:040D: A5 29        	lda	<L3+min_1
   590 00:040F: 85 25        	sta	<L3+len_1
   591 00:0411: A7 9E        	lda	[<L2+table_0]
   592 00:0413: 85 45        	sta	<L3+next_1
   593 00:0415: A0 02 00     	ldy	#$2
   594 00:0418: B7 9E        	lda	[<L2+table_0],Y
   595 00:041A: 85 47        	sta	<L3+next_1+2
   596 00:041C: A5 2D        	lda	<L3+root_1
   597 00:041E: 85 2F        	sta	<L3+curr_1
   598 00:0420: 64 31        	stz	<L3+drop_1
   599 00:0422: A9 FF FF     	lda	#$ffff
   600 00:0425: 85 3D        	sta	<L3+low_1
   601 00:0427: A9 01 00     	lda	#$1
   602 00:042A: A6 2D        	ldx	<L3+root_1
   603                        	xref	~~~asl
   604 00:042C: 22 xx xx xx  	jsl	~~~asl
   605 00:0430: 85 35        	sta	<L3+used_1
   606 00:0432: 18           	clc
   607 00:0433: 69 FF FF     	adc	#$ffff
   608 00:0436: 85 3F        	sta	<L3+mask_1
   609 00:0438: A5 96        	lda	<L2+type_0
   610 00:043A: C9 01 00     	cmp	#<$1
   611 00:043D: D0 03        	bne	*+5
   612 00:043F: 82 27 01     	brl	L30
   613                        L29:
   614 00:0442: A5 96        	lda	<L2+type_0
   615 00:0444: C9 02 00     	cmp	#<$2
   616 00:0447: D0 03        	bne	*+5
   617 00:0449: 82 2D 01     	brl	L32
   618                        L10039:
   619 00:044C: 38           	sec
   620 00:044D: A5 25        	lda	<L3+len_1
   621 00:044F: E5 31        	sbc	<L3+drop_1
   622 00:0451: E2 20        	sep	#$20
   623                        	longa	off
  Thu Nov 19 2020 16:41                                                Page 12


   624 00:0453: 85 42        	sta	<L3+here_1+1
   625 00:0455: C2 20        	rep	#$20
   626                        	longa	on
   627 00:0457: A5 27        	lda	<L3+sym_1
   628 00:0459: 85 05        	sta	<R1
   629 00:045B: 64 07        	stz	<R1+2
   630 00:045D: D4 07        	pei	<R1+2
   631 00:045F: D4 05        	pei	<R1
   632 00:0461: A9 01 00     	lda	#$1
   633                        	xref	~~~lasl
   634 00:0464: 22 xx xx xx  	jsl	~~~lasl
   635 00:0468: 85 01        	sta	<R0
   636 00:046A: 86 03        	stx	<R0+2
   637 00:046C: A5 A6        	lda	<L2+work_0
   638 00:046E: 18           	clc
   639 00:046F: 65 01        	adc	<R0
   640 00:0471: 85 09        	sta	<R2
   641 00:0473: A5 A8        	lda	<L2+work_0+2
   642 00:0475: 65 03        	adc	<R0+2
   643 00:0477: 85 0B        	sta	<R2+2
   644 00:0479: A7 09        	lda	[<R2]
   645 00:047B: 1A           	ina
   646 00:047C: C5 51        	cmp	<L3+match_1
   647 00:047E: B0 03        	bcs	*+5
   648 00:0480: 82 00 01     	brl	L34
   649 00:0483: A5 27        	lda	<L3+sym_1
   650 00:0485: 85 05        	sta	<R1
   651 00:0487: 64 07        	stz	<R1+2
   652 00:0489: D4 07        	pei	<R1+2
   653 00:048B: D4 05        	pei	<R1
   654 00:048D: A9 01 00     	lda	#$1
   655                        	xref	~~~lasl
   656 00:0490: 22 xx xx xx  	jsl	~~~lasl
   657 00:0494: 85 01        	sta	<R0
   658 00:0496: 86 03        	stx	<R0+2
   659 00:0498: A5 A6        	lda	<L2+work_0
   660 00:049A: 18           	clc
   661 00:049B: 65 01        	adc	<R0
   662 00:049D: 85 09        	sta	<R2
   663 00:049F: A5 A8        	lda	<L2+work_0+2
   664 00:04A1: 65 03        	adc	<R0+2
   665 00:04A3: 85 0B        	sta	<R2+2
   666 00:04A5: A7 09        	lda	[<R2]
   667 00:04A7: C5 51        	cmp	<L3+match_1
   668 00:04A9: 90 03        	bcc	*+5
   669 00:04AB: 82 04 01     	brl	L35
   670 00:04AE: E2 20        	sep	#$20
   671                        	longa	off
   672 00:04B0: A9 60        	lda	#$60
   673 00:04B2: 85 41        	sta	<L3+here_1
   674 00:04B4: C2 20        	rep	#$20
   675                        	longa	on
   676 00:04B6: 64 43        	stz	<L3+here_1+2
   677                        L10041:
   678 00:04B8: 38           	sec
   679 00:04B9: A5 25        	lda	<L3+len_1
   680 00:04BB: E5 31        	sbc	<L3+drop_1
   681 00:04BD: 48           	pha
  Thu Nov 19 2020 16:41                                                Page 13


   682 00:04BE: A9 01 00     	lda	#$1
   683 00:04C1: FA           	plx
   684                        	xref	~~~asl
   685 00:04C2: 22 xx xx xx  	jsl	~~~asl
   686 00:04C6: 85 39        	sta	<L3+incr_1
   687 00:04C8: A9 01 00     	lda	#$1
   688 00:04CB: A6 2F        	ldx	<L3+curr_1
   689                        	xref	~~~asl
   690 00:04CD: 22 xx xx xx  	jsl	~~~asl
   691 00:04D1: 85 3B        	sta	<L3+fill_1
   692 00:04D3: 85 29        	sta	<L3+min_1
   693                        L10046:
   694 00:04D5: 38           	sec
   695 00:04D6: A5 3B        	lda	<L3+fill_1
   696 00:04D8: E5 39        	sbc	<L3+incr_1
   697 00:04DA: 85 3B        	sta	<L3+fill_1
   698 00:04DC: 18           	clc
   699 00:04DD: 7B           	tdc
   700 00:04DE: 69 41 00     	adc	#<L3+here_1
   701 00:04E1: 85 01        	sta	<R0
   702 00:04E3: A9 00 00     	lda	#$0
   703 00:04E6: 85 03        	sta	<R0+2
   704 00:04E8: 48           	pha
   705 00:04E9: D4 01        	pei	<R0
   706 00:04EB: A5 37        	lda	<L3+huff_1
   707 00:04ED: A6 31        	ldx	<L3+drop_1
   708                        	xref	~~~lsr
   709 00:04EF: 22 xx xx xx  	jsl	~~~lsr
   710 00:04F3: 18           	clc
   711 00:04F4: 65 3B        	adc	<L3+fill_1
   712 00:04F6: 85 05        	sta	<R1
   713 00:04F8: 64 07        	stz	<R1+2
   714 00:04FA: D4 07        	pei	<R1+2
   715 00:04FC: D4 05        	pei	<R1
   716 00:04FE: A9 02 00     	lda	#$2
   717                        	xref	~~~lasl
   718 00:0501: 22 xx xx xx  	jsl	~~~lasl
   719 00:0505: 85 01        	sta	<R0
   720 00:0507: 86 03        	stx	<R0+2
   721 00:0509: A5 45        	lda	<L3+next_1
   722 00:050B: 18           	clc
   723 00:050C: 65 01        	adc	<R0
   724 00:050E: 85 09        	sta	<R2
   725 00:0510: A5 47        	lda	<L3+next_1+2
   726 00:0512: 65 03        	adc	<R0+2
   727 00:0514: 48           	pha
   728 00:0515: D4 09        	pei	<R2
   729 00:0517: A9 04 00     	lda	#$4
   730                        	xref	~~~fmov
   731 00:051A: 22 xx xx xx  	jsl	~~~fmov
   732 00:051E: A5 3B        	lda	<L3+fill_1
   733 00:0520: D0 B3        	bne	L10046
   734 00:0522: A9 FF FF     	lda	#$ffff
   735 00:0525: 18           	clc
   736 00:0526: 65 25        	adc	<L3+len_1
   737 00:0528: 48           	pha
   738 00:0529: A9 01 00     	lda	#$1
   739 00:052C: FA           	plx
  Thu Nov 19 2020 16:41                                                Page 14


   740                        	xref	~~~asl
   741 00:052D: 22 xx xx xx  	jsl	~~~asl
   742 00:0531: 85 39        	sta	<L3+incr_1
   743 00:0533: 82 19 01     	brl	L10047
   744                        L10034:
   745 00:0536: A9 xx xx     	lda	#<L4
   746 00:0539: 85 49        	sta	<L3+base_1
   747                        	xref	_BEG_DATA
   748 00:053B: A9 xx xx     	lda	#_BEG_DATA>>16
   749 00:053E: 85 4B        	sta	<L3+base_1+2
   750 00:0540: A9 xx xx     	lda	#<L5
   751 00:0543: 85 4D        	sta	<L3+extra_1
   752                        	xref	_BEG_DATA
   753 00:0545: A9 xx xx     	lda	#_BEG_DATA>>16
   754 00:0548: 85 4F        	sta	<L3+extra_1+2
   755 00:054A: A9 01 01     	lda	#$101
   756 00:054D: 82 B7 FE     	brl	L20000
   757                        L10035:
   758 00:0550: A9 xx xx     	lda	#<L6
   759 00:0553: 85 49        	sta	<L3+base_1
   760                        	xref	_BEG_DATA
   761 00:0555: A9 xx xx     	lda	#_BEG_DATA>>16
   762 00:0558: 85 4B        	sta	<L3+base_1+2
   763 00:055A: A9 xx xx     	lda	#<L7
   764 00:055D: 85 4D        	sta	<L3+extra_1
   765                        	xref	_BEG_DATA
   766 00:055F: A9 xx xx     	lda	#_BEG_DATA>>16
   767 00:0562: 85 4F        	sta	<L3+extra_1+2
   768 00:0564: 64 51        	stz	<L3+match_1
   769 00:0566: 82 A0 FE     	brl	L10032
   770                        L30:
   771 00:0569: A9 54 03     	lda	#$354
   772 00:056C: C5 35        	cmp	<L3+used_1
   773 00:056E: 90 03        	bcc	*+5
   774 00:0570: 82 CF FE     	brl	L29
   775                        L28:
   776 00:0573: A9 01 00     	lda	#$1
   777 00:0576: 82 F4 FB     	brl	L14
   778                        L32:
   779 00:0579: A9 50 02     	lda	#$250
   780 00:057C: C5 35        	cmp	<L3+used_1
   781 00:057E: 90 F3        	bcc	L28
   782 00:0580: 82 C9 FE     	brl	L10039
   783                        L34:
   784 00:0583: E2 20        	sep	#$20
   785                        	longa	off
   786 00:0585: 64 41        	stz	<L3+here_1
   787 00:0587: C2 20        	rep	#$20
   788                        	longa	on
   789 00:0589: A5 27        	lda	<L3+sym_1
   790 00:058B: 85 05        	sta	<R1
   791 00:058D: 64 07        	stz	<R1+2
   792 00:058F: D4 07        	pei	<R1+2
   793 00:0591: D4 05        	pei	<R1
   794 00:0593: A9 01 00     	lda	#$1
   795                        	xref	~~~lasl
   796 00:0596: 22 xx xx xx  	jsl	~~~lasl
   797 00:059A: 85 01        	sta	<R0
  Thu Nov 19 2020 16:41                                                Page 15


   798 00:059C: 86 03        	stx	<R0+2
   799 00:059E: A5 A6        	lda	<L2+work_0
   800 00:05A0: 18           	clc
   801 00:05A1: 65 01        	adc	<R0
   802 00:05A3: 85 09        	sta	<R2
   803 00:05A5: A5 A8        	lda	<L2+work_0+2
   804 00:05A7: 65 03        	adc	<R0+2
   805 00:05A9: 85 0B        	sta	<R2+2
   806 00:05AB: A7 09        	lda	[<R2]
   807                        L20007:
   808 00:05AD: 85 43        	sta	<L3+here_1+2
   809 00:05AF: 82 06 FF     	brl	L10041
   810                        L35:
   811 00:05B2: A5 27        	lda	<L3+sym_1
   812 00:05B4: 85 09        	sta	<R2
   813 00:05B6: 64 0B        	stz	<R2+2
   814 00:05B8: D4 0B        	pei	<R2+2
   815 00:05BA: D4 09        	pei	<R2
   816 00:05BC: A9 01 00     	lda	#$1
   817                        	xref	~~~lasl
   818 00:05BF: 22 xx xx xx  	jsl	~~~lasl
   819 00:05C3: 85 05        	sta	<R1
   820 00:05C5: 86 07        	stx	<R1+2
   821 00:05C7: A5 A6        	lda	<L2+work_0
   822 00:05C9: 18           	clc
   823 00:05CA: 65 05        	adc	<R1
   824 00:05CC: 85 0D        	sta	<R3
   825 00:05CE: A5 A8        	lda	<L2+work_0+2
   826 00:05D0: 65 07        	adc	<R1+2
   827 00:05D2: 85 0F        	sta	<R3+2
   828 00:05D4: 38           	sec
   829 00:05D5: A7 0D        	lda	[<R3]
   830 00:05D7: E5 51        	sbc	<L3+match_1
   831 00:05D9: 85 05        	sta	<R1
   832 00:05DB: 64 07        	stz	<R1+2
   833 00:05DD: D4 07        	pei	<R1+2
   834 00:05DF: D4 05        	pei	<R1
   835 00:05E1: A9 01 00     	lda	#$1
   836                        	xref	~~~lasl
   837 00:05E4: 22 xx xx xx  	jsl	~~~lasl
   838 00:05E8: 85 01        	sta	<R0
   839 00:05EA: 86 03        	stx	<R0+2
   840 00:05EC: A5 4D        	lda	<L3+extra_1
   841 00:05EE: 18           	clc
   842 00:05EF: 65 01        	adc	<R0
   843 00:05F1: 85 0D        	sta	<R3
   844 00:05F3: A5 4F        	lda	<L3+extra_1+2
   845 00:05F5: 65 03        	adc	<R0+2
   846 00:05F7: 85 0F        	sta	<R3+2
   847 00:05F9: E2 20        	sep	#$20
   848                        	longa	off
   849 00:05FB: A7 0D        	lda	[<R3]
   850 00:05FD: 85 41        	sta	<L3+here_1
   851 00:05FF: C2 20        	rep	#$20
   852                        	longa	on
   853 00:0601: A5 27        	lda	<L3+sym_1
   854 00:0603: 85 09        	sta	<R2
   855 00:0605: 64 0B        	stz	<R2+2
  Thu Nov 19 2020 16:41                                                Page 16


   856 00:0607: D4 0B        	pei	<R2+2
   857 00:0609: D4 09        	pei	<R2
   858 00:060B: A9 01 00     	lda	#$1
   859                        	xref	~~~lasl
   860 00:060E: 22 xx xx xx  	jsl	~~~lasl
   861 00:0612: 85 05        	sta	<R1
   862 00:0614: 86 07        	stx	<R1+2
   863 00:0616: A5 A6        	lda	<L2+work_0
   864 00:0618: 18           	clc
   865 00:0619: 65 05        	adc	<R1
   866 00:061B: 85 0D        	sta	<R3
   867 00:061D: A5 A8        	lda	<L2+work_0+2
   868 00:061F: 65 07        	adc	<R1+2
   869 00:0621: 85 0F        	sta	<R3+2
   870 00:0623: 38           	sec
   871 00:0624: A7 0D        	lda	[<R3]
   872 00:0626: E5 51        	sbc	<L3+match_1
   873 00:0628: 85 05        	sta	<R1
   874 00:062A: 64 07        	stz	<R1+2
   875 00:062C: D4 07        	pei	<R1+2
   876 00:062E: D4 05        	pei	<R1
   877 00:0630: A9 01 00     	lda	#$1
   878                        	xref	~~~lasl
   879 00:0633: 22 xx xx xx  	jsl	~~~lasl
   880 00:0637: 85 01        	sta	<R0
   881 00:0639: 86 03        	stx	<R0+2
   882 00:063B: A5 49        	lda	<L3+base_1
   883 00:063D: 18           	clc
   884 00:063E: 65 01        	adc	<R0
   885 00:0640: 85 0D        	sta	<R3
   886 00:0642: A5 4B        	lda	<L3+base_1+2
   887 00:0644: 65 03        	adc	<R0+2
   888 00:0646: 85 0F        	sta	<R3+2
   889 00:0648: A7 0D        	lda	[<R3]
   890 00:064A: 82 60 FF     	brl	L20007
   891                        L20002:
   892 00:064D: 46 39        	lsr	<L3+incr_1
   893                        L10047:
   894 00:064F: A5 39        	lda	<L3+incr_1
   895 00:0651: 25 37        	and	<L3+huff_1
   896 00:0653: D0 F8        	bne	L20002
   897 00:0655: A5 39        	lda	<L3+incr_1
   898 00:0657: F0 15        	beq	L10049
   899 00:0659: A9 FF FF     	lda	#$ffff
   900 00:065C: 18           	clc
   901 00:065D: 65 39        	adc	<L3+incr_1
   902 00:065F: 85 01        	sta	<R0
   903 00:0661: A5 37        	lda	<L3+huff_1
   904 00:0663: 25 01        	and	<R0
   905 00:0665: 85 37        	sta	<L3+huff_1
   906 00:0667: 18           	clc
   907 00:0668: 65 39        	adc	<L3+incr_1
   908 00:066A: 85 37        	sta	<L3+huff_1
   909 00:066C: 80 02        	bra	L10050
   910                        L10049:
   911 00:066E: 64 37        	stz	<L3+huff_1
   912                        L10050:
   913 00:0670: E6 27        	inc	<L3+sym_1
  Thu Nov 19 2020 16:41                                                Page 17


   914 00:0672: A5 25        	lda	<L3+len_1
   915 00:0674: 85 05        	sta	<R1
   916 00:0676: 64 07        	stz	<R1+2
   917 00:0678: D4 07        	pei	<R1+2
   918 00:067A: D4 05        	pei	<R1
   919 00:067C: A9 01 00     	lda	#$1
   920                        	xref	~~~lasl
   921 00:067F: 22 xx xx xx  	jsl	~~~lasl
   922 00:0683: 85 01        	sta	<R0
   923 00:0685: 86 03        	stx	<R0+2
   924 00:0687: 18           	clc
   925 00:0688: 7B           	tdc
   926 00:0689: 69 53 00     	adc	#<L3+count_1
   927 00:068C: 85 09        	sta	<R2
   928 00:068E: A9 00 00     	lda	#$0
   929 00:0691: 85 0B        	sta	<R2+2
   930 00:0693: A5 09        	lda	<R2
   931 00:0695: 18           	clc
   932 00:0696: 65 01        	adc	<R0
   933 00:0698: 85 0D        	sta	<R3
   934 00:069A: A5 0B        	lda	<R2+2
   935 00:069C: 65 03        	adc	<R0+2
   936 00:069E: 85 0F        	sta	<R3+2
   937 00:06A0: A9 FF FF     	lda	#$ffff
   938 00:06A3: 18           	clc
   939 00:06A4: 67 0D        	adc	[<R3]
   940 00:06A6: 87 0D        	sta	[<R3]
   941 00:06A8: A7 0D        	lda	[<R3]
   942 00:06AA: D0 51        	bne	L10051
   943 00:06AC: A5 25        	lda	<L3+len_1
   944 00:06AE: C5 2B        	cmp	<L3+max_1
   945 00:06B0: D0 03        	bne	*+5
   946 00:06B2: 82 E1 01     	brl	L10038
   947 00:06B5: A5 27        	lda	<L3+sym_1
   948 00:06B7: 85 09        	sta	<R2
   949 00:06B9: 64 0B        	stz	<R2+2
   950 00:06BB: D4 0B        	pei	<R2+2
   951 00:06BD: D4 09        	pei	<R2
   952 00:06BF: A9 01 00     	lda	#$1
   953                        	xref	~~~lasl
   954 00:06C2: 22 xx xx xx  	jsl	~~~lasl
   955 00:06C6: 85 05        	sta	<R1
   956 00:06C8: 86 07        	stx	<R1+2
   957 00:06CA: A5 A6        	lda	<L2+work_0
   958 00:06CC: 18           	clc
   959 00:06CD: 65 05        	adc	<R1
   960 00:06CF: 85 0D        	sta	<R3
   961 00:06D1: A5 A8        	lda	<L2+work_0+2
   962 00:06D3: 65 07        	adc	<R1+2
   963 00:06D5: 85 0F        	sta	<R3+2
   964 00:06D7: A7 0D        	lda	[<R3]
   965 00:06D9: 85 05        	sta	<R1
   966 00:06DB: 64 07        	stz	<R1+2
   967 00:06DD: D4 07        	pei	<R1+2
   968 00:06DF: D4 05        	pei	<R1
   969 00:06E1: A9 01 00     	lda	#$1
   970                        	xref	~~~lasl
   971 00:06E4: 22 xx xx xx  	jsl	~~~lasl
  Thu Nov 19 2020 16:41                                                Page 18


   972 00:06E8: 85 01        	sta	<R0
   973 00:06EA: 86 03        	stx	<R0+2
   974 00:06EC: A5 98        	lda	<L2+lens_0
   975 00:06EE: 18           	clc
   976 00:06EF: 65 01        	adc	<R0
   977 00:06F1: 85 0D        	sta	<R3
   978 00:06F3: A5 9A        	lda	<L2+lens_0+2
   979 00:06F5: 65 03        	adc	<R0+2
   980 00:06F7: 85 0F        	sta	<R3+2
   981 00:06F9: A7 0D        	lda	[<R3]
   982 00:06FB: 85 25        	sta	<L3+len_1
   983                        L10051:
   984 00:06FD: A5 2D        	lda	<L3+root_1
   985 00:06FF: C5 25        	cmp	<L3+len_1
   986 00:0701: 90 03        	bcc	*+5
   987 00:0703: 82 46 FD     	brl	L10039
   988 00:0706: A5 3F        	lda	<L3+mask_1
   989 00:0708: 25 37        	and	<L3+huff_1
   990 00:070A: C5 3D        	cmp	<L3+low_1
   991 00:070C: D0 03        	bne	*+5
   992 00:070E: 82 3B FD     	brl	L10039
   993 00:0711: A5 31        	lda	<L3+drop_1
   994 00:0713: D0 04        	bne	L10053
   995 00:0715: A5 2D        	lda	<L3+root_1
   996 00:0717: 85 31        	sta	<L3+drop_1
   997                        L10053:
   998 00:0719: A5 29        	lda	<L3+min_1
   999 00:071B: 85 05        	sta	<R1
  1000 00:071D: 64 07        	stz	<R1+2
  1001 00:071F: D4 07        	pei	<R1+2
  1002 00:0721: D4 05        	pei	<R1
  1003 00:0723: A9 02 00     	lda	#$2
  1004                        	xref	~~~lasl
  1005 00:0726: 22 xx xx xx  	jsl	~~~lasl
  1006 00:072A: 85 01        	sta	<R0
  1007 00:072C: 86 03        	stx	<R0+2
  1008 00:072E: A5 45        	lda	<L3+next_1
  1009 00:0730: 18           	clc
  1010 00:0731: 65 01        	adc	<R0
  1011 00:0733: 85 45        	sta	<L3+next_1
  1012 00:0735: A5 47        	lda	<L3+next_1+2
  1013 00:0737: 65 03        	adc	<R0+2
  1014 00:0739: 85 47        	sta	<L3+next_1+2
  1015 00:073B: 38           	sec
  1016 00:073C: A5 25        	lda	<L3+len_1
  1017 00:073E: E5 31        	sbc	<L3+drop_1
  1018 00:0740: 85 2F        	sta	<L3+curr_1
  1019 00:0742: A9 01 00     	lda	#$1
  1020 00:0745: A6 2F        	ldx	<L3+curr_1
  1021                        	xref	~~~asl
  1022 00:0747: 22 xx xx xx  	jsl	~~~asl
  1023 00:074B: 85 33        	sta	<L3+left_1
  1024 00:074D: 80 49        	bra	L10054
  1025                        L20004:
  1026 00:074F: A5 2F        	lda	<L3+curr_1
  1027 00:0751: 18           	clc
  1028 00:0752: 65 31        	adc	<L3+drop_1
  1029 00:0754: 85 05        	sta	<R1
  Thu Nov 19 2020 16:41                                                Page 19


  1030 00:0756: 64 07        	stz	<R1+2
  1031 00:0758: D4 07        	pei	<R1+2
  1032 00:075A: D4 05        	pei	<R1
  1033 00:075C: A9 01 00     	lda	#$1
  1034                        	xref	~~~lasl
  1035 00:075F: 22 xx xx xx  	jsl	~~~lasl
  1036 00:0763: 85 01        	sta	<R0
  1037 00:0765: 86 03        	stx	<R0+2
  1038 00:0767: 18           	clc
  1039 00:0768: 7B           	tdc
  1040 00:0769: 69 53 00     	adc	#<L3+count_1
  1041 00:076C: 85 09        	sta	<R2
  1042 00:076E: A9 00 00     	lda	#$0
  1043 00:0771: 85 0B        	sta	<R2+2
  1044 00:0773: A5 09        	lda	<R2
  1045 00:0775: 18           	clc
  1046 00:0776: 65 01        	adc	<R0
  1047 00:0778: 85 0D        	sta	<R3
  1048 00:077A: A5 0B        	lda	<R2+2
  1049 00:077C: 65 03        	adc	<R0+2
  1050 00:077E: 85 0F        	sta	<R3+2
  1051 00:0780: 38           	sec
  1052 00:0781: A5 33        	lda	<L3+left_1
  1053 00:0783: E7 0D        	sbc	[<R3]
  1054 00:0785: 85 33        	sta	<L3+left_1
  1055 00:0787: 38           	sec
  1056 00:0788: A9 00 00     	lda	#$0
  1057 00:078B: E5 33        	sbc	<L3+left_1
  1058 00:078D: 70 03        	bvs	L45
  1059 00:078F: 49 00 80     	eor	#$8000
  1060                        L45:
  1061 00:0792: 30 0D        	bmi	L10055
  1062 00:0794: E6 2F        	inc	<L3+curr_1
  1063 00:0796: 06 33        	asl	<L3+left_1
  1064                        L10054:
  1065 00:0798: A5 2F        	lda	<L3+curr_1
  1066 00:079A: 18           	clc
  1067 00:079B: 65 31        	adc	<L3+drop_1
  1068 00:079D: C5 2B        	cmp	<L3+max_1
  1069 00:079F: 90 AE        	bcc	L20004
  1070                        L10055:
  1071 00:07A1: A9 01 00     	lda	#$1
  1072 00:07A4: A6 2F        	ldx	<L3+curr_1
  1073                        	xref	~~~asl
  1074 00:07A6: 22 xx xx xx  	jsl	~~~asl
  1075 00:07AA: 18           	clc
  1076 00:07AB: 65 35        	adc	<L3+used_1
  1077 00:07AD: 85 35        	sta	<L3+used_1
  1078 00:07AF: A5 96        	lda	<L2+type_0
  1079 00:07B1: C9 01 00     	cmp	#<$1
  1080 00:07B4: D0 0A        	bne	L48
  1081 00:07B6: A9 54 03     	lda	#$354
  1082 00:07B9: C5 35        	cmp	<L3+used_1
  1083 00:07BB: B0 03        	bcs	*+5
  1084 00:07BD: 82 B3 FD     	brl	L28
  1085                        L48:
  1086 00:07C0: A5 96        	lda	<L2+type_0
  1087 00:07C2: C9 02 00     	cmp	#<$2
  Thu Nov 19 2020 16:41                                                Page 20


  1088 00:07C5: D0 0A        	bne	L10056
  1089 00:07C7: A9 50 02     	lda	#$250
  1090 00:07CA: C5 35        	cmp	<L3+used_1
  1091 00:07CC: B0 03        	bcs	*+5
  1092 00:07CE: 82 A2 FD     	brl	L28
  1093                        L10056:
  1094 00:07D1: A5 3F        	lda	<L3+mask_1
  1095 00:07D3: 25 37        	and	<L3+huff_1
  1096 00:07D5: 85 3D        	sta	<L3+low_1
  1097 00:07D7: 85 05        	sta	<R1
  1098 00:07D9: 64 07        	stz	<R1+2
  1099 00:07DB: D4 07        	pei	<R1+2
  1100 00:07DD: D4 05        	pei	<R1
  1101 00:07DF: A9 02 00     	lda	#$2
  1102                        	xref	~~~lasl
  1103 00:07E2: 22 xx xx xx  	jsl	~~~lasl
  1104 00:07E6: 85 01        	sta	<R0
  1105 00:07E8: 86 03        	stx	<R0+2
  1106 00:07EA: A7 9E        	lda	[<L2+table_0]
  1107 00:07EC: 18           	clc
  1108 00:07ED: 65 01        	adc	<R0
  1109 00:07EF: 85 09        	sta	<R2
  1110 00:07F1: A0 02 00     	ldy	#$2
  1111 00:07F4: B7 9E        	lda	[<L2+table_0],Y
  1112 00:07F6: 65 03        	adc	<R0+2
  1113 00:07F8: 85 0B        	sta	<R2+2
  1114 00:07FA: E2 20        	sep	#$20
  1115                        	longa	off
  1116 00:07FC: A5 2F        	lda	<L3+curr_1
  1117 00:07FE: 87 09        	sta	[<R2]
  1118 00:0800: C2 20        	rep	#$20
  1119                        	longa	on
  1120 00:0802: A5 3D        	lda	<L3+low_1
  1121 00:0804: 85 05        	sta	<R1
  1122 00:0806: 64 07        	stz	<R1+2
  1123 00:0808: D4 07        	pei	<R1+2
  1124 00:080A: D4 05        	pei	<R1
  1125 00:080C: 98           	tya
  1126                        	xref	~~~lasl
  1127 00:080D: 22 xx xx xx  	jsl	~~~lasl
  1128 00:0811: 85 01        	sta	<R0
  1129 00:0813: 86 03        	stx	<R0+2
  1130 00:0815: A9 01 00     	lda	#$1
  1131 00:0818: 18           	clc
  1132 00:0819: 67 9E        	adc	[<L2+table_0]
  1133 00:081B: 85 09        	sta	<R2
  1134 00:081D: A9 00 00     	lda	#$0
  1135 00:0820: A0 02 00     	ldy	#$2
  1136 00:0823: 77 9E        	adc	[<L2+table_0],Y
  1137 00:0825: 85 0B        	sta	<R2+2
  1138 00:0827: A5 09        	lda	<R2
  1139 00:0829: 18           	clc
  1140 00:082A: 65 01        	adc	<R0
  1141 00:082C: 85 0D        	sta	<R3
  1142 00:082E: A5 0B        	lda	<R2+2
  1143 00:0830: 65 03        	adc	<R0+2
  1144 00:0832: 85 0F        	sta	<R3+2
  1145 00:0834: E2 20        	sep	#$20
  Thu Nov 19 2020 16:41                                                Page 21


  1146                        	longa	off
  1147 00:0836: A5 2D        	lda	<L3+root_1
  1148 00:0838: 87 0D        	sta	[<R3]
  1149 00:083A: C2 20        	rep	#$20
  1150                        	longa	on
  1151 00:083C: A5 3D        	lda	<L3+low_1
  1152 00:083E: 85 05        	sta	<R1
  1153 00:0840: 64 07        	stz	<R1+2
  1154 00:0842: D4 07        	pei	<R1+2
  1155 00:0844: D4 05        	pei	<R1
  1156 00:0846: 98           	tya
  1157                        	xref	~~~lasl
  1158 00:0847: 22 xx xx xx  	jsl	~~~lasl
  1159 00:084B: 85 01        	sta	<R0
  1160 00:084D: 86 03        	stx	<R0+2
  1161 00:084F: A9 02 00     	lda	#$2
  1162 00:0852: 18           	clc
  1163 00:0853: 67 9E        	adc	[<L2+table_0]
  1164 00:0855: 85 09        	sta	<R2
  1165 00:0857: A9 00 00     	lda	#$0
  1166 00:085A: A0 02 00     	ldy	#$2
  1167 00:085D: 77 9E        	adc	[<L2+table_0],Y
  1168 00:085F: 85 0B        	sta	<R2+2
  1169 00:0861: A5 09        	lda	<R2
  1170 00:0863: 18           	clc
  1171 00:0864: 65 01        	adc	<R0
  1172 00:0866: 85 0D        	sta	<R3
  1173 00:0868: A5 0B        	lda	<R2+2
  1174 00:086A: 65 03        	adc	<R0+2
  1175 00:086C: 85 0F        	sta	<R3+2
  1176 00:086E: 38           	sec
  1177 00:086F: A5 45        	lda	<L3+next_1
  1178 00:0871: E7 9E        	sbc	[<L2+table_0]
  1179 00:0873: 85 01        	sta	<R0
  1180 00:0875: A5 47        	lda	<L3+next_1+2
  1181 00:0877: F7 9E        	sbc	[<L2+table_0],Y
  1182 00:0879: 85 03        	sta	<R0+2
  1183 00:087B: A5 01        	lda	<R0
  1184 00:087D: 85 09        	sta	<R2
  1185 00:087F: A5 03        	lda	<R0+2
  1186 00:0881: 85 0B        	sta	<R2+2
  1187 00:0883: 0A           	asl	A
  1188 00:0884: 66 0B        	ror	<R2+2
  1189 00:0886: 66 09        	ror	<R2
  1190 00:0888: A5 0B        	lda	<R2+2
  1191 00:088A: 0A           	asl	A
  1192 00:088B: 66 0B        	ror	<R2+2
  1193 00:088D: 66 09        	ror	<R2
  1194 00:088F: A5 09        	lda	<R2
  1195 00:0891: 87 0D        	sta	[<R3]
  1196 00:0893: 82 B6 FB     	brl	L10039
  1197                        L10038:
  1198 00:0896: A5 37        	lda	<L3+huff_1
  1199 00:0898: F0 4E        	beq	L10057
  1200 00:089A: E2 20        	sep	#$20
  1201                        	longa	off
  1202 00:089C: A9 40        	lda	#$40
  1203 00:089E: 85 41        	sta	<L3+here_1
  Thu Nov 19 2020 16:41                                                Page 22


  1204 00:08A0: C2 20        	rep	#$20
  1205                        	longa	on
  1206 00:08A2: 38           	sec
  1207 00:08A3: A5 25        	lda	<L3+len_1
  1208 00:08A5: E5 31        	sbc	<L3+drop_1
  1209 00:08A7: E2 20        	sep	#$20
  1210                        	longa	off
  1211 00:08A9: 85 42        	sta	<L3+here_1+1
  1212 00:08AB: C2 20        	rep	#$20
  1213                        	longa	on
  1214 00:08AD: 64 43        	stz	<L3+here_1+2
  1215 00:08AF: 18           	clc
  1216 00:08B0: 7B           	tdc
  1217 00:08B1: 69 41 00     	adc	#<L3+here_1
  1218 00:08B4: 85 01        	sta	<R0
  1219 00:08B6: A9 00 00     	lda	#$0
  1220 00:08B9: 85 03        	sta	<R0+2
  1221 00:08BB: 48           	pha
  1222 00:08BC: D4 01        	pei	<R0
  1223 00:08BE: A5 37        	lda	<L3+huff_1
  1224 00:08C0: 85 05        	sta	<R1
  1225 00:08C2: 64 07        	stz	<R1+2
  1226 00:08C4: D4 07        	pei	<R1+2
  1227 00:08C6: D4 05        	pei	<R1
  1228 00:08C8: A9 02 00     	lda	#$2
  1229                        	xref	~~~lasl
  1230 00:08CB: 22 xx xx xx  	jsl	~~~lasl
  1231 00:08CF: 85 01        	sta	<R0
  1232 00:08D1: 86 03        	stx	<R0+2
  1233 00:08D3: A5 45        	lda	<L3+next_1
  1234 00:08D5: 18           	clc
  1235 00:08D6: 65 01        	adc	<R0
  1236 00:08D8: 85 09        	sta	<R2
  1237 00:08DA: A5 47        	lda	<L3+next_1+2
  1238 00:08DC: 65 03        	adc	<R0+2
  1239 00:08DE: 48           	pha
  1240 00:08DF: D4 09        	pei	<R2
  1241 00:08E1: A9 04 00     	lda	#$4
  1242                        	xref	~~~fmov
  1243 00:08E4: 22 xx xx xx  	jsl	~~~fmov
  1244                        L10057:
  1245 00:08E8: A5 35        	lda	<L3+used_1
  1246 00:08EA: 85 05        	sta	<R1
  1247 00:08EC: 64 07        	stz	<R1+2
  1248 00:08EE: D4 07        	pei	<R1+2
  1249 00:08F0: D4 05        	pei	<R1
  1250 00:08F2: A9 02 00     	lda	#$2
  1251                        	xref	~~~lasl
  1252 00:08F5: 22 xx xx xx  	jsl	~~~lasl
  1253 00:08F9: 85 01        	sta	<R0
  1254 00:08FB: 86 03        	stx	<R0+2
  1255 00:08FD: A7 9E        	lda	[<L2+table_0]
  1256 00:08FF: 18           	clc
  1257 00:0900: 65 01        	adc	<R0
  1258 00:0902: 87 9E        	sta	[<L2+table_0]
  1259 00:0904: A0 02 00     	ldy	#$2
  1260 00:0907: B7 9E        	lda	[<L2+table_0],Y
  1261 00:0909: 65 03        	adc	<R0+2
  Thu Nov 19 2020 16:41                                                Page 23


  1262 00:090B: 97 9E        	sta	[<L2+table_0],Y
  1263 00:090D: A5 2D        	lda	<L3+root_1
  1264 00:090F: 82 56 F8     	brl	L20006
  1265             00000092   L2	equ	146
  1266             00000025   L3	equ	37
  1267                        	ends
  1268                        	efunc
  1269                        	data
  1270                        L4:
  1271 00:0030: 03 00 04 00  	dw	$3,$4,$5,$6,$7,$8,$9,$A,$B,$D
       00:0034: 05 00 06 00 
       00:0038: 07 00 08 00 
       00:003C: 09 00 0A 00 
       00:0040: 0B 00 0D 00 
  1272 00:0044: 0F 00 11 00  	dw	$F,$11,$13,$17,$1B,$1F,$23,$2B,$33,$3B
       00:0048: 13 00 17 00 
       00:004C: 1B 00 1F 00 
       00:0050: 23 00 2B 00 
       00:0054: 33 00 3B 00 
  1273 00:0058: 43 00 53 00  	dw	$43,$53,$63,$73,$83,$A3,$C3,$E3,$102,$0
       00:005C: 63 00 73 00 
       00:0060: 83 00 A3 00 
       00:0064: C3 00 E3 00 
       00:0068: 02 01 00 00 
  1274 00:006C: 00 00        	dw	$0
  1275 00:006E:              	ends
  1276                        	data
  1277                        L5:
  1278 00:006E: 10 00 10 00  	dw	$10,$10,$10,$10,$10,$10,$10,$10,$11,$11
       00:0072: 10 00 10 00 
       00:0076: 10 00 10 00 
       00:007A: 10 00 10 00 
       00:007E: 11 00 11 00 
  1279 00:0082: 11 00 11 00  	dw	$11,$11,$12,$12,$12,$12,$13,$13,$13,$13
       00:0086: 12 00 12 00 
       00:008A: 12 00 12 00 
       00:008E: 13 00 13 00 
       00:0092: 13 00 13 00 
  1280 00:0096: 14 00 14 00  	dw	$14,$14,$14,$14,$15,$15,$15,$15,$10,$4D
       00:009A: 14 00 14 00 
       00:009E: 15 00 15 00 
       00:00A2: 15 00 15 00 
       00:00A6: 10 00 4D 00 
  1281 00:00AA: CA 00        	dw	$CA
  1282 00:00AC:              	ends
  1283                        	data
  1284                        L6:
  1285 00:00AC: 01 00 02 00  	dw	$1,$2,$3,$4,$5,$7,$9,$D,$11,$19
       00:00B0: 03 00 04 00 
       00:00B4: 05 00 07 00 
       00:00B8: 09 00 0D 00 
       00:00BC: 11 00 19 00 
  1286 00:00C0: 21 00 31 00  	dw	$21,$31,$41,$61,$81,$C1,$101,$181,$201,$
                    301
       00:00C4: 41 00 61 00 
       00:00C8: 81 00 C1 00 
       00:00CC: 01 01 81 01 
       00:00D0: 01 02 01 03 
  Thu Nov 19 2020 16:41                                                Page 24


  1287 00:00D4: 01 04 01 06  	dw	$401,$601,$801,$C01,$1001,$1801,$2001,$3
                    001,$4001,$6001
       00:00D8: 01 08 01 0C 
       00:00DC: 01 10 01 18 
       00:00E0: 01 20 01 30 
       00:00E4: 01 40 01 60 
  1288 00:00E8: 00 00 00 00  	dw	$0,$0
  1289 00:00EC:              	ends
  1290                        	data
  1291                        L7:
  1292 00:00EC: 10 00 10 00  	dw	$10,$10,$10,$10,$11,$11,$12,$12,$13,$13
       00:00F0: 10 00 10 00 
       00:00F4: 11 00 11 00 
       00:00F8: 12 00 12 00 
       00:00FC: 13 00 13 00 
  1293 00:0100: 14 00 14 00  	dw	$14,$14,$15,$15,$16,$16,$17,$17,$18,$18
       00:0104: 15 00 15 00 
       00:0108: 16 00 16 00 
       00:010C: 17 00 17 00 
       00:0110: 18 00 18 00 
  1294 00:0114: 19 00 19 00  	dw	$19,$19,$1A,$1A,$1B,$1B,$1C,$1C,$1D,$1D
       00:0118: 1A 00 1A 00 
       00:011C: 1B 00 1B 00 
       00:0120: 1C 00 1C 00 
       00:0124: 1D 00 1D 00 
  1295 00:0128: 40 00 40 00  	dw	$40,$40
  1296 00:012C:              	ends


      Lines assembled: 1296
      Errors: 0
