  Thu Jan 13 2022 23:48                                                Page 1


                     ***************************************
                     **      WDC 65C816 Macro Assembler   **
                     **                                   **
                     **     Version 3.49.1- Feb  6 2006    **
                     ***************************************

     1                        ;:ts=8
     2             00000001   R0	equ	1
     3             00000005   R1	equ	5
     4             00000009   R2	equ	9
     5             0000000D   R3	equ	13
     6                        	data
     7                        	xdef	~~ucHeap16
     8                        ~~ucHeap16:
     9 00:0000: 00 10 00 00  	dl	$1000
    10 00:0004:              	ends
    11                        	data
    12                        	xdef	~~ucHeap
    13                        ~~ucHeap:
    14 00:0004: 00 00 02 00  	dl	$20000
    15 00:0008:              	ends
    16                        	data
    17                        ~~exepath:
    18 00:0008: 2F 00        	db	$2F,$0
    19 00:000A:              	ds	78
    20 00:0058:              	ends
    21                        	code
    22                        	xdef	~~debugTaskControl
    23                        	func
    24                        ~~debugTaskControl:
    25                        	longa	on
    26                        	longi	on
    27 00:0000: 3B           	tsc
    28 00:0001: 38           	sec
    29 00:0002: E9 04 00     	sbc	#L2
    30 00:0005: 1B           	tcs
    31 00:0006: 0B           	phd
    32 00:0007: 5B           	tcd
    33             00000004   tc_0	set	4
    34 00:0008: F4 xx xx     	pea	#^L1
    35 00:000B: F4 xx xx     	pea	#<L1
    36 00:000E: F4 06 00     	pea	#6
    37 00:0011: 22 xx xx xx  	jsl	~~debugf
    38 00:0015: A0 02 00     	ldy	#$2
    39 00:0018: B7 08        	lda	[<L2+tc_0],Y
    40 00:001A: 48           	pha
    41 00:001B: A7 08        	lda	[<L2+tc_0]
    42 00:001D: 48           	pha
    43 00:001E: F4 xx xx     	pea	#^L1+19
    44 00:0021: F4 xx xx     	pea	#<L1+19
    45 00:0024: F4 0A 00     	pea	#10
    46 00:0027: 22 xx xx xx  	jsl	~~debugf
    47 00:002B: A0 04 00     	ldy	#$4
    48 00:002E: B7 08        	lda	[<L2+tc_0],Y
    49 00:0030: 85 01        	sta	<R0
    50 00:0032: 64 03        	stz	<R0+2
    51 00:0034: D4 03        	pei	<R0+2
    52 00:0036: D4 01        	pei	<R0
  Thu Jan 13 2022 23:48                                                Page 2


    53 00:0038: F4 xx xx     	pea	#^L1+43
    54 00:003B: F4 xx xx     	pea	#<L1+43
    55 00:003E: F4 0A 00     	pea	#10
    56 00:0041: 22 xx xx xx  	jsl	~~debugf
    57 00:0045: A0 08 00     	ldy	#$8
    58 00:0048: B7 08        	lda	[<L2+tc_0],Y
    59 00:004A: 48           	pha
    60 00:004B: 88           	dey
    61 00:004C: 88           	dey
    62 00:004D: B7 08        	lda	[<L2+tc_0],Y
    63 00:004F: 48           	pha
    64 00:0050: F4 xx xx     	pea	#^L1+67
    65 00:0053: F4 xx xx     	pea	#<L1+67
    66 00:0056: F4 0A 00     	pea	#10
    67 00:0059: 22 xx xx xx  	jsl	~~debugf
    68 00:005D: A0 0C 00     	ldy	#$c
    69 00:0060: B7 08        	lda	[<L2+tc_0],Y
    70 00:0062: 48           	pha
    71 00:0063: 88           	dey
    72 00:0064: 88           	dey
    73 00:0065: B7 08        	lda	[<L2+tc_0],Y
    74 00:0067: 48           	pha
    75 00:0068: F4 xx xx     	pea	#^L1+91
    76 00:006B: F4 xx xx     	pea	#<L1+91
    77 00:006E: F4 0A 00     	pea	#10
    78 00:0071: 22 xx xx xx  	jsl	~~debugf
    79 00:0075: A0 10 00     	ldy	#$10
    80 00:0078: B7 08        	lda	[<L2+tc_0],Y
    81 00:007A: 48           	pha
    82 00:007B: 88           	dey
    83 00:007C: 88           	dey
    84 00:007D: B7 08        	lda	[<L2+tc_0],Y
    85 00:007F: 48           	pha
    86 00:0080: F4 xx xx     	pea	#^L1+115
    87 00:0083: F4 xx xx     	pea	#<L1+115
    88 00:0086: F4 0A 00     	pea	#10
    89 00:0089: 22 xx xx xx  	jsl	~~debugf
    90 00:008D: A0 14 00     	ldy	#$14
    91 00:0090: B7 08        	lda	[<L2+tc_0],Y
    92 00:0092: 48           	pha
    93 00:0093: 88           	dey
    94 00:0094: 88           	dey
    95 00:0095: B7 08        	lda	[<L2+tc_0],Y
    96 00:0097: 48           	pha
    97 00:0098: F4 xx xx     	pea	#^L1+139
    98 00:009B: F4 xx xx     	pea	#<L1+139
    99 00:009E: F4 0A 00     	pea	#10
   100 00:00A1: 22 xx xx xx  	jsl	~~debugf
   101 00:00A5: A0 18 00     	ldy	#$18
   102 00:00A8: B7 08        	lda	[<L2+tc_0],Y
   103 00:00AA: 48           	pha
   104 00:00AB: 88           	dey
   105 00:00AC: 88           	dey
   106 00:00AD: B7 08        	lda	[<L2+tc_0],Y
   107 00:00AF: 48           	pha
   108 00:00B0: F4 xx xx     	pea	#^L1+163
   109 00:00B3: F4 xx xx     	pea	#<L1+163
   110 00:00B6: F4 0A 00     	pea	#10
  Thu Jan 13 2022 23:48                                                Page 3


   111 00:00B9: 22 xx xx xx  	jsl	~~debugf
   112 00:00BD: A0 1C 00     	ldy	#$1c
   113 00:00C0: B7 08        	lda	[<L2+tc_0],Y
   114 00:00C2: 48           	pha
   115 00:00C3: 88           	dey
   116 00:00C4: 88           	dey
   117 00:00C5: B7 08        	lda	[<L2+tc_0],Y
   118 00:00C7: 48           	pha
   119 00:00C8: F4 xx xx     	pea	#^L1+187
   120 00:00CB: F4 xx xx     	pea	#<L1+187
   121 00:00CE: F4 0A 00     	pea	#10
   122 00:00D1: 22 xx xx xx  	jsl	~~debugf
   123 00:00D5: A0 00 00     	ldy	#$0
   124 00:00D8: 5A           	phy
   125 00:00D9: A0 1E 00     	ldy	#$1e
   126 00:00DC: B7 08        	lda	[<L2+tc_0],Y
   127 00:00DE: 7A           	ply
   128 00:00DF: 2A           	rol	A
   129 00:00E0: 6A           	ror	A
   130 00:00E1: 10 01        	bpl	L4
   131 00:00E3: 88           	dey
   132                        L4:
   133 00:00E4: 85 01        	sta	<R0
   134 00:00E6: 84 03        	sty	<R0+2
   135 00:00E8: D4 03        	pei	<R0+2
   136 00:00EA: D4 01        	pei	<R0
   137 00:00EC: F4 xx xx     	pea	#^L1+211
   138 00:00EF: F4 xx xx     	pea	#<L1+211
   139 00:00F2: F4 0A 00     	pea	#10
   140 00:00F5: 22 xx xx xx  	jsl	~~debugf
   141 00:00F9: A0 22 00     	ldy	#$22
   142 00:00FC: B7 08        	lda	[<L2+tc_0],Y
   143 00:00FE: 48           	pha
   144 00:00FF: 88           	dey
   145 00:0100: 88           	dey
   146 00:0101: B7 08        	lda	[<L2+tc_0],Y
   147 00:0103: 48           	pha
   148 00:0104: F4 xx xx     	pea	#^L1+235
   149 00:0107: F4 xx xx     	pea	#<L1+235
   150 00:010A: F4 0A 00     	pea	#10
   151 00:010D: 22 xx xx xx  	jsl	~~debugf
   152 00:0111: A0 26 00     	ldy	#$26
   153 00:0114: B7 08        	lda	[<L2+tc_0],Y
   154 00:0116: 48           	pha
   155 00:0117: 88           	dey
   156 00:0118: 88           	dey
   157 00:0119: B7 08        	lda	[<L2+tc_0],Y
   158 00:011B: 48           	pha
   159 00:011C: F4 xx xx     	pea	#^L1+259
   160 00:011F: F4 xx xx     	pea	#<L1+259
   161 00:0122: F4 0A 00     	pea	#10
   162 00:0125: 22 xx xx xx  	jsl	~~debugf
   163 00:0129: A0 28 00     	ldy	#$28
   164 00:012C: B7 08        	lda	[<L2+tc_0],Y
   165 00:012E: 85 01        	sta	<R0
   166 00:0130: 64 03        	stz	<R0+2
   167 00:0132: D4 03        	pei	<R0+2
   168 00:0134: D4 01        	pei	<R0
  Thu Jan 13 2022 23:48                                                Page 4


   169 00:0136: F4 xx xx     	pea	#^L1+283
   170 00:0139: F4 xx xx     	pea	#<L1+283
   171 00:013C: F4 0A 00     	pea	#10
   172 00:013F: 22 xx xx xx  	jsl	~~debugf
   173 00:0143: A0 2A 00     	ldy	#$2a
   174 00:0146: B7 08        	lda	[<L2+tc_0],Y
   175 00:0148: 85 01        	sta	<R0
   176 00:014A: 64 03        	stz	<R0+2
   177 00:014C: D4 03        	pei	<R0+2
   178 00:014E: D4 01        	pei	<R0
   179 00:0150: F4 xx xx     	pea	#^L1+307
   180 00:0153: F4 xx xx     	pea	#<L1+307
   181 00:0156: F4 0A 00     	pea	#10
   182 00:0159: 22 xx xx xx  	jsl	~~debugf
   183 00:015D: A0 2C 00     	ldy	#$2c
   184 00:0160: B7 08        	lda	[<L2+tc_0],Y
   185 00:0162: 85 01        	sta	<R0
   186 00:0164: 64 03        	stz	<R0+2
   187 00:0166: D4 03        	pei	<R0+2
   188 00:0168: D4 01        	pei	<R0
   189 00:016A: F4 xx xx     	pea	#^L1+331
   190 00:016D: F4 xx xx     	pea	#<L1+331
   191 00:0170: F4 0A 00     	pea	#10
   192 00:0173: 22 xx xx xx  	jsl	~~debugf
   193 00:0177: A5 06        	lda	<L2+2
   194 00:0179: 85 0A        	sta	<L2+2+4
   195 00:017B: A5 05        	lda	<L2+1
   196 00:017D: 85 09        	sta	<L2+1+4
   197 00:017F: 2B           	pld
   198 00:0180: 3B           	tsc
   199 00:0181: 18           	clc
   200 00:0182: 69 08 00     	adc	#L2+4
   201 00:0185: 1B           	tcs
   202 00:0186: 6B           	rtl
   203             00000004   L2	equ	4
   204             00000005   L3	equ	5
   205                        	ends
   206                        	efunc
   207                        	data
   208                        L1:
   209 00:0058: 74 61 73 6B  	db	$74,$61,$73,$6B,$43,$6F,$6E,$74,$72,$6F,
                    $6C,$20,$20,$20,$20
       00:005C: 43 6F 6E 74 
       00:0060: 72 6F 6C 20 
       00:0064: 20 20 20 
   210 00:0067: 20 3A 0A 00  	db	$20,$3A,$0A,$00,$63,$6D,$64,$4C,$69,$6E,
                    $65,$20,$20,$20,$20
       00:006B: 63 6D 64 4C 
       00:006F: 69 6E 65 20 
       00:0073: 20 20 20 
   211 00:0076: 20 20 20 20  	db	$20,$20,$20,$20,$20,$3A,$20,$25,$30,$38,
                    $58,$0A,$00,$61,$72
       00:007A: 20 3A 20 25 
       00:007E: 30 38 58 0A 
       00:0082: 00 61 72 
   212 00:0085: 67 63 20 20  	db	$67,$63,$20,$20,$20,$20,$20,$20,$20,$20,
                    $20,$20,$20,$20,$3A
       00:0089: 20 20 20 20 
  Thu Jan 13 2022 23:48                                                Page 5


       00:008D: 20 20 20 20 
       00:0091: 20 20 3A 
   213 00:0094: 20 25 30 34  	db	$20,$25,$30,$34,$58,$0A,$00,$61,$72,$67,
                    $76,$20,$20,$20,$20
       00:0098: 58 0A 00 61 
       00:009C: 72 67 76 20 
       00:00A0: 20 20 20 
   214 00:00A3: 20 20 20 20  	db	$20,$20,$20,$20,$20,$20,$20,$20,$3A,$20,
                    $25,$30,$38,$58,$0A
       00:00A7: 20 20 20 20 
       00:00AB: 3A 20 25 30 
       00:00AF: 38 58 0A 
   215 00:00B2: 00 63 61 6C  	db	$00,$63,$61,$6C,$6C,$65,$72,$54,$61,$73,
                    $6B,$48,$61,$6E,$64
       00:00B6: 6C 65 72 54 
       00:00BA: 61 73 6B 48 
       00:00BE: 61 6E 64 
   216 00:00C1: 6C 65 3A 20  	db	$6C,$65,$3A,$20,$25,$30,$38,$58,$0A,$00,
                    $74,$61,$73,$6B,$48
       00:00C5: 25 30 38 58 
       00:00C9: 0A 00 74 61 
       00:00CD: 73 6B 48 
   217 00:00D0: 61 6E 64 6C  	db	$61,$6E,$64,$6C,$65,$20,$20,$20,$20,$20,
                    $20,$3A,$20,$25,$30
       00:00D4: 65 20 20 20 
       00:00D8: 20 20 20 3A 
       00:00DC: 20 25 30 
   218 00:00DF: 38 58 0A 00  	db	$38,$58,$0A,$00,$63,$6F,$64,$65,$50,$74,
                    $72,$20,$20,$20,$20
       00:00E3: 63 6F 64 65 
       00:00E7: 50 74 72 20 
       00:00EB: 20 20 20 
   219 00:00EE: 20 20 20 20  	db	$20,$20,$20,$20,$20,$3A,$20,$25,$30,$38,
                    $58,$0A,$00,$75,$64
       00:00F2: 20 3A 20 25 
       00:00F6: 30 38 58 0A 
       00:00FA: 00 75 64 
   220 00:00FD: 61 74 61 50  	db	$61,$74,$61,$50,$74,$72,$20,$20,$20,$20,
                    $20,$20,$20,$20,$3A
       00:0101: 74 72 20 20 
       00:0105: 20 20 20 20 
       00:0109: 20 20 3A 
   221 00:010C: 20 25 30 38  	db	$20,$25,$30,$38,$58,$0A,$00,$64,$61,$74,
                    $61,$50,$74,$72,$20
       00:0110: 58 0A 00 64 
       00:0114: 61 74 61 50 
       00:0118: 74 72 20 
   222 00:011B: 20 20 20 20  	db	$20,$20,$20,$20,$20,$20,$20,$20,$3A,$20,
                    $25,$30,$38,$58,$0A
       00:011F: 20 20 20 20 
       00:0123: 3A 20 25 30 
       00:0127: 38 58 0A 
   223 00:012A: 00 72 63 20  	db	$00,$72,$63,$20,$20,$20,$20,$20,$20,$20,
                    $20,$20,$20,$20,$20
       00:012E: 20 20 20 20 
       00:0132: 20 20 20 20 
       00:0136: 20 20 20 
   224 00:0139: 20 20 3A 20  	db	$20,$20,$3A,$20,$25,$30,$34,$58,$0A,$00,
  Thu Jan 13 2022 23:48                                                Page 6


                    $68,$65,$61,$70,$20
       00:013D: 25 30 34 58 
       00:0141: 0A 00 68 65 
       00:0145: 61 70 20 
   225 00:0148: 20 20 20 20  	db	$20,$20,$20,$20,$20,$20,$20,$20,$20,$20,
                    $20,$3A,$20,$25,$30
       00:014C: 20 20 20 20 
       00:0150: 20 20 20 3A 
       00:0154: 20 25 30 
   226 00:0157: 38 58 0A 00  	db	$38,$58,$0A,$00,$68,$65,$61,$70,$4E,$65,
                    $78,$74,$20,$20,$20
       00:015B: 68 65 61 70 
       00:015F: 4E 65 78 74 
       00:0163: 20 20 20 
   227 00:0166: 20 20 20 20  	db	$20,$20,$20,$20,$20,$3A,$20,$25,$30,$38,
                    $58,$0A,$00,$68,$65
       00:016A: 20 3A 20 25 
       00:016E: 30 38 58 0A 
       00:0172: 00 68 65 
   228 00:0175: 61 70 41 76  	db	$61,$70,$41,$76,$61,$69,$6C,$61,$62,$6C,
                    $65,$20,$20,$20,$3A
       00:0179: 61 69 6C 61 
       00:017D: 62 6C 65 20 
       00:0181: 20 20 3A 
   229 00:0184: 20 25 30 34  	db	$20,$25,$30,$34,$58,$0A,$00,$68,$65,$61,
                    $70,$53,$69,$7A,$65
       00:0188: 58 0A 00 68 
       00:018C: 65 61 70 53 
       00:0190: 69 7A 65 
   230 00:0193: 20 20 20 20  	db	$20,$20,$20,$20,$20,$20,$20,$20,$3A,$20,
                    $25,$30,$34,$58,$0A
       00:0197: 20 20 20 20 
       00:019B: 3A 20 25 30 
       00:019F: 34 58 0A 
   231 00:01A2: 00 62 61 63  	db	$00,$62,$61,$63,$6B,$67,$72,$6F,$75,$6E,
                    $64,$20,$20,$20,$20
       00:01A6: 6B 67 72 6F 
       00:01AA: 75 6E 64 20 
       00:01AE: 20 20 20 
   232 00:01B1: 20 20 3A 20  	db	$20,$20,$3A,$20,$25,$30,$34,$58,$0A,$00
       00:01B5: 25 30 34 58 
       00:01B9: 0A 00 
   233 00:01BB:              	ends
   234                        	code
   235                        	xdef	~~printHeap
   236                        	func
   237                        ~~printHeap:
   238                        	longa	on
   239                        	longi	on
   240 00:0187: 3B           	tsc
   241 00:0188: 38           	sec
   242 00:0189: E9 04 00     	sbc	#L7
   243 00:018C: 1B           	tcs
   244 00:018D: 0B           	phd
   245 00:018E: 5B           	tcd
   246             00000004   e_0	set	4
   247             00000008   end_0	set	8
   248 00:018F: 80 41        	bra	L10004
  Thu Jan 13 2022 23:48                                                Page 7


   249                        L10003:
   250 00:0191: A0 06 00     	ldy	#$6
   251 00:0194: B7 08        	lda	[<L7+e_0],Y
   252 00:0196: 48           	pha
   253 00:0197: 88           	dey
   254 00:0198: 88           	dey
   255 00:0199: B7 08        	lda	[<L7+e_0],Y
   256 00:019B: 48           	pha
   257 00:019C: 88           	dey
   258 00:019D: 88           	dey
   259 00:019E: B7 08        	lda	[<L7+e_0],Y
   260 00:01A0: 48           	pha
   261 00:01A1: A7 08        	lda	[<L7+e_0]
   262 00:01A3: 48           	pha
   263 00:01A4: D4 0A        	pei	<L7+e_0+2
   264 00:01A6: D4 08        	pei	<L7+e_0
   265 00:01A8: F4 xx xx     	pea	#^L6
   266 00:01AB: F4 xx xx     	pea	#<L6
   267 00:01AE: F4 12 00     	pea	#18
   268 00:01B1: 22 xx xx xx  	jsl	~~debugf
   269 00:01B5: A0 04 00     	ldy	#$4
   270 00:01B8: B7 08        	lda	[<L7+e_0],Y
   271 00:01BA: 85 01        	sta	<R0
   272 00:01BC: C8           	iny
   273 00:01BD: C8           	iny
   274 00:01BE: B7 08        	lda	[<L7+e_0],Y
   275 00:01C0: 29 FF 7F     	and	#^$7fffffff
   276 00:01C3: 85 03        	sta	<R0+2
   277 00:01C5: A5 08        	lda	<L7+e_0
   278 00:01C7: 18           	clc
   279 00:01C8: 65 01        	adc	<R0
   280 00:01CA: 85 08        	sta	<L7+e_0
   281 00:01CC: A5 0A        	lda	<L7+e_0+2
   282 00:01CE: 65 03        	adc	<R0+2
   283 00:01D0: 85 0A        	sta	<L7+e_0+2
   284                        L10004:
   285 00:01D2: A5 08        	lda	<L7+e_0
   286 00:01D4: C5 0C        	cmp	<L7+end_0
   287 00:01D6: D0 04        	bne	L9
   288 00:01D8: A5 0A        	lda	<L7+e_0+2
   289 00:01DA: C5 0E        	cmp	<L7+end_0+2
   290                        L9:
   291 00:01DC: D0 B3        	bne	L10003
   292 00:01DE: A5 06        	lda	<L7+2
   293 00:01E0: 85 0E        	sta	<L7+2+8
   294 00:01E2: A5 05        	lda	<L7+1
   295 00:01E4: 85 0D        	sta	<L7+1+8
   296 00:01E6: 2B           	pld
   297 00:01E7: 3B           	tsc
   298 00:01E8: 18           	clc
   299 00:01E9: 69 0C 00     	adc	#L7+8
   300 00:01EC: 1B           	tcs
   301 00:01ED: 6B           	rtl
   302             00000004   L7	equ	4
   303             00000005   L8	equ	5
   304                        	ends
   305                        	efunc
   306                        	data
  Thu Jan 13 2022 23:48                                                Page 8


   307                        L6:
   308 00:01BB: 65 3A 20 25  	db	$65,$3A,$20,$25,$30,$38,$58,$2C,$20,$6E,
                    $65,$78,$74,$46,$72
       00:01BF: 30 38 58 2C 
       00:01C3: 20 6E 65 78 
       00:01C7: 74 46 72 
   309 00:01CA: 65 65 42 6C  	db	$65,$65,$42,$6C,$6F,$63,$6B,$3A,$20,$25,
                    $30,$38,$58,$2C,$20
       00:01CE: 6F 63 6B 3A 
       00:01D2: 20 25 30 38 
       00:01D6: 58 2C 20 
   310 00:01D9: 6C 65 6E 67  	db	$6C,$65,$6E,$67,$74,$68,$3A,$20,$25,$30,
                    $38,$58,$20,$0A,$00
       00:01DD: 74 68 3A 20 
       00:01E1: 25 30 38 58 
       00:01E5: 20 0A 00 
   311 00:01E8:              	ends
   312                        	code
   313                        	xdef	~~checkHeap
   314                        	func
   315                        ~~checkHeap:
   316                        	longa	on
   317                        	longi	on
   318 00:01EE: 3B           	tsc
   319 00:01EF: 38           	sec
   320 00:01F0: E9 00 00     	sbc	#L13
   321 00:01F3: 1B           	tcs
   322 00:01F4: 0B           	phd
   323 00:01F5: 5B           	tcd
   324             00000004   str_0	set	4
   325 00:01F6: D4 06        	pei	<L13+str_0+2
   326 00:01F8: D4 04        	pei	<L13+str_0
   327 00:01FA: F4 xx xx     	pea	#^L12
   328 00:01FD: F4 xx xx     	pea	#<L12
   329 00:0200: F4 0A 00     	pea	#10
   330 00:0203: 22 xx xx xx  	jsl	~~debugf
   331 00:0207: AD xx xx     	lda	|~~pxEnd16+2
   332 00:020A: 48           	pha
   333 00:020B: AD xx xx     	lda	|~~pxEnd16
   334 00:020E: 48           	pha
   335 00:020F: AD xx xx     	lda	|~~ucHeap16+2
   336 00:0212: 48           	pha
   337 00:0213: AD xx xx     	lda	|~~ucHeap16
   338 00:0216: 48           	pha
   339 00:0217: 22 xx xx xx  	jsl	~~printHeap
   340 00:021B: F4 xx xx     	pea	#^L12+4
   341 00:021E: F4 xx xx     	pea	#<L12+4
   342 00:0221: F4 06 00     	pea	#6
   343 00:0224: 22 xx xx xx  	jsl	~~debugf
   344 00:0228: AD xx xx     	lda	|~~pxEnd+2
   345 00:022B: 48           	pha
   346 00:022C: AD xx xx     	lda	|~~pxEnd
   347 00:022F: 48           	pha
   348 00:0230: AD xx xx     	lda	|~~ucHeap+2
   349 00:0233: 48           	pha
   350 00:0234: AD xx xx     	lda	|~~ucHeap
   351 00:0237: 48           	pha
   352 00:0238: 22 xx xx xx  	jsl	~~printHeap
  Thu Jan 13 2022 23:48                                                Page 9


   353 00:023C: A5 02        	lda	<L13+2
   354 00:023E: 85 06        	sta	<L13+2+4
   355 00:0240: A5 01        	lda	<L13+1
   356 00:0242: 85 05        	sta	<L13+1+4
   357 00:0244: 2B           	pld
   358 00:0245: 3B           	tsc
   359 00:0246: 18           	clc
   360 00:0247: 69 04 00     	adc	#L13+4
   361 00:024A: 1B           	tcs
   362 00:024B: 6B           	rtl
   363             00000000   L13	equ	0
   364             00000001   L14	equ	1
   365                        	ends
   366                        	efunc
   367                        	data
   368                        L12:
   369 00:01E8: 25 73 0A 00  	db	$25,$73,$0A,$00,$2D,$2D,$2D,$2D,$2D,$2D,
                    $2D,$2D,$2D,$2D,$2D
       00:01EC: 2D 2D 2D 2D 
       00:01F0: 2D 2D 2D 2D 
       00:01F4: 2D 2D 2D 
   370 00:01F7: 2D 2D 2D 2D  	db	$2D,$2D,$2D,$2D,$2D,$2D,$2D,$2D,$2D,$2D,
                    $2D,$2D,$2D,$2D,$2D
       00:01FB: 2D 2D 2D 2D 
       00:01FF: 2D 2D 2D 2D 
       00:0203: 2D 2D 2D 
   371 00:0206: 2D 2D 2D 2D  	db	$2D,$2D,$2D,$2D,$2D,$2D,$2D,$2D,$2D,$2D,
                    $2D,$2D,$2D,$2D,$2D
       00:020A: 2D 2D 2D 2D 
       00:020E: 2D 2D 2D 2D 
       00:0212: 2D 2D 2D 
   372 00:0215: 2D 2D 2D 2D  	db	$2D,$2D,$2D,$2D,$2D,$2D,$2D,$2D,$2D,$2D,
                    $2D,$2D,$2D,$0A,$00
       00:0219: 2D 2D 2D 2D 
       00:021D: 2D 2D 2D 2D 
       00:0221: 2D 0A 00 
   373 00:0224:              	ends
   374                        	code
   375                        	xdef	~~freetaskControl
   376                        	func
   377                        ~~freetaskControl:
   378                        	longa	on
   379                        	longi	on
   380 00:024C: 3B           	tsc
   381 00:024D: 38           	sec
   382 00:024E: E9 06 00     	sbc	#L17
   383 00:0251: 1B           	tcs
   384 00:0252: 0B           	phd
   385 00:0253: 8B                   phb
   386 00:0254: 4B                   phk
   387 00:0255: AB                   plb
   388 00:0256: 5B           	tcd
   389             00000004   tc_0	set	4
   390             00000000   heapEntry_1	set	0
   391             00000004   i_1	set	4
   392 00:0257: A0 20 00     	ldy	#$20
   393 00:025A: B7 0A        	lda	[<L17+tc_0],Y
   394 00:025C: 85 01        	sta	<L18+heapEntry_1
  Thu Jan 13 2022 23:48                                                Page 10


   395 00:025E: C8           	iny
   396 00:025F: C8           	iny
   397 00:0260: B7 0A        	lda	[<L17+tc_0],Y
   398 00:0262: 85 03        	sta	<L18+heapEntry_1+2
   399 00:0264: A5 01        	lda	<L18+heapEntry_1
   400 00:0266: 05 03        	ora	<L18+heapEntry_1+2
   401 00:0268: F0 2E        	beq	L10005
   402 00:026A: A0 2A 00     	ldy	#$2a
   403 00:026D: B7 0A        	lda	[<L17+tc_0],Y
   404 00:026F: 85 05        	sta	<L18+i_1
   405 00:0271: 80 21        	bra	L10009
   406                        L10008:
   407 00:0273: A7 01        	lda	[<L18+heapEntry_1]
   408 00:0275: A0 02 00     	ldy	#$2
   409 00:0278: 17 01        	ora	[<L18+heapEntry_1],Y
   410 00:027A: F0 0A        	beq	L10006
   411 00:027C: B7 01        	lda	[<L18+heapEntry_1],Y
   412 00:027E: 48           	pha
   413 00:027F: A7 01        	lda	[<L18+heapEntry_1]
   414 00:0281: 48           	pha
   415 00:0282: 22 xx xx xx  	jsl	~~vPortFree
   416                        L10006:
   417 00:0286: A9 04 00     	lda	#$4
   418 00:0289: 18           	clc
   419 00:028A: 65 01        	adc	<L18+heapEntry_1
   420 00:028C: 85 01        	sta	<L18+heapEntry_1
   421 00:028E: 90 02        	bcc	L21
   422 00:0290: E6 03        	inc	<L18+heapEntry_1+2
   423                        L21:
   424 00:0292: C6 05        	dec	<L18+i_1
   425                        L10009:
   426 00:0294: A5 05        	lda	<L18+i_1
   427 00:0296: D0 DB        	bne	L10008
   428                        L10005:
   429 00:0298: A0 02 00     	ldy	#$2
   430 00:029B: B7 0A        	lda	[<L17+tc_0],Y
   431 00:029D: 48           	pha
   432 00:029E: A7 0A        	lda	[<L17+tc_0]
   433 00:02A0: 48           	pha
   434 00:02A1: 22 xx xx xx  	jsl	~~vPortFree
   435 00:02A5: A0 14 00     	ldy	#$14
   436 00:02A8: B7 0A        	lda	[<L17+tc_0],Y
   437 00:02AA: 48           	pha
   438 00:02AB: 88           	dey
   439 00:02AC: 88           	dey
   440 00:02AD: B7 0A        	lda	[<L17+tc_0],Y
   441 00:02AF: 48           	pha
   442 00:02B0: 22 xx xx xx  	jsl	~~vPortFree
   443 00:02B4: A0 1C 00     	ldy	#$1c
   444 00:02B7: B7 0A        	lda	[<L17+tc_0],Y
   445 00:02B9: 48           	pha
   446 00:02BA: 88           	dey
   447 00:02BB: 88           	dey
   448 00:02BC: B7 0A        	lda	[<L17+tc_0],Y
   449 00:02BE: 48           	pha
   450 00:02BF: 22 xx xx xx  	jsl	~~vPortFree
   451 00:02C3: A0 08 00     	ldy	#$8
   452 00:02C6: B7 0A        	lda	[<L17+tc_0],Y
  Thu Jan 13 2022 23:48                                                Page 11


   453 00:02C8: 48           	pha
   454 00:02C9: 88           	dey
   455 00:02CA: 88           	dey
   456 00:02CB: B7 0A        	lda	[<L17+tc_0],Y
   457 00:02CD: 48           	pha
   458 00:02CE: 22 xx xx xx  	jsl	~~vPortFree
   459 00:02D2: A0 22 00     	ldy	#$22
   460 00:02D5: B7 0A        	lda	[<L17+tc_0],Y
   461 00:02D7: 48           	pha
   462 00:02D8: 88           	dey
   463 00:02D9: 88           	dey
   464 00:02DA: B7 0A        	lda	[<L17+tc_0],Y
   465 00:02DC: 48           	pha
   466 00:02DD: 22 xx xx xx  	jsl	~~vPortFree
   467 00:02E1: D4 0C        	pei	<L17+tc_0+2
   468 00:02E3: D4 0A        	pei	<L17+tc_0
   469 00:02E5: 22 xx xx xx  	jsl	~~vPortFree
   470 00:02E9: A5 08        	lda	<L17+2
   471 00:02EB: 85 0C        	sta	<L17+2+4
   472 00:02ED: A5 07        	lda	<L17+1
   473 00:02EF: 85 0B        	sta	<L17+1+4
   474 00:02F1: AB                   plb
   475 00:02F2: 2B           	pld
   476 00:02F3: 3B           	tsc
   477 00:02F4: 18           	clc
   478 00:02F5: 69 0A 00     	adc	#L17+4
   479 00:02F8: 1B           	tcs
   480 00:02F9: 6B           	rtl
   481             00000006   L17	equ	6
   482             00000001   L18	equ	1
   483                        	ends
   484                        	efunc
   485                        	code
   486                        	func
   487                        ~~removeTask:
   488                        	longa	on
   489                        	longi	on
   490 00:02FA: 3B           	tsc
   491 00:02FB: 38           	sec
   492 00:02FC: E9 00 00     	sbc	#L24
   493 00:02FF: 1B           	tcs
   494 00:0300: 0B           	phd
   495 00:0301: 5B           	tcd
   496             00000004   tc_0	set	4
   497 00:0302: A0 10 00     	ldy	#$10
   498 00:0305: B7 04        	lda	[<L24+tc_0],Y
   499 00:0307: 48           	pha
   500 00:0308: 88           	dey
   501 00:0309: 88           	dey
   502 00:030A: B7 04        	lda	[<L24+tc_0],Y
   503 00:030C: 48           	pha
   504 00:030D: 22 xx xx xx  	jsl	~~vTaskDelete
   505 00:0311: D4 06        	pei	<L24+tc_0+2
   506 00:0313: D4 04        	pei	<L24+tc_0
   507 00:0315: 22 xx xx xx  	jsl	~~freetaskControl
   508 00:0319: A5 02        	lda	<L24+2
   509 00:031B: 85 06        	sta	<L24+2+4
   510 00:031D: A5 01        	lda	<L24+1
  Thu Jan 13 2022 23:48                                                Page 12


   511 00:031F: 85 05        	sta	<L24+1+4
   512 00:0321: 2B           	pld
   513 00:0322: 3B           	tsc
   514 00:0323: 18           	clc
   515 00:0324: 69 04 00     	adc	#L24+4
   516 00:0327: 1B           	tcs
   517 00:0328: 6B           	rtl
   518             00000000   L24	equ	0
   519             00000001   L25	equ	1
   520                        	ends
   521                        	efunc
   522                        	code
   523                        	func
   524                        ~~removeTaskTask:
   525                        	longa	on
   526                        	longi	on
   527 00:0329: 3B           	tsc
   528 00:032A: 38           	sec
   529 00:032B: E9 00 00     	sbc	#L27
   530 00:032E: 1B           	tcs
   531 00:032F: 0B           	phd
   532 00:0330: 5B           	tcd
   533             00000004   tc_0	set	4
   534 00:0331: D4 06        	pei	<L27+tc_0+2
   535 00:0333: D4 04        	pei	<L27+tc_0
   536 00:0335: 22 xx xx xx  	jsl	~~removeTask
   537 00:0339: F4 00 00     	pea	#^$0
   538 00:033C: F4 00 00     	pea	#<$0
   539 00:033F: 22 xx xx xx  	jsl	~~vTaskDelete
   540 00:0343: A5 02        	lda	<L27+2
   541 00:0345: 85 06        	sta	<L27+2+4
   542 00:0347: A5 01        	lda	<L27+1
   543 00:0349: 85 05        	sta	<L27+1+4
   544 00:034B: 2B           	pld
   545 00:034C: 3B           	tsc
   546 00:034D: 18           	clc
   547 00:034E: 69 04 00     	adc	#L27+4
   548 00:0351: 1B           	tcs
   549 00:0352: 6B           	rtl
   550             00000000   L27	equ	0
   551             00000001   L28	equ	1
   552                        	ends
   553                        	efunc
   554                        	code
   555                        	xdef	~~vTaskRemove
   556                        	func
   557                        ~~vTaskRemove:
   558                        	longa	on
   559                        	longi	on
   560 00:0353: 3B           	tsc
   561 00:0354: 38           	sec
   562 00:0355: E9 00 00     	sbc	#L30
   563 00:0358: 1B           	tcs
   564 00:0359: 0B           	phd
   565 00:035A: 8B                   phb
   566 00:035B: 4B                   phk
   567 00:035C: AB                   plb
   568 00:035D: 5B           	tcd
  Thu Jan 13 2022 23:48                                                Page 13


   569             00000004   tc_0	set	4
   570 00:035E: A0 2C 00     	ldy	#$2c
   571 00:0361: B7 04        	lda	[<L30+tc_0],Y
   572 00:0363: F0 22        	beq	L10011
   573 00:0365: F4 00 00     	pea	#^$0
   574 00:0368: F4 00 00     	pea	#<$0
   575 00:036B: F4 00 00     	pea	#<$0
   576 00:036E: D4 06        	pei	<L30+tc_0+2
   577 00:0370: D4 04        	pei	<L30+tc_0
   578 00:0372: F4 00 01     	pea	#<$100
   579 00:0375: F4 xx xx     	pea	#^L16
   580 00:0378: F4 xx xx     	pea	#<L16
   581 00:037B: F4 xx xx     	pea	#^~~removeTaskTask
   582 00:037E: F4 xx xx     	pea	#<~~removeTaskTask
   583 00:0381: 22 xx xx xx  	jsl	~~xTaskCreate
   584 00:0385: 80 12        	bra	L33
   585                        L10011:
   586 00:0387: D4 06        	pei	<L30+tc_0+2
   587 00:0389: D4 04        	pei	<L30+tc_0
   588 00:038B: 22 xx xx xx  	jsl	~~removeTask
   589 00:038F: F4 xx xx     	pea	#^L16+7
   590 00:0392: F4 xx xx     	pea	#<L16+7
   591 00:0395: 22 xx xx xx  	jsl	~~checkHeap
   592                        L33:
   593 00:0399: A5 02        	lda	<L30+2
   594 00:039B: 85 06        	sta	<L30+2+4
   595 00:039D: A5 01        	lda	<L30+1
   596 00:039F: 85 05        	sta	<L30+1+4
   597 00:03A1: AB                   plb
   598 00:03A2: 2B           	pld
   599 00:03A3: 3B           	tsc
   600 00:03A4: 18           	clc
   601 00:03A5: 69 04 00     	adc	#L30+4
   602 00:03A8: 1B           	tcs
   603 00:03A9: 6B           	rtl
   604             00000000   L30	equ	0
   605             00000001   L31	equ	1
   606                        	ends
   607                        	efunc
   608                        	data
   609                        L16:
   610 00:0224: 72 65 6D 6F  	db	$72,$65,$6D,$6F,$76,$65,$00,$61,$66,$74,
                    $65,$72,$00
       00:0228: 76 65 00 61 
       00:022C: 66 74 65 72 
       00:0230: 00 
   611 00:0231:              	ends
   612                        	code
   613                        	xdef	~~getShellpath
   614                        	func
   615                        ~~getShellpath:
   616                        	longa	on
   617                        	longi	on
   618 00:03AA: 3B           	tsc
   619 00:03AB: 38           	sec
   620 00:03AC: E9 04 00     	sbc	#L35
   621 00:03AF: 1B           	tcs
   622 00:03B0: 0B           	phd
  Thu Jan 13 2022 23:48                                                Page 14


   623 00:03B1: 8B                   phb
   624 00:03B2: 4B                   phk
   625 00:03B3: AB                   plb
   626 00:03B4: 5B           	tcd
   627 00:03B5: A9 xx xx     	lda	#<~~shellpath
   628 00:03B8: 85 01        	sta	<R0
   629                        	xref	_BEG_DATA
   630 00:03BA: A9 xx xx     	lda	#_BEG_DATA>>16
   631 00:03BD: 85 03        	sta	<R0+2
   632 00:03BF: A6 03        	ldx	<R0+2
   633 00:03C1: A5 01        	lda	<R0
   634 00:03C3: A8           	tay
   635 00:03C4: AB                   plb
   636 00:03C5: 2B           	pld
   637 00:03C6: 3B           	tsc
   638 00:03C7: 18           	clc
   639 00:03C8: 69 04 00     	adc	#L35
   640 00:03CB: 1B           	tcs
   641 00:03CC: 98           	tya
   642 00:03CD: 6B           	rtl
   643             00000004   L35	equ	4
   644             00000005   L36	equ	5
   645                        	ends
   646                        	efunc
   647                        	code
   648                        	xdef	~~hex2int
   649                        	func
   650                        ~~hex2int:
   651                        	longa	on
   652                        	longi	on
   653 00:03CE: 3B           	tsc
   654 00:03CF: 38           	sec
   655 00:03D0: E9 06 00     	sbc	#L38
   656 00:03D3: 1B           	tcs
   657 00:03D4: 0B           	phd
   658 00:03D5: 5B           	tcd
   659             00000004   c_0	set	4
   660             00000000   val_1	set	0
   661 00:03D6: A9 FF FF     	lda	#$ffff
   662 00:03D9: 85 05        	sta	<L39+val_1
   663 00:03DB: A5 0A        	lda	<L38+c_0
   664 00:03DD: 29 FF 00     	and	#$ff
   665 00:03E0: 48           	pha
   666 00:03E1: 22 xx xx xx  	jsl	~~toupper
   667 00:03E5: E2 20        	sep	#$20
   668                        	longa	off
   669 00:03E7: 85 0A        	sta	<L38+c_0
   670 00:03E9: C9 30        	cmp	#<$30
   671 00:03EB: C2 20        	rep	#$20
   672                        	longa	on
   673 00:03ED: 90 15        	bcc	L10013
   674 00:03EF: E2 20        	sep	#$20
   675                        	longa	off
   676 00:03F1: A9 39        	lda	#$39
   677 00:03F3: C5 0A        	cmp	<L38+c_0
   678 00:03F5: C2 20        	rep	#$20
   679                        	longa	on
   680 00:03F7: 90 0B        	bcc	L10013
  Thu Jan 13 2022 23:48                                                Page 15


   681 00:03F9: A5 0A        	lda	<L38+c_0
   682 00:03FB: 29 FF 00     	and	#$ff
   683 00:03FE: 18           	clc
   684 00:03FF: 69 D0 FF     	adc	#$ffd0
   685 00:0402: 85 05        	sta	<L39+val_1
   686                        L10013:
   687 00:0404: E2 20        	sep	#$20
   688                        	longa	off
   689 00:0406: A5 0A        	lda	<L38+c_0
   690 00:0408: C9 41        	cmp	#<$41
   691 00:040A: C2 20        	rep	#$20
   692                        	longa	on
   693 00:040C: 90 15        	bcc	L10014
   694 00:040E: E2 20        	sep	#$20
   695                        	longa	off
   696 00:0410: A9 46        	lda	#$46
   697 00:0412: C5 0A        	cmp	<L38+c_0
   698 00:0414: C2 20        	rep	#$20
   699                        	longa	on
   700 00:0416: 90 0B        	bcc	L10014
   701 00:0418: A5 0A        	lda	<L38+c_0
   702 00:041A: 29 FF 00     	and	#$ff
   703 00:041D: 18           	clc
   704 00:041E: 69 C9 FF     	adc	#$ffc9
   705 00:0421: 85 05        	sta	<L39+val_1
   706                        L10014:
   707 00:0423: A5 05        	lda	<L39+val_1
   708 00:0425: A8           	tay
   709 00:0426: A5 08        	lda	<L38+2
   710 00:0428: 85 0A        	sta	<L38+2+2
   711 00:042A: A5 07        	lda	<L38+1
   712 00:042C: 85 09        	sta	<L38+1+2
   713 00:042E: 2B           	pld
   714 00:042F: 3B           	tsc
   715 00:0430: 18           	clc
   716 00:0431: 69 08 00     	adc	#L38+2
   717 00:0434: 1B           	tcs
   718 00:0435: 98           	tya
   719 00:0436: 6B           	rtl
   720             00000006   L38	equ	6
   721             00000005   L39	equ	5
   722                        	ends
   723                        	efunc
   724                        	code
   725                        	xdef	~~str2hex
   726                        	func
   727                        ~~str2hex:
   728                        	longa	on
   729                        	longi	on
   730 00:0437: 3B           	tsc
   731 00:0438: 38           	sec
   732 00:0439: E9 0A 00     	sbc	#L45
   733 00:043C: 1B           	tcs
   734 00:043D: 0B           	phd
   735 00:043E: 5B           	tcd
   736             00000004   s_0	set	4
   737             00000000   val_1	set	0
   738             00000004   i_1	set	4
  Thu Jan 13 2022 23:48                                                Page 16


   739 00:043F: 64 05        	stz	<L46+val_1
   740 00:0441: 64 07        	stz	<L46+val_1+2
   741 00:0443: 80 3C        	bra	L10015
   742                        L20001:
   743 00:0445: A7 0E        	lda	[<L45+s_0]
   744 00:0447: 48           	pha
   745 00:0448: 22 xx xx xx  	jsl	~~hex2int
   746 00:044C: 85 09        	sta	<L46+i_1
   747 00:044E: A5 09        	lda	<L46+i_1
   748 00:0450: 30 29        	bmi	L10017
   749 00:0452: 06 05        	asl	<L46+val_1
   750 00:0454: 26 07        	rol	<L46+val_1+2
   751 00:0456: 06 05        	asl	<L46+val_1
   752 00:0458: 26 07        	rol	<L46+val_1+2
   753 00:045A: 06 05        	asl	<L46+val_1
   754 00:045C: 26 07        	rol	<L46+val_1+2
   755 00:045E: 06 05        	asl	<L46+val_1
   756 00:0460: 26 07        	rol	<L46+val_1+2
   757 00:0462: A0 00 00     	ldy	#$0
   758 00:0465: A5 09        	lda	<L46+i_1
   759 00:0467: 10 01        	bpl	L49
   760 00:0469: 88           	dey
   761                        L49:
   762 00:046A: 85 01        	sta	<R0
   763 00:046C: 84 03        	sty	<R0+2
   764 00:046E: A5 01        	lda	<R0
   765 00:0470: 18           	clc
   766 00:0471: 65 05        	adc	<L46+val_1
   767 00:0473: 85 05        	sta	<L46+val_1
   768 00:0475: A5 03        	lda	<R0+2
   769 00:0477: 65 07        	adc	<L46+val_1+2
   770 00:0479: 85 07        	sta	<L46+val_1+2
   771                        L10017:
   772 00:047B: E6 0E        	inc	<L45+s_0
   773 00:047D: D0 02        	bne	L10015
   774 00:047F: E6 10        	inc	<L45+s_0+2
   775                        L10015:
   776 00:0481: A7 0E        	lda	[<L45+s_0]
   777 00:0483: 29 FF 00     	and	#$ff
   778 00:0486: D0 BD        	bne	L20001
   779 00:0488: A6 07        	ldx	<L46+val_1+2
   780 00:048A: A5 05        	lda	<L46+val_1
   781 00:048C: A8           	tay
   782 00:048D: A5 0C        	lda	<L45+2
   783 00:048F: 85 10        	sta	<L45+2+4
   784 00:0491: A5 0B        	lda	<L45+1
   785 00:0493: 85 0F        	sta	<L45+1+4
   786 00:0495: 2B           	pld
   787 00:0496: 3B           	tsc
   788 00:0497: 18           	clc
   789 00:0498: 69 0E 00     	adc	#L45+4
   790 00:049B: 1B           	tcs
   791 00:049C: 98           	tya
   792 00:049D: 6B           	rtl
   793             0000000A   L45	equ	10
   794             00000005   L46	equ	5
   795                        	ends
   796                        	efunc
  Thu Jan 13 2022 23:48                                                Page 17


   797                        	code
   798                        	xdef	~~strupper
   799                        	func
   800                        ~~strupper:
   801                        	longa	on
   802                        	longi	on
   803 00:049E: 3B           	tsc
   804 00:049F: 38           	sec
   805 00:04A0: E9 00 00     	sbc	#L52
   806 00:04A3: 1B           	tcs
   807 00:04A4: 0B           	phd
   808 00:04A5: 5B           	tcd
   809             00000004   str_0	set	4
   810 00:04A6: 80 16        	bra	L10018
   811                        L20003:
   812 00:04A8: A7 04        	lda	[<L52+str_0]
   813 00:04AA: 29 FF 00     	and	#$ff
   814 00:04AD: 48           	pha
   815 00:04AE: 22 xx xx xx  	jsl	~~toupper
   816 00:04B2: E2 20        	sep	#$20
   817                        	longa	off
   818 00:04B4: 87 04        	sta	[<L52+str_0]
   819 00:04B6: C2 20        	rep	#$20
   820                        	longa	on
   821 00:04B8: E6 04        	inc	<L52+str_0
   822 00:04BA: D0 02        	bne	L10018
   823 00:04BC: E6 06        	inc	<L52+str_0+2
   824                        L10018:
   825 00:04BE: A7 04        	lda	[<L52+str_0]
   826 00:04C0: 29 FF 00     	and	#$ff
   827 00:04C3: D0 E3        	bne	L20003
   828 00:04C5: A5 02        	lda	<L52+2
   829 00:04C7: 85 06        	sta	<L52+2+4
   830 00:04C9: A5 01        	lda	<L52+1
   831 00:04CB: 85 05        	sta	<L52+1+4
   832 00:04CD: 2B           	pld
   833 00:04CE: 3B           	tsc
   834 00:04CF: 18           	clc
   835 00:04D0: 69 04 00     	adc	#L52+4
   836 00:04D3: 1B           	tcs
   837 00:04D4: 6B           	rtl
   838             00000000   L52	equ	0
   839             00000001   L53	equ	1
   840                        	ends
   841                        	efunc
   842                        	code
   843                        	func
   844                        ~~formatLine:
   845                        	longa	on
   846                        	longi	on
   847 00:04D5: 3B           	tsc
   848 00:04D6: 38           	sec
   849 00:04D7: E9 00 00     	sbc	#L57
   850 00:04DA: 1B           	tcs
   851 00:04DB: 0B           	phd
   852 00:04DC: 5B           	tcd
   853             00000004   text_0	set	4
   854             00000008   data_0	set	8
  Thu Jan 13 2022 23:48                                                Page 18


   855 00:04DD: D4 0A        	pei	<L57+data_0+2
   856 00:04DF: D4 08        	pei	<L57+data_0
   857 00:04E1: D4 0A        	pei	<L57+data_0+2
   858 00:04E3: D4 08        	pei	<L57+data_0
   859 00:04E5: D4 06        	pei	<L57+text_0+2
   860 00:04E7: D4 04        	pei	<L57+text_0
   861 00:04E9: F4 xx xx     	pea	#^L34
   862 00:04EC: F4 xx xx     	pea	#<L34
   863 00:04EF: F4 12 00     	pea	#18
   864 00:04F2: 22 xx xx xx  	jsl	~~printf
   865 00:04F6: A5 02        	lda	<L57+2
   866 00:04F8: 85 0A        	sta	<L57+2+8
   867 00:04FA: A5 01        	lda	<L57+1
   868 00:04FC: 85 09        	sta	<L57+1+8
   869 00:04FE: 2B           	pld
   870 00:04FF: 3B           	tsc
   871 00:0500: 18           	clc
   872 00:0501: 69 08 00     	adc	#L57+8
   873 00:0504: 1B           	tcs
   874 00:0505: 6B           	rtl
   875             00000000   L57	equ	0
   876             00000001   L58	equ	1
   877                        	ends
   878                        	efunc
   879                        	data
   880                        L34:
   881 00:0231: 25 73 3A 20  	db	$25,$73,$3A,$20,$25,$6C,$38,$58,$20,$25,
                    $6C,$38,$64,$0A,$00
       00:0235: 25 6C 38 58 
       00:0239: 20 25 6C 38 
       00:023D: 64 0A 00 
   882 00:0240:              	ends
   883                        	code
   884                        	func
   885                        ~~evaluateExpression:
   886                        	longa	on
   887                        	longi	on
   888 00:0506: 3B           	tsc
   889 00:0507: 38           	sec
   890 00:0508: E9 28 00     	sbc	#L61
   891 00:050B: 1B           	tcs
   892 00:050C: 0B           	phd
   893 00:050D: 5B           	tcd
   894             00000000   p_1	set	0
   895             00000004   p1_1	set	4
   896             00000008   ex_1	set	8
   897             0000000C   sym_1	set	12
   898             00000010   itemType_1	set	16
   899             00000012   i_1	set	18
   900             00000014   section_1	set	20
   901             00000016   symNum_1	set	22
   902             00000018   value0_1	set	24
   903             0000001C   value1_1	set	28
   904 00:050E: A9 xx xx     	lda	#<~~s
   905 00:0511: 85 11        	sta	<L62+ex_1
   906                        	xref	_BEG_DATA
   907 00:0513: A9 xx xx     	lda	#_BEG_DATA>>16
   908 00:0516: 85 13        	sta	<L62+ex_1+2
  Thu Jan 13 2022 23:48                                                Page 19


   909 00:0518: 64 25        	stz	<L62+value1_1
   910 00:051A: 64 27        	stz	<L62+value1_1+2
   911 00:051C: 64 21        	stz	<L62+value0_1
   912 00:051E: 64 23        	stz	<L62+value0_1+2
   913 00:0520: A9 xx xx     	lda	#<~~s+7
   914 00:0523: 85 09        	sta	<L62+p_1
   915                        	xref	_BEG_DATA
   916 00:0525: A9 xx xx     	lda	#_BEG_DATA>>16
   917 00:0528: 85 0B        	sta	<L62+p_1+2
   918 00:052A: A9 06 00     	lda	#$6
   919 00:052D: 85 1B        	sta	<L62+i_1
   920 00:052F: 82 99 01     	brl	L10023
   921                        L20005:
   922 00:0532: A7 09        	lda	[<L62+p_1]
   923 00:0534: 29 FF 00     	and	#$ff
   924 00:0537: 85 19        	sta	<L62+itemType_1
   925 00:0539: E6 09        	inc	<L62+p_1
   926 00:053B: D0 02        	bne	L63
   927 00:053D: E6 0B        	inc	<L62+p_1+2
   928                        L63:
   929 00:053F: E6 1B        	inc	<L62+i_1
   930 00:0541: 38           	sec
   931 00:0542: A5 19        	lda	<L62+itemType_1
   932 00:0544: E9 14 00     	sbc	#<$14
   933 00:0547: 70 03        	bvs	L64
   934 00:0549: 49 00 80     	eor	#$8000
   935                        L64:
   936 00:054C: 30 03        	bmi	*+5
   937 00:054E: 82 A8 00     	brl	L10024
   938 00:0551: A5 19        	lda	<L62+itemType_1
   939                        	xref	~~~fsw
   940 00:0553: 22 xx xx xx  	jsl	~~~fsw
   941 00:0557: 15 00        	dw	21
   942 00:0559: 0A 00        	dw	10
   943 00:055B: xx xx        	dw	L10023-1
   944 00:055D: xx xx        	dw	L10027-1
   945 00:055F: xx xx        	dw	L10028-1
   946 00:0561: xx xx        	dw	L10029-1
   947 00:0563: xx xx        	dw	L10030-1
   948 00:0565: xx xx        	dw	L10031-1
   949 00:0567: xx xx        	dw	L10032-1
   950 00:0569: xx xx        	dw	L10033-1
   951 00:056B: xx xx        	dw	L10034-1
   952 00:056D: xx xx        	dw	L10035-1
   953 00:056F: xx xx        	dw	L10036-1
   954                        L10027:
   955 00:0571: D4 23        	pei	<L62+value0_1+2
   956 00:0573: D4 21        	pei	<L62+value0_1
   957 00:0575: D4 27        	pei	<L62+value1_1+2
   958 00:0577: D4 25        	pei	<L62+value1_1
   959                        	xref	~~~lmul
   960 00:0579: 22 xx xx xx  	jsl	~~~lmul
   961                        L20007:
   962 00:057D: 85 21        	sta	<L62+value0_1
   963 00:057F: 86 23        	stx	<L62+value0_1+2
   964 00:0581: 82 47 01     	brl	L10023
   965                        L10028:
   966 00:0584: D4 23        	pei	<L62+value0_1+2
  Thu Jan 13 2022 23:48                                                Page 20


   967 00:0586: D4 21        	pei	<L62+value0_1
   968 00:0588: D4 27        	pei	<L62+value1_1+2
   969 00:058A: D4 25        	pei	<L62+value1_1
   970                        	xref	~~~ludv
   971 00:058C: 22 xx xx xx  	jsl	~~~ludv
   972 00:0590: 80 EB        	bra	L20007
   973                        L10029:
   974 00:0592: D4 23        	pei	<L62+value0_1+2
   975 00:0594: D4 21        	pei	<L62+value0_1
   976 00:0596: D4 27        	pei	<L62+value1_1+2
   977 00:0598: D4 25        	pei	<L62+value1_1
   978                        	xref	~~~lumd
   979 00:059A: 22 xx xx xx  	jsl	~~~lumd
   980 00:059E: 80 DD        	bra	L20007
   981                        L10030:
   982 00:05A0: D4 27        	pei	<L62+value1_1+2
   983 00:05A2: D4 25        	pei	<L62+value1_1
   984 00:05A4: A5 21        	lda	<L62+value0_1
   985                        	xref	~~~llsr
   986 00:05A6: 22 xx xx xx  	jsl	~~~llsr
   987 00:05AA: 80 D1        	bra	L20007
   988                        L10031:
   989 00:05AC: D4 27        	pei	<L62+value1_1+2
   990 00:05AE: D4 25        	pei	<L62+value1_1
   991 00:05B0: A5 21        	lda	<L62+value0_1
   992                        	xref	~~~lasl
   993 00:05B2: 22 xx xx xx  	jsl	~~~lasl
   994 00:05B6: 80 C5        	bra	L20007
   995                        L10032:
   996 00:05B8: A5 25        	lda	<L62+value1_1
   997 00:05BA: 18           	clc
   998 00:05BB: 65 21        	adc	<L62+value0_1
   999 00:05BD: 85 21        	sta	<L62+value0_1
  1000 00:05BF: A5 27        	lda	<L62+value1_1+2
  1001 00:05C1: 65 23        	adc	<L62+value0_1+2
  1002                        L20011:
  1003 00:05C3: 85 23        	sta	<L62+value0_1+2
  1004 00:05C5: 82 03 01     	brl	L10023
  1005                        L10033:
  1006 00:05C8: 38           	sec
  1007 00:05C9: A5 25        	lda	<L62+value1_1
  1008 00:05CB: E5 21        	sbc	<L62+value0_1
  1009 00:05CD: 85 21        	sta	<L62+value0_1
  1010 00:05CF: A5 27        	lda	<L62+value1_1+2
  1011 00:05D1: E5 23        	sbc	<L62+value0_1+2
  1012 00:05D3: 80 EE        	bra	L20011
  1013                        L10034:
  1014 00:05D5: A5 21        	lda	<L62+value0_1
  1015 00:05D7: 25 25        	and	<L62+value1_1
  1016 00:05D9: 85 21        	sta	<L62+value0_1
  1017 00:05DB: A5 23        	lda	<L62+value0_1+2
  1018 00:05DD: 25 27        	and	<L62+value1_1+2
  1019 00:05DF: 80 E2        	bra	L20011
  1020                        L10035:
  1021 00:05E1: A5 21        	lda	<L62+value0_1
  1022 00:05E3: 05 25        	ora	<L62+value1_1
  1023 00:05E5: 85 21        	sta	<L62+value0_1
  1024 00:05E7: A5 23        	lda	<L62+value0_1+2
  Thu Jan 13 2022 23:48                                                Page 21


  1025 00:05E9: 05 27        	ora	<L62+value1_1+2
  1026 00:05EB: 80 D6        	bra	L20011
  1027                        L10036:
  1028 00:05ED: A5 21        	lda	<L62+value0_1
  1029 00:05EF: 45 25        	eor	<L62+value1_1
  1030 00:05F1: 85 21        	sta	<L62+value0_1
  1031 00:05F3: A5 23        	lda	<L62+value0_1+2
  1032 00:05F5: 45 27        	eor	<L62+value1_1+2
  1033 00:05F7: 80 CA        	bra	L20011
  1034                        L10024:
  1035 00:05F9: A5 21        	lda	<L62+value0_1
  1036 00:05FB: 85 25        	sta	<L62+value1_1
  1037 00:05FD: A5 23        	lda	<L62+value0_1+2
  1038 00:05FF: 85 27        	sta	<L62+value1_1+2
  1039 00:0601: A5 19        	lda	<L62+itemType_1
  1040                        	xref	~~~swt
  1041 00:0603: 22 xx xx xx  	jsl	~~~swt
  1042 00:0607: 03 00        	dw	3
  1043 00:0609: 01 00        	dw	1
  1044 00:060B: xx xx        	dw	L10040-1
  1045 00:060D: 02 00        	dw	2
  1046 00:060F: xx xx        	dw	L10041-1
  1047 00:0611: 03 00        	dw	3
  1048 00:0613: xx xx        	dw	L10042-1
  1049 00:0615: xx xx        	dw	L10043-1
  1050                        L10040:
  1051 00:0617: A7 09        	lda	[<L62+p_1]
  1052 00:0619: 85 1F        	sta	<L62+symNum_1
  1053 00:061B: A0 00 00     	ldy	#$0
  1054 00:061E: A5 1F        	lda	<L62+symNum_1
  1055 00:0620: 10 01        	bpl	L66
  1056 00:0622: 88           	dey
  1057                        L66:
  1058 00:0623: 85 01        	sta	<R0
  1059 00:0625: 84 03        	sty	<R0+2
  1060 00:0627: F4 00 00     	pea	#^$6
  1061 00:062A: F4 06 00     	pea	#<$6
  1062 00:062D: D4 03        	pei	<R0+2
  1063 00:062F: D4 01        	pei	<R0
  1064                        	xref	~~~lmul
  1065 00:0631: 22 xx xx xx  	jsl	~~~lmul
  1066 00:0635: 85 01        	sta	<R0
  1067 00:0637: 86 03        	stx	<R0+2
  1068 00:0639: AD xx xx     	lda	|~~symbols
  1069 00:063C: 18           	clc
  1070 00:063D: 65 01        	adc	<R0
  1071 00:063F: 85 15        	sta	<L62+sym_1
  1072 00:0641: AD xx xx     	lda	|~~symbols+2
  1073 00:0644: 65 03        	adc	<R0+2
  1074 00:0646: 85 17        	sta	<L62+sym_1+2
  1075 00:0648: A0 01 00     	ldy	#$1
  1076 00:064B: B7 15        	lda	[<L62+sym_1],Y
  1077 00:064D: 29 FF 00     	and	#$ff
  1078 00:0650: 0A           	asl	A
  1079 00:0651: 0A           	asl	A
  1080 00:0652: 18           	clc
  1081 00:0653: 69 xx xx     	adc	#<~~base
  1082 00:0656: 85 05        	sta	<R1
  Thu Jan 13 2022 23:48                                                Page 22


  1083 00:0658: 18           	clc
  1084 00:0659: B2 05        	lda	(<R1)
  1085 00:065B: C8           	iny
  1086 00:065C: 77 15        	adc	[<L62+sym_1],Y
  1087 00:065E: 85 21        	sta	<L62+value0_1
  1088 00:0660: B1 05        	lda	(<R1),Y
  1089 00:0662: C8           	iny
  1090 00:0663: C8           	iny
  1091 00:0664: 77 15        	adc	[<L62+sym_1],Y
  1092 00:0666: 85 23        	sta	<L62+value0_1+2
  1093 00:0668: E6 1B        	inc	<L62+i_1
  1094 00:066A: E6 1B        	inc	<L62+i_1
  1095 00:066C: 18           	clc
  1096 00:066D: A9 02 00     	lda	#$2
  1097                        L20015:
  1098 00:0670: 65 09        	adc	<L62+p_1
  1099 00:0672: 85 09        	sta	<L62+p_1
  1100 00:0674: 90 55        	bcc	L10023
  1101 00:0676: E6 0B        	inc	<L62+p_1+2
  1102 00:0678: 80 51        	bra	L10023
  1103                        L10041:
  1104 00:067A: A7 09        	lda	[<L62+p_1]
  1105 00:067C: 85 21        	sta	<L62+value0_1
  1106 00:067E: A0 02 00     	ldy	#$2
  1107 00:0681: B7 09        	lda	[<L62+p_1],Y
  1108                        L20025:
  1109 00:0683: 85 23        	sta	<L62+value0_1+2
  1110 00:0685: A9 04 00     	lda	#$4
  1111 00:0688: 18           	clc
  1112 00:0689: 65 1B        	adc	<L62+i_1
  1113 00:068B: 85 1B        	sta	<L62+i_1
  1114 00:068D: 18           	clc
  1115 00:068E: A9 04 00     	lda	#$4
  1116 00:0691: 80 DD        	bra	L20015
  1117                        L10042:
  1118 00:0693: A7 09        	lda	[<L62+p_1]
  1119 00:0695: 29 FF 00     	and	#$ff
  1120 00:0698: 85 1D        	sta	<L62+section_1
  1121 00:069A: E6 09        	inc	<L62+p_1
  1122 00:069C: D0 02        	bne	L69
  1123 00:069E: E6 0B        	inc	<L62+p_1+2
  1124                        L69:
  1125 00:06A0: E6 1B        	inc	<L62+i_1
  1126 00:06A2: A5 1D        	lda	<L62+section_1
  1127 00:06A4: 0A           	asl	A
  1128 00:06A5: 0A           	asl	A
  1129 00:06A6: 18           	clc
  1130 00:06A7: 69 xx xx     	adc	#<~~base
  1131 00:06AA: 85 05        	sta	<R1
  1132 00:06AC: B2 05        	lda	(<R1)
  1133 00:06AE: 18           	clc
  1134 00:06AF: 67 09        	adc	[<L62+p_1]
  1135 00:06B1: 85 21        	sta	<L62+value0_1
  1136 00:06B3: A0 02 00     	ldy	#$2
  1137 00:06B6: B1 05        	lda	(<R1),Y
  1138 00:06B8: 77 09        	adc	[<L62+p_1],Y
  1139 00:06BA: 80 C7        	bra	L20025
  1140                        L10043:
  Thu Jan 13 2022 23:48                                                Page 23


  1141 00:06BC: D4 19        	pei	<L62+itemType_1
  1142 00:06BE: F4 xx xx     	pea	#^L60
  1143 00:06C1: F4 xx xx     	pea	#<L60
  1144 00:06C4: F4 08 00     	pea	#8
  1145 00:06C7: 22 xx xx xx  	jsl	~~printf
  1146                        L10023:
  1147 00:06CB: A7 11        	lda	[<L62+ex_1]
  1148 00:06CD: 29 FF 00     	and	#$ff
  1149 00:06D0: 85 01        	sta	<R0
  1150 00:06D2: 38           	sec
  1151 00:06D3: A5 1B        	lda	<L62+i_1
  1152 00:06D5: E5 01        	sbc	<R0
  1153 00:06D7: 70 03        	bvs	L71
  1154 00:06D9: 49 00 80     	eor	#$8000
  1155                        L71:
  1156 00:06DC: 30 03        	bmi	*+5
  1157 00:06DE: 82 51 FE     	brl	L20005
  1158 00:06E1: A0 02 00     	ldy	#$2
  1159 00:06E4: B7 11        	lda	[<L62+ex_1],Y
  1160 00:06E6: 29 FF 00     	and	#$ff
  1161 00:06E9: 0A           	asl	A
  1162 00:06EA: 0A           	asl	A
  1163 00:06EB: 18           	clc
  1164 00:06EC: 69 xx xx     	adc	#<~~base
  1165 00:06EF: 85 05        	sta	<R1
  1166 00:06F1: 18           	clc
  1167 00:06F2: B2 05        	lda	(<R1)
  1168 00:06F4: C8           	iny
  1169 00:06F5: 77 11        	adc	[<L62+ex_1],Y
  1170 00:06F7: 85 09        	sta	<L62+p_1
  1171 00:06F9: 88           	dey
  1172 00:06FA: B1 05        	lda	(<R1),Y
  1173 00:06FC: A0 05 00     	ldy	#$5
  1174 00:06FF: 77 11        	adc	[<L62+ex_1],Y
  1175 00:0701: 85 0B        	sta	<L62+p_1+2
  1176 00:0703: 18           	clc
  1177 00:0704: 7B           	tdc
  1178 00:0705: 69 21 00     	adc	#<L62+value0_1
  1179 00:0708: 85 0D        	sta	<L62+p1_1
  1180 00:070A: A9 00 00     	lda	#$0
  1181 00:070D: 85 0F        	sta	<L62+p1_1+2
  1182 00:070F: 64 1B        	stz	<L62+i_1
  1183 00:0711: 80 16        	bra	L10047
  1184                        L10046:
  1185 00:0713: E2 20        	sep	#$20
  1186                        	longa	off
  1187 00:0715: A7 0D        	lda	[<L62+p1_1]
  1188 00:0717: 87 09        	sta	[<L62+p_1]
  1189 00:0719: C2 20        	rep	#$20
  1190                        	longa	on
  1191 00:071B: E6 0D        	inc	<L62+p1_1
  1192 00:071D: D0 02        	bne	L73
  1193 00:071F: E6 0F        	inc	<L62+p1_1+2
  1194                        L73:
  1195 00:0721: E6 09        	inc	<L62+p_1
  1196 00:0723: D0 02        	bne	L10044
  1197 00:0725: E6 0B        	inc	<L62+p_1+2
  1198                        L10044:
  Thu Jan 13 2022 23:48                                                Page 24


  1199 00:0727: E6 1B        	inc	<L62+i_1
  1200                        L10047:
  1201 00:0729: A0 01 00     	ldy	#$1
  1202 00:072C: B7 11        	lda	[<L62+ex_1],Y
  1203 00:072E: 29 FF 00     	and	#$ff
  1204 00:0731: 85 01        	sta	<R0
  1205 00:0733: 38           	sec
  1206 00:0734: A5 1B        	lda	<L62+i_1
  1207 00:0736: E5 01        	sbc	<R0
  1208 00:0738: 70 03        	bvs	L75
  1209 00:073A: 49 00 80     	eor	#$8000
  1210                        L75:
  1211 00:073D: 10 D4        	bpl	L10046
  1212 00:073F: 2B           	pld
  1213 00:0740: 3B           	tsc
  1214 00:0741: 18           	clc
  1215 00:0742: 69 28 00     	adc	#L61
  1216 00:0745: 1B           	tcs
  1217 00:0746: 6B           	rtl
  1218             00000028   L61	equ	40
  1219             00000009   L62	equ	9
  1220                        	ends
  1221                        	efunc
  1222                        	data
  1223                        L60:
  1224 00:0240: 55 6E 6B 6E  	db	$55,$6E,$6B,$6E,$6F,$77,$6E,$20,$69,$74,
                    $65,$6D,$54,$79,$70
       00:0244: 6F 77 6E 20 
       00:0248: 69 74 65 6D 
       00:024C: 54 79 70 
  1225 00:024F: 65 3A 20 25  	db	$65,$3A,$20,$25,$64,$0A,$00
       00:0253: 64 0A 00 
  1226 00:0256:              	ends
  1227                        	code
  1228                        	func
  1229                        ~~loadExec:
  1230                        	longa	on
  1231                        	longi	on
  1232 00:0747: 3B           	tsc
  1233 00:0748: 38           	sec
  1234 00:0749: E9 1A 00     	sbc	#L79
  1235 00:074C: 1B           	tcs
  1236 00:074D: 0B           	phd
  1237 00:074E: 5B           	tcd
  1238             00000004   filename_0	set	4
  1239             00000008   taskControl_0	set	8
  1240             00000000   bRead_1	set	0
  1241             00000004   cnt_1	set	4
  1242             00000008   bytesMalloc_1	set	8
  1243             0000000C   bytes2Read_1	set	12
  1244             00000010   fin_1	set	16
  1245             00000014   fno_1	set	20
  1246 00:074F: A9 00 00     	lda	#$0
  1247 00:0752: A0 12 00     	ldy	#$12
  1248 00:0755: 97 22        	sta	[<L79+taskControl_0],Y
  1249 00:0757: C8           	iny
  1250 00:0758: C8           	iny
  1251 00:0759: 97 22        	sta	[<L79+taskControl_0],Y
  Thu Jan 13 2022 23:48                                                Page 25


  1252 00:075B: A0 1A 00     	ldy	#$1a
  1253 00:075E: 97 22        	sta	[<L79+taskControl_0],Y
  1254 00:0760: C8           	iny
  1255 00:0761: C8           	iny
  1256 00:0762: 97 22        	sta	[<L79+taskControl_0],Y
  1257 00:0764: A0 16 00     	ldy	#$16
  1258 00:0767: 97 22        	sta	[<L79+taskControl_0],Y
  1259 00:0769: C8           	iny
  1260 00:076A: C8           	iny
  1261 00:076B: 97 22        	sta	[<L79+taskControl_0],Y
  1262 00:076D: F4 xx xx     	pea	#^L78
  1263 00:0770: F4 xx xx     	pea	#<L78
  1264 00:0773: D4 20        	pei	<L79+filename_0+2
  1265 00:0775: D4 1E        	pei	<L79+filename_0
  1266 00:0777: 22 xx xx xx  	jsl	~~fopen
  1267 00:077B: 85 15        	sta	<L80+fin_1
  1268 00:077D: 86 17        	stx	<L80+fin_1+2
  1269 00:077F: 05 17        	ora	<L80+fin_1+2
  1270 00:0781: D0 10        	bne	L10048
  1271                        L82:
  1272 00:0783: A5 1C        	lda	<L79+2
  1273 00:0785: 85 24        	sta	<L79+2+8
  1274 00:0787: A5 1B        	lda	<L79+1
  1275 00:0789: 85 23        	sta	<L79+1+8
  1276 00:078B: 2B           	pld
  1277 00:078C: 3B           	tsc
  1278 00:078D: 18           	clc
  1279 00:078E: 69 22 00     	adc	#L79+8
  1280 00:0791: 1B           	tcs
  1281 00:0792: 6B           	rtl
  1282                        L10048:
  1283 00:0793: D4 17        	pei	<L80+fin_1+2
  1284 00:0795: D4 15        	pei	<L80+fin_1
  1285 00:0797: 22 xx xx xx  	jsl	~~fileno
  1286 00:079B: 85 19        	sta	<L80+fno_1
  1287 00:079D: F4 00 00     	pea	#^$1c
  1288 00:07A0: F4 1C 00     	pea	#<$1c
  1289 00:07A3: A9 xx xx     	lda	#<~~header
  1290 00:07A6: 85 01        	sta	<R0
  1291                        	xref	_BEG_DATA
  1292 00:07A8: A9 xx xx     	lda	#_BEG_DATA>>16
  1293 00:07AB: 48           	pha
  1294 00:07AC: D4 01        	pei	<R0
  1295 00:07AE: D4 19        	pei	<L80+fno_1
  1296 00:07B0: 22 xx xx xx  	jsl	~~read
  1297 00:07B4: 85 05        	sta	<L80+bRead_1
  1298 00:07B6: 86 07        	stx	<L80+bRead_1+2
  1299 00:07B8: C9 1C 00     	cmp	#<$1c
  1300 00:07BB: D0 05        	bne	L83
  1301 00:07BD: A5 07        	lda	<L80+bRead_1+2
  1302 00:07BF: C9 00 00     	cmp	#^$1c
  1303                        L83:
  1304 00:07C2: D0 BF        	bne	L82
  1305 00:07C4: AD xx xx     	lda	|~~header
  1306 00:07C7: C9 52 38     	cmp	#<$36313852
  1307 00:07CA: D0 06        	bne	L85
  1308 00:07CC: AD xx xx     	lda	|~~header+2
  1309 00:07CF: C9 31 36     	cmp	#^$36313852
  Thu Jan 13 2022 23:48                                                Page 26


  1310                        L85:
  1311 00:07D2: D0 AF        	bne	L82
  1312 00:07D4: AD xx xx     	lda	|~~header+8
  1313 00:07D7: 18           	clc
  1314 00:07D8: 6D xx xx     	adc	|~~header+16
  1315 00:07DB: 85 0D        	sta	<L80+bytesMalloc_1
  1316 00:07DD: AD xx xx     	lda	|~~header+8+2
  1317 00:07E0: 6D xx xx     	adc	|~~header+16+2
  1318 00:07E3: 85 0F        	sta	<L80+bytesMalloc_1+2
  1319 00:07E5: 48           	pha
  1320 00:07E6: D4 0D        	pei	<L80+bytesMalloc_1
  1321 00:07E8: 22 xx xx xx  	jsl	~~malloc
  1322 00:07EC: 86 03        	stx	<R0+2
  1323 00:07EE: A0 12 00     	ldy	#$12
  1324 00:07F1: 97 22        	sta	[<L79+taskControl_0],Y
  1325 00:07F3: A5 03        	lda	<R0+2
  1326 00:07F5: C8           	iny
  1327 00:07F6: C8           	iny
  1328 00:07F7: 97 22        	sta	[<L79+taskControl_0],Y
  1329 00:07F9: 88           	dey
  1330 00:07FA: 88           	dey
  1331 00:07FB: B7 22        	lda	[<L79+taskControl_0],Y
  1332 00:07FD: C8           	iny
  1333 00:07FE: C8           	iny
  1334 00:07FF: 17 22        	ora	[<L79+taskControl_0],Y
  1335 00:0801: D0 03        	bne	*+5
  1336 00:0803: 82 7D FF     	brl	L82
  1337 00:0806: AD xx xx     	lda	|~~header+8+2
  1338 00:0809: 48           	pha
  1339 00:080A: AD xx xx     	lda	|~~header+8
  1340 00:080D: 48           	pha
  1341 00:080E: B7 22        	lda	[<L79+taskControl_0],Y
  1342 00:0810: 48           	pha
  1343 00:0811: 88           	dey
  1344 00:0812: 88           	dey
  1345 00:0813: B7 22        	lda	[<L79+taskControl_0],Y
  1346 00:0815: 48           	pha
  1347 00:0816: D4 19        	pei	<L80+fno_1
  1348 00:0818: 22 xx xx xx  	jsl	~~read
  1349 00:081C: 85 05        	sta	<L80+bRead_1
  1350 00:081E: 86 07        	stx	<L80+bRead_1+2
  1351 00:0820: CD xx xx     	cmp	|~~header+8
  1352 00:0823: D0 05        	bne	L88
  1353 00:0825: A5 07        	lda	<L80+bRead_1+2
  1354 00:0827: CD xx xx     	cmp	|~~header+8+2
  1355                        L88:
  1356 00:082A: F0 03        	beq	*+5
  1357 00:082C: 82 54 FF     	brl	L82
  1358 00:082F: 18           	clc
  1359 00:0830: A0 12 00     	ldy	#$12
  1360 00:0833: B7 22        	lda	[<L79+taskControl_0],Y
  1361 00:0835: 6D xx xx     	adc	|~~header+8
  1362 00:0838: 85 01        	sta	<R0
  1363 00:083A: C8           	iny
  1364 00:083B: C8           	iny
  1365 00:083C: B7 22        	lda	[<L79+taskControl_0],Y
  1366 00:083E: 6D xx xx     	adc	|~~header+8+2
  1367 00:0841: 85 03        	sta	<R0+2
  Thu Jan 13 2022 23:48                                                Page 27


  1368 00:0843: A5 01        	lda	<R0
  1369 00:0845: C8           	iny
  1370 00:0846: C8           	iny
  1371 00:0847: 97 22        	sta	[<L79+taskControl_0],Y
  1372 00:0849: A5 03        	lda	<R0+2
  1373 00:084B: C8           	iny
  1374 00:084C: C8           	iny
  1375 00:084D: 97 22        	sta	[<L79+taskControl_0],Y
  1376 00:084F: AD xx xx     	lda	|~~header+12
  1377 00:0852: 0D xx xx     	ora	|~~header+12+2
  1378 00:0855: F0 4F        	beq	L10053
  1379 00:0857: AD xx xx     	lda	|~~header+12+2
  1380 00:085A: 48           	pha
  1381 00:085B: AD xx xx     	lda	|~~header+12
  1382 00:085E: 48           	pha
  1383 00:085F: 22 xx xx xx  	jsl	~~malloc
  1384 00:0863: 86 03        	stx	<R0+2
  1385 00:0865: A0 1A 00     	ldy	#$1a
  1386 00:0868: 97 22        	sta	[<L79+taskControl_0],Y
  1387 00:086A: A5 03        	lda	<R0+2
  1388 00:086C: C8           	iny
  1389 00:086D: C8           	iny
  1390 00:086E: 97 22        	sta	[<L79+taskControl_0],Y
  1391 00:0870: 88           	dey
  1392 00:0871: 88           	dey
  1393 00:0872: B7 22        	lda	[<L79+taskControl_0],Y
  1394 00:0874: C8           	iny
  1395 00:0875: C8           	iny
  1396 00:0876: 17 22        	ora	[<L79+taskControl_0],Y
  1397 00:0878: D0 03        	bne	*+5
  1398 00:087A: 82 06 FF     	brl	L82
  1399 00:087D: AD xx xx     	lda	|~~header+12+2
  1400 00:0880: 48           	pha
  1401 00:0881: AD xx xx     	lda	|~~header+12
  1402 00:0884: 48           	pha
  1403 00:0885: B7 22        	lda	[<L79+taskControl_0],Y
  1404 00:0887: 48           	pha
  1405 00:0888: 88           	dey
  1406 00:0889: 88           	dey
  1407 00:088A: B7 22        	lda	[<L79+taskControl_0],Y
  1408 00:088C: 48           	pha
  1409 00:088D: D4 19        	pei	<L80+fno_1
  1410 00:088F: 22 xx xx xx  	jsl	~~read
  1411 00:0893: 85 05        	sta	<L80+bRead_1
  1412 00:0895: 86 07        	stx	<L80+bRead_1+2
  1413 00:0897: CD xx xx     	cmp	|~~header+12
  1414 00:089A: D0 05        	bne	L92
  1415 00:089C: A5 07        	lda	<L80+bRead_1+2
  1416 00:089E: CD xx xx     	cmp	|~~header+12+2
  1417                        L92:
  1418 00:08A1: F0 03        	beq	*+5
  1419 00:08A3: 82 DD FE     	brl	L82
  1420                        L10053:
  1421 00:08A6: 9C xx xx     	stz	|~~base
  1422 00:08A9: 9C xx xx     	stz	|~~base+2
  1423 00:08AC: A0 12 00     	ldy	#$12
  1424 00:08AF: B7 22        	lda	[<L79+taskControl_0],Y
  1425 00:08B1: 8D xx xx     	sta	|~~base+4
  Thu Jan 13 2022 23:48                                                Page 28


  1426 00:08B4: C8           	iny
  1427 00:08B5: C8           	iny
  1428 00:08B6: B7 22        	lda	[<L79+taskControl_0],Y
  1429 00:08B8: 8D xx xx     	sta	|~~base+4+2
  1430 00:08BB: 9C xx xx     	stz	|~~base+8
  1431 00:08BE: 9C xx xx     	stz	|~~base+8+2
  1432 00:08C1: A0 1A 00     	ldy	#$1a
  1433 00:08C4: B7 22        	lda	[<L79+taskControl_0],Y
  1434 00:08C6: 8D xx xx     	sta	|~~base+12
  1435 00:08C9: C8           	iny
  1436 00:08CA: C8           	iny
  1437 00:08CB: B7 22        	lda	[<L79+taskControl_0],Y
  1438 00:08CD: 8D xx xx     	sta	|~~base+12+2
  1439 00:08D0: A0 16 00     	ldy	#$16
  1440 00:08D3: B7 22        	lda	[<L79+taskControl_0],Y
  1441 00:08D5: 8D xx xx     	sta	|~~base+16
  1442 00:08D8: C8           	iny
  1443 00:08D9: C8           	iny
  1444 00:08DA: B7 22        	lda	[<L79+taskControl_0],Y
  1445 00:08DC: 8D xx xx     	sta	|~~base+16+2
  1446 00:08DF: A0 14 00     	ldy	#$14
  1447 00:08E2: B7 22        	lda	[<L79+taskControl_0],Y
  1448 00:08E4: 48           	pha
  1449 00:08E5: 88           	dey
  1450 00:08E6: 88           	dey
  1451 00:08E7: B7 22        	lda	[<L79+taskControl_0],Y
  1452 00:08E9: 48           	pha
  1453 00:08EA: F4 xx xx     	pea	#^L78+3
  1454 00:08ED: F4 xx xx     	pea	#<L78+3
  1455 00:08F0: 22 xx xx xx  	jsl	~~formatLine
  1456 00:08F4: A0 1C 00     	ldy	#$1c
  1457 00:08F7: B7 22        	lda	[<L79+taskControl_0],Y
  1458 00:08F9: 48           	pha
  1459 00:08FA: 88           	dey
  1460 00:08FB: 88           	dey
  1461 00:08FC: B7 22        	lda	[<L79+taskControl_0],Y
  1462 00:08FE: 48           	pha
  1463 00:08FF: F4 xx xx     	pea	#^L78+18
  1464 00:0902: F4 xx xx     	pea	#<L78+18
  1465 00:0905: 22 xx xx xx  	jsl	~~formatLine
  1466 00:0909: A0 18 00     	ldy	#$18
  1467 00:090C: B7 22        	lda	[<L79+taskControl_0],Y
  1468 00:090E: 48           	pha
  1469 00:090F: 88           	dey
  1470 00:0910: 88           	dey
  1471 00:0911: B7 22        	lda	[<L79+taskControl_0],Y
  1472 00:0913: 48           	pha
  1473 00:0914: F4 xx xx     	pea	#^L78+33
  1474 00:0917: F4 xx xx     	pea	#<L78+33
  1475 00:091A: 22 xx xx xx  	jsl	~~formatLine
  1476 00:091E: AD xx xx     	lda	|~~header+4+2
  1477 00:0921: 48           	pha
  1478 00:0922: AD xx xx     	lda	|~~header+4
  1479 00:0925: 48           	pha
  1480 00:0926: F4 xx xx     	pea	#^L78+48
  1481 00:0929: F4 xx xx     	pea	#<L78+48
  1482 00:092C: 22 xx xx xx  	jsl	~~formatLine
  1483 00:0930: AD xx xx     	lda	|~~header+8+2
  Thu Jan 13 2022 23:48                                                Page 29


  1484 00:0933: 48           	pha
  1485 00:0934: AD xx xx     	lda	|~~header+8
  1486 00:0937: 48           	pha
  1487 00:0938: F4 xx xx     	pea	#^L78+63
  1488 00:093B: F4 xx xx     	pea	#<L78+63
  1489 00:093E: 22 xx xx xx  	jsl	~~formatLine
  1490 00:0942: AD xx xx     	lda	|~~header+12+2
  1491 00:0945: 48           	pha
  1492 00:0946: AD xx xx     	lda	|~~header+12
  1493 00:0949: 48           	pha
  1494 00:094A: F4 xx xx     	pea	#^L78+78
  1495 00:094D: F4 xx xx     	pea	#<L78+78
  1496 00:0950: 22 xx xx xx  	jsl	~~formatLine
  1497 00:0954: AD xx xx     	lda	|~~header+16+2
  1498 00:0957: 48           	pha
  1499 00:0958: AD xx xx     	lda	|~~header+16
  1500 00:095B: 48           	pha
  1501 00:095C: F4 xx xx     	pea	#^L78+93
  1502 00:095F: F4 xx xx     	pea	#<L78+93
  1503 00:0962: 22 xx xx xx  	jsl	~~formatLine
  1504 00:0966: D4 0F        	pei	<L80+bytesMalloc_1+2
  1505 00:0968: D4 0D        	pei	<L80+bytesMalloc_1
  1506 00:096A: F4 xx xx     	pea	#^L78+108
  1507 00:096D: F4 xx xx     	pea	#<L78+108
  1508 00:0970: 22 xx xx xx  	jsl	~~formatLine
  1509 00:0974: AD xx xx     	lda	|~~header+20+2
  1510 00:0977: 48           	pha
  1511 00:0978: AD xx xx     	lda	|~~header+20
  1512 00:097B: 48           	pha
  1513 00:097C: F4 xx xx     	pea	#^L78+123
  1514 00:097F: F4 xx xx     	pea	#<L78+123
  1515 00:0982: 22 xx xx xx  	jsl	~~formatLine
  1516 00:0986: AD xx xx     	lda	|~~header+24+2
  1517 00:0989: 48           	pha
  1518 00:098A: AD xx xx     	lda	|~~header+24
  1519 00:098D: 48           	pha
  1520 00:098E: F4 xx xx     	pea	#^L78+138
  1521 00:0991: F4 xx xx     	pea	#<L78+138
  1522 00:0994: 22 xx xx xx  	jsl	~~formatLine
  1523 00:0998: F4 00 00     	pea	#^$6
  1524 00:099B: F4 06 00     	pea	#<$6
  1525 00:099E: AD xx xx     	lda	|~~header+20+2
  1526 00:09A1: 48           	pha
  1527 00:09A2: AD xx xx     	lda	|~~header+20
  1528 00:09A5: 48           	pha
  1529                        	xref	~~~lmul
  1530 00:09A6: 22 xx xx xx  	jsl	~~~lmul
  1531 00:09AA: 85 0D        	sta	<L80+bytesMalloc_1
  1532 00:09AC: 86 0F        	stx	<L80+bytesMalloc_1+2
  1533 00:09AE: D4 0F        	pei	<L80+bytesMalloc_1+2
  1534 00:09B0: D4 0D        	pei	<L80+bytesMalloc_1
  1535 00:09B2: 22 xx xx xx  	jsl	~~malloc
  1536 00:09B6: 8D xx xx     	sta	|~~symbols
  1537 00:09B9: 8E xx xx     	stx	|~~symbols+2
  1538 00:09BC: D4 0F        	pei	<L80+bytesMalloc_1+2
  1539 00:09BE: D4 0D        	pei	<L80+bytesMalloc_1
  1540 00:09C0: AD xx xx     	lda	|~~symbols+2
  1541 00:09C3: 48           	pha
  Thu Jan 13 2022 23:48                                                Page 30


  1542 00:09C4: AD xx xx     	lda	|~~symbols
  1543 00:09C7: 48           	pha
  1544 00:09C8: D4 19        	pei	<L80+fno_1
  1545 00:09CA: 22 xx xx xx  	jsl	~~read
  1546 00:09CE: 64 09        	stz	<L80+cnt_1
  1547 00:09D0: 64 0B        	stz	<L80+cnt_1+2
  1548 00:09D2: 80 58        	bra	L10059
  1549                        L10058:
  1550 00:09D4: D4 17        	pei	<L80+fin_1+2
  1551 00:09D6: D4 15        	pei	<L80+fin_1
  1552 00:09D8: F4 00 00     	pea	#^$1
  1553 00:09DB: F4 01 00     	pea	#<$1
  1554 00:09DE: F4 00 00     	pea	#^$1
  1555 00:09E1: F4 01 00     	pea	#<$1
  1556 00:09E4: A9 xx xx     	lda	#<~~s
  1557 00:09E7: 85 01        	sta	<R0
  1558                        	xref	_BEG_DATA
  1559 00:09E9: A9 xx xx     	lda	#_BEG_DATA>>16
  1560 00:09EC: 48           	pha
  1561 00:09ED: D4 01        	pei	<R0
  1562 00:09EF: 22 xx xx xx  	jsl	~~fread
  1563 00:09F3: 85 05        	sta	<L80+bRead_1
  1564 00:09F5: 86 07        	stx	<L80+bRead_1+2
  1565 00:09F7: AD xx xx     	lda	|~~s
  1566 00:09FA: 29 FF 00     	and	#$ff
  1567 00:09FD: 85 11        	sta	<L80+bytes2Read_1
  1568 00:09FF: 64 13        	stz	<L80+bytes2Read_1+2
  1569 00:0A01: D4 17        	pei	<L80+fin_1+2
  1570 00:0A03: D4 15        	pei	<L80+fin_1
  1571 00:0A05: D4 13        	pei	<L80+bytes2Read_1+2
  1572 00:0A07: D4 11        	pei	<L80+bytes2Read_1
  1573 00:0A09: F4 00 00     	pea	#^$1
  1574 00:0A0C: F4 01 00     	pea	#<$1
  1575 00:0A0F: A9 xx xx     	lda	#<~~s+1
  1576 00:0A12: 85 01        	sta	<R0
  1577                        	xref	_BEG_DATA
  1578 00:0A14: A9 xx xx     	lda	#_BEG_DATA>>16
  1579 00:0A17: 48           	pha
  1580 00:0A18: D4 01        	pei	<R0
  1581 00:0A1A: 22 xx xx xx  	jsl	~~fread
  1582 00:0A1E: 85 05        	sta	<L80+bRead_1
  1583 00:0A20: 86 07        	stx	<L80+bRead_1+2
  1584 00:0A22: 22 xx xx xx  	jsl	~~evaluateExpression
  1585 00:0A26: E6 09        	inc	<L80+cnt_1
  1586 00:0A28: D0 02        	bne	L10059
  1587 00:0A2A: E6 0B        	inc	<L80+cnt_1+2
  1588                        L10059:
  1589 00:0A2C: A5 09        	lda	<L80+cnt_1
  1590 00:0A2E: CD xx xx     	cmp	|~~header+24
  1591 00:0A31: A5 0B        	lda	<L80+cnt_1+2
  1592 00:0A33: ED xx xx     	sbc	|~~header+24+2
  1593 00:0A36: 90 9C        	bcc	L10058
  1594 00:0A38: AD xx xx     	lda	|~~symbols+2
  1595 00:0A3B: 48           	pha
  1596 00:0A3C: AD xx xx     	lda	|~~symbols
  1597 00:0A3F: 48           	pha
  1598 00:0A40: 22 xx xx xx  	jsl	~~free
  1599 00:0A44: D4 17        	pei	<L80+fin_1+2
  Thu Jan 13 2022 23:48                                                Page 31


  1600 00:0A46: D4 15        	pei	<L80+fin_1
  1601 00:0A48: 22 xx xx xx  	jsl	~~fclose
  1602 00:0A4C: 82 34 FD     	brl	L82
  1603             0000001A   L79	equ	26
  1604             00000005   L80	equ	5
  1605                        	ends
  1606                        	efunc
  1607                        	data
  1608                        L78:
  1609 00:0256: 72 62 00 4D  	db	$72,$62,$00,$4D,$6F,$64,$75,$6C,$65,$20,
                    $62,$61,$73,$65,$20
       00:025A: 6F 64 75 6C 
       00:025E: 65 20 62 61 
       00:0262: 73 65 20 
  1610 00:0265: 20 20 00 44  	db	$20,$20,$00,$44,$61,$74,$61,$20,$62,$61,
                    $73,$65,$20,$20,$20
       00:0269: 61 74 61 20 
       00:026D: 62 61 73 65 
       00:0271: 20 20 20 
  1611 00:0274: 20 20 00 55  	db	$20,$20,$00,$55,$44,$61,$74,$61,$20,$62,
                    $61,$73,$65,$20,$20
       00:0278: 44 61 74 61 
       00:027C: 20 62 61 73 
       00:0280: 65 20 20 
  1612 00:0283: 20 20 00 4F  	db	$20,$20,$00,$4F,$66,$66,$73,$65,$74,$20,
                    $74,$6F,$20,$6D,$61
       00:0287: 66 66 73 65 
       00:028B: 74 20 74 6F 
       00:028F: 20 6D 61 
  1613 00:0292: 69 6E 00 43  	db	$69,$6E,$00,$43,$6F,$64,$65,$20,$6C,$65,
                    $6E,$67,$74,$68,$20
       00:0296: 6F 64 65 20 
       00:029A: 6C 65 6E 67 
       00:029E: 74 68 20 
  1614 00:02A1: 20 20 00 44  	db	$20,$20,$00,$44,$61,$74,$61,$20,$6C,$65,
                    $6E,$67,$74,$68,$20
       00:02A5: 61 74 61 20 
       00:02A9: 6C 65 6E 67 
       00:02AD: 74 68 20 
  1615 00:02B0: 20 20 00 55  	db	$20,$20,$00,$55,$44,$61,$74,$61,$20,$6C,
                    $65,$6E,$67,$74,$68
       00:02B4: 44 61 74 61 
       00:02B8: 20 6C 65 6E 
       00:02BC: 67 74 68 
  1616 00:02BF: 20 20 00 54  	db	$20,$20,$00,$54,$6F,$74,$61,$6C,$20,$6C,
                    $65,$6E,$67,$74,$68
       00:02C3: 6F 74 61 6C 
       00:02C7: 20 6C 65 6E 
       00:02CB: 67 74 68 
  1617 00:02CE: 20 20 00 23  	db	$20,$20,$00,$23,$73,$79,$6D,$62,$6F,$6C,
                    $73,$20,$20,$20,$20
       00:02D2: 73 79 6D 62 
       00:02D6: 6F 6C 73 20 
       00:02DA: 20 20 20 
  1618 00:02DD: 20 20 00 23  	db	$20,$20,$00,$23,$65,$78,$70,$72,$65,$73,
                    $73,$69,$6F,$6E,$73
       00:02E1: 65 78 70 72 
       00:02E5: 65 73 73 69 
  Thu Jan 13 2022 23:48                                                Page 32


       00:02E9: 6F 6E 73 
  1619 00:02EC: 20 20 00     	db	$20,$20,$00
  1620 00:02EF:              	ends
  1621                        	code
  1622                        	func
  1623                        ~~prependDevname:
  1624                        	longa	on
  1625                        	longi	on
  1626 00:0A4F: 3B           	tsc
  1627 00:0A50: 38           	sec
  1628 00:0A51: E9 08 00     	sbc	#L97
  1629 00:0A54: 1B           	tcs
  1630 00:0A55: 0B           	phd
  1631 00:0A56: 5B           	tcd
  1632             00000004   s_0	set	4
  1633 00:0A57: E2 20        	sep	#$20
  1634                        	longa	off
  1635 00:0A59: A7 0C        	lda	[<L97+s_0]
  1636 00:0A5B: C9 44        	cmp	#<$44
  1637 00:0A5D: C2 20        	rep	#$20
  1638                        	longa	on
  1639 00:0A5F: D0 0D        	bne	L99
  1640 00:0A61: E2 20        	sep	#$20
  1641                        	longa	off
  1642 00:0A63: A0 01 00     	ldy	#$1
  1643 00:0A66: B7 0C        	lda	[<L97+s_0],Y
  1644 00:0A68: C9 3A        	cmp	#<$3a
  1645 00:0A6A: C2 20        	rep	#$20
  1646                        	longa	on
  1647 00:0A6C: F0 43        	beq	L102
  1648                        L99:
  1649 00:0A6E: D4 0E        	pei	<L97+s_0+2
  1650 00:0A70: D4 0C        	pei	<L97+s_0
  1651 00:0A72: 22 xx xx xx  	jsl	~~strlen
  1652 00:0A76: 85 01        	sta	<R0
  1653 00:0A78: 86 03        	stx	<R0+2
  1654 00:0A7A: A9 01 00     	lda	#$1
  1655 00:0A7D: 18           	clc
  1656 00:0A7E: 65 01        	adc	<R0
  1657 00:0A80: 85 05        	sta	<R1
  1658 00:0A82: A9 00 00     	lda	#$0
  1659 00:0A85: 65 03        	adc	<R0+2
  1660 00:0A87: 48           	pha
  1661 00:0A88: D4 05        	pei	<R1
  1662 00:0A8A: D4 0E        	pei	<L97+s_0+2
  1663 00:0A8C: D4 0C        	pei	<L97+s_0
  1664 00:0A8E: A9 02 00     	lda	#$2
  1665 00:0A91: 18           	clc
  1666 00:0A92: 65 0C        	adc	<L97+s_0
  1667 00:0A94: 85 01        	sta	<R0
  1668 00:0A96: A9 00 00     	lda	#$0
  1669 00:0A99: 65 0E        	adc	<L97+s_0+2
  1670 00:0A9B: 48           	pha
  1671 00:0A9C: D4 01        	pei	<R0
  1672 00:0A9E: 22 xx xx xx  	jsl	~~memmove
  1673 00:0AA2: E2 20        	sep	#$20
  1674                        	longa	off
  1675 00:0AA4: A9 44        	lda	#$44
  Thu Jan 13 2022 23:48                                                Page 33


  1676 00:0AA6: 87 0C        	sta	[<L97+s_0]
  1677 00:0AA8: A9 3A        	lda	#$3a
  1678 00:0AAA: A0 01 00     	ldy	#$1
  1679 00:0AAD: 97 0C        	sta	[<L97+s_0],Y
  1680 00:0AAF: C2 20        	rep	#$20
  1681                        	longa	on
  1682                        L102:
  1683 00:0AB1: A5 0A        	lda	<L97+2
  1684 00:0AB3: 85 0E        	sta	<L97+2+4
  1685 00:0AB5: A5 09        	lda	<L97+1
  1686 00:0AB7: 85 0D        	sta	<L97+1+4
  1687 00:0AB9: 2B           	pld
  1688 00:0ABA: 3B           	tsc
  1689 00:0ABB: 18           	clc
  1690 00:0ABC: 69 0C 00     	adc	#L97+4
  1691 00:0ABF: 1B           	tcs
  1692 00:0AC0: 6B           	rtl
  1693             00000008   L97	equ	8
  1694             00000009   L98	equ	9
  1695                        	ends
  1696                        	efunc
  1697                        	code
  1698                        	xdef	~~adjustFilename
  1699                        	func
  1700                        ~~adjustFilename:
  1701                        	longa	on
  1702                        	longi	on
  1703 00:0AC1: 3B           	tsc
  1704 00:0AC2: 38           	sec
  1705 00:0AC3: E9 0E 00     	sbc	#L103
  1706 00:0AC6: 1B           	tcs
  1707 00:0AC7: 0B           	phd
  1708 00:0AC8: 5B           	tcd
  1709             00000004   s_0	set	4
  1710             00000008   exe_0	set	8
  1711             00000000   p_1	set	0
  1712             00000004   out_1	set	4
  1713             00000008   len_1	set	8
  1714 00:0AC9: D4 14        	pei	<L103+s_0+2
  1715 00:0ACB: D4 12        	pei	<L103+s_0
  1716 00:0ACD: 22 xx xx xx  	jsl	~~strlen
  1717 00:0AD1: 85 0D        	sta	<L104+len_1
  1718 00:0AD3: 18           	clc
  1719 00:0AD4: 69 0A 00     	adc	#$a
  1720 00:0AD7: 85 01        	sta	<R0
  1721 00:0AD9: 64 03        	stz	<R0+2
  1722 00:0ADB: D4 03        	pei	<R0+2
  1723 00:0ADD: D4 01        	pei	<R0
  1724 00:0ADF: 22 xx xx xx  	jsl	~~malloc
  1725 00:0AE3: 85 09        	sta	<L104+out_1
  1726 00:0AE5: 86 0B        	stx	<L104+out_1+2
  1727 00:0AE7: D4 14        	pei	<L103+s_0+2
  1728 00:0AE9: D4 12        	pei	<L103+s_0
  1729 00:0AEB: D4 0B        	pei	<L104+out_1+2
  1730 00:0AED: D4 09        	pei	<L104+out_1
  1731 00:0AEF: 22 xx xx xx  	jsl	~~strcpy
  1732 00:0AF3: D4 0B        	pei	<L104+out_1+2
  1733 00:0AF5: D4 09        	pei	<L104+out_1
  Thu Jan 13 2022 23:48                                                Page 34


  1734 00:0AF7: 22 xx xx xx  	jsl	~~strupper
  1735 00:0AFB: A6 0B        	ldx	<L104+out_1+2
  1736 00:0AFD: A5 09        	lda	<L104+out_1
  1737 00:0AFF: A8           	tay
  1738 00:0B00: A5 10        	lda	<L103+2
  1739 00:0B02: 85 16        	sta	<L103+2+6
  1740 00:0B04: A5 0F        	lda	<L103+1
  1741 00:0B06: 85 15        	sta	<L103+1+6
  1742 00:0B08: 2B           	pld
  1743 00:0B09: 3B           	tsc
  1744 00:0B0A: 18           	clc
  1745 00:0B0B: 69 14 00     	adc	#L103+6
  1746 00:0B0E: 1B           	tcs
  1747 00:0B0F: 98           	tya
  1748 00:0B10: 6B           	rtl
  1749             0000000E   L103	equ	14
  1750             00000005   L104	equ	5
  1751                        	ends
  1752                        	efunc
  1753                        	code
  1754                        	xdef	~~adjustExe
  1755                        	func
  1756                        ~~adjustExe:
  1757                        	longa	on
  1758                        	longi	on
  1759 00:0B11: 3B           	tsc
  1760 00:0B12: 38           	sec
  1761 00:0B13: E9 0E 00     	sbc	#L106
  1762 00:0B16: 1B           	tcs
  1763 00:0B17: 0B           	phd
  1764 00:0B18: 5B           	tcd
  1765             00000004   s_0	set	4
  1766             00000000   p_1	set	0
  1767             00000004   out_1	set	4
  1768             00000008   len_1	set	8
  1769 00:0B19: D4 14        	pei	<L106+s_0+2
  1770 00:0B1B: D4 12        	pei	<L106+s_0
  1771 00:0B1D: 22 xx xx xx  	jsl	~~strlen
  1772 00:0B21: 85 0D        	sta	<L107+len_1
  1773 00:0B23: 18           	clc
  1774 00:0B24: 69 0A 00     	adc	#$a
  1775 00:0B27: 85 01        	sta	<R0
  1776 00:0B29: 64 03        	stz	<R0+2
  1777 00:0B2B: D4 03        	pei	<R0+2
  1778 00:0B2D: D4 01        	pei	<R0
  1779 00:0B2F: 22 xx xx xx  	jsl	~~malloc
  1780 00:0B33: 85 09        	sta	<L107+out_1
  1781 00:0B35: 86 0B        	stx	<L107+out_1+2
  1782 00:0B37: D4 14        	pei	<L106+s_0+2
  1783 00:0B39: D4 12        	pei	<L106+s_0
  1784 00:0B3B: D4 0B        	pei	<L107+out_1+2
  1785 00:0B3D: D4 09        	pei	<L107+out_1
  1786 00:0B3F: 22 xx xx xx  	jsl	~~strcpy
  1787 00:0B43: D4 0B        	pei	<L107+out_1+2
  1788 00:0B45: D4 09        	pei	<L107+out_1
  1789 00:0B47: 22 xx xx xx  	jsl	~~strupper
  1790 00:0B4B: D4 0B        	pei	<L107+out_1+2
  1791 00:0B4D: D4 09        	pei	<L107+out_1
  Thu Jan 13 2022 23:48                                                Page 35


  1792 00:0B4F: 22 xx xx xx  	jsl	~~prependDevname
  1793 00:0B53: D4 0B        	pei	<L107+out_1+2
  1794 00:0B55: D4 09        	pei	<L107+out_1
  1795 00:0B57: 22 xx xx xx  	jsl	~~strlen
  1796 00:0B5B: 85 01        	sta	<R0
  1797 00:0B5D: 86 03        	stx	<R0+2
  1798 00:0B5F: A5 09        	lda	<L107+out_1
  1799 00:0B61: 18           	clc
  1800 00:0B62: 65 01        	adc	<R0
  1801 00:0B64: 85 05        	sta	<L107+p_1
  1802 00:0B66: A5 0B        	lda	<L107+out_1+2
  1803 00:0B68: 65 03        	adc	<R0+2
  1804 00:0B6A: 85 07        	sta	<L107+p_1+2
  1805 00:0B6C: 80 12        	bra	L10061
  1806                        L20027:
  1807 00:0B6E: E2 20        	sep	#$20
  1808                        	longa	off
  1809 00:0B70: A7 05        	lda	[<L107+p_1]
  1810 00:0B72: C9 2E        	cmp	#<$2e
  1811 00:0B74: C2 20        	rep	#$20
  1812                        	longa	on
  1813 00:0B76: F0 12        	beq	L10062
  1814 00:0B78: A5 05        	lda	<L107+p_1
  1815 00:0B7A: D0 02        	bne	L110
  1816 00:0B7C: C6 07        	dec	<L107+p_1+2
  1817                        L110:
  1818 00:0B7E: C6 05        	dec	<L107+p_1
  1819                        L10061:
  1820 00:0B80: A5 05        	lda	<L107+p_1
  1821 00:0B82: C5 09        	cmp	<L107+out_1
  1822 00:0B84: A5 07        	lda	<L107+p_1+2
  1823 00:0B86: E5 0B        	sbc	<L107+out_1+2
  1824 00:0B88: B0 E4        	bcs	L20027
  1825                        L10062:
  1826 00:0B8A: A5 05        	lda	<L107+p_1
  1827 00:0B8C: C5 09        	cmp	<L107+out_1
  1828 00:0B8E: A5 07        	lda	<L107+p_1+2
  1829 00:0B90: E5 0B        	sbc	<L107+out_1+2
  1830 00:0B92: B0 12        	bcs	L10063
  1831 00:0B94: F4 xx xx     	pea	#^L96
  1832 00:0B97: F4 xx xx     	pea	#<L96
  1833 00:0B9A: D4 0B        	pei	<L107+out_1+2
  1834 00:0B9C: D4 09        	pei	<L107+out_1
  1835 00:0B9E: 22 xx xx xx  	jsl	~~strcat
  1836 00:0BA2: 85 09        	sta	<L107+out_1
  1837 00:0BA4: 86 0B        	stx	<L107+out_1+2
  1838                        L10063:
  1839 00:0BA6: A6 0B        	ldx	<L107+out_1+2
  1840 00:0BA8: A5 09        	lda	<L107+out_1
  1841 00:0BAA: A8           	tay
  1842 00:0BAB: A5 10        	lda	<L106+2
  1843 00:0BAD: 85 14        	sta	<L106+2+4
  1844 00:0BAF: A5 0F        	lda	<L106+1
  1845 00:0BB1: 85 13        	sta	<L106+1+4
  1846 00:0BB3: 2B           	pld
  1847 00:0BB4: 3B           	tsc
  1848 00:0BB5: 18           	clc
  1849 00:0BB6: 69 12 00     	adc	#L106+4
  Thu Jan 13 2022 23:48                                                Page 36


  1850 00:0BB9: 1B           	tcs
  1851 00:0BBA: 98           	tya
  1852 00:0BBB: 6B           	rtl
  1853             0000000E   L106	equ	14
  1854             00000005   L107	equ	5
  1855                        	ends
  1856                        	efunc
  1857                        	data
  1858                        L96:
  1859 00:02EF: 2E 45 58 45  	db	$2E,$45,$58,$45,$00
       00:02F3: 00 
  1860 00:02F4:              	ends
  1861                        	code
  1862                        	xdef	~~getParams
  1863                        	func
  1864                        ~~getParams:
  1865                        	longa	on
  1866                        	longi	on
  1867 00:0BBC: 3B           	tsc
  1868 00:0BBD: 38           	sec
  1869 00:0BBE: E9 20 00     	sbc	#L114
  1870 00:0BC1: 1B           	tcs
  1871 00:0BC2: 0B           	phd
  1872 00:0BC3: 5B           	tcd
  1873             00000000   tc_1	set	0
  1874             00000004   p_1	set	4
  1875             00000008   str_1	set	8
  1876             0000000C   i_1	set	12
  1877             0000000E   j_1	set	14
  1878             00000010   len_1	set	16
  1879             00000012   cnt_1	set	18
  1880 00:0BC4: F4 00 00     	pea	#^$51
  1881 00:0BC7: F4 51 00     	pea	#<$51
  1882 00:0BCA: F4 00 00     	pea	#^$1
  1883 00:0BCD: F4 01 00     	pea	#<$1
  1884 00:0BD0: 22 xx xx xx  	jsl	~~calloc
  1885 00:0BD4: 85 15        	sta	<L115+str_1
  1886 00:0BD6: 86 17        	stx	<L115+str_1+2
  1887 00:0BD8: A9 xx xx     	lda	#<~~shellpath
  1888 00:0BDB: 85 01        	sta	<R0
  1889                        	xref	_BEG_DATA
  1890 00:0BDD: A9 xx xx     	lda	#_BEG_DATA>>16
  1891 00:0BE0: 48           	pha
  1892 00:0BE1: D4 01        	pei	<R0
  1893 00:0BE3: F4 xx xx     	pea	#^L113
  1894 00:0BE6: F4 xx xx     	pea	#<L113
  1895 00:0BE9: F4 0A 00     	pea	#10
  1896 00:0BEC: 22 xx xx xx  	jsl	~~printf
  1897 00:0BF0: AD xx xx     	lda	|~~stdin+2
  1898 00:0BF3: 48           	pha
  1899 00:0BF4: AD xx xx     	lda	|~~stdin
  1900 00:0BF7: 48           	pha
  1901 00:0BF8: F4 50 00     	pea	#<$50
  1902 00:0BFB: D4 17        	pei	<L115+str_1+2
  1903 00:0BFD: D4 15        	pei	<L115+str_1
  1904 00:0BFF: 22 xx xx xx  	jsl	~~fgets
  1905 00:0C03: F4 00 00     	pea	#^$2e
  1906 00:0C06: F4 2E 00     	pea	#<$2e
  Thu Jan 13 2022 23:48                                                Page 37


  1907 00:0C09: F4 00 00     	pea	#^$1
  1908 00:0C0C: F4 01 00     	pea	#<$1
  1909 00:0C0F: 22 xx xx xx  	jsl	~~calloc
  1910 00:0C13: 85 0D        	sta	<L115+tc_1
  1911 00:0C15: 86 0F        	stx	<L115+tc_1+2
  1912 00:0C17: A5 15        	lda	<L115+str_1
  1913 00:0C19: 87 0D        	sta	[<L115+tc_1]
  1914 00:0C1B: A5 17        	lda	<L115+str_1+2
  1915 00:0C1D: A0 02 00     	ldy	#$2
  1916 00:0C20: 97 0D        	sta	[<L115+tc_1],Y
  1917 00:0C22: D4 17        	pei	<L115+str_1+2
  1918 00:0C24: D4 15        	pei	<L115+str_1
  1919 00:0C26: 22 xx xx xx  	jsl	~~strlen
  1920 00:0C2A: 85 1D        	sta	<L115+len_1
  1921 00:0C2C: 64 1F        	stz	<L115+cnt_1
  1922 00:0C2E: 64 19        	stz	<L115+i_1
  1923 00:0C30: 80 2B        	bra	L10067
  1924                        L10066:
  1925 00:0C32: A4 19        	ldy	<L115+i_1
  1926 00:0C34: B7 15        	lda	[<L115+str_1],Y
  1927 00:0C36: 29 FF 00     	and	#$ff
  1928 00:0C39: F0 28        	beq	L10065
  1929 00:0C3B: E2 20        	sep	#$20
  1930                        	longa	off
  1931 00:0C3D: B7 15        	lda	[<L115+str_1],Y
  1932 00:0C3F: C9 20        	cmp	#<$20
  1933 00:0C41: C2 20        	rep	#$20
  1934                        	longa	on
  1935 00:0C43: F0 0A        	beq	L117
  1936 00:0C45: E2 20        	sep	#$20
  1937                        	longa	off
  1938 00:0C47: B7 15        	lda	[<L115+str_1],Y
  1939 00:0C49: C9 0A        	cmp	#<$a
  1940 00:0C4B: C2 20        	rep	#$20
  1941                        	longa	on
  1942 00:0C4D: D0 0C        	bne	L10064
  1943                        L117:
  1944 00:0C4F: E2 20        	sep	#$20
  1945                        	longa	off
  1946 00:0C51: A9 00        	lda	#$0
  1947 00:0C53: A4 19        	ldy	<L115+i_1
  1948 00:0C55: 97 15        	sta	[<L115+str_1],Y
  1949 00:0C57: C2 20        	rep	#$20
  1950                        	longa	on
  1951 00:0C59: E6 1F        	inc	<L115+cnt_1
  1952                        L10064:
  1953 00:0C5B: E6 19        	inc	<L115+i_1
  1954                        L10067:
  1955 00:0C5D: A5 19        	lda	<L115+i_1
  1956 00:0C5F: C5 1D        	cmp	<L115+len_1
  1957 00:0C61: 90 CF        	bcc	L10066
  1958                        L10065:
  1959 00:0C63: A5 1F        	lda	<L115+cnt_1
  1960 00:0C65: A0 04 00     	ldy	#$4
  1961 00:0C68: 97 0D        	sta	[<L115+tc_1],Y
  1962 00:0C6A: A5 1F        	lda	<L115+cnt_1
  1963 00:0C6C: 85 05        	sta	<R1
  1964 00:0C6E: 64 07        	stz	<R1+2
  Thu Jan 13 2022 23:48                                                Page 38


  1965 00:0C70: D4 07        	pei	<R1+2
  1966 00:0C72: D4 05        	pei	<R1
  1967 00:0C74: A9 02 00     	lda	#$2
  1968                        	xref	~~~lasl
  1969 00:0C77: 22 xx xx xx  	jsl	~~~lasl
  1970 00:0C7B: 85 01        	sta	<R0
  1971 00:0C7D: 86 03        	stx	<R0+2
  1972 00:0C7F: D4 03        	pei	<R0+2
  1973 00:0C81: D4 01        	pei	<R0
  1974 00:0C83: 22 xx xx xx  	jsl	~~malloc
  1975 00:0C87: 86 0B        	stx	<R2+2
  1976 00:0C89: A0 06 00     	ldy	#$6
  1977 00:0C8C: 97 0D        	sta	[<L115+tc_1],Y
  1978 00:0C8E: A5 0B        	lda	<R2+2
  1979 00:0C90: C8           	iny
  1980 00:0C91: C8           	iny
  1981 00:0C92: 97 0D        	sta	[<L115+tc_1],Y
  1982 00:0C94: 88           	dey
  1983 00:0C95: 88           	dey
  1984 00:0C96: B7 0D        	lda	[<L115+tc_1],Y
  1985 00:0C98: 85 11        	sta	<L115+p_1
  1986 00:0C9A: C8           	iny
  1987 00:0C9B: C8           	iny
  1988 00:0C9C: B7 0D        	lda	[<L115+tc_1],Y
  1989 00:0C9E: 85 13        	sta	<L115+p_1+2
  1990 00:0CA0: 64 19        	stz	<L115+i_1
  1991 00:0CA2: 64 1B        	stz	<L115+j_1
  1992 00:0CA4: 80 3B        	bra	L10072
  1993                        L10071:
  1994 00:0CA6: A5 19        	lda	<L115+i_1
  1995 00:0CA8: 85 01        	sta	<R0
  1996 00:0CAA: 64 03        	stz	<R0+2
  1997 00:0CAC: A5 15        	lda	<L115+str_1
  1998 00:0CAE: 18           	clc
  1999 00:0CAF: 65 01        	adc	<R0
  2000 00:0CB1: 85 05        	sta	<R1
  2001 00:0CB3: A5 17        	lda	<L115+str_1+2
  2002 00:0CB5: 65 03        	adc	<R0+2
  2003 00:0CB7: 85 07        	sta	<R1+2
  2004 00:0CB9: A5 05        	lda	<R1
  2005 00:0CBB: 87 11        	sta	[<L115+p_1]
  2006 00:0CBD: A5 07        	lda	<R1+2
  2007 00:0CBF: A0 02 00     	ldy	#$2
  2008 00:0CC2: 97 11        	sta	[<L115+p_1],Y
  2009 00:0CC4: A9 04 00     	lda	#$4
  2010 00:0CC7: 18           	clc
  2011 00:0CC8: 65 11        	adc	<L115+p_1
  2012 00:0CCA: 85 11        	sta	<L115+p_1
  2013 00:0CCC: 90 02        	bcc	L121
  2014 00:0CCE: E6 13        	inc	<L115+p_1+2
  2015                        L121:
  2016 00:0CD0: E6 1B        	inc	<L115+j_1
  2017 00:0CD2: 80 02        	bra	L10073
  2018                        L20029:
  2019 00:0CD4: E6 19        	inc	<L115+i_1
  2020                        L10073:
  2021 00:0CD6: A4 19        	ldy	<L115+i_1
  2022 00:0CD8: B7 15        	lda	[<L115+str_1],Y
  Thu Jan 13 2022 23:48                                                Page 39


  2023 00:0CDA: 29 FF 00     	and	#$ff
  2024 00:0CDD: D0 F5        	bne	L20029
  2025 00:0CDF: E6 19        	inc	<L115+i_1
  2026                        L10072:
  2027 00:0CE1: A5 1B        	lda	<L115+j_1
  2028 00:0CE3: C5 1F        	cmp	<L115+cnt_1
  2029 00:0CE5: 90 BF        	bcc	L10071
  2030 00:0CE7: A6 0F        	ldx	<L115+tc_1+2
  2031 00:0CE9: A5 0D        	lda	<L115+tc_1
  2032 00:0CEB: A8           	tay
  2033 00:0CEC: 2B           	pld
  2034 00:0CED: 3B           	tsc
  2035 00:0CEE: 18           	clc
  2036 00:0CEF: 69 20 00     	adc	#L114
  2037 00:0CF2: 1B           	tcs
  2038 00:0CF3: 98           	tya
  2039 00:0CF4: 6B           	rtl
  2040             00000020   L114	equ	32
  2041             0000000D   L115	equ	13
  2042                        	ends
  2043                        	efunc
  2044                        	data
  2045                        L113:
  2046 00:02F4: 25 73 3E 00  	db	$25,$73,$3E,$00
  2047 00:02F8:              	ends
  2048                        	code
  2049                        	xdef	~~shellTask
  2050                        	func
  2051                        ~~shellTask:
  2052                        	longa	on
  2053                        	longi	on
  2054 00:0CF5: 3B           	tsc
  2055 00:0CF6: 38           	sec
  2056 00:0CF7: E9 25 00     	sbc	#L126
  2057 00:0CFA: 1B           	tcs
  2058 00:0CFB: 0B           	phd
  2059 00:0CFC: 5B           	tcd
  2060             00000004   pvParameters_0	set	4
  2061             00000000   taskHandle_1	set	0
  2062             00000004   rc_1	set	4
  2063             00000006   c_1	set	6
  2064             00000007   tc_1	set	7
  2065             0000000B   p_1	set	11
  2066             0000000F   fname_1	set	15
  2067             00000013   breakpoint_1	set	19
  2068             00000017   callTask_1	set	23
  2069 00:0CFD: F4 01 00     	pea	#<$1
  2070 00:0D00: 22 xx xx xx  	jsl	~~xQueueCreateMutex
  2071 00:0D04: 8D xx xx     	sta	|~~iocbSemaphore
  2072 00:0D07: 8E xx xx     	stx	|~~iocbSemaphore+2
  2073 00:0D0A: AD xx xx     	lda	|~~iocbSemaphore+2
  2074 00:0D0D: 48           	pha
  2075 00:0D0E: AD xx xx     	lda	|~~iocbSemaphore
  2076 00:0D11: 48           	pha
  2077 00:0D12: F4 xx xx     	pea	#^L125
  2078 00:0D15: F4 xx xx     	pea	#<L125
  2079 00:0D18: F4 0A 00     	pea	#10
  2080 00:0D1B: 22 xx xx xx  	jsl	~~debugf
  Thu Jan 13 2022 23:48                                                Page 40


  2081 00:0D1F: F4 00 00     	pea	#^$0
  2082 00:0D22: F4 00 00     	pea	#<$0
  2083 00:0D25: F4 00 00     	pea	#^$0
  2084 00:0D28: F4 00 00     	pea	#<$0
  2085 00:0D2B: 22 xx xx xx  	jsl	~~vTaskSetApplicationTaskTag
  2086 00:0D2F: F4 xx xx     	pea	#^L125+29
  2087 00:0D32: F4 xx xx     	pea	#<L125+29
  2088 00:0D35: F4 06 00     	pea	#6
  2089 00:0D38: 22 xx xx xx  	jsl	~~debugf
  2090 00:0D3C: F4 00 00     	pea	#^$1
  2091 00:0D3F: F4 01 00     	pea	#<$1
  2092 00:0D42: F4 00 00     	pea	#<$0
  2093 00:0D45: F4 00 00     	pea	#^$0
  2094 00:0D48: F4 00 00     	pea	#<$0
  2095 00:0D4B: AD xx xx     	lda	|~~stdin+2
  2096 00:0D4E: 48           	pha
  2097 00:0D4F: AD xx xx     	lda	|~~stdin
  2098 00:0D52: 48           	pha
  2099 00:0D53: 22 xx xx xx  	jsl	~~setvbuf
  2100 00:0D57: F4 xx xx     	pea	#^L125+57
  2101 00:0D5A: F4 xx xx     	pea	#<L125+57
  2102 00:0D5D: F4 06 00     	pea	#6
  2103 00:0D60: 22 xx xx xx  	jsl	~~printf
  2104 00:0D64: F4 xx xx     	pea	#^L125+59
  2105 00:0D67: F4 xx xx     	pea	#<L125+59
  2106 00:0D6A: A9 xx xx     	lda	#<~~shellpath
  2107 00:0D6D: 85 01        	sta	<R0
  2108                        	xref	_BEG_DATA
  2109 00:0D6F: A9 xx xx     	lda	#_BEG_DATA>>16
  2110 00:0D72: 48           	pha
  2111 00:0D73: D4 01        	pei	<R0
  2112 00:0D75: 22 xx xx xx  	jsl	~~strcpy
  2113 00:0D79: A9 xx xx     	lda	#<~~shellpath
  2114 00:0D7C: 85 01        	sta	<R0
  2115                        	xref	_BEG_DATA
  2116 00:0D7E: A9 xx xx     	lda	#_BEG_DATA>>16
  2117 00:0D81: 48           	pha
  2118 00:0D82: D4 01        	pei	<R0
  2119 00:0D84: 22 xx xx xx  	jsl	~~chdir
  2120                        L10077:
  2121 00:0D88: E2 20        	sep	#$20
  2122                        	longa	off
  2123 00:0D8A: 9C xx xx     	stz	|~~fd2iocb
  2124 00:0D8D: C2 20        	rep	#$20
  2125                        	longa	on
  2126 00:0D8F: 22 xx xx xx  	jsl	~~getParams
  2127 00:0D93: 85 14        	sta	<L127+tc_1
  2128 00:0D95: 86 16        	stx	<L127+tc_1+2
  2129 00:0D97: A0 06 00     	ldy	#$6
  2130 00:0D9A: B7 14        	lda	[<L127+tc_1],Y
  2131 00:0D9C: 85 18        	sta	<L127+p_1
  2132 00:0D9E: C8           	iny
  2133 00:0D9F: C8           	iny
  2134 00:0DA0: B7 14        	lda	[<L127+tc_1],Y
  2135 00:0DA2: 85 1A        	sta	<L127+p_1+2
  2136 00:0DA4: A0 02 00     	ldy	#$2
  2137 00:0DA7: B7 18        	lda	[<L127+p_1],Y
  2138 00:0DA9: 48           	pha
  Thu Jan 13 2022 23:48                                                Page 41


  2139 00:0DAA: A7 18        	lda	[<L127+p_1]
  2140 00:0DAC: 48           	pha
  2141 00:0DAD: 22 xx xx xx  	jsl	~~adjustExe
  2142 00:0DB1: 85 1C        	sta	<L127+fname_1
  2143 00:0DB3: 86 1E        	stx	<L127+fname_1+2
  2144 00:0DB5: F4 xx xx     	pea	#^L125+61
  2145 00:0DB8: F4 xx xx     	pea	#<L125+61
  2146 00:0DBB: 22 xx xx xx  	jsl	~~chdir
  2147 00:0DBF: E2 20        	sep	#$20
  2148                        	longa	off
  2149 00:0DC1: A9 07        	lda	#$7
  2150 00:0DC3: 8D xx xx     	sta	|~~fd2iocb
  2151 00:0DC6: C2 20        	rep	#$20
  2152                        	longa	on
  2153                        	asmstart
  2154 00:0DC8: 78           	sei
  2155                        	asmend
  2156 00:0DC9: D4 16        	pei	<L127+tc_1+2
  2157 00:0DCB: D4 14        	pei	<L127+tc_1
  2158 00:0DCD: D4 1E        	pei	<L127+fname_1+2
  2159 00:0DCF: D4 1C        	pei	<L127+fname_1
  2160 00:0DD1: 22 xx xx xx  	jsl	~~loadExec
  2161                        	asmstart
  2162 00:0DD5: 58           	cli
  2163                        	asmend
  2164 00:0DD6: D4 1E        	pei	<L127+fname_1+2
  2165 00:0DD8: D4 1C        	pei	<L127+fname_1
  2166 00:0DDA: 22 xx xx xx  	jsl	~~free
  2167 00:0DDE: A0 12 00     	ldy	#$12
  2168 00:0DE1: B7 14        	lda	[<L127+tc_1],Y
  2169 00:0DE3: C8           	iny
  2170 00:0DE4: C8           	iny
  2171 00:0DE5: 17 14        	ora	[<L127+tc_1],Y
  2172 00:0DE7: D0 1C        	bne	L10078
  2173 00:0DE9: D4 1E        	pei	<L127+fname_1+2
  2174 00:0DEB: D4 1C        	pei	<L127+fname_1
  2175 00:0DED: F4 xx xx     	pea	#^L125+63
  2176 00:0DF0: F4 xx xx     	pea	#<L125+63
  2177 00:0DF3: F4 0A 00     	pea	#10
  2178 00:0DF6: 22 xx xx xx  	jsl	~~printf
  2179 00:0DFA: D4 16        	pei	<L127+tc_1+2
  2180 00:0DFC: D4 14        	pei	<L127+tc_1
  2181 00:0DFE: 22 xx xx xx  	jsl	~~freetaskControl
  2182 00:0E02: 82 83 FF     	brl	L10077
  2183                        L10078:
  2184 00:0E05: A9 01 00     	lda	#$1
  2185 00:0E08: 85 24        	sta	<L127+callTask_1
  2186 00:0E0A: 64 20        	stz	<L127+breakpoint_1
  2187 00:0E0C: 64 22        	stz	<L127+breakpoint_1+2
  2188 00:0E0E: A0 04 00     	ldy	#$4
  2189 00:0E11: D7 14        	cmp	[<L127+tc_1],Y
  2190 00:0E13: 90 03        	bcc	*+5
  2191 00:0E15: 82 C9 00     	brl	L10079
  2192 00:0E18: A9 FF FF     	lda	#$ffff
  2193 00:0E1B: 18           	clc
  2194 00:0E1C: 77 14        	adc	[<L127+tc_1],Y
  2195 00:0E1E: 85 05        	sta	<R1
  2196 00:0E20: 64 07        	stz	<R1+2
  Thu Jan 13 2022 23:48                                                Page 42


  2197 00:0E22: D4 07        	pei	<R1+2
  2198 00:0E24: D4 05        	pei	<R1
  2199 00:0E26: A9 02 00     	lda	#$2
  2200                        	xref	~~~lasl
  2201 00:0E29: 22 xx xx xx  	jsl	~~~lasl
  2202 00:0E2D: 85 01        	sta	<R0
  2203 00:0E2F: 86 03        	stx	<R0+2
  2204 00:0E31: 18           	clc
  2205 00:0E32: A0 06 00     	ldy	#$6
  2206 00:0E35: B7 14        	lda	[<L127+tc_1],Y
  2207 00:0E37: 65 01        	adc	<R0
  2208 00:0E39: 85 09        	sta	<R2
  2209 00:0E3B: C8           	iny
  2210 00:0E3C: C8           	iny
  2211 00:0E3D: B7 14        	lda	[<L127+tc_1],Y
  2212 00:0E3F: 65 03        	adc	<R0+2
  2213 00:0E41: 85 0B        	sta	<R2+2
  2214 00:0E43: A7 09        	lda	[<R2]
  2215 00:0E45: 85 01        	sta	<R0
  2216 00:0E47: A0 02 00     	ldy	#$2
  2217 00:0E4A: B7 09        	lda	[<R2],Y
  2218 00:0E4C: 85 03        	sta	<R0+2
  2219 00:0E4E: E2 20        	sep	#$20
  2220                        	longa	off
  2221 00:0E50: A7 01        	lda	[<R0]
  2222 00:0E52: 85 13        	sta	<L127+c_1
  2223 00:0E54: C9 23        	cmp	#<$23
  2224 00:0E56: C2 20        	rep	#$20
  2225                        	longa	on
  2226 00:0E58: D0 02        	bne	L10080
  2227 00:0E5A: 64 24        	stz	<L127+callTask_1
  2228                        L10080:
  2229 00:0E5C: E2 20        	sep	#$20
  2230                        	longa	off
  2231 00:0E5E: A5 13        	lda	<L127+c_1
  2232 00:0E60: C9 26        	cmp	#<$26
  2233 00:0E62: C2 20        	rep	#$20
  2234                        	longa	on
  2235 00:0E64: D0 08        	bne	L10081
  2236 00:0E66: A9 01 00     	lda	#$1
  2237 00:0E69: A0 2C 00     	ldy	#$2c
  2238 00:0E6C: 97 14        	sta	[<L127+tc_1],Y
  2239                        L10081:
  2240 00:0E6E: E2 20        	sep	#$20
  2241                        	longa	off
  2242 00:0E70: A5 13        	lda	<L127+c_1
  2243 00:0E72: C9 21        	cmp	#<$21
  2244 00:0E74: C2 20        	rep	#$20
  2245                        	longa	on
  2246 00:0E76: D0 69        	bne	L10079
  2247 00:0E78: 18           	clc
  2248 00:0E79: A9 FF FF     	lda	#$ffff
  2249 00:0E7C: A0 04 00     	ldy	#$4
  2250 00:0E7F: 77 14        	adc	[<L127+tc_1],Y
  2251 00:0E81: 85 05        	sta	<R1
  2252 00:0E83: 64 07        	stz	<R1+2
  2253 00:0E85: D4 07        	pei	<R1+2
  2254 00:0E87: D4 05        	pei	<R1
  Thu Jan 13 2022 23:48                                                Page 43


  2255 00:0E89: A9 02 00     	lda	#$2
  2256                        	xref	~~~lasl
  2257 00:0E8C: 22 xx xx xx  	jsl	~~~lasl
  2258 00:0E90: 85 01        	sta	<R0
  2259 00:0E92: 86 03        	stx	<R0+2
  2260 00:0E94: 18           	clc
  2261 00:0E95: A0 06 00     	ldy	#$6
  2262 00:0E98: B7 14        	lda	[<L127+tc_1],Y
  2263 00:0E9A: 65 01        	adc	<R0
  2264 00:0E9C: 85 09        	sta	<R2
  2265 00:0E9E: C8           	iny
  2266 00:0E9F: C8           	iny
  2267 00:0EA0: B7 14        	lda	[<L127+tc_1],Y
  2268 00:0EA2: 65 03        	adc	<R0+2
  2269 00:0EA4: 85 0B        	sta	<R2+2
  2270 00:0EA6: A9 01 00     	lda	#$1
  2271 00:0EA9: 18           	clc
  2272 00:0EAA: 67 09        	adc	[<R2]
  2273 00:0EAC: 85 01        	sta	<R0
  2274 00:0EAE: A9 00 00     	lda	#$0
  2275 00:0EB1: A0 02 00     	ldy	#$2
  2276 00:0EB4: 77 09        	adc	[<R2],Y
  2277 00:0EB6: 48           	pha
  2278 00:0EB7: D4 01        	pei	<R0
  2279 00:0EB9: 22 xx xx xx  	jsl	~~str2hex
  2280 00:0EBD: 85 09        	sta	<R2
  2281 00:0EBF: 86 0B        	stx	<R2+2
  2282 00:0EC1: 18           	clc
  2283 00:0EC2: A0 12 00     	ldy	#$12
  2284 00:0EC5: B7 14        	lda	[<L127+tc_1],Y
  2285 00:0EC7: 65 09        	adc	<R2
  2286 00:0EC9: 85 20        	sta	<L127+breakpoint_1
  2287 00:0ECB: C8           	iny
  2288 00:0ECC: C8           	iny
  2289 00:0ECD: B7 14        	lda	[<L127+tc_1],Y
  2290 00:0ECF: 65 0B        	adc	<R2+2
  2291 00:0ED1: 85 22        	sta	<L127+breakpoint_1+2
  2292 00:0ED3: E2 20        	sep	#$20
  2293                        	longa	off
  2294 00:0ED5: A7 20        	lda	[<L127+breakpoint_1]
  2295 00:0ED7: 8F 4D 03 00  	sta	>845
  2296 00:0EDB: A9 00        	lda	#$0
  2297 00:0EDD: 87 20        	sta	[<L127+breakpoint_1]
  2298 00:0EDF: C2 20        	rep	#$20
  2299                        	longa	on
  2300                        L10079:
  2301 00:0EE1: A5 24        	lda	<L127+callTask_1
  2302 00:0EE3: D0 03        	bne	*+5
  2303 00:0EE5: 82 A0 FE     	brl	L10077
  2304 00:0EE8: A0 14 00     	ldy	#$14
  2305 00:0EEB: B7 14        	lda	[<L127+tc_1],Y
  2306 00:0EED: 48           	pha
  2307 00:0EEE: 88           	dey
  2308 00:0EEF: 88           	dey
  2309 00:0EF0: B7 14        	lda	[<L127+tc_1],Y
  2310 00:0EF2: 48           	pha
  2311 00:0EF3: F4 xx xx     	pea	#^L125+81
  2312 00:0EF6: F4 xx xx     	pea	#<L125+81
  Thu Jan 13 2022 23:48                                                Page 44


  2313 00:0EF9: F4 0A 00     	pea	#10
  2314 00:0EFC: 22 xx xx xx  	jsl	~~printf
  2315 00:0F00: A5 20        	lda	<L127+breakpoint_1
  2316 00:0F02: 05 22        	ora	<L127+breakpoint_1+2
  2317 00:0F04: F0 17        	beq	L10084
  2318 00:0F06: D4 22        	pei	<L127+breakpoint_1+2
  2319 00:0F08: D4 20        	pei	<L127+breakpoint_1
  2320 00:0F0A: A5 13        	lda	<L127+c_1
  2321 00:0F0C: 29 FF 00     	and	#$ff
  2322 00:0F0F: 48           	pha
  2323 00:0F10: F4 xx xx     	pea	#^L125+96
  2324 00:0F13: F4 xx xx     	pea	#<L125+96
  2325 00:0F16: F4 0C 00     	pea	#12
  2326 00:0F19: 22 xx xx xx  	jsl	~~printf
  2327                        L10084:
  2328 00:0F1D: F4 xx xx     	pea	#^L125+106
  2329 00:0F20: F4 xx xx     	pea	#<L125+106
  2330 00:0F23: F4 06 00     	pea	#6
  2331 00:0F26: 22 xx xx xx  	jsl	~~printf
  2332 00:0F2A: 22 xx xx xx  	jsl	~~xTaskGetCurrentTaskHandle
  2333 00:0F2E: 86 03        	stx	<R0+2
  2334 00:0F30: A0 0A 00     	ldy	#$a
  2335 00:0F33: 97 14        	sta	[<L127+tc_1],Y
  2336 00:0F35: A5 03        	lda	<R0+2
  2337 00:0F37: C8           	iny
  2338 00:0F38: C8           	iny
  2339 00:0F39: 97 14        	sta	[<L127+tc_1],Y
  2340 00:0F3B: A9 0E 00     	lda	#$e
  2341 00:0F3E: 18           	clc
  2342 00:0F3F: 65 14        	adc	<L127+tc_1
  2343 00:0F41: 85 01        	sta	<R0
  2344 00:0F43: A9 00 00     	lda	#$0
  2345 00:0F46: 65 16        	adc	<L127+tc_1+2
  2346 00:0F48: 48           	pha
  2347 00:0F49: D4 01        	pei	<R0
  2348 00:0F4B: F4 00 00     	pea	#<$0
  2349 00:0F4E: D4 16        	pei	<L127+tc_1+2
  2350 00:0F50: D4 14        	pei	<L127+tc_1
  2351 00:0F52: F4 00 08     	pea	#<$800
  2352 00:0F55: A0 06 00     	ldy	#$6
  2353 00:0F58: B7 14        	lda	[<L127+tc_1],Y
  2354 00:0F5A: 85 05        	sta	<R1
  2355 00:0F5C: C8           	iny
  2356 00:0F5D: C8           	iny
  2357 00:0F5E: B7 14        	lda	[<L127+tc_1],Y
  2358 00:0F60: 85 07        	sta	<R1+2
  2359 00:0F62: A0 02 00     	ldy	#$2
  2360 00:0F65: B7 05        	lda	[<R1],Y
  2361 00:0F67: 48           	pha
  2362 00:0F68: A7 05        	lda	[<R1]
  2363 00:0F6A: 48           	pha
  2364 00:0F6B: A0 14 00     	ldy	#$14
  2365 00:0F6E: B7 14        	lda	[<L127+tc_1],Y
  2366 00:0F70: 48           	pha
  2367 00:0F71: 88           	dey
  2368 00:0F72: 88           	dey
  2369 00:0F73: B7 14        	lda	[<L127+tc_1],Y
  2370 00:0F75: 48           	pha
  Thu Jan 13 2022 23:48                                                Page 45


  2371 00:0F76: 22 xx xx xx  	jsl	~~xTaskCreate
  2372 00:0F7A: 85 11        	sta	<L127+rc_1
  2373 00:0F7C: A0 2C 00     	ldy	#$2c
  2374 00:0F7F: B7 14        	lda	[<L127+tc_1],Y
  2375 00:0F81: F0 03        	beq	*+5
  2376 00:0F83: 82 02 FE     	brl	L10077
  2377 00:0F86: F4 FF FF     	pea	#<$ffff
  2378 00:0F89: F4 01 00     	pea	#<$1
  2379 00:0F8C: 22 xx xx xx  	jsl	~~ulTaskNotifyTake
  2380 00:0F90: D4 16        	pei	<L127+tc_1+2
  2381 00:0F92: D4 14        	pei	<L127+tc_1
  2382 00:0F94: 22 xx xx xx  	jsl	~~vTaskRemove
  2383 00:0F98: 82 ED FD     	brl	L10077
  2384             00000025   L126	equ	37
  2385             0000000D   L127	equ	13
  2386                        	ends
  2387                        	efunc
  2388                        	data
  2389                        L125:
  2390 00:02F8: 69 6F 63 62  	db	$69,$6F,$63,$62,$53,$65,$6D,$61,$70,$68,
                    $6F,$72,$65,$20,$63
       00:02FC: 53 65 6D 61 
       00:0300: 70 68 6F 72 
       00:0304: 65 20 63 
  2391 00:0307: 72 65 61 74  	db	$72,$65,$61,$74,$65,$64,$3A,$20,$25,$30,
                    $38,$58,$0A,$00,$76
       00:030B: 65 64 3A 20 
       00:030F: 25 30 38 58 
       00:0313: 0A 00 76 
  2392 00:0316: 54 61 73 6B  	db	$54,$61,$73,$6B,$53,$65,$74,$41,$70,$70,
                    $6C,$69,$63,$61,$74
       00:031A: 53 65 74 41 
       00:031E: 70 70 6C 69 
       00:0322: 63 61 74 
  2393 00:0325: 69 6F 6E 54  	db	$69,$6F,$6E,$54,$61,$73,$6B,$54,$61,$67,
                    $0A,$00,$0A,$00,$2F
       00:0329: 61 73 6B 54 
       00:032D: 61 67 0A 00 
       00:0331: 0A 00 2F 
  2394 00:0334: 00 2F 00 45  	db	$00,$2F,$00,$45,$72,$72,$6F,$72,$20,$6C,
                    $6F,$61,$64,$69,$6E
       00:0338: 72 72 6F 72 
       00:033C: 20 6C 6F 61 
       00:0340: 64 69 6E 
  2395 00:0343: 67 20 25 73  	db	$67,$20,$25,$73,$0A,$00,$63,$61,$6C,$6C,
                    $69,$6E,$67,$20,$40
       00:0347: 0A 00 63 61 
       00:034B: 6C 6C 69 6E 
       00:034F: 67 20 40 
  2396 00:0352: 25 6C 30 38  	db	$25,$6C,$30,$38,$58,$00,$25,$63,$20,$25,
                    $6C,$30,$38,$58,$0A
       00:0356: 58 00 25 63 
       00:035A: 20 25 6C 30 
       00:035E: 38 58 0A 
  2397 00:0361: 00 0A 00     	db	$00,$0A,$00
  2398 00:0364:              	ends
  2399                        	code
  2400                        	xdef	~~main
  Thu Jan 13 2022 23:48                                                Page 46


  2401                        	func
  2402                        ~~main:
  2403                        	longa	on
  2404                        	longi	on
  2405 00:0F9B: 3B           	tsc
  2406 00:0F9C: 38           	sec
  2407 00:0F9D: E9 12 00     	sbc	#L137
  2408 00:0FA0: 1B           	tcs
  2409 00:0FA1: 0B           	phd
  2410 00:0FA2: 5B           	tcd
  2411             00000004   argc_0	set	4
  2412             00000006   argv_0	set	6
  2413             00000000   rc_1	set	0
  2414             00000002   dir_1	set	2
  2415             00000006   cnt_1	set	6
  2416             00000008   c_1	set	8
  2417             0000000A   dirent_1	set	10
  2418 00:0FA3: 22 xx xx xx  	jsl	~~vInitRTOS
  2419 00:0FA7: E2 20        	sep	#$20
  2420                        	longa	off
  2421 00:0FA9: 9C xx xx     	stz	|~~fd2iocb
  2422 00:0FAC: 9C xx xx     	stz	|~~fd2iocb+1
  2423 00:0FAF: 9C xx xx     	stz	|~~fd2iocb+2
  2424 00:0FB2: A9 FF        	lda	#$ff
  2425 00:0FB4: 8D xx xx     	sta	|~~fd2iocb+3
  2426 00:0FB7: 8D xx xx     	sta	|~~fd2iocb+4
  2427 00:0FBA: 8D xx xx     	sta	|~~fd2iocb+5
  2428 00:0FBD: 8D xx xx     	sta	|~~fd2iocb+6
  2429 00:0FC0: 8D xx xx     	sta	|~~fd2iocb+7
  2430 00:0FC3: C2 20        	rep	#$20
  2431                        	longa	on
  2432 00:0FC5: 9C xx xx     	stz	|~~iocbSemaphore
  2433 00:0FC8: 9C xx xx     	stz	|~~iocbSemaphore+2
  2434 00:0FCB: AD xx xx     	lda	|~~stdin
  2435 00:0FCE: 85 01        	sta	<R0
  2436 00:0FD0: AD xx xx     	lda	|~~stdin+2
  2437 00:0FD3: 85 03        	sta	<R0+2
  2438 00:0FD5: A9 AC 00     	lda	#$ac
  2439 00:0FD8: A0 02 00     	ldy	#$2
  2440 00:0FDB: 97 01        	sta	[<R0],Y
  2441 00:0FDD: F4 00 00     	pea	#^$0
  2442 00:0FE0: F4 00 00     	pea	#<$0
  2443 00:0FE3: F4 00 00     	pea	#<$0
  2444 00:0FE6: F4 00 00     	pea	#^$0
  2445 00:0FE9: F4 00 00     	pea	#<$0
  2446 00:0FEC: F4 00 02     	pea	#<$200
  2447 00:0FEF: F4 xx xx     	pea	#^L136
  2448 00:0FF2: F4 xx xx     	pea	#<L136
  2449 00:0FF5: F4 xx xx     	pea	#^~~shellTask
  2450 00:0FF8: F4 xx xx     	pea	#<~~shellTask
  2451 00:0FFB: 22 xx xx xx  	jsl	~~xTaskCreate
  2452 00:0FFF: 85 05        	sta	<L138+rc_1
  2453 00:1001: C9 01 00     	cmp	#<$1
  2454 00:1004: F0 24        	beq	L10086
  2455 00:1006: D4 05        	pei	<L138+rc_1
  2456 00:1008: F4 xx xx     	pea	#^L136+6
  2457 00:100B: F4 xx xx     	pea	#<L136+6
  2458 00:100E: F4 08 00     	pea	#8
  Thu Jan 13 2022 23:48                                                Page 47


  2459 00:1011: 22 xx xx xx  	jsl	~~printf
  2460 00:1015: A9 01 00     	lda	#$1
  2461                        L140:
  2462 00:1018: A8           	tay
  2463 00:1019: A5 14        	lda	<L137+2
  2464 00:101B: 85 1A        	sta	<L137+2+6
  2465 00:101D: A5 13        	lda	<L137+1
  2466 00:101F: 85 19        	sta	<L137+1+6
  2467 00:1021: 2B           	pld
  2468 00:1022: 3B           	tsc
  2469 00:1023: 18           	clc
  2470 00:1024: 69 18 00     	adc	#L137+6
  2471 00:1027: 1B           	tcs
  2472 00:1028: 98           	tya
  2473 00:1029: 6B           	rtl
  2474                        L10086:
  2475 00:102A: 22 xx xx xx  	jsl	~~vTaskStartScheduler
  2476 00:102E: F4 xx xx     	pea	#^L136+41
  2477 00:1031: F4 xx xx     	pea	#<L136+41
  2478 00:1034: F4 06 00     	pea	#6
  2479 00:1037: 22 xx xx xx  	jsl	~~printf
  2480 00:103B: A9 00 00     	lda	#$0
  2481 00:103E: 80 D8        	bra	L140
  2482             00000012   L137	equ	18
  2483             00000005   L138	equ	5
  2484                        	ends
  2485                        	efunc
  2486                        	data
  2487                        L136:
  2488 00:0364: 53 48 45 4C  	db	$53,$48,$45,$4C,$4C,$00,$73,$68,$65,$6C,
                    $6C,$20,$63,$6F,$75
       00:0368: 4C 00 73 68 
       00:036C: 65 6C 6C 20 
       00:0370: 63 6F 75 
  2489 00:0373: 6C 64 20 6E  	db	$6C,$64,$20,$6E,$6F,$74,$20,$62,$65,$20,
                    $63,$72,$65,$61,$74
       00:0377: 6F 74 20 62 
       00:037B: 65 20 63 72 
       00:037F: 65 61 74 
  2490 00:0382: 65 64 20 72  	db	$65,$64,$20,$72,$63,$3A,$20,$25,$64,$0A,
                    $00,$45,$72,$72,$6F
       00:0386: 63 3A 20 25 
       00:038A: 64 0A 00 45 
       00:038E: 72 72 6F 
  2491 00:0391: 72 20 73 74  	db	$72,$20,$73,$74,$61,$72,$74,$69,$6E,$67,
                    $20,$52,$54,$4F,$53
       00:0395: 61 72 74 69 
       00:0399: 6E 67 20 52 
       00:039D: 54 4F 53 
  2492 00:03A0: 20 73 63 68  	db	$20,$73,$63,$68,$65,$64,$75,$6C,$65,$72,
                    $0A,$00
       00:03A4: 65 64 75 6C 
       00:03A8: 65 72 0A 00 
  2493 00:03AC:              	ends
  2494                        	xref	~~vInitRTOS
  2495                        	xref	~~toupper
  2496                        	xref	~~debugf
  2497                        	xref	~~xQueueCreateMutex
  Thu Jan 13 2022 23:48                                                Page 48


  2498                        	xref	~~xTaskGetCurrentTaskHandle
  2499                        	xref	~~ulTaskNotifyTake
  2500                        	xref	~~vTaskSetApplicationTaskTag
  2501                        	xref	~~vTaskStartScheduler
  2502                        	xref	~~vTaskDelete
  2503                        	xref	~~xTaskCreate
  2504                        	xref	~~vPortFree
  2505                        	xref	~~free
  2506                        	xref	~~malloc
  2507                        	xref	~~calloc
  2508                        	xref	~~read
  2509                        	xref	~~chdir
  2510                        	xref	~~strlen
  2511                        	xref	~~strcat
  2512                        	xref	~~memmove
  2513                        	xref	~~strcpy
  2514                        	xref	~~setvbuf
  2515                        	xref	~~fileno
  2516                        	xref	~~fclose
  2517                        	xref	~~fread
  2518                        	xref	~~fgets
  2519                        	xref	~~printf
  2520                        	xref	~~fopen
  2521                        	udata
  2522                        ~~dirent
  2523 00:0000:              	ds	2136
  2524 00:0858:              	ends
  2525                        	udata
  2526                        ~~dir_fd
  2527 00:0858:              	ds	16
  2528 00:0868:              	ends
  2529                        	udata
  2530                        ~~shellpath
  2531 00:0868:              	ds	80
  2532 00:08B8:              	ends
  2533                        	udata
  2534                        ~~base
  2535 00:08B8:              	ds	20
  2536 00:08CC:              	ends
  2537                        	udata
  2538                        ~~symbols
  2539 00:08CC:              	ds	4
  2540 00:08D0:              	ends
  2541                        	udata
  2542                        ~~header
  2543 00:08D0:              	ds	28
  2544 00:08EC:              	ends
  2545                        	udata
  2546                        ~~s
  2547 00:08EC:              	ds	80
  2548 00:093C:              	ends
  2549                        	xref	~~fd2iocb
  2550                        	xref	~~iocbSemaphore
  2551                        	xref	~~pxEnd16
  2552                        	xref	~~pxEnd
  2553                        	xref	~~stdin


  Thu Jan 13 2022 23:48                                                Page 49


      Lines assembled: 2553
      Errors: 0
