  Tue Dec  8 2020 22:45                                                Page 1


                     ***************************************
                     **      WDC 65C816 Macro Assembler   **
                     **                                   **
                     **     Version 3.49.1- Feb  6 2006    **
                     ***************************************

     1                        ;:ts=8
     2             00000001   R0	equ	1
     3             00000005   R1	equ	5
     4             00000009   R2	equ	9
     5             0000000D   R3	equ	13
     6                        	code
     7                        	func
     8                        ~~read_le16:
     9                        	longa	on
    10                        	longi	on
    11 00:0000: 3B           	tsc
    12 00:0001: 38           	sec
    13 00:0002: E9 10 00     	sbc	#L2
    14 00:0005: 1B           	tcs
    15 00:0006: 0B           	phd
    16 00:0007: 5B           	tcd
    17             00000004   p_0	set	4
    18 00:0008: A7 14        	lda	[<L2+p_0]
    19 00:000A: 29 FF 00     	and	#$ff
    20 00:000D: 85 01        	sta	<R0
    21 00:000F: 64 03        	stz	<R0+2
    22 00:0011: A0 01 00     	ldy	#$1
    23 00:0014: B7 14        	lda	[<L2+p_0],Y
    24 00:0016: 29 FF 00     	and	#$ff
    25 00:0019: 85 09        	sta	<R2
    26 00:001B: 64 0B        	stz	<R2+2
    27 00:001D: D4 0B        	pei	<R2+2
    28 00:001F: D4 09        	pei	<R2
    29 00:0021: A9 08 00     	lda	#$8
    30                        	xref	~~~lasl
    31 00:0024: 22 xx xx xx  	jsl	~~~lasl
    32 00:0028: 86 07        	stx	<R1+2
    33 00:002A: 05 01        	ora	<R0
    34 00:002C: 85 0D        	sta	<R3
    35 00:002E: A5 07        	lda	<R1+2
    36 00:0030: 05 03        	ora	<R0+2
    37 00:0032: 85 0F        	sta	<R3+2
    38 00:0034: A6 0F        	ldx	<R3+2
    39 00:0036: A5 0D        	lda	<R3
    40 00:0038: A8           	tay
    41 00:0039: A5 12        	lda	<L2+2
    42 00:003B: 85 16        	sta	<L2+2+4
    43 00:003D: A5 11        	lda	<L2+1
    44 00:003F: 85 15        	sta	<L2+1+4
    45 00:0041: 2B           	pld
    46 00:0042: 3B           	tsc
    47 00:0043: 18           	clc
    48 00:0044: 69 14 00     	adc	#L2+4
    49 00:0047: 1B           	tcs
    50 00:0048: 98           	tya
    51 00:0049: 6B           	rtl
    52             00000010   L2	equ	16
  Tue Dec  8 2020 22:45                                                Page 2


    53             00000011   L3	equ	17
    54                        	ends
    55                        	efunc
    56                        	code
    57                        	func
    58                        ~~tinf_build_fixed_trees:
    59                        	longa	on
    60                        	longi	on
    61 00:004A: 3B           	tsc
    62 00:004B: 38           	sec
    63 00:004C: E9 10 00     	sbc	#L5
    64 00:004F: 1B           	tcs
    65 00:0050: 0B           	phd
    66 00:0051: 5B           	tcd
    67             00000004   lt_0	set	4
    68             00000008   dt_0	set	8
    69             00000000   i_1	set	0
    70 00:0052: 64 0D        	stz	<L6+i_1
    71 00:0054: 64 0F        	stz	<L6+i_1+2
    72                        L10003:
    73 00:0056: A5 0D        	lda	<L6+i_1
    74 00:0058: 85 01        	sta	<R0
    75 00:005A: A5 0F        	lda	<L6+i_1+2
    76 00:005C: 85 03        	sta	<R0+2
    77 00:005E: 06 01        	asl	<R0
    78 00:0060: 26 03        	rol	<R0+2
    79 00:0062: A5 14        	lda	<L5+lt_0
    80 00:0064: 18           	clc
    81 00:0065: 65 01        	adc	<R0
    82 00:0067: 85 05        	sta	<R1
    83 00:0069: A5 16        	lda	<L5+lt_0+2
    84 00:006B: 65 03        	adc	<R0+2
    85 00:006D: 85 07        	sta	<R1+2
    86 00:006F: A9 00 00     	lda	#$0
    87 00:0072: 87 05        	sta	[<R1]
    88 00:0074: E6 0D        	inc	<L6+i_1
    89 00:0076: D0 02        	bne	L7
    90 00:0078: E6 0F        	inc	<L6+i_1+2
    91                        L7:
    92 00:007A: A5 0F        	lda	<L6+i_1+2
    93 00:007C: 30 D8        	bmi	L10003
    94 00:007E: D0 07        	bne	L10002
    95 00:0080: A5 0D        	lda	<L6+i_1
    96 00:0082: C9 10 00     	cmp	#16
    97 00:0085: 90 CF        	bcc	L10003
    98                        L10002:
    99 00:0087: A9 18 00     	lda	#$18
   100 00:008A: A0 0E 00     	ldy	#$e
   101 00:008D: 97 14        	sta	[<L5+lt_0],Y
   102 00:008F: A9 98 00     	lda	#$98
   103 00:0092: C8           	iny
   104 00:0093: C8           	iny
   105 00:0094: 97 14        	sta	[<L5+lt_0],Y
   106 00:0096: A9 70 00     	lda	#$70
   107 00:0099: C8           	iny
   108 00:009A: C8           	iny
   109 00:009B: 97 14        	sta	[<L5+lt_0],Y
   110 00:009D: 64 0D        	stz	<L6+i_1
  Tue Dec  8 2020 22:45                                                Page 3


   111 00:009F: 64 0F        	stz	<L6+i_1+2
   112                        L10006:
   113 00:00A1: A5 0D        	lda	<L6+i_1
   114 00:00A3: 85 01        	sta	<R0
   115 00:00A5: A5 0F        	lda	<L6+i_1+2
   116 00:00A7: 85 03        	sta	<R0+2
   117 00:00A9: 06 01        	asl	<R0
   118 00:00AB: 26 03        	rol	<R0+2
   119 00:00AD: A9 20 00     	lda	#$20
   120 00:00B0: 18           	clc
   121 00:00B1: 65 14        	adc	<L5+lt_0
   122 00:00B3: 85 05        	sta	<R1
   123 00:00B5: A9 00 00     	lda	#$0
   124 00:00B8: 65 16        	adc	<L5+lt_0+2
   125 00:00BA: 85 07        	sta	<R1+2
   126 00:00BC: A5 05        	lda	<R1
   127 00:00BE: 18           	clc
   128 00:00BF: 65 01        	adc	<R0
   129 00:00C1: 85 09        	sta	<R2
   130 00:00C3: A5 07        	lda	<R1+2
   131 00:00C5: 65 03        	adc	<R0+2
   132 00:00C7: 85 0B        	sta	<R2+2
   133 00:00C9: A9 00 01     	lda	#$100
   134 00:00CC: 18           	clc
   135 00:00CD: 65 0D        	adc	<L6+i_1
   136 00:00CF: 85 01        	sta	<R0
   137 00:00D1: A9 00 00     	lda	#$0
   138 00:00D4: 65 0F        	adc	<L6+i_1+2
   139 00:00D6: 85 03        	sta	<R0+2
   140 00:00D8: A5 01        	lda	<R0
   141 00:00DA: 87 09        	sta	[<R2]
   142 00:00DC: E6 0D        	inc	<L6+i_1
   143 00:00DE: D0 02        	bne	L10
   144 00:00E0: E6 0F        	inc	<L6+i_1+2
   145                        L10:
   146 00:00E2: A5 0F        	lda	<L6+i_1+2
   147 00:00E4: 30 BB        	bmi	L10006
   148 00:00E6: D0 07        	bne	L10005
   149 00:00E8: A5 0D        	lda	<L6+i_1
   150 00:00EA: C9 18 00     	cmp	#24
   151 00:00ED: 90 B2        	bcc	L10006
   152                        L10005:
   153 00:00EF: 64 0D        	stz	<L6+i_1
   154 00:00F1: 64 0F        	stz	<L6+i_1+2
   155                        L10009:
   156 00:00F3: A5 0D        	lda	<L6+i_1
   157 00:00F5: 85 01        	sta	<R0
   158 00:00F7: A5 0F        	lda	<L6+i_1+2
   159 00:00F9: 85 03        	sta	<R0+2
   160 00:00FB: 06 01        	asl	<R0
   161 00:00FD: 26 03        	rol	<R0+2
   162 00:00FF: A9 50 00     	lda	#$50
   163 00:0102: 18           	clc
   164 00:0103: 65 14        	adc	<L5+lt_0
   165 00:0105: 85 05        	sta	<R1
   166 00:0107: A9 00 00     	lda	#$0
   167 00:010A: 65 16        	adc	<L5+lt_0+2
   168 00:010C: 85 07        	sta	<R1+2
  Tue Dec  8 2020 22:45                                                Page 4


   169 00:010E: A5 05        	lda	<R1
   170 00:0110: 18           	clc
   171 00:0111: 65 01        	adc	<R0
   172 00:0113: 85 09        	sta	<R2
   173 00:0115: A5 07        	lda	<R1+2
   174 00:0117: 65 03        	adc	<R0+2
   175 00:0119: 85 0B        	sta	<R2+2
   176 00:011B: A5 0D        	lda	<L6+i_1
   177 00:011D: 87 09        	sta	[<R2]
   178 00:011F: E6 0D        	inc	<L6+i_1
   179 00:0121: D0 02        	bne	L13
   180 00:0123: E6 0F        	inc	<L6+i_1+2
   181                        L13:
   182 00:0125: A5 0F        	lda	<L6+i_1+2
   183 00:0127: 30 CA        	bmi	L10009
   184 00:0129: D0 07        	bne	L10008
   185 00:012B: A5 0D        	lda	<L6+i_1
   186 00:012D: C9 90 00     	cmp	#144
   187 00:0130: 90 C1        	bcc	L10009
   188                        L10008:
   189 00:0132: 64 0D        	stz	<L6+i_1
   190 00:0134: 64 0F        	stz	<L6+i_1+2
   191                        L10012:
   192 00:0136: A5 0D        	lda	<L6+i_1
   193 00:0138: 85 01        	sta	<R0
   194 00:013A: A5 0F        	lda	<L6+i_1+2
   195 00:013C: 85 03        	sta	<R0+2
   196 00:013E: 06 01        	asl	<R0
   197 00:0140: 26 03        	rol	<R0+2
   198 00:0142: A9 70 01     	lda	#$170
   199 00:0145: 18           	clc
   200 00:0146: 65 14        	adc	<L5+lt_0
   201 00:0148: 85 05        	sta	<R1
   202 00:014A: A9 00 00     	lda	#$0
   203 00:014D: 65 16        	adc	<L5+lt_0+2
   204 00:014F: 85 07        	sta	<R1+2
   205 00:0151: A5 05        	lda	<R1
   206 00:0153: 18           	clc
   207 00:0154: 65 01        	adc	<R0
   208 00:0156: 85 09        	sta	<R2
   209 00:0158: A5 07        	lda	<R1+2
   210 00:015A: 65 03        	adc	<R0+2
   211 00:015C: 85 0B        	sta	<R2+2
   212 00:015E: A9 18 01     	lda	#$118
   213 00:0161: 18           	clc
   214 00:0162: 65 0D        	adc	<L6+i_1
   215 00:0164: 85 01        	sta	<R0
   216 00:0166: A9 00 00     	lda	#$0
   217 00:0169: 65 0F        	adc	<L6+i_1+2
   218 00:016B: 85 03        	sta	<R0+2
   219 00:016D: A5 01        	lda	<R0
   220 00:016F: 87 09        	sta	[<R2]
   221 00:0171: E6 0D        	inc	<L6+i_1
   222 00:0173: D0 02        	bne	L16
   223 00:0175: E6 0F        	inc	<L6+i_1+2
   224                        L16:
   225 00:0177: A5 0F        	lda	<L6+i_1+2
   226 00:0179: 30 BB        	bmi	L10012
  Tue Dec  8 2020 22:45                                                Page 5


   227 00:017B: D0 07        	bne	L10011
   228 00:017D: A5 0D        	lda	<L6+i_1
   229 00:017F: C9 08 00     	cmp	#8
   230 00:0182: 90 B2        	bcc	L10012
   231                        L10011:
   232 00:0184: 64 0D        	stz	<L6+i_1
   233 00:0186: 64 0F        	stz	<L6+i_1+2
   234                        L10015:
   235 00:0188: A5 0D        	lda	<L6+i_1
   236 00:018A: 85 01        	sta	<R0
   237 00:018C: A5 0F        	lda	<L6+i_1+2
   238 00:018E: 85 03        	sta	<R0+2
   239 00:0190: 06 01        	asl	<R0
   240 00:0192: 26 03        	rol	<R0+2
   241 00:0194: A9 80 01     	lda	#$180
   242 00:0197: 18           	clc
   243 00:0198: 65 14        	adc	<L5+lt_0
   244 00:019A: 85 05        	sta	<R1
   245 00:019C: A9 00 00     	lda	#$0
   246 00:019F: 65 16        	adc	<L5+lt_0+2
   247 00:01A1: 85 07        	sta	<R1+2
   248 00:01A3: A5 05        	lda	<R1
   249 00:01A5: 18           	clc
   250 00:01A6: 65 01        	adc	<R0
   251 00:01A8: 85 09        	sta	<R2
   252 00:01AA: A5 07        	lda	<R1+2
   253 00:01AC: 65 03        	adc	<R0+2
   254 00:01AE: 85 0B        	sta	<R2+2
   255 00:01B0: A9 90 00     	lda	#$90
   256 00:01B3: 18           	clc
   257 00:01B4: 65 0D        	adc	<L6+i_1
   258 00:01B6: 85 01        	sta	<R0
   259 00:01B8: A9 00 00     	lda	#$0
   260 00:01BB: 65 0F        	adc	<L6+i_1+2
   261 00:01BD: 85 03        	sta	<R0+2
   262 00:01BF: A5 01        	lda	<R0
   263 00:01C1: 87 09        	sta	[<R2]
   264 00:01C3: E6 0D        	inc	<L6+i_1
   265 00:01C5: D0 02        	bne	L19
   266 00:01C7: E6 0F        	inc	<L6+i_1+2
   267                        L19:
   268 00:01C9: A5 0F        	lda	<L6+i_1+2
   269 00:01CB: 30 BB        	bmi	L10015
   270 00:01CD: D0 07        	bne	L10014
   271 00:01CF: A5 0D        	lda	<L6+i_1
   272 00:01D1: C9 70 00     	cmp	#112
   273 00:01D4: 90 B2        	bcc	L10015
   274                        L10014:
   275 00:01D6: A9 1D 01     	lda	#$11d
   276 00:01D9: A0 60 02     	ldy	#$260
   277 00:01DC: 97 14        	sta	[<L5+lt_0],Y
   278 00:01DE: A9 00 00     	lda	#$0
   279 00:01E1: C8           	iny
   280 00:01E2: C8           	iny
   281 00:01E3: 97 14        	sta	[<L5+lt_0],Y
   282 00:01E5: 64 0D        	stz	<L6+i_1
   283 00:01E7: 64 0F        	stz	<L6+i_1+2
   284                        L10018:
  Tue Dec  8 2020 22:45                                                Page 6


   285 00:01E9: A5 0D        	lda	<L6+i_1
   286 00:01EB: 85 01        	sta	<R0
   287 00:01ED: A5 0F        	lda	<L6+i_1+2
   288 00:01EF: 85 03        	sta	<R0+2
   289 00:01F1: 06 01        	asl	<R0
   290 00:01F3: 26 03        	rol	<R0+2
   291 00:01F5: A5 18        	lda	<L5+dt_0
   292 00:01F7: 18           	clc
   293 00:01F8: 65 01        	adc	<R0
   294 00:01FA: 85 05        	sta	<R1
   295 00:01FC: A5 1A        	lda	<L5+dt_0+2
   296 00:01FE: 65 03        	adc	<R0+2
   297 00:0200: 85 07        	sta	<R1+2
   298 00:0202: A9 00 00     	lda	#$0
   299 00:0205: 87 05        	sta	[<R1]
   300 00:0207: E6 0D        	inc	<L6+i_1
   301 00:0209: D0 02        	bne	L22
   302 00:020B: E6 0F        	inc	<L6+i_1+2
   303                        L22:
   304 00:020D: A5 0F        	lda	<L6+i_1+2
   305 00:020F: 30 D8        	bmi	L10018
   306 00:0211: D0 07        	bne	L10017
   307 00:0213: A5 0D        	lda	<L6+i_1
   308 00:0215: C9 10 00     	cmp	#16
   309 00:0218: 90 CF        	bcc	L10018
   310                        L10017:
   311 00:021A: A9 20 00     	lda	#$20
   312 00:021D: A0 0A 00     	ldy	#$a
   313 00:0220: 97 18        	sta	[<L5+dt_0],Y
   314 00:0222: 64 0D        	stz	<L6+i_1
   315 00:0224: 64 0F        	stz	<L6+i_1+2
   316                        L10021:
   317 00:0226: A5 0D        	lda	<L6+i_1
   318 00:0228: 85 01        	sta	<R0
   319 00:022A: A5 0F        	lda	<L6+i_1+2
   320 00:022C: 85 03        	sta	<R0+2
   321 00:022E: 06 01        	asl	<R0
   322 00:0230: 26 03        	rol	<R0+2
   323 00:0232: A9 20 00     	lda	#$20
   324 00:0235: 18           	clc
   325 00:0236: 65 18        	adc	<L5+dt_0
   326 00:0238: 85 05        	sta	<R1
   327 00:023A: A9 00 00     	lda	#$0
   328 00:023D: 65 1A        	adc	<L5+dt_0+2
   329 00:023F: 85 07        	sta	<R1+2
   330 00:0241: A5 05        	lda	<R1
   331 00:0243: 18           	clc
   332 00:0244: 65 01        	adc	<R0
   333 00:0246: 85 09        	sta	<R2
   334 00:0248: A5 07        	lda	<R1+2
   335 00:024A: 65 03        	adc	<R0+2
   336 00:024C: 85 0B        	sta	<R2+2
   337 00:024E: A5 0D        	lda	<L6+i_1
   338 00:0250: 87 09        	sta	[<R2]
   339 00:0252: E6 0D        	inc	<L6+i_1
   340 00:0254: D0 02        	bne	L25
   341 00:0256: E6 0F        	inc	<L6+i_1+2
   342                        L25:
  Tue Dec  8 2020 22:45                                                Page 7


   343 00:0258: A5 0F        	lda	<L6+i_1+2
   344 00:025A: 30 CA        	bmi	L10021
   345 00:025C: D0 07        	bne	L10020
   346 00:025E: A5 0D        	lda	<L6+i_1
   347 00:0260: C9 20 00     	cmp	#32
   348 00:0263: 90 C1        	bcc	L10021
   349                        L10020:
   350 00:0265: A9 1D 00     	lda	#$1d
   351 00:0268: A0 60 02     	ldy	#$260
   352 00:026B: 97 18        	sta	[<L5+dt_0],Y
   353 00:026D: A9 00 00     	lda	#$0
   354 00:0270: C8           	iny
   355 00:0271: C8           	iny
   356 00:0272: 97 18        	sta	[<L5+dt_0],Y
   357 00:0274: A5 12        	lda	<L5+2
   358 00:0276: 85 1A        	sta	<L5+2+8
   359 00:0278: A5 11        	lda	<L5+1
   360 00:027A: 85 19        	sta	<L5+1+8
   361 00:027C: 2B           	pld
   362 00:027D: 3B           	tsc
   363 00:027E: 18           	clc
   364 00:027F: 69 18 00     	adc	#L5+8
   365 00:0282: 1B           	tcs
   366 00:0283: 6B           	rtl
   367             00000010   L5	equ	16
   368             0000000D   L6	equ	13
   369                        	ends
   370                        	efunc
   371                        	code
   372                        	func
   373                        ~~tinf_build_tree:
   374                        	longa	on
   375                        	longi	on
   376 00:0284: 3B           	tsc
   377 00:0285: 38           	sec
   378 00:0286: E9 4C 00     	sbc	#L29
   379 00:0289: 1B           	tcs
   380 00:028A: 0B           	phd
   381 00:028B: 5B           	tcd
   382             00000004   t_0	set	4
   383             00000008   lengths_0	set	8
   384             0000000C   num_0	set	12
   385             00000000   offs_1	set	0
   386             00000020   i_1	set	32
   387             00000024   num_codes_1	set	36
   388             00000028   available_1	set	40
   389             0000002C   used_1	set	44
   390 00:028C: A9 20 01     	lda	#$120
   391 00:028F: C5 58        	cmp	<L29+num_0
   392 00:0291: A9 00 00     	lda	#$0
   393 00:0294: E5 5A        	sbc	<L29+num_0+2
   394 00:0296: B0 19        	bcs	L20000
   395 00:0298: F4 00 00     	pea	#^$0
   396 00:029B: F4 00 00     	pea	#<$0
   397 00:029E: F4 77 00     	pea	#<$77
   398 00:02A1: F4 xx xx     	pea	#^L1+11
   399 00:02A4: F4 xx xx     	pea	#<L1+11
   400 00:02A7: F4 xx xx     	pea	#^L1
  Tue Dec  8 2020 22:45                                                Page 8


   401 00:02AA: F4 xx xx     	pea	#<L1
   402 00:02AD: 22 xx xx xx  	jsl	~~__assert_fail
   403                        L20000:
   404 00:02B1: A9 00 00     	lda	#$0
   405 00:02B4: 85 01        	sta	<R0
   406 00:02B6: 64 3D        	stz	<L30+i_1
   407 00:02B8: 64 3F        	stz	<L30+i_1+2
   408                        L10024:
   409 00:02BA: A5 3D        	lda	<L30+i_1
   410 00:02BC: 85 01        	sta	<R0
   411 00:02BE: A5 3F        	lda	<L30+i_1+2
   412 00:02C0: 85 03        	sta	<R0+2
   413 00:02C2: 06 01        	asl	<R0
   414 00:02C4: 26 03        	rol	<R0+2
   415 00:02C6: A5 50        	lda	<L29+t_0
   416 00:02C8: 18           	clc
   417 00:02C9: 65 01        	adc	<R0
   418 00:02CB: 85 05        	sta	<R1
   419 00:02CD: A5 52        	lda	<L29+t_0+2
   420 00:02CF: 65 03        	adc	<R0+2
   421 00:02D1: 85 07        	sta	<R1+2
   422 00:02D3: A9 00 00     	lda	#$0
   423 00:02D6: 87 05        	sta	[<R1]
   424 00:02D8: E6 3D        	inc	<L30+i_1
   425 00:02DA: D0 02        	bne	L34
   426 00:02DC: E6 3F        	inc	<L30+i_1+2
   427                        L34:
   428 00:02DE: A5 3D        	lda	<L30+i_1
   429 00:02E0: C9 10 00     	cmp	#<$10
   430 00:02E3: A5 3F        	lda	<L30+i_1+2
   431 00:02E5: E9 00 00     	sbc	#^$10
   432 00:02E8: 90 D0        	bcc	L10024
   433 00:02EA: A9 FF FF     	lda	#$ffff
   434 00:02ED: A0 60 02     	ldy	#$260
   435 00:02F0: 97 50        	sta	[<L29+t_0],Y
   436 00:02F2: C8           	iny
   437 00:02F3: C8           	iny
   438 00:02F4: 97 50        	sta	[<L29+t_0],Y
   439 00:02F6: 64 3D        	stz	<L30+i_1
   440 00:02F8: 64 3F        	stz	<L30+i_1+2
   441 00:02FA: 82 93 00     	brl	L10028
   442                        L10027:
   443 00:02FD: A5 54        	lda	<L29+lengths_0
   444 00:02FF: 18           	clc
   445 00:0300: 65 3D        	adc	<L30+i_1
   446 00:0302: 85 01        	sta	<R0
   447 00:0304: A5 56        	lda	<L29+lengths_0+2
   448 00:0306: 65 3F        	adc	<L30+i_1+2
   449 00:0308: 85 03        	sta	<R0+2
   450 00:030A: E2 20        	sep	#$20
   451                        	longa	off
   452 00:030C: A9 0F        	lda	#$f
   453 00:030E: C7 01        	cmp	[<R0]
   454 00:0310: C2 20        	rep	#$20
   455                        	longa	on
   456 00:0312: B0 19        	bcs	L20001
   457 00:0314: F4 00 00     	pea	#^$0
   458 00:0317: F4 00 00     	pea	#<$0
  Tue Dec  8 2020 22:45                                                Page 9


   459 00:031A: F4 81 00     	pea	#<$81
   460 00:031D: F4 xx xx     	pea	#^L1+71
   461 00:0320: F4 xx xx     	pea	#<L1+71
   462 00:0323: F4 xx xx     	pea	#^L1+54
   463 00:0326: F4 xx xx     	pea	#<L1+54
   464 00:0329: 22 xx xx xx  	jsl	~~__assert_fail
   465                        L20001:
   466 00:032D: A9 00 00     	lda	#$0
   467 00:0330: 85 01        	sta	<R0
   468 00:0332: A5 54        	lda	<L29+lengths_0
   469 00:0334: 18           	clc
   470 00:0335: 65 3D        	adc	<L30+i_1
   471 00:0337: 85 01        	sta	<R0
   472 00:0339: A5 56        	lda	<L29+lengths_0+2
   473 00:033B: 65 3F        	adc	<L30+i_1+2
   474 00:033D: 85 03        	sta	<R0+2
   475 00:033F: A7 01        	lda	[<R0]
   476 00:0341: 29 FF 00     	and	#$ff
   477 00:0344: F0 44        	beq	L10025
   478 00:0346: A5 3D        	lda	<L30+i_1
   479 00:0348: A0 60 02     	ldy	#$260
   480 00:034B: 97 50        	sta	[<L29+t_0],Y
   481 00:034D: A5 3F        	lda	<L30+i_1+2
   482 00:034F: C8           	iny
   483 00:0350: C8           	iny
   484 00:0351: 97 50        	sta	[<L29+t_0],Y
   485 00:0353: A5 54        	lda	<L29+lengths_0
   486 00:0355: 18           	clc
   487 00:0356: 65 3D        	adc	<L30+i_1
   488 00:0358: 85 05        	sta	<R1
   489 00:035A: A5 56        	lda	<L29+lengths_0+2
   490 00:035C: 65 3F        	adc	<L30+i_1+2
   491 00:035E: 85 07        	sta	<R1+2
   492 00:0360: A7 05        	lda	[<R1]
   493 00:0362: 29 FF 00     	and	#$ff
   494 00:0365: 85 05        	sta	<R1
   495 00:0367: 64 07        	stz	<R1+2
   496 00:0369: D4 07        	pei	<R1+2
   497 00:036B: D4 05        	pei	<R1
   498 00:036D: A9 01 00     	lda	#$1
   499                        	xref	~~~lasl
   500 00:0370: 22 xx xx xx  	jsl	~~~lasl
   501 00:0374: 85 01        	sta	<R0
   502 00:0376: 86 03        	stx	<R0+2
   503 00:0378: A5 50        	lda	<L29+t_0
   504 00:037A: 18           	clc
   505 00:037B: 65 01        	adc	<R0
   506 00:037D: 85 09        	sta	<R2
   507 00:037F: A5 52        	lda	<L29+t_0+2
   508 00:0381: 65 03        	adc	<R0+2
   509 00:0383: 85 0B        	sta	<R2+2
   510 00:0385: A7 09        	lda	[<R2]
   511 00:0387: 1A           	ina
   512 00:0388: 87 09        	sta	[<R2]
   513                        L10025:
   514 00:038A: E6 3D        	inc	<L30+i_1
   515 00:038C: D0 02        	bne	L10028
   516 00:038E: E6 3F        	inc	<L30+i_1+2
  Tue Dec  8 2020 22:45                                                Page 10


   517                        L10028:
   518 00:0390: A5 3D        	lda	<L30+i_1
   519 00:0392: C5 58        	cmp	<L29+num_0
   520 00:0394: A5 3F        	lda	<L30+i_1+2
   521 00:0396: E5 5A        	sbc	<L29+num_0+2
   522 00:0398: B0 03        	bcs	*+5
   523 00:039A: 82 60 FF     	brl	L10027
   524 00:039D: A9 01 00     	lda	#$1
   525 00:03A0: 85 45        	sta	<L30+available_1
   526 00:03A2: 3A           	dea
   527 00:03A3: 85 47        	sta	<L30+available_1+2
   528 00:03A5: 64 41        	stz	<L30+num_codes_1
   529 00:03A7: 64 43        	stz	<L30+num_codes_1+2
   530 00:03A9: 64 3D        	stz	<L30+i_1
   531 00:03AB: 64 3F        	stz	<L30+i_1+2
   532 00:03AD: 82 C3 00     	brl	L10033
   533                        L10032:
   534 00:03B0: A5 3D        	lda	<L30+i_1
   535 00:03B2: 85 01        	sta	<R0
   536 00:03B4: A5 3F        	lda	<L30+i_1+2
   537 00:03B6: 85 03        	sta	<R0+2
   538 00:03B8: 06 01        	asl	<R0
   539 00:03BA: 26 03        	rol	<R0+2
   540 00:03BC: A5 50        	lda	<L29+t_0
   541 00:03BE: 18           	clc
   542 00:03BF: 65 01        	adc	<R0
   543 00:03C1: 85 05        	sta	<R1
   544 00:03C3: A5 52        	lda	<L29+t_0+2
   545 00:03C5: 65 03        	adc	<R0+2
   546 00:03C7: 85 07        	sta	<R1+2
   547 00:03C9: A7 05        	lda	[<R1]
   548 00:03CB: 48           	pha
   549 00:03CC: D4 3F        	pei	<L30+i_1+2
   550 00:03CE: D4 3D        	pei	<L30+i_1
   551 00:03D0: F4 xx xx     	pea	#^L1+114
   552 00:03D3: F4 xx xx     	pea	#<L1+114
   553 00:03D6: F4 0C 00     	pea	#12
   554 00:03D9: 22 xx xx xx  	jsl	~~printf
   555 00:03DD: A5 3D        	lda	<L30+i_1
   556 00:03DF: 85 01        	sta	<R0
   557 00:03E1: A5 3F        	lda	<L30+i_1+2
   558 00:03E3: 85 03        	sta	<R0+2
   559 00:03E5: 06 01        	asl	<R0
   560 00:03E7: 26 03        	rol	<R0+2
   561 00:03E9: A5 50        	lda	<L29+t_0
   562 00:03EB: 18           	clc
   563 00:03EC: 65 01        	adc	<R0
   564 00:03EE: 85 05        	sta	<R1
   565 00:03F0: A5 52        	lda	<L29+t_0+2
   566 00:03F2: 65 03        	adc	<R0+2
   567 00:03F4: 85 07        	sta	<R1+2
   568 00:03F6: A7 05        	lda	[<R1]
   569 00:03F8: 85 49        	sta	<L30+used_1
   570 00:03FA: 64 4B        	stz	<L30+used_1+2
   571 00:03FC: A5 45        	lda	<L30+available_1
   572 00:03FE: C5 49        	cmp	<L30+used_1
   573 00:0400: A5 47        	lda	<L30+available_1+2
   574 00:0402: E5 4B        	sbc	<L30+used_1+2
  Tue Dec  8 2020 22:45                                                Page 11


   575 00:0404: B0 18        	bcs	L10034
   576                        L20004:
   577 00:0406: A9 FF FF     	lda	#$ffff
   578 00:0409: AA           	tax
   579 00:040A: 3A           	dea
   580 00:040B: 3A           	dea
   581                        L43:
   582 00:040C: A8           	tay
   583 00:040D: A5 4E        	lda	<L29+2
   584 00:040F: 85 5A        	sta	<L29+2+12
   585 00:0411: A5 4D        	lda	<L29+1
   586 00:0413: 85 59        	sta	<L29+1+12
   587 00:0415: 2B           	pld
   588 00:0416: 3B           	tsc
   589 00:0417: 18           	clc
   590 00:0418: 69 58 00     	adc	#L29+12
   591 00:041B: 1B           	tcs
   592 00:041C: 98           	tya
   593 00:041D: 6B           	rtl
   594                        L10034:
   595 00:041E: 38           	sec
   596 00:041F: A5 45        	lda	<L30+available_1
   597 00:0421: E5 49        	sbc	<L30+used_1
   598 00:0423: 85 01        	sta	<R0
   599 00:0425: A5 47        	lda	<L30+available_1+2
   600 00:0427: E5 4B        	sbc	<L30+used_1+2
   601 00:0429: 48           	pha
   602 00:042A: D4 01        	pei	<R0
   603 00:042C: A9 01 00     	lda	#$1
   604                        	xref	~~~lasl
   605 00:042F: 22 xx xx xx  	jsl	~~~lasl
   606 00:0433: 85 45        	sta	<L30+available_1
   607 00:0435: 86 47        	stx	<L30+available_1+2
   608 00:0437: A5 3D        	lda	<L30+i_1
   609 00:0439: 85 01        	sta	<R0
   610 00:043B: A5 3F        	lda	<L30+i_1+2
   611 00:043D: 85 03        	sta	<R0+2
   612 00:043F: 06 01        	asl	<R0
   613 00:0441: 26 03        	rol	<R0+2
   614 00:0443: 18           	clc
   615 00:0444: 7B           	tdc
   616 00:0445: 69 1D 00     	adc	#<L30+offs_1
   617 00:0448: 85 05        	sta	<R1
   618 00:044A: A9 00 00     	lda	#$0
   619 00:044D: 85 07        	sta	<R1+2
   620 00:044F: A5 05        	lda	<R1
   621 00:0451: 18           	clc
   622 00:0452: 65 01        	adc	<R0
   623 00:0454: 85 09        	sta	<R2
   624 00:0456: A5 07        	lda	<R1+2
   625 00:0458: 65 03        	adc	<R0+2
   626 00:045A: 85 0B        	sta	<R2+2
   627 00:045C: A5 41        	lda	<L30+num_codes_1
   628 00:045E: 87 09        	sta	[<R2]
   629 00:0460: A5 41        	lda	<L30+num_codes_1
   630 00:0462: 18           	clc
   631 00:0463: 65 49        	adc	<L30+used_1
   632 00:0465: 85 41        	sta	<L30+num_codes_1
  Tue Dec  8 2020 22:45                                                Page 12


   633 00:0467: A5 43        	lda	<L30+num_codes_1+2
   634 00:0469: 65 4B        	adc	<L30+used_1+2
   635 00:046B: 85 43        	sta	<L30+num_codes_1+2
   636 00:046D: E6 3D        	inc	<L30+i_1
   637 00:046F: D0 02        	bne	L10033
   638 00:0471: E6 3F        	inc	<L30+i_1+2
   639                        L10033:
   640 00:0473: A5 3D        	lda	<L30+i_1
   641 00:0475: C9 10 00     	cmp	#<$10
   642 00:0478: A5 3F        	lda	<L30+i_1+2
   643 00:047A: E9 00 00     	sbc	#^$10
   644 00:047D: B0 03        	bcs	*+5
   645 00:047F: 82 2E FF     	brl	L10032
   646 00:0482: A9 01 00     	lda	#$1
   647 00:0485: C5 41        	cmp	<L30+num_codes_1
   648 00:0487: 3A           	dea
   649 00:0488: E5 43        	sbc	<L30+num_codes_1+2
   650 00:048A: B0 0C        	bcs	L47
   651 00:048C: A9 00 00     	lda	#$0
   652 00:048F: C5 45        	cmp	<L30+available_1
   653 00:0491: E5 47        	sbc	<L30+available_1+2
   654 00:0493: B0 03        	bcs	*+5
   655 00:0495: 82 6E FF     	brl	L20004
   656                        L47:
   657 00:0498: A5 41        	lda	<L30+num_codes_1
   658 00:049A: C9 01 00     	cmp	#<$1
   659 00:049D: D0 05        	bne	L50
   660 00:049F: A5 43        	lda	<L30+num_codes_1+2
   661 00:04A1: C9 00 00     	cmp	#^$1
   662                        L50:
   663 00:04A4: D0 0D        	bne	L10035
   664 00:04A6: A0 02 00     	ldy	#$2
   665 00:04A9: B7 50        	lda	[<L29+t_0],Y
   666 00:04AB: C9 01 00     	cmp	#<$1
   667 00:04AE: F0 03        	beq	*+5
   668 00:04B0: 82 53 FF     	brl	L20004
   669                        L10035:
   670 00:04B3: 64 3D        	stz	<L30+i_1
   671 00:04B5: 64 3F        	stz	<L30+i_1+2
   672 00:04B7: 82 D3 00     	brl	L10039
   673                        L10038:
   674 00:04BA: A5 54        	lda	<L29+lengths_0
   675 00:04BC: 18           	clc
   676 00:04BD: 65 3D        	adc	<L30+i_1
   677 00:04BF: 85 01        	sta	<R0
   678 00:04C1: A5 56        	lda	<L29+lengths_0+2
   679 00:04C3: 65 3F        	adc	<L30+i_1+2
   680 00:04C5: 85 03        	sta	<R0+2
   681 00:04C7: A7 01        	lda	[<R0]
   682 00:04C9: 29 FF 00     	and	#$ff
   683 00:04CC: D0 03        	bne	*+5
   684 00:04CE: 82 B6 00     	brl	L10036
   685 00:04D1: A5 54        	lda	<L29+lengths_0
   686 00:04D3: 18           	clc
   687 00:04D4: 65 3D        	adc	<L30+i_1
   688 00:04D6: 85 09        	sta	<R2
   689 00:04D8: A5 56        	lda	<L29+lengths_0+2
   690 00:04DA: 65 3F        	adc	<L30+i_1+2
  Tue Dec  8 2020 22:45                                                Page 13


   691 00:04DC: 85 0B        	sta	<R2+2
   692 00:04DE: A7 09        	lda	[<R2]
   693 00:04E0: 29 FF 00     	and	#$ff
   694 00:04E3: 85 09        	sta	<R2
   695 00:04E5: 64 0B        	stz	<R2+2
   696 00:04E7: D4 0B        	pei	<R2+2
   697 00:04E9: D4 09        	pei	<R2
   698 00:04EB: A9 01 00     	lda	#$1
   699                        	xref	~~~lasl
   700 00:04EE: 22 xx xx xx  	jsl	~~~lasl
   701 00:04F2: 85 05        	sta	<R1
   702 00:04F4: 86 07        	stx	<R1+2
   703 00:04F6: 18           	clc
   704 00:04F7: 7B           	tdc
   705 00:04F8: 69 1D 00     	adc	#<L30+offs_1
   706 00:04FB: 85 0D        	sta	<R3
   707 00:04FD: A9 00 00     	lda	#$0
   708 00:0500: 85 0F        	sta	<R3+2
   709 00:0502: A5 0D        	lda	<R3
   710 00:0504: 18           	clc
   711 00:0505: 65 05        	adc	<R1
   712 00:0507: 85 11        	sta	<17
   713 00:0509: A5 0F        	lda	<R3+2
   714 00:050B: 65 07        	adc	<R1+2
   715 00:050D: 85 13        	sta	<17+2
   716 00:050F: A7 11        	lda	[<17]
   717 00:0511: 85 05        	sta	<R1
   718 00:0513: 64 07        	stz	<R1+2
   719 00:0515: D4 07        	pei	<R1+2
   720 00:0517: D4 05        	pei	<R1
   721 00:0519: A9 01 00     	lda	#$1
   722                        	xref	~~~lasl
   723 00:051C: 22 xx xx xx  	jsl	~~~lasl
   724 00:0520: 85 01        	sta	<R0
   725 00:0522: 86 03        	stx	<R0+2
   726 00:0524: A9 20 00     	lda	#$20
   727 00:0527: 18           	clc
   728 00:0528: 65 50        	adc	<L29+t_0
   729 00:052A: 85 0D        	sta	<R3
   730 00:052C: A9 00 00     	lda	#$0
   731 00:052F: 65 52        	adc	<L29+t_0+2
   732 00:0531: 85 0F        	sta	<R3+2
   733 00:0533: A5 0D        	lda	<R3
   734 00:0535: 18           	clc
   735 00:0536: 65 01        	adc	<R0
   736 00:0538: 85 11        	sta	<17
   737 00:053A: A5 0F        	lda	<R3+2
   738 00:053C: 65 03        	adc	<R0+2
   739 00:053E: 85 13        	sta	<17+2
   740 00:0540: A5 3D        	lda	<L30+i_1
   741 00:0542: 87 11        	sta	[<17]
   742 00:0544: A5 54        	lda	<L29+lengths_0
   743 00:0546: 18           	clc
   744 00:0547: 65 3D        	adc	<L30+i_1
   745 00:0549: 85 0D        	sta	<R3
   746 00:054B: A5 56        	lda	<L29+lengths_0+2
   747 00:054D: 65 3F        	adc	<L30+i_1+2
   748 00:054F: 85 0F        	sta	<R3+2
  Tue Dec  8 2020 22:45                                                Page 14


   749 00:0551: A7 0D        	lda	[<R3]
   750 00:0553: 29 FF 00     	and	#$ff
   751 00:0556: 85 0D        	sta	<R3
   752 00:0558: 64 0F        	stz	<R3+2
   753 00:055A: D4 0F        	pei	<R3+2
   754 00:055C: D4 0D        	pei	<R3
   755 00:055E: A9 01 00     	lda	#$1
   756                        	xref	~~~lasl
   757 00:0561: 22 xx xx xx  	jsl	~~~lasl
   758 00:0565: 85 01        	sta	<R0
   759 00:0567: 86 03        	stx	<R0+2
   760 00:0569: 18           	clc
   761 00:056A: 7B           	tdc
   762 00:056B: 69 1D 00     	adc	#<L30+offs_1
   763 00:056E: 85 15        	sta	<21
   764 00:0570: A9 00 00     	lda	#$0
   765 00:0573: 85 17        	sta	<21+2
   766 00:0575: A5 15        	lda	<21
   767 00:0577: 18           	clc
   768 00:0578: 65 01        	adc	<R0
   769 00:057A: 85 19        	sta	<25
   770 00:057C: A5 17        	lda	<21+2
   771 00:057E: 65 03        	adc	<R0+2
   772 00:0580: 85 1B        	sta	<25+2
   773 00:0582: A7 19        	lda	[<25]
   774 00:0584: 1A           	ina
   775 00:0585: 87 19        	sta	[<25]
   776                        L10036:
   777 00:0587: E6 3D        	inc	<L30+i_1
   778 00:0589: D0 02        	bne	L10039
   779 00:058B: E6 3F        	inc	<L30+i_1+2
   780                        L10039:
   781 00:058D: A5 3D        	lda	<L30+i_1
   782 00:058F: C5 58        	cmp	<L29+num_0
   783 00:0591: A5 3F        	lda	<L30+i_1+2
   784 00:0593: E5 5A        	sbc	<L29+num_0+2
   785 00:0595: B0 03        	bcs	*+5
   786 00:0597: 82 20 FF     	brl	L10038
   787 00:059A: A5 41        	lda	<L30+num_codes_1
   788 00:059C: C9 01 00     	cmp	#<$1
   789 00:059F: D0 05        	bne	L56
   790 00:05A1: A5 43        	lda	<L30+num_codes_1+2
   791 00:05A3: C9 00 00     	cmp	#^$1
   792                        L56:
   793 00:05A6: D0 1F        	bne	L10041
   794 00:05A8: A9 02 00     	lda	#$2
   795 00:05AB: A8           	tay
   796 00:05AC: 97 50        	sta	[<L29+t_0],Y
   797 00:05AE: 18           	clc
   798 00:05AF: 3A           	dea
   799 00:05B0: A0 60 02     	ldy	#$260
   800 00:05B3: 77 50        	adc	[<L29+t_0],Y
   801 00:05B5: 85 01        	sta	<R0
   802 00:05B7: A9 00 00     	lda	#$0
   803 00:05BA: C8           	iny
   804 00:05BB: C8           	iny
   805 00:05BC: 77 50        	adc	[<L29+t_0],Y
   806 00:05BE: 85 03        	sta	<R0+2
  Tue Dec  8 2020 22:45                                                Page 15


   807 00:05C0: A5 01        	lda	<R0
   808 00:05C2: A0 22 00     	ldy	#$22
   809 00:05C5: 97 50        	sta	[<L29+t_0],Y
   810                        L10041:
   811 00:05C7: A9 00 00     	lda	#$0
   812 00:05CA: AA           	tax
   813 00:05CB: 82 3E FE     	brl	L43
   814             0000004C   L29	equ	76
   815             0000001D   L30	equ	29
   816                        	ends
   817                        	efunc
   818                        	data
   819                        L1:
   820 00:0000: 6E 75 6D 20  	db	$6E,$75,$6D,$20,$3C,$3D,$20,$32,$38,$38,
                    $00,$43,$3A,$5C,$61
       00:0004: 3C 3D 20 32 
       00:0008: 38 38 00 43 
       00:000C: 3A 5C 61 
   821 00:000F: 74 61 72 69  	db	$74,$61,$72,$69,$67,$69,$74,$5C,$4D,$79,
                    $36,$35,$30,$32,$5C
       00:0013: 67 69 74 5C 
       00:0017: 4D 79 36 35 
       00:001B: 30 32 5C 
   822 00:001E: 62 75 69 6C  	db	$62,$75,$69,$6C,$64,$5C,$2E,$2E,$5C,$73,
                    $72,$63,$5C,$74,$69
       00:0022: 64 5C 2E 2E 
       00:0026: 5C 73 72 63 
       00:002A: 5C 74 69 
   823 00:002D: 6E 66 6C 61  	db	$6E,$66,$6C,$61,$74,$65,$2E,$63,$00,$6C,
                    $65,$6E,$67,$74,$68
       00:0031: 74 65 2E 63 
       00:0035: 00 6C 65 6E 
       00:0039: 67 74 68 
   824 00:003C: 73 5B 69 5D  	db	$73,$5B,$69,$5D,$20,$3C,$3D,$20,$31,$35,
                    $00,$43,$3A,$5C,$61
       00:0040: 20 3C 3D 20 
       00:0044: 31 35 00 43 
       00:0048: 3A 5C 61 
   825 00:004B: 74 61 72 69  	db	$74,$61,$72,$69,$67,$69,$74,$5C,$4D,$79,
                    $36,$35,$30,$32,$5C
       00:004F: 67 69 74 5C 
       00:0053: 4D 79 36 35 
       00:0057: 30 32 5C 
   826 00:005A: 62 75 69 6C  	db	$62,$75,$69,$6C,$64,$5C,$2E,$2E,$5C,$73,
                    $72,$63,$5C,$74,$69
       00:005E: 64 5C 2E 2E 
       00:0062: 5C 73 72 63 
       00:0066: 5C 74 69 
   827 00:0069: 6E 66 6C 61  	db	$6E,$66,$6C,$61,$74,$65,$2E,$63,$00,$63,
                    $25,$64,$3A,$25,$64
       00:006D: 74 65 2E 63 
       00:0071: 00 63 25 64 
       00:0075: 3A 25 64 
   828 00:0078: 20 00        	db	$20,$00
   829 00:007A:              	ends
   830                        	code
   831                        	func
   832                        ~~tinf_refill:
  Tue Dec  8 2020 22:45                                                Page 16


   833                        	longa	on
   834                        	longi	on
   835 00:05CE: 3B           	tsc
   836 00:05CF: 38           	sec
   837 00:05D0: E9 0C 00     	sbc	#L59
   838 00:05D3: 1B           	tcs
   839 00:05D4: 0B           	phd
   840 00:05D5: 5B           	tcd
   841             00000004   d_0	set	4
   842             00000008   num_0	set	8
   843 00:05D6: A5 16        	lda	<L59+num_0+2
   844 00:05D8: 30 12        	bmi	L61
   845 00:05DA: 38           	sec
   846 00:05DB: A9 20 00     	lda	#$20
   847 00:05DE: E5 14        	sbc	<L59+num_0
   848 00:05E0: A9 00 00     	lda	#$0
   849 00:05E3: E5 16        	sbc	<L59+num_0+2
   850 00:05E5: 70 03        	bvs	L63
   851 00:05E7: 49 00 80     	eor	#$8000
   852                        L63:
   853 00:05EA: 30 19        	bmi	L20005
   854                        L61:
   855 00:05EC: F4 00 00     	pea	#^$0
   856 00:05EF: F4 00 00     	pea	#<$0
   857 00:05F2: F4 B8 00     	pea	#<$b8
   858 00:05F5: F4 xx xx     	pea	#^L58+22
   859 00:05F8: F4 xx xx     	pea	#<L58+22
   860 00:05FB: F4 xx xx     	pea	#^L58
   861 00:05FE: F4 xx xx     	pea	#<L58
   862 00:0601: 22 xx xx xx  	jsl	~~__assert_fail
   863                        L20005:
   864 00:0605: A9 00 00     	lda	#$0
   865 00:0608: 85 01        	sta	<R0
   866 00:060A: 82 96 00     	brl	L10042
   867                        L20007:
   868 00:060D: A7 10        	lda	[<L59+d_0]
   869 00:060F: A0 04 00     	ldy	#$4
   870 00:0612: D7 10        	cmp	[<L59+d_0],Y
   871 00:0614: D0 09        	bne	L68
   872 00:0616: 88           	dey
   873 00:0617: 88           	dey
   874 00:0618: B7 10        	lda	[<L59+d_0],Y
   875 00:061A: A0 06 00     	ldy	#$6
   876 00:061D: D7 10        	cmp	[<L59+d_0],Y
   877                        L68:
   878 00:061F: F0 54        	beq	L10044
   879 00:0621: A7 10        	lda	[<L59+d_0]
   880 00:0623: 85 05        	sta	<R1
   881 00:0625: A0 02 00     	ldy	#$2
   882 00:0628: B7 10        	lda	[<L59+d_0],Y
   883 00:062A: 85 07        	sta	<R1+2
   884 00:062C: A9 01 00     	lda	#$1
   885 00:062F: 18           	clc
   886 00:0630: 67 10        	adc	[<L59+d_0]
   887 00:0632: 87 10        	sta	[<L59+d_0]
   888 00:0634: A9 00 00     	lda	#$0
   889 00:0637: 77 10        	adc	[<L59+d_0],Y
   890 00:0639: 97 10        	sta	[<L59+d_0],Y
  Tue Dec  8 2020 22:45                                                Page 17


   891 00:063B: A7 05        	lda	[<R1]
   892 00:063D: 29 FF 00     	and	#$ff
   893 00:0640: 85 05        	sta	<R1
   894 00:0642: 64 07        	stz	<R1+2
   895 00:0644: D4 07        	pei	<R1+2
   896 00:0646: D4 05        	pei	<R1
   897 00:0648: A0 0C 00     	ldy	#$c
   898 00:064B: B7 10        	lda	[<L59+d_0],Y
   899                        	xref	~~~lasl
   900 00:064D: 22 xx xx xx  	jsl	~~~lasl
   901 00:0651: 85 01        	sta	<R0
   902 00:0653: 86 03        	stx	<R0+2
   903 00:0655: A9 08 00     	lda	#$8
   904 00:0658: 18           	clc
   905 00:0659: 65 10        	adc	<L59+d_0
   906 00:065B: 85 09        	sta	<R2
   907 00:065D: A9 00 00     	lda	#$0
   908 00:0660: 65 12        	adc	<L59+d_0+2
   909 00:0662: 85 0B        	sta	<R2+2
   910 00:0664: A7 09        	lda	[<R2]
   911 00:0666: 05 01        	ora	<R0
   912 00:0668: 87 09        	sta	[<R2]
   913 00:066A: A0 02 00     	ldy	#$2
   914 00:066D: B7 09        	lda	[<R2],Y
   915 00:066F: 05 03        	ora	<R0+2
   916 00:0671: 97 09        	sta	[<R2],Y
   917 00:0673: 80 0D        	bra	L10045
   918                        L10044:
   919 00:0675: A9 01 00     	lda	#$1
   920 00:0678: A0 10 00     	ldy	#$10
   921 00:067B: 97 10        	sta	[<L59+d_0],Y
   922 00:067D: 3A           	dea
   923 00:067E: C8           	iny
   924 00:067F: C8           	iny
   925 00:0680: 97 10        	sta	[<L59+d_0],Y
   926                        L10045:
   927 00:0682: A9 0C 00     	lda	#$c
   928 00:0685: 18           	clc
   929 00:0686: 65 10        	adc	<L59+d_0
   930 00:0688: 85 01        	sta	<R0
   931 00:068A: A9 00 00     	lda	#$0
   932 00:068D: 65 12        	adc	<L59+d_0+2
   933 00:068F: 85 03        	sta	<R0+2
   934 00:0691: A9 08 00     	lda	#$8
   935 00:0694: 18           	clc
   936 00:0695: 67 01        	adc	[<R0]
   937 00:0697: 87 01        	sta	[<R0]
   938 00:0699: A9 00 00     	lda	#$0
   939 00:069C: A0 02 00     	ldy	#$2
   940 00:069F: 77 01        	adc	[<R0],Y
   941 00:06A1: 97 01        	sta	[<R0],Y
   942                        L10042:
   943 00:06A3: 38           	sec
   944 00:06A4: A0 0C 00     	ldy	#$c
   945 00:06A7: B7 10        	lda	[<L59+d_0],Y
   946 00:06A9: E5 14        	sbc	<L59+num_0
   947 00:06AB: C8           	iny
   948 00:06AC: C8           	iny
  Tue Dec  8 2020 22:45                                                Page 18


   949 00:06AD: B7 10        	lda	[<L59+d_0],Y
   950 00:06AF: E5 16        	sbc	<L59+num_0+2
   951 00:06B1: 70 03        	bvs	L66
   952 00:06B3: 49 00 80     	eor	#$8000
   953                        L66:
   954 00:06B6: 30 03        	bmi	*+5
   955 00:06B8: 82 52 FF     	brl	L20007
   956 00:06BB: 38           	sec
   957 00:06BC: A9 20 00     	lda	#$20
   958 00:06BF: A0 0C 00     	ldy	#$c
   959 00:06C2: F7 10        	sbc	[<L59+d_0],Y
   960 00:06C4: A9 00 00     	lda	#$0
   961 00:06C7: C8           	iny
   962 00:06C8: C8           	iny
   963 00:06C9: F7 10        	sbc	[<L59+d_0],Y
   964 00:06CB: 70 03        	bvs	L71
   965 00:06CD: 49 00 80     	eor	#$8000
   966                        L71:
   967 00:06D0: 30 19        	bmi	L20008
   968 00:06D2: F4 00 00     	pea	#^$0
   969 00:06D5: F4 00 00     	pea	#<$0
   970 00:06D8: F4 C5 00     	pea	#<$c5
   971 00:06DB: F4 xx xx     	pea	#^L58+83
   972 00:06DE: F4 xx xx     	pea	#<L58+83
   973 00:06E1: F4 xx xx     	pea	#^L58+65
   974 00:06E4: F4 xx xx     	pea	#<L58+65
   975 00:06E7: 22 xx xx xx  	jsl	~~__assert_fail
   976                        L20008:
   977 00:06EB: A9 00 00     	lda	#$0
   978 00:06EE: 85 01        	sta	<R0
   979 00:06F0: A5 0E        	lda	<L59+2
   980 00:06F2: 85 16        	sta	<L59+2+8
   981 00:06F4: A5 0D        	lda	<L59+1
   982 00:06F6: 85 15        	sta	<L59+1+8
   983 00:06F8: 2B           	pld
   984 00:06F9: 3B           	tsc
   985 00:06FA: 18           	clc
   986 00:06FB: 69 14 00     	adc	#L59+8
   987 00:06FE: 1B           	tcs
   988 00:06FF: 6B           	rtl
   989             0000000C   L59	equ	12
   990             0000000D   L60	equ	13
   991                        	ends
   992                        	efunc
   993                        	data
   994                        L58:
   995 00:007A: 6E 75 6D 20  	db	$6E,$75,$6D,$20,$3E,$3D,$20,$30,$20,$26,
                    $26,$20,$6E,$75,$6D
       00:007E: 3E 3D 20 30 
       00:0082: 20 26 26 20 
       00:0086: 6E 75 6D 
   996 00:0089: 20 3C 3D 20  	db	$20,$3C,$3D,$20,$33,$32,$00,$43,$3A,$5C,
                    $61,$74,$61,$72,$69
       00:008D: 33 32 00 43 
       00:0091: 3A 5C 61 74 
       00:0095: 61 72 69 
   997 00:0098: 67 69 74 5C  	db	$67,$69,$74,$5C,$4D,$79,$36,$35,$30,$32,
                    $5C,$62,$75,$69,$6C
  Tue Dec  8 2020 22:45                                                Page 19


       00:009C: 4D 79 36 35 
       00:00A0: 30 32 5C 62 
       00:00A4: 75 69 6C 
   998 00:00A7: 64 5C 2E 2E  	db	$64,$5C,$2E,$2E,$5C,$73,$72,$63,$5C,$74,
                    $69,$6E,$66,$6C,$61
       00:00AB: 5C 73 72 63 
       00:00AF: 5C 74 69 6E 
       00:00B3: 66 6C 61 
   999 00:00B6: 74 65 2E 63  	db	$74,$65,$2E,$63,$00,$64,$2D,$3E,$62,$69,
                    $74,$63,$6F,$75,$6E
       00:00BA: 00 64 2D 3E 
       00:00BE: 62 69 74 63 
       00:00C2: 6F 75 6E 
  1000 00:00C5: 74 20 3C 3D  	db	$74,$20,$3C,$3D,$20,$33,$32,$00,$43,$3A,
                    $5C,$61,$74,$61,$72
       00:00C9: 20 33 32 00 
       00:00CD: 43 3A 5C 61 
       00:00D1: 74 61 72 
  1001 00:00D4: 69 67 69 74  	db	$69,$67,$69,$74,$5C,$4D,$79,$36,$35,$30,
                    $32,$5C,$62,$75,$69
       00:00D8: 5C 4D 79 36 
       00:00DC: 35 30 32 5C 
       00:00E0: 62 75 69 
  1002 00:00E3: 6C 64 5C 2E  	db	$6C,$64,$5C,$2E,$2E,$5C,$73,$72,$63,$5C,
                    $74,$69,$6E,$66,$6C
       00:00E7: 2E 5C 73 72 
       00:00EB: 63 5C 74 69 
       00:00EF: 6E 66 6C 
  1003 00:00F2: 61 74 65 2E  	db	$61,$74,$65,$2E,$63,$00
       00:00F6: 63 00 
  1004 00:00F8:              	ends
  1005                        	code
  1006                        	func
  1007                        ~~tinf_getbits_no_refill:
  1008                        	longa	on
  1009                        	longi	on
  1010 00:0700: 3B           	tsc
  1011 00:0701: 38           	sec
  1012 00:0702: E9 0C 00     	sbc	#L76
  1013 00:0705: 1B           	tcs
  1014 00:0706: 0B           	phd
  1015 00:0707: 5B           	tcd
  1016             00000004   d_0	set	4
  1017             00000008   num_0	set	8
  1018             00000000   bits_1	set	0
  1019 00:0708: A5 16        	lda	<L76+num_0+2
  1020 00:070A: 30 15        	bmi	L78
  1021 00:070C: 38           	sec
  1022 00:070D: A0 0C 00     	ldy	#$c
  1023 00:0710: B7 10        	lda	[<L76+d_0],Y
  1024 00:0712: E5 14        	sbc	<L76+num_0
  1025 00:0714: C8           	iny
  1026 00:0715: C8           	iny
  1027 00:0716: B7 10        	lda	[<L76+d_0],Y
  1028 00:0718: E5 16        	sbc	<L76+num_0+2
  1029 00:071A: 70 03        	bvs	L80
  1030 00:071C: 49 00 80     	eor	#$8000
  1031                        L80:
  Tue Dec  8 2020 22:45                                                Page 20


  1032 00:071F: 30 19        	bmi	L20009
  1033                        L78:
  1034 00:0721: F4 00 00     	pea	#^$0
  1035 00:0724: F4 00 00     	pea	#<$0
  1036 00:0727: F4 CC 00     	pea	#<$cc
  1037 00:072A: F4 xx xx     	pea	#^L75+31
  1038 00:072D: F4 xx xx     	pea	#<L75+31
  1039 00:0730: F4 xx xx     	pea	#^L75
  1040 00:0733: F4 xx xx     	pea	#<L75
  1041 00:0736: 22 xx xx xx  	jsl	~~__assert_fail
  1042                        L20009:
  1043 00:073A: A9 00 00     	lda	#$0
  1044 00:073D: 85 01        	sta	<R0
  1045 00:073F: F4 00 00     	pea	#^$1
  1046 00:0742: F4 01 00     	pea	#<$1
  1047 00:0745: A5 14        	lda	<L76+num_0
  1048                        	xref	~~~lasl
  1049 00:0747: 22 xx xx xx  	jsl	~~~lasl
  1050 00:074B: 85 01        	sta	<R0
  1051 00:074D: 86 03        	stx	<R0+2
  1052 00:074F: A9 FF FF     	lda	#$ffff
  1053 00:0752: 18           	clc
  1054 00:0753: 65 01        	adc	<R0
  1055 00:0755: 85 05        	sta	<R1
  1056 00:0757: A9 FF FF     	lda	#$ffff
  1057 00:075A: 65 03        	adc	<R0+2
  1058 00:075C: 85 07        	sta	<R1+2
  1059 00:075E: A0 08 00     	ldy	#$8
  1060 00:0761: B7 10        	lda	[<L76+d_0],Y
  1061 00:0763: 25 05        	and	<R1
  1062 00:0765: 85 09        	sta	<L77+bits_1
  1063 00:0767: C8           	iny
  1064 00:0768: C8           	iny
  1065 00:0769: B7 10        	lda	[<L76+d_0],Y
  1066 00:076B: 25 07        	and	<R1+2
  1067 00:076D: 85 0B        	sta	<L77+bits_1+2
  1068 00:076F: A9 08 00     	lda	#$8
  1069 00:0772: 18           	clc
  1070 00:0773: 65 10        	adc	<L76+d_0
  1071 00:0775: 85 01        	sta	<R0
  1072 00:0777: A9 00 00     	lda	#$0
  1073 00:077A: 65 12        	adc	<L76+d_0+2
  1074 00:077C: 85 03        	sta	<R0+2
  1075 00:077E: A0 02 00     	ldy	#$2
  1076 00:0781: B7 01        	lda	[<R0],Y
  1077 00:0783: 48           	pha
  1078 00:0784: A7 01        	lda	[<R0]
  1079 00:0786: 48           	pha
  1080 00:0787: A5 14        	lda	<L76+num_0
  1081                        	xref	~~~llsr
  1082 00:0789: 22 xx xx xx  	jsl	~~~llsr
  1083 00:078D: 87 01        	sta	[<R0]
  1084 00:078F: 8A           	txa
  1085 00:0790: A0 02 00     	ldy	#$2
  1086 00:0793: 97 01        	sta	[<R0],Y
  1087 00:0795: A9 0C 00     	lda	#$c
  1088 00:0798: 18           	clc
  1089 00:0799: 65 10        	adc	<L76+d_0
  Tue Dec  8 2020 22:45                                                Page 21


  1090 00:079B: 85 01        	sta	<R0
  1091 00:079D: A9 00 00     	lda	#$0
  1092 00:07A0: 65 12        	adc	<L76+d_0+2
  1093 00:07A2: 85 03        	sta	<R0+2
  1094 00:07A4: 38           	sec
  1095 00:07A5: A7 01        	lda	[<R0]
  1096 00:07A7: E5 14        	sbc	<L76+num_0
  1097 00:07A9: 87 01        	sta	[<R0]
  1098 00:07AB: B7 01        	lda	[<R0],Y
  1099 00:07AD: E5 16        	sbc	<L76+num_0+2
  1100 00:07AF: 97 01        	sta	[<R0],Y
  1101 00:07B1: A6 0B        	ldx	<L77+bits_1+2
  1102 00:07B3: A5 09        	lda	<L77+bits_1
  1103 00:07B5: A8           	tay
  1104 00:07B6: A5 0E        	lda	<L76+2
  1105 00:07B8: 85 16        	sta	<L76+2+8
  1106 00:07BA: A5 0D        	lda	<L76+1
  1107 00:07BC: 85 15        	sta	<L76+1+8
  1108 00:07BE: 2B           	pld
  1109 00:07BF: 3B           	tsc
  1110 00:07C0: 18           	clc
  1111 00:07C1: 69 14 00     	adc	#L76+8
  1112 00:07C4: 1B           	tcs
  1113 00:07C5: 98           	tya
  1114 00:07C6: 6B           	rtl
  1115             0000000C   L76	equ	12
  1116             00000009   L77	equ	9
  1117                        	ends
  1118                        	efunc
  1119                        	data
  1120                        L75:
  1121 00:00F8: 6E 75 6D 20  	db	$6E,$75,$6D,$20,$3E,$3D,$20,$30,$20,$26,
                    $26,$20,$6E,$75,$6D
       00:00FC: 3E 3D 20 30 
       00:0100: 20 26 26 20 
       00:0104: 6E 75 6D 
  1122 00:0107: 20 3C 3D 20  	db	$20,$3C,$3D,$20,$64,$2D,$3E,$62,$69,$74,
                    $63,$6F,$75,$6E,$74
       00:010B: 64 2D 3E 62 
       00:010F: 69 74 63 6F 
       00:0113: 75 6E 74 
  1123 00:0116: 00 43 3A 5C  	db	$00,$43,$3A,$5C,$61,$74,$61,$72,$69,$67,
                    $69,$74,$5C,$4D,$79
       00:011A: 61 74 61 72 
       00:011E: 69 67 69 74 
       00:0122: 5C 4D 79 
  1124 00:0125: 36 35 30 32  	db	$36,$35,$30,$32,$5C,$62,$75,$69,$6C,$64,
                    $5C,$2E,$2E,$5C,$73
       00:0129: 5C 62 75 69 
       00:012D: 6C 64 5C 2E 
       00:0131: 2E 5C 73 
  1125 00:0134: 72 63 5C 74  	db	$72,$63,$5C,$74,$69,$6E,$66,$6C,$61,$74,
                    $65,$2E,$63,$00
       00:0138: 69 6E 66 6C 
       00:013C: 61 74 65 2E 
       00:0140: 63 00 
  1126 00:0142:              	ends
  1127                        	code
  Tue Dec  8 2020 22:45                                                Page 22


  1128                        	func
  1129                        ~~tinf_getbits:
  1130                        	longa	on
  1131                        	longi	on
  1132 00:07C7: 3B           	tsc
  1133 00:07C8: 38           	sec
  1134 00:07C9: E9 04 00     	sbc	#L85
  1135 00:07CC: 1B           	tcs
  1136 00:07CD: 0B           	phd
  1137 00:07CE: 5B           	tcd
  1138             00000004   d_0	set	4
  1139             00000008   num_0	set	8
  1140 00:07CF: D4 0E        	pei	<L85+num_0+2
  1141 00:07D1: D4 0C        	pei	<L85+num_0
  1142 00:07D3: D4 0A        	pei	<L85+d_0+2
  1143 00:07D5: D4 08        	pei	<L85+d_0
  1144 00:07D7: 22 xx xx xx  	jsl	~~tinf_refill
  1145 00:07DB: D4 0E        	pei	<L85+num_0+2
  1146 00:07DD: D4 0C        	pei	<L85+num_0
  1147 00:07DF: D4 0A        	pei	<L85+d_0+2
  1148 00:07E1: D4 08        	pei	<L85+d_0
  1149 00:07E3: 22 xx xx xx  	jsl	~~tinf_getbits_no_refill
  1150 00:07E7: 85 01        	sta	<R0
  1151 00:07E9: 86 03        	stx	<R0+2
  1152 00:07EB: A6 03        	ldx	<R0+2
  1153 00:07ED: A5 01        	lda	<R0
  1154 00:07EF: A8           	tay
  1155 00:07F0: A5 06        	lda	<L85+2
  1156 00:07F2: 85 0E        	sta	<L85+2+8
  1157 00:07F4: A5 05        	lda	<L85+1
  1158 00:07F6: 85 0D        	sta	<L85+1+8
  1159 00:07F8: 2B           	pld
  1160 00:07F9: 3B           	tsc
  1161 00:07FA: 18           	clc
  1162 00:07FB: 69 0C 00     	adc	#L85+8
  1163 00:07FE: 1B           	tcs
  1164 00:07FF: 98           	tya
  1165 00:0800: 6B           	rtl
  1166             00000004   L85	equ	4
  1167             00000005   L86	equ	5
  1168                        	ends
  1169                        	efunc
  1170                        	code
  1171                        	func
  1172                        ~~tinf_getbits_base:
  1173                        	longa	on
  1174                        	longi	on
  1175 00:0801: 3B           	tsc
  1176 00:0802: 38           	sec
  1177 00:0803: E9 08 00     	sbc	#L88
  1178 00:0806: 1B           	tcs
  1179 00:0807: 0B           	phd
  1180 00:0808: 5B           	tcd
  1181             00000004   d_0	set	4
  1182             00000008   num_0	set	8
  1183             0000000C   base_0	set	12
  1184             00000000   bits_1	set	0
  1185 00:0809: A5 10        	lda	<L88+num_0
  Tue Dec  8 2020 22:45                                                Page 23


  1186 00:080B: 05 12        	ora	<L88+num_0+2
  1187 00:080D: D0 16        	bne	L10046
  1188 00:080F: A6 16        	ldx	<L88+base_0+2
  1189 00:0811: A5 14        	lda	<L88+base_0
  1190                        L91:
  1191 00:0813: A8           	tay
  1192 00:0814: A5 0A        	lda	<L88+2
  1193 00:0816: 85 16        	sta	<L88+2+12
  1194 00:0818: A5 09        	lda	<L88+1
  1195 00:081A: 85 15        	sta	<L88+1+12
  1196 00:081C: 2B           	pld
  1197 00:081D: 3B           	tsc
  1198 00:081E: 18           	clc
  1199 00:081F: 69 14 00     	adc	#L88+12
  1200 00:0822: 1B           	tcs
  1201 00:0823: 98           	tya
  1202 00:0824: 6B           	rtl
  1203                        L10046:
  1204 00:0825: D4 12        	pei	<L88+num_0+2
  1205 00:0827: D4 10        	pei	<L88+num_0
  1206 00:0829: D4 0E        	pei	<L88+d_0+2
  1207 00:082B: D4 0C        	pei	<L88+d_0
  1208 00:082D: 22 xx xx xx  	jsl	~~tinf_getbits
  1209 00:0831: 86 03        	stx	<R0+2
  1210 00:0833: 18           	clc
  1211 00:0834: 65 14        	adc	<L88+base_0
  1212 00:0836: 85 05        	sta	<L89+bits_1
  1213 00:0838: A5 03        	lda	<R0+2
  1214 00:083A: 65 16        	adc	<L88+base_0+2
  1215 00:083C: 85 07        	sta	<L89+bits_1+2
  1216 00:083E: A6 07        	ldx	<L89+bits_1+2
  1217 00:0840: A5 05        	lda	<L89+bits_1
  1218 00:0842: 80 CF        	bra	L91
  1219             00000008   L88	equ	8
  1220             00000005   L89	equ	5
  1221                        	ends
  1222                        	efunc
  1223                        	code
  1224                        	func
  1225                        ~~tinf_decode_symbol:
  1226                        	longa	on
  1227                        	longi	on
  1228 00:0844: 3B           	tsc
  1229 00:0845: 38           	sec
  1230 00:0846: E9 1C 00     	sbc	#L92
  1231 00:0849: 1B           	tcs
  1232 00:084A: 0B           	phd
  1233 00:084B: 5B           	tcd
  1234             00000004   d_0	set	4
  1235             00000008   t_0	set	8
  1236             00000000   base_1	set	0
  1237             00000004   offs_1	set	4
  1238             00000008   len_1	set	8
  1239 00:084C: 64 11        	stz	<L93+base_1
  1240 00:084E: 64 13        	stz	<L93+base_1+2
  1241 00:0850: 64 15        	stz	<L93+offs_1
  1242 00:0852: 64 17        	stz	<L93+offs_1+2
  1243 00:0854: A9 01 00     	lda	#$1
  Tue Dec  8 2020 22:45                                                Page 24


  1244 00:0857: 85 19        	sta	<L93+len_1
  1245 00:0859: 3A           	dea
  1246 00:085A: 85 1B        	sta	<L93+len_1+2
  1247                        L10049:
  1248 00:085C: A5 15        	lda	<L93+offs_1
  1249 00:085E: 85 01        	sta	<R0
  1250 00:0860: A5 17        	lda	<L93+offs_1+2
  1251 00:0862: 85 03        	sta	<R0+2
  1252 00:0864: 06 01        	asl	<R0
  1253 00:0866: 26 03        	rol	<R0+2
  1254 00:0868: F4 00 00     	pea	#^$1
  1255 00:086B: F4 01 00     	pea	#<$1
  1256 00:086E: D4 22        	pei	<L92+d_0+2
  1257 00:0870: D4 20        	pei	<L92+d_0
  1258 00:0872: 22 xx xx xx  	jsl	~~tinf_getbits
  1259 00:0876: 86 07        	stx	<R1+2
  1260 00:0878: 18           	clc
  1261 00:0879: 65 01        	adc	<R0
  1262 00:087B: 85 15        	sta	<L93+offs_1
  1263 00:087D: A5 07        	lda	<R1+2
  1264 00:087F: 65 03        	adc	<R0+2
  1265 00:0881: 85 17        	sta	<L93+offs_1+2
  1266 00:0883: 38           	sec
  1267 00:0884: A9 0F 00     	lda	#$f
  1268 00:0887: E5 19        	sbc	<L93+len_1
  1269 00:0889: A9 00 00     	lda	#$0
  1270 00:088C: E5 1B        	sbc	<L93+len_1+2
  1271 00:088E: 70 03        	bvs	L95
  1272 00:0890: 49 00 80     	eor	#$8000
  1273                        L95:
  1274 00:0893: 30 19        	bmi	L20010
  1275 00:0895: F4 00 00     	pea	#^$0
  1276 00:0898: F4 00 00     	pea	#<$0
  1277 00:089B: F4 04 01     	pea	#<$104
  1278 00:089E: F4 xx xx     	pea	#^L84+10
  1279 00:08A1: F4 xx xx     	pea	#<L84+10
  1280 00:08A4: F4 xx xx     	pea	#^L84
  1281 00:08A7: F4 xx xx     	pea	#<L84
  1282 00:08AA: 22 xx xx xx  	jsl	~~__assert_fail
  1283                        L20010:
  1284 00:08AE: A9 00 00     	lda	#$0
  1285 00:08B1: 85 01        	sta	<R0
  1286 00:08B3: A5 19        	lda	<L93+len_1
  1287 00:08B5: 85 01        	sta	<R0
  1288 00:08B7: A5 1B        	lda	<L93+len_1+2
  1289 00:08B9: 85 03        	sta	<R0+2
  1290 00:08BB: 06 01        	asl	<R0
  1291 00:08BD: 26 03        	rol	<R0+2
  1292 00:08BF: A5 24        	lda	<L92+t_0
  1293 00:08C1: 18           	clc
  1294 00:08C2: 65 01        	adc	<R0
  1295 00:08C4: 85 05        	sta	<R1
  1296 00:08C6: A5 26        	lda	<L92+t_0+2
  1297 00:08C8: 65 03        	adc	<R0+2
  1298 00:08CA: 85 07        	sta	<R1+2
  1299 00:08CC: A7 05        	lda	[<R1]
  1300 00:08CE: 85 01        	sta	<R0
  1301 00:08D0: 64 03        	stz	<R0+2
  Tue Dec  8 2020 22:45                                                Page 25


  1302 00:08D2: 38           	sec
  1303 00:08D3: A5 15        	lda	<L93+offs_1
  1304 00:08D5: E5 01        	sbc	<R0
  1305 00:08D7: A5 17        	lda	<L93+offs_1+2
  1306 00:08D9: E5 03        	sbc	<R0+2
  1307 00:08DB: 70 03        	bvs	L98
  1308 00:08DD: 49 00 80     	eor	#$8000
  1309                        L98:
  1310 00:08E0: 10 64        	bpl	L10048
  1311 00:08E2: A5 19        	lda	<L93+len_1
  1312 00:08E4: 85 01        	sta	<R0
  1313 00:08E6: A5 1B        	lda	<L93+len_1+2
  1314 00:08E8: 85 03        	sta	<R0+2
  1315 00:08EA: 06 01        	asl	<R0
  1316 00:08EC: 26 03        	rol	<R0+2
  1317 00:08EE: A5 24        	lda	<L92+t_0
  1318 00:08F0: 18           	clc
  1319 00:08F1: 65 01        	adc	<R0
  1320 00:08F3: 85 05        	sta	<R1
  1321 00:08F5: A5 26        	lda	<L92+t_0+2
  1322 00:08F7: 65 03        	adc	<R0+2
  1323 00:08F9: 85 07        	sta	<R1+2
  1324 00:08FB: A7 05        	lda	[<R1]
  1325 00:08FD: 85 01        	sta	<R0
  1326 00:08FF: 64 03        	stz	<R0+2
  1327 00:0901: A5 01        	lda	<R0
  1328 00:0903: 18           	clc
  1329 00:0904: 65 11        	adc	<L93+base_1
  1330 00:0906: 85 11        	sta	<L93+base_1
  1331 00:0908: A5 03        	lda	<R0+2
  1332 00:090A: 65 13        	adc	<L93+base_1+2
  1333 00:090C: 85 13        	sta	<L93+base_1+2
  1334 00:090E: A5 19        	lda	<L93+len_1
  1335 00:0910: 85 01        	sta	<R0
  1336 00:0912: A5 1B        	lda	<L93+len_1+2
  1337 00:0914: 85 03        	sta	<R0+2
  1338 00:0916: 06 01        	asl	<R0
  1339 00:0918: 26 03        	rol	<R0+2
  1340 00:091A: A5 24        	lda	<L92+t_0
  1341 00:091C: 18           	clc
  1342 00:091D: 65 01        	adc	<R0
  1343 00:091F: 85 05        	sta	<R1
  1344 00:0921: A5 26        	lda	<L92+t_0+2
  1345 00:0923: 65 03        	adc	<R0+2
  1346 00:0925: 85 07        	sta	<R1+2
  1347 00:0927: A7 05        	lda	[<R1]
  1348 00:0929: 85 01        	sta	<R0
  1349 00:092B: 64 03        	stz	<R0+2
  1350 00:092D: 38           	sec
  1351 00:092E: A5 15        	lda	<L93+offs_1
  1352 00:0930: E5 01        	sbc	<R0
  1353 00:0932: 85 15        	sta	<L93+offs_1
  1354 00:0934: A5 17        	lda	<L93+offs_1+2
  1355 00:0936: E5 03        	sbc	<R0+2
  1356 00:0938: 85 17        	sta	<L93+offs_1+2
  1357 00:093A: E6 19        	inc	<L93+len_1
  1358 00:093C: F0 03        	beq	*+5
  1359 00:093E: 82 1B FF     	brl	L10049
  Tue Dec  8 2020 22:45                                                Page 26


  1360 00:0941: E6 1B        	inc	<L93+len_1+2
  1361 00:0943: 82 16 FF     	brl	L10049
  1362                        L10048:
  1363 00:0946: A5 11        	lda	<L93+base_1
  1364 00:0948: 18           	clc
  1365 00:0949: 65 15        	adc	<L93+offs_1
  1366 00:094B: 85 01        	sta	<R0
  1367 00:094D: A5 13        	lda	<L93+base_1+2
  1368 00:094F: 65 17        	adc	<L93+offs_1+2
  1369 00:0951: 85 03        	sta	<R0+2
  1370 00:0953: A5 03        	lda	<R0+2
  1371 00:0955: 30 1A        	bmi	L101
  1372 00:0957: A5 11        	lda	<L93+base_1
  1373 00:0959: 18           	clc
  1374 00:095A: 65 15        	adc	<L93+offs_1
  1375 00:095C: 85 01        	sta	<R0
  1376 00:095E: A5 13        	lda	<L93+base_1+2
  1377 00:0960: 65 17        	adc	<L93+offs_1+2
  1378 00:0962: 85 03        	sta	<R0+2
  1379 00:0964: A5 03        	lda	<R0+2
  1380 00:0966: 30 22        	bmi	L20011
  1381 00:0968: D0 07        	bne	L101
  1382 00:096A: A5 01        	lda	<R0
  1383 00:096C: C9 20 01     	cmp	#288
  1384 00:096F: 90 19        	bcc	L20011
  1385                        L101:
  1386 00:0971: F4 00 00     	pea	#^$0
  1387 00:0974: F4 00 00     	pea	#<$0
  1388 00:0977: F4 0E 01     	pea	#<$10e
  1389 00:097A: F4 xx xx     	pea	#^L84+91
  1390 00:097D: F4 xx xx     	pea	#<L84+91
  1391 00:0980: F4 xx xx     	pea	#^L84+53
  1392 00:0983: F4 xx xx     	pea	#<L84+53
  1393 00:0986: 22 xx xx xx  	jsl	~~__assert_fail
  1394                        L20011:
  1395 00:098A: A9 00 00     	lda	#$0
  1396 00:098D: 85 01        	sta	<R0
  1397 00:098F: A5 11        	lda	<L93+base_1
  1398 00:0991: 18           	clc
  1399 00:0992: 65 15        	adc	<L93+offs_1
  1400 00:0994: 85 05        	sta	<R1
  1401 00:0996: A5 13        	lda	<L93+base_1+2
  1402 00:0998: 65 17        	adc	<L93+offs_1+2
  1403 00:099A: 48           	pha
  1404 00:099B: D4 05        	pei	<R1
  1405 00:099D: A9 01 00     	lda	#$1
  1406                        	xref	~~~lasl
  1407 00:09A0: 22 xx xx xx  	jsl	~~~lasl
  1408 00:09A4: 85 01        	sta	<R0
  1409 00:09A6: 86 03        	stx	<R0+2
  1410 00:09A8: A9 20 00     	lda	#$20
  1411 00:09AB: 18           	clc
  1412 00:09AC: 65 24        	adc	<L92+t_0
  1413 00:09AE: 85 09        	sta	<R2
  1414 00:09B0: A9 00 00     	lda	#$0
  1415 00:09B3: 65 26        	adc	<L92+t_0+2
  1416 00:09B5: 85 0B        	sta	<R2+2
  1417 00:09B7: A5 09        	lda	<R2
  Tue Dec  8 2020 22:45                                                Page 27


  1418 00:09B9: 18           	clc
  1419 00:09BA: 65 01        	adc	<R0
  1420 00:09BC: 85 0D        	sta	<R3
  1421 00:09BE: A5 0B        	lda	<R2+2
  1422 00:09C0: 65 03        	adc	<R0+2
  1423 00:09C2: 85 0F        	sta	<R3+2
  1424 00:09C4: A7 0D        	lda	[<R3]
  1425 00:09C6: 85 01        	sta	<R0
  1426 00:09C8: 64 03        	stz	<R0+2
  1427 00:09CA: A6 03        	ldx	<R0+2
  1428 00:09CC: A5 01        	lda	<R0
  1429 00:09CE: A8           	tay
  1430 00:09CF: A5 1E        	lda	<L92+2
  1431 00:09D1: 85 26        	sta	<L92+2+8
  1432 00:09D3: A5 1D        	lda	<L92+1
  1433 00:09D5: 85 25        	sta	<L92+1+8
  1434 00:09D7: 2B           	pld
  1435 00:09D8: 3B           	tsc
  1436 00:09D9: 18           	clc
  1437 00:09DA: 69 24 00     	adc	#L92+8
  1438 00:09DD: 1B           	tcs
  1439 00:09DE: 98           	tya
  1440 00:09DF: 6B           	rtl
  1441             0000001C   L92	equ	28
  1442             00000011   L93	equ	17
  1443                        	ends
  1444                        	efunc
  1445                        	data
  1446                        L84:
  1447 00:0142: 6C 65 6E 20  	db	$6C,$65,$6E,$20,$3C,$3D,$20,$31,$35,$00,
                    $43,$3A,$5C,$61,$74
       00:0146: 3C 3D 20 31 
       00:014A: 35 00 43 3A 
       00:014E: 5C 61 74 
  1448 00:0151: 61 72 69 67  	db	$61,$72,$69,$67,$69,$74,$5C,$4D,$79,$36,
                    $35,$30,$32,$5C,$62
       00:0155: 69 74 5C 4D 
       00:0159: 79 36 35 30 
       00:015D: 32 5C 62 
  1449 00:0160: 75 69 6C 64  	db	$75,$69,$6C,$64,$5C,$2E,$2E,$5C,$73,$72,
                    $63,$5C,$74,$69,$6E
       00:0164: 5C 2E 2E 5C 
       00:0168: 73 72 63 5C 
       00:016C: 74 69 6E 
  1450 00:016F: 66 6C 61 74  	db	$66,$6C,$61,$74,$65,$2E,$63,$00,$62,$61,
                    $73,$65,$20,$2B,$20
       00:0173: 65 2E 63 00 
       00:0177: 62 61 73 65 
       00:017B: 20 2B 20 
  1451 00:017E: 6F 66 66 73  	db	$6F,$66,$66,$73,$20,$3E,$3D,$20,$30,$20,
                    $26,$26,$20,$62,$61
       00:0182: 20 3E 3D 20 
       00:0186: 30 20 26 26 
       00:018A: 20 62 61 
  1452 00:018D: 73 65 20 2B  	db	$73,$65,$20,$2B,$20,$6F,$66,$66,$73,$20,
                    $3C,$20,$32,$38,$38
       00:0191: 20 6F 66 66 
       00:0195: 73 20 3C 20 
  Tue Dec  8 2020 22:45                                                Page 28


       00:0199: 32 38 38 
  1453 00:019C: 00 43 3A 5C  	db	$00,$43,$3A,$5C,$61,$74,$61,$72,$69,$67,
                    $69,$74,$5C,$4D,$79
       00:01A0: 61 74 61 72 
       00:01A4: 69 67 69 74 
       00:01A8: 5C 4D 79 
  1454 00:01AB: 36 35 30 32  	db	$36,$35,$30,$32,$5C,$62,$75,$69,$6C,$64,
                    $5C,$2E,$2E,$5C,$73
       00:01AF: 5C 62 75 69 
       00:01B3: 6C 64 5C 2E 
       00:01B7: 2E 5C 73 
  1455 00:01BA: 72 63 5C 74  	db	$72,$63,$5C,$74,$69,$6E,$66,$6C,$61,$74,
                    $65,$2E,$63,$00
       00:01BE: 69 6E 66 6C 
       00:01C2: 61 74 65 2E 
       00:01C6: 63 00 
  1456 00:01C8:              	ends
  1457                        	code
  1458                        	func
  1459                        ~~tinf_decode_trees:
  1460                        	longa	on
  1461                        	longi	on
  1462 00:09E0: 3B           	tsc
  1463 00:09E1: 38           	sec
  1464 00:09E2: E9 2C 00     	sbc	#L108
  1465 00:09E5: 1B           	tcs
  1466 00:09E6: 0B           	phd
  1467 00:09E7: 5B           	tcd
  1468             00000004   d_0	set	4
  1469             00000008   lt_0	set	8
  1470             0000000C   dt_0	set	12
  1471             00000000   lengths_1	set	0
  1472             00000004   hlit_1	set	4
  1473             00000008   hdist_1	set	8
  1474             0000000C   hclen_1	set	12
  1475             00000010   i_1	set	16
  1476             00000014   num_1	set	20
  1477             00000018   length_1	set	24
  1478             0000001C   res_1	set	28
  1479 00:09E8: F4 00 00     	pea	#^$140
  1480 00:09EB: F4 40 01     	pea	#<$140
  1481 00:09EE: 22 xx xx xx  	jsl	~~malloc
  1482 00:09F2: 85 09        	sta	<L109+lengths_1
  1483 00:09F4: 86 0B        	stx	<L109+lengths_1+2
  1484 00:09F6: F4 00 00     	pea	#^$101
  1485 00:09F9: F4 01 01     	pea	#<$101
  1486 00:09FC: F4 00 00     	pea	#^$5
  1487 00:09FF: F4 05 00     	pea	#<$5
  1488 00:0A02: D4 32        	pei	<L108+d_0+2
  1489 00:0A04: D4 30        	pei	<L108+d_0
  1490 00:0A06: 22 xx xx xx  	jsl	~~tinf_getbits_base
  1491 00:0A0A: 85 0D        	sta	<L109+hlit_1
  1492 00:0A0C: 86 0F        	stx	<L109+hlit_1+2
  1493 00:0A0E: D4 0F        	pei	<L109+hlit_1+2
  1494 00:0A10: D4 0D        	pei	<L109+hlit_1
  1495 00:0A12: F4 xx xx     	pea	#^L107
  1496 00:0A15: F4 xx xx     	pea	#<L107
  1497 00:0A18: F4 0A 00     	pea	#10
  Tue Dec  8 2020 22:45                                                Page 29


  1498 00:0A1B: 22 xx xx xx  	jsl	~~printf
  1499 00:0A1F: F4 00 00     	pea	#^$1
  1500 00:0A22: F4 01 00     	pea	#<$1
  1501 00:0A25: F4 00 00     	pea	#^$5
  1502 00:0A28: F4 05 00     	pea	#<$5
  1503 00:0A2B: D4 32        	pei	<L108+d_0+2
  1504 00:0A2D: D4 30        	pei	<L108+d_0
  1505 00:0A2F: 22 xx xx xx  	jsl	~~tinf_getbits_base
  1506 00:0A33: 85 11        	sta	<L109+hdist_1
  1507 00:0A35: 86 13        	stx	<L109+hdist_1+2
  1508 00:0A37: D4 13        	pei	<L109+hdist_1+2
  1509 00:0A39: D4 11        	pei	<L109+hdist_1
  1510 00:0A3B: F4 xx xx     	pea	#^L107+12
  1511 00:0A3E: F4 xx xx     	pea	#<L107+12
  1512 00:0A41: F4 0A 00     	pea	#10
  1513 00:0A44: 22 xx xx xx  	jsl	~~printf
  1514 00:0A48: F4 00 00     	pea	#^$4
  1515 00:0A4B: F4 04 00     	pea	#<$4
  1516 00:0A4E: F4 00 00     	pea	#^$4
  1517 00:0A51: F4 04 00     	pea	#<$4
  1518 00:0A54: D4 32        	pei	<L108+d_0+2
  1519 00:0A56: D4 30        	pei	<L108+d_0
  1520 00:0A58: 22 xx xx xx  	jsl	~~tinf_getbits_base
  1521 00:0A5C: 85 15        	sta	<L109+hclen_1
  1522 00:0A5E: 86 17        	stx	<L109+hclen_1+2
  1523 00:0A60: D4 17        	pei	<L109+hclen_1+2
  1524 00:0A62: D4 15        	pei	<L109+hclen_1
  1525 00:0A64: F4 xx xx     	pea	#^L107+25
  1526 00:0A67: F4 xx xx     	pea	#<L107+25
  1527 00:0A6A: F4 0A 00     	pea	#10
  1528 00:0A6D: 22 xx xx xx  	jsl	~~printf
  1529 00:0A71: A9 1E 01     	lda	#$11e
  1530 00:0A74: C5 0D        	cmp	<L109+hlit_1
  1531 00:0A76: A9 00 00     	lda	#$0
  1532 00:0A79: E5 0F        	sbc	<L109+hlit_1+2
  1533 00:0A7B: 90 0C        	bcc	L111
  1534 00:0A7D: A9 1E 00     	lda	#$1e
  1535 00:0A80: C5 11        	cmp	<L109+hdist_1
  1536 00:0A82: A9 00 00     	lda	#$0
  1537 00:0A85: E5 13        	sbc	<L109+hdist_1+2
  1538 00:0A87: B0 21        	bcs	L10051
  1539                        L111:
  1540 00:0A89: D4 0B        	pei	<L109+lengths_1+2
  1541 00:0A8B: D4 09        	pei	<L109+lengths_1
  1542 00:0A8D: 22 xx xx xx  	jsl	~~free
  1543 00:0A91: A9 FF FF     	lda	#$ffff
  1544 00:0A94: AA           	tax
  1545 00:0A95: A9 F9 FF     	lda	#$fff9
  1546                        L114:
  1547 00:0A98: A8           	tay
  1548 00:0A99: A5 2E        	lda	<L108+2
  1549 00:0A9B: 85 3A        	sta	<L108+2+12
  1550 00:0A9D: A5 2D        	lda	<L108+1
  1551 00:0A9F: 85 39        	sta	<L108+1+12
  1552 00:0AA1: 2B           	pld
  1553 00:0AA2: 3B           	tsc
  1554 00:0AA3: 18           	clc
  1555 00:0AA4: 69 38 00     	adc	#L108+12
  Tue Dec  8 2020 22:45                                                Page 30


  1556 00:0AA7: 1B           	tcs
  1557 00:0AA8: 98           	tya
  1558 00:0AA9: 6B           	rtl
  1559                        L10051:
  1560 00:0AAA: 64 19        	stz	<L109+i_1
  1561 00:0AAC: 64 1B        	stz	<L109+i_1+2
  1562                        L10054:
  1563 00:0AAE: A5 09        	lda	<L109+lengths_1
  1564 00:0AB0: 18           	clc
  1565 00:0AB1: 65 19        	adc	<L109+i_1
  1566 00:0AB3: 85 01        	sta	<R0
  1567 00:0AB5: A5 0B        	lda	<L109+lengths_1+2
  1568 00:0AB7: 65 1B        	adc	<L109+i_1+2
  1569 00:0AB9: 85 03        	sta	<R0+2
  1570 00:0ABB: E2 20        	sep	#$20
  1571                        	longa	off
  1572 00:0ABD: A9 00        	lda	#$0
  1573 00:0ABF: 87 01        	sta	[<R0]
  1574 00:0AC1: C2 20        	rep	#$20
  1575                        	longa	on
  1576 00:0AC3: E6 19        	inc	<L109+i_1
  1577 00:0AC5: D0 02        	bne	L115
  1578 00:0AC7: E6 1B        	inc	<L109+i_1+2
  1579                        L115:
  1580 00:0AC9: A5 19        	lda	<L109+i_1
  1581 00:0ACB: C9 13 00     	cmp	#<$13
  1582 00:0ACE: A5 1B        	lda	<L109+i_1+2
  1583 00:0AD0: E9 00 00     	sbc	#^$13
  1584 00:0AD3: 90 D9        	bcc	L10054
  1585 00:0AD5: 64 19        	stz	<L109+i_1
  1586 00:0AD7: 64 1B        	stz	<L109+i_1+2
  1587 00:0AD9: 80 38        	bra	L10058
  1588                        L10057:
  1589             00000020   clen_2	set	32
  1590 00:0ADB: F4 00 00     	pea	#^$3
  1591 00:0ADE: F4 03 00     	pea	#<$3
  1592 00:0AE1: D4 32        	pei	<L108+d_0+2
  1593 00:0AE3: D4 30        	pei	<L108+d_0
  1594 00:0AE5: 22 xx xx xx  	jsl	~~tinf_getbits
  1595 00:0AE9: 85 29        	sta	<L109+clen_2
  1596 00:0AEB: 86 2B        	stx	<L109+clen_2+2
  1597 00:0AED: D4 29        	pei	<L109+clen_2
  1598 00:0AEF: F4 xx xx     	pea	#^L107+38
  1599 00:0AF2: F4 xx xx     	pea	#<L107+38
  1600 00:0AF5: F4 08 00     	pea	#8
  1601 00:0AF8: 22 xx xx xx  	jsl	~~printf
  1602 00:0AFC: A6 19        	ldx	<L109+i_1
  1603 00:0AFE: BD xx xx     	lda	|L110,X
  1604 00:0B01: 29 FF 00     	and	#$ff
  1605 00:0B04: A8           	tay
  1606 00:0B05: E2 20        	sep	#$20
  1607                        	longa	off
  1608 00:0B07: A5 29        	lda	<L109+clen_2
  1609 00:0B09: 97 09        	sta	[<L109+lengths_1],Y
  1610 00:0B0B: C2 20        	rep	#$20
  1611                        	longa	on
  1612 00:0B0D: E6 19        	inc	<L109+i_1
  1613 00:0B0F: D0 02        	bne	L10058
  Tue Dec  8 2020 22:45                                                Page 31


  1614 00:0B11: E6 1B        	inc	<L109+i_1+2
  1615                        L10058:
  1616 00:0B13: A5 19        	lda	<L109+i_1
  1617 00:0B15: C5 15        	cmp	<L109+hclen_1
  1618 00:0B17: A5 1B        	lda	<L109+i_1+2
  1619 00:0B19: E5 17        	sbc	<L109+hclen_1+2
  1620 00:0B1B: 90 BE        	bcc	L10057
  1621 00:0B1D: 64 19        	stz	<L109+i_1
  1622 00:0B1F: 64 1B        	stz	<L109+i_1+2
  1623                        L10061:
  1624 00:0B21: A5 09        	lda	<L109+lengths_1
  1625 00:0B23: 18           	clc
  1626 00:0B24: 65 19        	adc	<L109+i_1
  1627 00:0B26: 85 01        	sta	<R0
  1628 00:0B28: A5 0B        	lda	<L109+lengths_1+2
  1629 00:0B2A: 65 1B        	adc	<L109+i_1+2
  1630 00:0B2C: 85 03        	sta	<R0+2
  1631 00:0B2E: A7 01        	lda	[<R0]
  1632 00:0B30: 29 FF 00     	and	#$ff
  1633 00:0B33: 48           	pha
  1634 00:0B34: F4 xx xx     	pea	#^L107+44
  1635 00:0B37: F4 xx xx     	pea	#<L107+44
  1636 00:0B3A: F4 08 00     	pea	#8
  1637 00:0B3D: 22 xx xx xx  	jsl	~~printf
  1638 00:0B41: E6 19        	inc	<L109+i_1
  1639 00:0B43: D0 02        	bne	L119
  1640 00:0B45: E6 1B        	inc	<L109+i_1+2
  1641                        L119:
  1642 00:0B47: A5 19        	lda	<L109+i_1
  1643 00:0B49: C9 13 00     	cmp	#<$13
  1644 00:0B4C: A5 1B        	lda	<L109+i_1+2
  1645 00:0B4E: E9 00 00     	sbc	#^$13
  1646 00:0B51: 90 CE        	bcc	L10061
  1647 00:0B53: F4 00 00     	pea	#^$13
  1648 00:0B56: F4 13 00     	pea	#<$13
  1649 00:0B59: D4 0B        	pei	<L109+lengths_1+2
  1650 00:0B5B: D4 09        	pei	<L109+lengths_1
  1651 00:0B5D: D4 36        	pei	<L108+lt_0+2
  1652 00:0B5F: D4 34        	pei	<L108+lt_0
  1653 00:0B61: 22 xx xx xx  	jsl	~~tinf_build_tree
  1654 00:0B65: 85 25        	sta	<L109+res_1
  1655 00:0B67: 86 27        	stx	<L109+res_1+2
  1656 00:0B69: 05 27        	ora	<L109+res_1+2
  1657 00:0B6B: F0 0F        	beq	L10062
  1658                        L20021:
  1659 00:0B6D: D4 0B        	pei	<L109+lengths_1+2
  1660 00:0B6F: D4 09        	pei	<L109+lengths_1
  1661 00:0B71: 22 xx xx xx  	jsl	~~free
  1662 00:0B75: A6 27        	ldx	<L109+res_1+2
  1663 00:0B77: A5 25        	lda	<L109+res_1
  1664 00:0B79: 82 1C FF     	brl	L114
  1665                        L10062:
  1666 00:0B7C: A0 60 02     	ldy	#$260
  1667 00:0B7F: B7 34        	lda	[<L108+lt_0],Y
  1668 00:0B81: C9 FF FF     	cmp	#<$ffffffff
  1669 00:0B84: D0 07        	bne	L122
  1670 00:0B86: C8           	iny
  1671 00:0B87: C8           	iny
  Tue Dec  8 2020 22:45                                                Page 32


  1672 00:0B88: B7 34        	lda	[<L108+lt_0],Y
  1673 00:0B8A: C9 FF FF     	cmp	#^$ffffffff
  1674                        L122:
  1675 00:0B8D: D0 11        	bne	L10063
  1676                        L20031:
  1677 00:0B8F: D4 0B        	pei	<L109+lengths_1+2
  1678 00:0B91: D4 09        	pei	<L109+lengths_1
  1679 00:0B93: 22 xx xx xx  	jsl	~~free
  1680 00:0B97: A9 FF FF     	lda	#$ffff
  1681 00:0B9A: AA           	tax
  1682 00:0B9B: 3A           	dea
  1683 00:0B9C: 3A           	dea
  1684 00:0B9D: 82 F8 FE     	brl	L114
  1685                        L10063:
  1686 00:0BA0: 64 1D        	stz	<L109+num_1
  1687 00:0BA2: 64 1F        	stz	<L109+num_1+2
  1688                        L10067:
  1689 00:0BA4: A5 0D        	lda	<L109+hlit_1
  1690 00:0BA6: 18           	clc
  1691 00:0BA7: 65 11        	adc	<L109+hdist_1
  1692 00:0BA9: 85 01        	sta	<R0
  1693 00:0BAB: A5 0F        	lda	<L109+hlit_1+2
  1694 00:0BAD: 65 13        	adc	<L109+hdist_1+2
  1695 00:0BAF: 85 03        	sta	<R0+2
  1696 00:0BB1: A5 1D        	lda	<L109+num_1
  1697 00:0BB3: C5 01        	cmp	<R0
  1698 00:0BB5: A5 1F        	lda	<L109+num_1+2
  1699 00:0BB7: E5 03        	sbc	<R0+2
  1700 00:0BB9: 90 03        	bcc	*+5
  1701 00:0BBB: 82 11 01     	brl	L10065
  1702             00000020   sym_3	set	32
  1703 00:0BBE: D4 36        	pei	<L108+lt_0+2
  1704 00:0BC0: D4 34        	pei	<L108+lt_0
  1705 00:0BC2: D4 32        	pei	<L108+d_0+2
  1706 00:0BC4: D4 30        	pei	<L108+d_0
  1707 00:0BC6: 22 xx xx xx  	jsl	~~tinf_decode_symbol
  1708 00:0BCA: 85 29        	sta	<L109+sym_3
  1709 00:0BCC: 86 2B        	stx	<L109+sym_3+2
  1710 00:0BCE: 38           	sec
  1711 00:0BCF: A0 60 02     	ldy	#$260
  1712 00:0BD2: B7 34        	lda	[<L108+lt_0],Y
  1713 00:0BD4: E5 29        	sbc	<L109+sym_3
  1714 00:0BD6: C8           	iny
  1715 00:0BD7: C8           	iny
  1716 00:0BD8: B7 34        	lda	[<L108+lt_0],Y
  1717 00:0BDA: E5 2B        	sbc	<L109+sym_3+2
  1718 00:0BDC: 70 03        	bvs	L124
  1719 00:0BDE: 49 00 80     	eor	#$8000
  1720                        L124:
  1721 00:0BE1: 10 AC        	bpl	L20031
  1722 00:0BE3: A6 2B        	ldx	<L109+sym_3+2
  1723 00:0BE5: A5 29        	lda	<L109+sym_3
  1724                        	xref	~~~lswt
  1725 00:0BE7: 22 xx xx xx  	jsl	~~~lswt
  1726 00:0BEB: 03 00        	dw	3
  1727 00:0BED: 10 00 00 00  	dl	16
  1728 00:0BF1: xx xx        	dw	L10071-1
  1729 00:0BF3: 11 00 00 00  	dl	17
  Tue Dec  8 2020 22:45                                                Page 33


  1730 00:0BF7: xx xx        	dw	L10073-1
  1731 00:0BF9: 12 00 00 00  	dl	18
  1732 00:0BFD: xx xx        	dw	L10074-1
  1733 00:0BFF: xx xx        	dw	L10075-1
  1734                        L10071:
  1735 00:0C01: A5 1D        	lda	<L109+num_1
  1736 00:0C03: 05 1F        	ora	<L109+num_1+2
  1737 00:0C05: F0 88        	beq	L20031
  1738 00:0C07: A9 FF FF     	lda	#$ffff
  1739 00:0C0A: 18           	clc
  1740 00:0C0B: 65 09        	adc	<L109+lengths_1
  1741 00:0C0D: 85 01        	sta	<R0
  1742 00:0C0F: A9 FF FF     	lda	#$ffff
  1743 00:0C12: 65 0B        	adc	<L109+lengths_1+2
  1744 00:0C14: 85 03        	sta	<R0+2
  1745 00:0C16: A5 01        	lda	<R0
  1746 00:0C18: 18           	clc
  1747 00:0C19: 65 1D        	adc	<L109+num_1
  1748 00:0C1B: 85 05        	sta	<R1
  1749 00:0C1D: A5 03        	lda	<R0+2
  1750 00:0C1F: 65 1F        	adc	<L109+num_1+2
  1751 00:0C21: 85 07        	sta	<R1+2
  1752 00:0C23: A7 05        	lda	[<R1]
  1753 00:0C25: 29 FF 00     	and	#$ff
  1754 00:0C28: 85 29        	sta	<L109+sym_3
  1755 00:0C2A: 64 2B        	stz	<L109+sym_3+2
  1756 00:0C2C: F4 00 00     	pea	#^$3
  1757 00:0C2F: F4 03 00     	pea	#<$3
  1758 00:0C32: F4 00 00     	pea	#^$2
  1759 00:0C35: F4 02 00     	pea	#<$2
  1760                        L20016:
  1761 00:0C38: D4 32        	pei	<L108+d_0+2
  1762 00:0C3A: D4 30        	pei	<L108+d_0
  1763 00:0C3C: 22 xx xx xx  	jsl	~~tinf_getbits_base
  1764 00:0C40: 85 21        	sta	<L109+length_1
  1765 00:0C42: 86 23        	stx	<L109+length_1+2
  1766                        L10070:
  1767 00:0C44: A5 0D        	lda	<L109+hlit_1
  1768 00:0C46: 18           	clc
  1769 00:0C47: 65 11        	adc	<L109+hdist_1
  1770 00:0C49: 85 01        	sta	<R0
  1771 00:0C4B: A5 0F        	lda	<L109+hlit_1+2
  1772 00:0C4D: 65 13        	adc	<L109+hdist_1+2
  1773 00:0C4F: 85 03        	sta	<R0+2
  1774 00:0C51: 38           	sec
  1775 00:0C52: A5 01        	lda	<R0
  1776 00:0C54: E5 1D        	sbc	<L109+num_1
  1777 00:0C56: 85 05        	sta	<R1
  1778 00:0C58: A5 03        	lda	<R0+2
  1779 00:0C5A: E5 1F        	sbc	<L109+num_1+2
  1780 00:0C5C: 85 07        	sta	<R1+2
  1781 00:0C5E: A5 05        	lda	<R1
  1782 00:0C60: C5 21        	cmp	<L109+length_1
  1783 00:0C62: A5 07        	lda	<R1+2
  1784 00:0C64: E5 23        	sbc	<L109+length_1+2
  1785 00:0C66: B0 03        	bcs	*+5
  1786 00:0C68: 82 24 FF     	brl	L20031
  1787                        L10077:
  Tue Dec  8 2020 22:45                                                Page 34


  1788 00:0C6B: A5 21        	lda	<L109+length_1
  1789 00:0C6D: 85 01        	sta	<R0
  1790 00:0C6F: A5 23        	lda	<L109+length_1+2
  1791 00:0C71: 85 03        	sta	<R0+2
  1792 00:0C73: A5 21        	lda	<L109+length_1
  1793 00:0C75: D0 02        	bne	L128
  1794 00:0C77: C6 23        	dec	<L109+length_1+2
  1795                        L128:
  1796 00:0C79: C6 21        	dec	<L109+length_1
  1797 00:0C7B: A5 01        	lda	<R0
  1798 00:0C7D: 05 03        	ora	<R0+2
  1799 00:0C7F: D0 31        	bne	L129
  1800 00:0C81: 82 20 FF     	brl	L10067
  1801                        L10073:
  1802 00:0C84: 64 29        	stz	<L109+sym_3
  1803 00:0C86: 64 2B        	stz	<L109+sym_3+2
  1804 00:0C88: F4 00 00     	pea	#^$3
  1805 00:0C8B: F4 03 00     	pea	#<$3
  1806 00:0C8E: F4 00 00     	pea	#^$3
  1807 00:0C91: F4 03 00     	pea	#<$3
  1808 00:0C94: 80 A2        	bra	L20016
  1809                        L10074:
  1810 00:0C96: 64 29        	stz	<L109+sym_3
  1811 00:0C98: 64 2B        	stz	<L109+sym_3+2
  1812 00:0C9A: F4 00 00     	pea	#^$b
  1813 00:0C9D: F4 0B 00     	pea	#<$b
  1814 00:0CA0: F4 00 00     	pea	#^$7
  1815 00:0CA3: F4 07 00     	pea	#<$7
  1816 00:0CA6: 80 90        	bra	L20016
  1817                        L10075:
  1818 00:0CA8: A9 01 00     	lda	#$1
  1819 00:0CAB: 85 21        	sta	<L109+length_1
  1820 00:0CAD: 3A           	dea
  1821 00:0CAE: 85 23        	sta	<L109+length_1+2
  1822 00:0CB0: 80 92        	bra	L10070
  1823                        L129:
  1824 00:0CB2: A5 09        	lda	<L109+lengths_1
  1825 00:0CB4: 18           	clc
  1826 00:0CB5: 65 1D        	adc	<L109+num_1
  1827 00:0CB7: 85 01        	sta	<R0
  1828 00:0CB9: A5 0B        	lda	<L109+lengths_1+2
  1829 00:0CBB: 65 1F        	adc	<L109+num_1+2
  1830 00:0CBD: 85 03        	sta	<R0+2
  1831 00:0CBF: E2 20        	sep	#$20
  1832                        	longa	off
  1833 00:0CC1: A5 29        	lda	<L109+sym_3
  1834 00:0CC3: 87 01        	sta	[<R0]
  1835 00:0CC5: C2 20        	rep	#$20
  1836                        	longa	on
  1837 00:0CC7: E6 1D        	inc	<L109+num_1
  1838 00:0CC9: D0 A0        	bne	L10077
  1839 00:0CCB: E6 1F        	inc	<L109+num_1+2
  1840 00:0CCD: 80 9C        	bra	L10077
  1841                        L10065:
  1842 00:0CCF: A0 00 01     	ldy	#$100
  1843 00:0CD2: B7 09        	lda	[<L109+lengths_1],Y
  1844 00:0CD4: 29 FF 00     	and	#$ff
  1845 00:0CD7: D0 03        	bne	*+5
  Tue Dec  8 2020 22:45                                                Page 35


  1846 00:0CD9: 82 B3 FE     	brl	L20031
  1847 00:0CDC: D4 0F        	pei	<L109+hlit_1+2
  1848 00:0CDE: D4 0D        	pei	<L109+hlit_1
  1849 00:0CE0: D4 0B        	pei	<L109+lengths_1+2
  1850 00:0CE2: D4 09        	pei	<L109+lengths_1
  1851 00:0CE4: D4 36        	pei	<L108+lt_0+2
  1852 00:0CE6: D4 34        	pei	<L108+lt_0
  1853 00:0CE8: 22 xx xx xx  	jsl	~~tinf_build_tree
  1854 00:0CEC: 85 25        	sta	<L109+res_1
  1855 00:0CEE: 86 27        	stx	<L109+res_1+2
  1856 00:0CF0: 05 27        	ora	<L109+res_1+2
  1857 00:0CF2: F0 03        	beq	*+5
  1858 00:0CF4: 82 76 FE     	brl	L20021
  1859 00:0CF7: D4 13        	pei	<L109+hdist_1+2
  1860 00:0CF9: D4 11        	pei	<L109+hdist_1
  1861 00:0CFB: A5 09        	lda	<L109+lengths_1
  1862 00:0CFD: 18           	clc
  1863 00:0CFE: 65 0D        	adc	<L109+hlit_1
  1864 00:0D00: 85 01        	sta	<R0
  1865 00:0D02: A5 0B        	lda	<L109+lengths_1+2
  1866 00:0D04: 65 0F        	adc	<L109+hlit_1+2
  1867 00:0D06: 48           	pha
  1868 00:0D07: D4 01        	pei	<R0
  1869 00:0D09: D4 3A        	pei	<L108+dt_0+2
  1870 00:0D0B: D4 38        	pei	<L108+dt_0
  1871 00:0D0D: 22 xx xx xx  	jsl	~~tinf_build_tree
  1872 00:0D11: 85 25        	sta	<L109+res_1
  1873 00:0D13: 86 27        	stx	<L109+res_1+2
  1874 00:0D15: 05 27        	ora	<L109+res_1+2
  1875 00:0D17: F0 03        	beq	*+5
  1876 00:0D19: 82 51 FE     	brl	L20021
  1877 00:0D1C: D4 0B        	pei	<L109+lengths_1+2
  1878 00:0D1E: D4 09        	pei	<L109+lengths_1
  1879 00:0D20: 22 xx xx xx  	jsl	~~free
  1880 00:0D24: A9 00 00     	lda	#$0
  1881 00:0D27: AA           	tax
  1882 00:0D28: 82 6D FD     	brl	L114
  1883             0000002C   L108	equ	44
  1884             00000009   L109	equ	9
  1885                        	ends
  1886                        	efunc
  1887                        	data
  1888                        L110:
  1889 00:01C8: 10 11 12 00  	db	$10,$11,$12,$0,$8,$7,$9,$6,$A,$5
       00:01CC: 08 07 09 06 
       00:01D0: 0A 05 
  1890 00:01D2: 0B 04 0C 03  	db	$B,$4,$C,$3,$D,$2,$E,$1,$F
       00:01D6: 0D 02 0E 01 
       00:01DA: 0F 
  1891 00:01DB:              	ends
  1892                        	data
  1893                        L107:
  1894 00:01DB: 68 6C 69 74  	db	$68,$6C,$69,$74,$3A,$20,$25,$6C,$75,$20,
                    $0A,$00,$68,$64,$69
       00:01DF: 3A 20 25 6C 
       00:01E3: 75 20 0A 00 
       00:01E7: 68 64 69 
  1895 00:01EA: 73 74 3A 20  	db	$73,$74,$3A,$20,$25,$6C,$75,$20,$0A,$00,
  Tue Dec  8 2020 22:45                                                Page 36


                    $68,$63,$6C,$65,$6E
       00:01EE: 25 6C 75 20 
       00:01F2: 0A 00 68 63 
       00:01F6: 6C 65 6E 
  1896 00:01F9: 3A 20 25 6C  	db	$3A,$20,$25,$6C,$75,$20,$0A,$00,$62,$3A,
                    $25,$64,$20,$00,$25
       00:01FD: 75 20 0A 00 
       00:0201: 62 3A 25 64 
       00:0205: 20 00 25 
  1897 00:0208: 64 20 00     	db	$64,$20,$00
  1898 00:020B:              	ends
  1899                        	code
  1900                        	func
  1901                        ~~tinf_inflate_block_data:
  1902                        	longa	on
  1903                        	longi	on
  1904 00:0D2B: 3B           	tsc
  1905 00:0D2C: 38           	sec
  1906 00:0D2D: E9 20 00     	sbc	#L136
  1907 00:0D30: 1B           	tcs
  1908 00:0D31: 0B           	phd
  1909 00:0D32: 5B           	tcd
  1910             00000004   d_0	set	4
  1911             00000008   lt_0	set	8
  1912             0000000C   dt_0	set	12
  1913             00000000   sym_1	set	0
  1914             00000004   length_1	set	4
  1915             00000008   dist_1	set	8
  1916             0000000C   offs_1	set	12
  1917             00000010   i_1	set	16
  1918                        L10084:
  1919 00:0D33: D4 2A        	pei	<L136+lt_0+2
  1920 00:0D35: D4 28        	pei	<L136+lt_0
  1921 00:0D37: D4 26        	pei	<L136+d_0+2
  1922 00:0D39: D4 24        	pei	<L136+d_0
  1923 00:0D3B: 22 xx xx xx  	jsl	~~tinf_decode_symbol
  1924 00:0D3F: 85 0D        	sta	<L137+sym_1
  1925 00:0D41: 86 0F        	stx	<L137+sym_1+2
  1926 00:0D43: A0 10 00     	ldy	#$10
  1927 00:0D46: B7 24        	lda	[<L136+d_0],Y
  1928 00:0D48: C8           	iny
  1929 00:0D49: C8           	iny
  1930 00:0D4A: 17 24        	ora	[<L136+d_0],Y
  1931 00:0D4C: F0 18        	beq	L10085
  1932                        L20049:
  1933 00:0D4E: A9 FF FF     	lda	#$ffff
  1934 00:0D51: AA           	tax
  1935 00:0D52: 3A           	dea
  1936 00:0D53: 3A           	dea
  1937                        L143:
  1938 00:0D54: A8           	tay
  1939 00:0D55: A5 22        	lda	<L136+2
  1940 00:0D57: 85 2E        	sta	<L136+2+12
  1941 00:0D59: A5 21        	lda	<L136+1
  1942 00:0D5B: 85 2D        	sta	<L136+1+12
  1943 00:0D5D: 2B           	pld
  1944 00:0D5E: 3B           	tsc
  1945 00:0D5F: 18           	clc
  Tue Dec  8 2020 22:45                                                Page 37


  1946 00:0D60: 69 2C 00     	adc	#L136+12
  1947 00:0D63: 1B           	tcs
  1948 00:0D64: 98           	tya
  1949 00:0D65: 6B           	rtl
  1950                        L10085:
  1951 00:0D66: A5 0F        	lda	<L137+sym_1+2
  1952 00:0D68: 30 09        	bmi	L144
  1953 00:0D6A: D0 52        	bne	L10086
  1954 00:0D6C: A5 0D        	lda	<L137+sym_1
  1955 00:0D6E: C9 00 01     	cmp	#256
  1956 00:0D71: B0 4B        	bcs	L10086
  1957                        L144:
  1958 00:0D73: A0 18 00     	ldy	#$18
  1959 00:0D76: B7 24        	lda	[<L136+d_0],Y
  1960 00:0D78: A0 1C 00     	ldy	#$1c
  1961 00:0D7B: D7 24        	cmp	[<L136+d_0],Y
  1962 00:0D7D: D0 09        	bne	L146
  1963 00:0D7F: 88           	dey
  1964 00:0D80: 88           	dey
  1965 00:0D81: B7 24        	lda	[<L136+d_0],Y
  1966 00:0D83: A0 1E 00     	ldy	#$1e
  1967 00:0D86: D7 24        	cmp	[<L136+d_0],Y
  1968                        L146:
  1969 00:0D88: D0 09        	bne	L10087
  1970                        L20052:
  1971 00:0D8A: A9 FF FF     	lda	#$ffff
  1972 00:0D8D: AA           	tax
  1973 00:0D8E: A9 FB FF     	lda	#$fffb
  1974 00:0D91: 80 C1        	bra	L143
  1975                        L10087:
  1976 00:0D93: A0 18 00     	ldy	#$18
  1977 00:0D96: B7 24        	lda	[<L136+d_0],Y
  1978 00:0D98: 85 01        	sta	<R0
  1979 00:0D9A: C8           	iny
  1980 00:0D9B: C8           	iny
  1981 00:0D9C: B7 24        	lda	[<L136+d_0],Y
  1982 00:0D9E: 85 03        	sta	<R0+2
  1983 00:0DA0: E2 20        	sep	#$20
  1984                        	longa	off
  1985 00:0DA2: A5 0D        	lda	<L137+sym_1
  1986 00:0DA4: 87 01        	sta	[<R0]
  1987 00:0DA6: C2 20        	rep	#$20
  1988                        	longa	on
  1989 00:0DA8: 18           	clc
  1990 00:0DA9: A9 01 00     	lda	#$1
  1991 00:0DAC: 88           	dey
  1992 00:0DAD: 88           	dey
  1993 00:0DAE: 77 24        	adc	[<L136+d_0],Y
  1994 00:0DB0: 97 24        	sta	[<L136+d_0],Y
  1995 00:0DB2: A9 00 00     	lda	#$0
  1996 00:0DB5: C8           	iny
  1997 00:0DB6: C8           	iny
  1998 00:0DB7: 77 24        	adc	[<L136+d_0],Y
  1999 00:0DB9: 97 24        	sta	[<L136+d_0],Y
  2000 00:0DBB: 82 75 FF     	brl	L10084
  2001                        L10086:
  2002 00:0DBE: A5 0D        	lda	<L137+sym_1
  2003 00:0DC0: C9 00 01     	cmp	#<$100
  Tue Dec  8 2020 22:45                                                Page 38


  2004 00:0DC3: D0 05        	bne	L148
  2005 00:0DC5: A5 0F        	lda	<L137+sym_1+2
  2006 00:0DC7: C9 00 00     	cmp	#^$100
  2007                        L148:
  2008 00:0DCA: D0 06        	bne	L10089
  2009 00:0DCC: A9 00 00     	lda	#$0
  2010 00:0DCF: AA           	tax
  2011 00:0DD0: 80 82        	bra	L143
  2012                        L10089:
  2013 00:0DD2: 38           	sec
  2014 00:0DD3: A0 60 02     	ldy	#$260
  2015 00:0DD6: B7 28        	lda	[<L136+lt_0],Y
  2016 00:0DD8: E5 0D        	sbc	<L137+sym_1
  2017 00:0DDA: C8           	iny
  2018 00:0DDB: C8           	iny
  2019 00:0DDC: B7 28        	lda	[<L136+lt_0],Y
  2020 00:0DDE: E5 0F        	sbc	<L137+sym_1+2
  2021 00:0DE0: 70 03        	bvs	L151
  2022 00:0DE2: 49 00 80     	eor	#$8000
  2023                        L151:
  2024 00:0DE5: 30 03        	bmi	*+5
  2025 00:0DE7: 82 64 FF     	brl	L20049
  2026 00:0DEA: A9 FF FE     	lda	#$feff
  2027 00:0DED: 18           	clc
  2028 00:0DEE: 65 0D        	adc	<L137+sym_1
  2029 00:0DF0: 85 01        	sta	<R0
  2030 00:0DF2: A9 FF FF     	lda	#$ffff
  2031 00:0DF5: 65 0F        	adc	<L137+sym_1+2
  2032 00:0DF7: 85 03        	sta	<R0+2
  2033 00:0DF9: 38           	sec
  2034 00:0DFA: A9 1C 00     	lda	#$1c
  2035 00:0DFD: E5 01        	sbc	<R0
  2036 00:0DFF: A9 00 00     	lda	#$0
  2037 00:0E02: E5 03        	sbc	<R0+2
  2038 00:0E04: 70 03        	bvs	L153
  2039 00:0E06: 49 00 80     	eor	#$8000
  2040                        L153:
  2041 00:0E09: 30 03        	bmi	*+5
  2042 00:0E0B: 82 40 FF     	brl	L20049
  2043 00:0E0E: A0 60 02     	ldy	#$260
  2044 00:0E11: B7 2C        	lda	[<L136+dt_0],Y
  2045 00:0E13: C9 FF FF     	cmp	#<$ffffffff
  2046 00:0E16: D0 07        	bne	L155
  2047 00:0E18: C8           	iny
  2048 00:0E19: C8           	iny
  2049 00:0E1A: B7 2C        	lda	[<L136+dt_0],Y
  2050 00:0E1C: C9 FF FF     	cmp	#^$ffffffff
  2051                        L155:
  2052 00:0E1F: D0 03        	bne	*+5
  2053 00:0E21: 82 2A FF     	brl	L20049
  2054 00:0E24: A9 FF FE     	lda	#$feff
  2055 00:0E27: 18           	clc
  2056 00:0E28: 65 0D        	adc	<L137+sym_1
  2057 00:0E2A: 85 0D        	sta	<L137+sym_1
  2058 00:0E2C: A9 FF FF     	lda	#$ffff
  2059 00:0E2F: 65 0F        	adc	<L137+sym_1+2
  2060 00:0E31: 85 0F        	sta	<L137+sym_1+2
  2061 00:0E33: A5 0D        	lda	<L137+sym_1
  Tue Dec  8 2020 22:45                                                Page 39


  2062 00:0E35: 0A           	asl	A
  2063 00:0E36: AA           	tax
  2064 00:0E37: BD xx xx     	lda	|L139,X
  2065 00:0E3A: 85 05        	sta	<R1
  2066 00:0E3C: 64 07        	stz	<R1+2
  2067 00:0E3E: D4 07        	pei	<R1+2
  2068 00:0E40: D4 05        	pei	<R1
  2069 00:0E42: A6 0D        	ldx	<L137+sym_1
  2070 00:0E44: BD xx xx     	lda	|L138,X
  2071 00:0E47: 29 FF 00     	and	#$ff
  2072 00:0E4A: 85 09        	sta	<R2
  2073 00:0E4C: 64 0B        	stz	<R2+2
  2074 00:0E4E: D4 0B        	pei	<R2+2
  2075 00:0E50: D4 09        	pei	<R2
  2076 00:0E52: D4 26        	pei	<L136+d_0+2
  2077 00:0E54: D4 24        	pei	<L136+d_0
  2078 00:0E56: 22 xx xx xx  	jsl	~~tinf_getbits_base
  2079 00:0E5A: 85 11        	sta	<L137+length_1
  2080 00:0E5C: 86 13        	stx	<L137+length_1+2
  2081 00:0E5E: D4 2E        	pei	<L136+dt_0+2
  2082 00:0E60: D4 2C        	pei	<L136+dt_0
  2083 00:0E62: D4 26        	pei	<L136+d_0+2
  2084 00:0E64: D4 24        	pei	<L136+d_0
  2085 00:0E66: 22 xx xx xx  	jsl	~~tinf_decode_symbol
  2086 00:0E6A: 85 15        	sta	<L137+dist_1
  2087 00:0E6C: 86 17        	stx	<L137+dist_1+2
  2088 00:0E6E: 38           	sec
  2089 00:0E6F: A0 60 02     	ldy	#$260
  2090 00:0E72: B7 2C        	lda	[<L136+dt_0],Y
  2091 00:0E74: E5 15        	sbc	<L137+dist_1
  2092 00:0E76: C8           	iny
  2093 00:0E77: C8           	iny
  2094 00:0E78: B7 2C        	lda	[<L136+dt_0],Y
  2095 00:0E7A: E5 17        	sbc	<L137+dist_1+2
  2096 00:0E7C: 70 03        	bvs	L158
  2097 00:0E7E: 49 00 80     	eor	#$8000
  2098                        L158:
  2099 00:0E81: 30 03        	bmi	*+5
  2100 00:0E83: 82 C8 FE     	brl	L20049
  2101 00:0E86: 38           	sec
  2102 00:0E87: A9 1D 00     	lda	#$1d
  2103 00:0E8A: E5 15        	sbc	<L137+dist_1
  2104 00:0E8C: A9 00 00     	lda	#$0
  2105 00:0E8F: E5 17        	sbc	<L137+dist_1+2
  2106 00:0E91: 70 03        	bvs	L160
  2107 00:0E93: 49 00 80     	eor	#$8000
  2108                        L160:
  2109 00:0E96: 30 03        	bmi	*+5
  2110 00:0E98: 82 B3 FE     	brl	L20049
  2111 00:0E9B: A5 15        	lda	<L137+dist_1
  2112 00:0E9D: 0A           	asl	A
  2113 00:0E9E: AA           	tax
  2114 00:0E9F: BD xx xx     	lda	|L141,X
  2115 00:0EA2: 85 05        	sta	<R1
  2116 00:0EA4: 64 07        	stz	<R1+2
  2117 00:0EA6: D4 07        	pei	<R1+2
  2118 00:0EA8: D4 05        	pei	<R1
  2119 00:0EAA: A6 15        	ldx	<L137+dist_1
  Tue Dec  8 2020 22:45                                                Page 40


  2120 00:0EAC: BD xx xx     	lda	|L140,X
  2121 00:0EAF: 29 FF 00     	and	#$ff
  2122 00:0EB2: 85 09        	sta	<R2
  2123 00:0EB4: 64 0B        	stz	<R2+2
  2124 00:0EB6: D4 0B        	pei	<R2+2
  2125 00:0EB8: D4 09        	pei	<R2
  2126 00:0EBA: D4 26        	pei	<L136+d_0+2
  2127 00:0EBC: D4 24        	pei	<L136+d_0
  2128 00:0EBE: 22 xx xx xx  	jsl	~~tinf_getbits_base
  2129 00:0EC2: 85 19        	sta	<L137+offs_1
  2130 00:0EC4: 86 1B        	stx	<L137+offs_1+2
  2131 00:0EC6: 38           	sec
  2132 00:0EC7: A0 18 00     	ldy	#$18
  2133 00:0ECA: B7 24        	lda	[<L136+d_0],Y
  2134 00:0ECC: A0 14 00     	ldy	#$14
  2135 00:0ECF: F7 24        	sbc	[<L136+d_0],Y
  2136 00:0ED1: 85 01        	sta	<R0
  2137 00:0ED3: A0 1A 00     	ldy	#$1a
  2138 00:0ED6: B7 24        	lda	[<L136+d_0],Y
  2139 00:0ED8: A0 16 00     	ldy	#$16
  2140 00:0EDB: F7 24        	sbc	[<L136+d_0],Y
  2141 00:0EDD: 85 03        	sta	<R0+2
  2142 00:0EDF: 38           	sec
  2143 00:0EE0: A5 01        	lda	<R0
  2144 00:0EE2: E5 19        	sbc	<L137+offs_1
  2145 00:0EE4: A5 03        	lda	<R0+2
  2146 00:0EE6: E5 1B        	sbc	<L137+offs_1+2
  2147 00:0EE8: 70 03        	bvs	L162
  2148 00:0EEA: 49 00 80     	eor	#$8000
  2149                        L162:
  2150 00:0EED: 30 03        	bmi	*+5
  2151 00:0EEF: 82 5C FE     	brl	L20049
  2152 00:0EF2: 38           	sec
  2153 00:0EF3: A0 1C 00     	ldy	#$1c
  2154 00:0EF6: B7 24        	lda	[<L136+d_0],Y
  2155 00:0EF8: A0 18 00     	ldy	#$18
  2156 00:0EFB: F7 24        	sbc	[<L136+d_0],Y
  2157 00:0EFD: 85 01        	sta	<R0
  2158 00:0EFF: A0 1E 00     	ldy	#$1e
  2159 00:0F02: B7 24        	lda	[<L136+d_0],Y
  2160 00:0F04: A0 1A 00     	ldy	#$1a
  2161 00:0F07: F7 24        	sbc	[<L136+d_0],Y
  2162 00:0F09: 85 03        	sta	<R0+2
  2163 00:0F0B: 38           	sec
  2164 00:0F0C: A5 01        	lda	<R0
  2165 00:0F0E: E5 11        	sbc	<L137+length_1
  2166 00:0F10: A5 03        	lda	<R0+2
  2167 00:0F12: E5 13        	sbc	<L137+length_1+2
  2168 00:0F14: 70 03        	bvs	L164
  2169 00:0F16: 49 00 80     	eor	#$8000
  2170                        L164:
  2171 00:0F19: 30 03        	bmi	*+5
  2172 00:0F1B: 82 6C FE     	brl	L20052
  2173 00:0F1E: 64 1D        	stz	<L137+i_1
  2174 00:0F20: 64 1F        	stz	<L137+i_1+2
  2175 00:0F22: 80 3E        	bra	L10097
  2176                        L10096:
  2177 00:0F24: 18           	clc
  Tue Dec  8 2020 22:45                                                Page 41


  2178 00:0F25: A0 18 00     	ldy	#$18
  2179 00:0F28: B7 24        	lda	[<L136+d_0],Y
  2180 00:0F2A: 65 1D        	adc	<L137+i_1
  2181 00:0F2C: 85 01        	sta	<R0
  2182 00:0F2E: C8           	iny
  2183 00:0F2F: C8           	iny
  2184 00:0F30: B7 24        	lda	[<L136+d_0],Y
  2185 00:0F32: 65 1F        	adc	<L137+i_1+2
  2186 00:0F34: 85 03        	sta	<R0+2
  2187 00:0F36: 38           	sec
  2188 00:0F37: A5 1D        	lda	<L137+i_1
  2189 00:0F39: E5 19        	sbc	<L137+offs_1
  2190 00:0F3B: 85 05        	sta	<R1
  2191 00:0F3D: A5 1F        	lda	<L137+i_1+2
  2192 00:0F3F: E5 1B        	sbc	<L137+offs_1+2
  2193 00:0F41: 85 07        	sta	<R1+2
  2194 00:0F43: 18           	clc
  2195 00:0F44: 88           	dey
  2196 00:0F45: 88           	dey
  2197 00:0F46: B7 24        	lda	[<L136+d_0],Y
  2198 00:0F48: 65 05        	adc	<R1
  2199 00:0F4A: 85 09        	sta	<R2
  2200 00:0F4C: C8           	iny
  2201 00:0F4D: C8           	iny
  2202 00:0F4E: B7 24        	lda	[<L136+d_0],Y
  2203 00:0F50: 65 07        	adc	<R1+2
  2204 00:0F52: 85 0B        	sta	<R2+2
  2205 00:0F54: E2 20        	sep	#$20
  2206                        	longa	off
  2207 00:0F56: A7 09        	lda	[<R2]
  2208 00:0F58: 87 01        	sta	[<R0]
  2209 00:0F5A: C2 20        	rep	#$20
  2210                        	longa	on
  2211 00:0F5C: E6 1D        	inc	<L137+i_1
  2212 00:0F5E: D0 02        	bne	L10097
  2213 00:0F60: E6 1F        	inc	<L137+i_1+2
  2214                        L10097:
  2215 00:0F62: 38           	sec
  2216 00:0F63: A5 1D        	lda	<L137+i_1
  2217 00:0F65: E5 11        	sbc	<L137+length_1
  2218 00:0F67: A5 1F        	lda	<L137+i_1+2
  2219 00:0F69: E5 13        	sbc	<L137+length_1+2
  2220 00:0F6B: 70 03        	bvs	L167
  2221 00:0F6D: 49 00 80     	eor	#$8000
  2222                        L167:
  2223 00:0F70: 10 B2        	bpl	L10096
  2224 00:0F72: A9 18 00     	lda	#$18
  2225 00:0F75: 18           	clc
  2226 00:0F76: 65 24        	adc	<L136+d_0
  2227 00:0F78: 85 01        	sta	<R0
  2228 00:0F7A: A9 00 00     	lda	#$0
  2229 00:0F7D: 65 26        	adc	<L136+d_0+2
  2230 00:0F7F: 85 03        	sta	<R0+2
  2231 00:0F81: A7 01        	lda	[<R0]
  2232 00:0F83: 18           	clc
  2233 00:0F84: 65 11        	adc	<L137+length_1
  2234 00:0F86: 87 01        	sta	[<R0]
  2235 00:0F88: A0 02 00     	ldy	#$2
  Tue Dec  8 2020 22:45                                                Page 42


  2236 00:0F8B: B7 01        	lda	[<R0],Y
  2237 00:0F8D: 65 13        	adc	<L137+length_1+2
  2238 00:0F8F: 97 01        	sta	[<R0],Y
  2239 00:0F91: 82 9F FD     	brl	L10084
  2240             00000020   L136	equ	32
  2241             0000000D   L137	equ	13
  2242                        	ends
  2243                        	efunc
  2244                        	data
  2245                        L138:
  2246 00:020B: 00 00 00 00  	db	$0,$0,$0,$0,$0,$0,$0,$0,$1,$1
       00:020F: 00 00 00 00 
       00:0213: 01 01 
  2247 00:0215: 01 01 02 02  	db	$1,$1,$2,$2,$2,$2,$3,$3,$3,$3
       00:0219: 02 02 03 03 
       00:021D: 03 03 
  2248 00:021F: 04 04 04 04  	db	$4,$4,$4,$4,$5,$5,$5,$5,$0,$7F
       00:0223: 05 05 05 05 
       00:0227: 00 7F 
  2249 00:0229:              	ends
  2250                        	data
  2251                        L139:
  2252 00:0229: 03 00 04 00  	dw	$3,$4,$5,$6,$7,$8,$9,$A,$B,$D
       00:022D: 05 00 06 00 
       00:0231: 07 00 08 00 
       00:0235: 09 00 0A 00 
       00:0239: 0B 00 0D 00 
  2253 00:023D: 0F 00 11 00  	dw	$F,$11,$13,$17,$1B,$1F,$23,$2B,$33,$3B
       00:0241: 13 00 17 00 
       00:0245: 1B 00 1F 00 
       00:0249: 23 00 2B 00 
       00:024D: 33 00 3B 00 
  2254 00:0251: 43 00 53 00  	dw	$43,$53,$63,$73,$83,$A3,$C3,$E3,$102,$0
       00:0255: 63 00 73 00 
       00:0259: 83 00 A3 00 
       00:025D: C3 00 E3 00 
       00:0261: 02 01 00 00 
  2255 00:0265:              	ends
  2256                        	data
  2257                        L140:
  2258 00:0265: 00 00 00 00  	db	$0,$0,$0,$0,$1,$1,$2,$2,$3,$3
       00:0269: 01 01 02 02 
       00:026D: 03 03 
  2259 00:026F: 04 04 05 05  	db	$4,$4,$5,$5,$6,$6,$7,$7,$8,$8
       00:0273: 06 06 07 07 
       00:0277: 08 08 
  2260 00:0279: 09 09 0A 0A  	db	$9,$9,$A,$A,$B,$B,$C,$C,$D,$D
       00:027D: 0B 0B 0C 0C 
       00:0281: 0D 0D 
  2261 00:0283:              	ends
  2262                        	data
  2263                        L141:
  2264 00:0283: 01 00 02 00  	dw	$1,$2,$3,$4,$5,$7,$9,$D,$11,$19
       00:0287: 03 00 04 00 
       00:028B: 05 00 07 00 
       00:028F: 09 00 0D 00 
       00:0293: 11 00 19 00 
  2265 00:0297: 21 00 31 00  	dw	$21,$31,$41,$61,$81,$C1,$101,$181,$201,$
  Tue Dec  8 2020 22:45                                                Page 43


                    301
       00:029B: 41 00 61 00 
       00:029F: 81 00 C1 00 
       00:02A3: 01 01 81 01 
       00:02A7: 01 02 01 03 
  2266 00:02AB: 01 04 01 06  	dw	$401,$601,$801,$C01,$1001,$1801,$2001,$3
                    001,$4001,$6001
       00:02AF: 01 08 01 0C 
       00:02B3: 01 10 01 18 
       00:02B7: 01 20 01 30 
       00:02BB: 01 40 01 60 
  2267 00:02BF:              	ends
  2268                        	code
  2269                        	func
  2270                        ~~tinf_inflate_uncompressed_block:
  2271                        	longa	on
  2272                        	longi	on
  2273 00:0F94: 3B           	tsc
  2274 00:0F95: 38           	sec
  2275 00:0F96: E9 10 00     	sbc	#L169
  2276 00:0F99: 1B           	tcs
  2277 00:0F9A: 0B           	phd
  2278 00:0F9B: 5B           	tcd
  2279             00000004   d_0	set	4
  2280             00000000   length_1	set	0
  2281             00000004   invlength_1	set	4
  2282 00:0F9C: 38           	sec
  2283 00:0F9D: A0 04 00     	ldy	#$4
  2284 00:0FA0: B7 14        	lda	[<L169+d_0],Y
  2285 00:0FA2: E7 14        	sbc	[<L169+d_0]
  2286 00:0FA4: 85 01        	sta	<R0
  2287 00:0FA6: C8           	iny
  2288 00:0FA7: C8           	iny
  2289 00:0FA8: B7 14        	lda	[<L169+d_0],Y
  2290 00:0FAA: A0 02 00     	ldy	#$2
  2291 00:0FAD: F7 14        	sbc	[<L169+d_0],Y
  2292 00:0FAF: 85 03        	sta	<R0+2
  2293 00:0FB1: A5 03        	lda	<R0+2
  2294 00:0FB3: 30 09        	bmi	L171
  2295 00:0FB5: D0 1F        	bne	L10098
  2296 00:0FB7: A5 01        	lda	<R0
  2297 00:0FB9: C9 04 00     	cmp	#4
  2298 00:0FBC: B0 18        	bcs	L10098
  2299                        L171:
  2300 00:0FBE: A9 FF FF     	lda	#$ffff
  2301 00:0FC1: AA           	tax
  2302 00:0FC2: 3A           	dea
  2303 00:0FC3: 3A           	dea
  2304                        L173:
  2305 00:0FC4: A8           	tay
  2306 00:0FC5: A5 12        	lda	<L169+2
  2307 00:0FC7: 85 16        	sta	<L169+2+4
  2308 00:0FC9: A5 11        	lda	<L169+1
  2309 00:0FCB: 85 15        	sta	<L169+1+4
  2310 00:0FCD: 2B           	pld
  2311 00:0FCE: 3B           	tsc
  2312 00:0FCF: 18           	clc
  2313 00:0FD0: 69 14 00     	adc	#L169+4
  Tue Dec  8 2020 22:45                                                Page 44


  2314 00:0FD3: 1B           	tcs
  2315 00:0FD4: 98           	tya
  2316 00:0FD5: 6B           	rtl
  2317                        L10098:
  2318 00:0FD6: A0 02 00     	ldy	#$2
  2319 00:0FD9: B7 14        	lda	[<L169+d_0],Y
  2320 00:0FDB: 48           	pha
  2321 00:0FDC: A7 14        	lda	[<L169+d_0]
  2322 00:0FDE: 48           	pha
  2323 00:0FDF: 22 xx xx xx  	jsl	~~read_le16
  2324 00:0FE3: 85 09        	sta	<L170+length_1
  2325 00:0FE5: 86 0B        	stx	<L170+length_1+2
  2326 00:0FE7: A9 02 00     	lda	#$2
  2327 00:0FEA: 18           	clc
  2328 00:0FEB: 67 14        	adc	[<L169+d_0]
  2329 00:0FED: 85 01        	sta	<R0
  2330 00:0FEF: A9 00 00     	lda	#$0
  2331 00:0FF2: A0 02 00     	ldy	#$2
  2332 00:0FF5: 77 14        	adc	[<L169+d_0],Y
  2333 00:0FF7: 48           	pha
  2334 00:0FF8: D4 01        	pei	<R0
  2335 00:0FFA: 22 xx xx xx  	jsl	~~read_le16
  2336 00:0FFE: 85 0D        	sta	<L170+invlength_1
  2337 00:1000: 86 0F        	stx	<L170+invlength_1+2
  2338 00:1002: 49 FF FF     	eor	#<$ffffffff
  2339 00:1005: 85 01        	sta	<R0
  2340 00:1007: A5 0F        	lda	<L170+invlength_1+2
  2341 00:1009: 49 FF FF     	eor	#^$ffffffff
  2342 00:100C: 85 03        	sta	<R0+2
  2343 00:100E: A5 01        	lda	<R0
  2344 00:1010: 85 05        	sta	<R1
  2345 00:1012: 64 07        	stz	<R1+2
  2346 00:1014: A5 05        	lda	<R1
  2347 00:1016: C5 09        	cmp	<L170+length_1
  2348 00:1018: D0 04        	bne	L174
  2349 00:101A: A5 07        	lda	<R1+2
  2350 00:101C: C5 0B        	cmp	<L170+length_1+2
  2351                        L174:
  2352 00:101E: D0 9E        	bne	L171
  2353 00:1020: A9 04 00     	lda	#$4
  2354 00:1023: 18           	clc
  2355 00:1024: 67 14        	adc	[<L169+d_0]
  2356 00:1026: 87 14        	sta	[<L169+d_0]
  2357 00:1028: A9 00 00     	lda	#$0
  2358 00:102B: A0 02 00     	ldy	#$2
  2359 00:102E: 77 14        	adc	[<L169+d_0],Y
  2360 00:1030: 97 14        	sta	[<L169+d_0],Y
  2361 00:1032: 38           	sec
  2362 00:1033: C8           	iny
  2363 00:1034: C8           	iny
  2364 00:1035: B7 14        	lda	[<L169+d_0],Y
  2365 00:1037: E7 14        	sbc	[<L169+d_0]
  2366 00:1039: 85 01        	sta	<R0
  2367 00:103B: C8           	iny
  2368 00:103C: C8           	iny
  2369 00:103D: B7 14        	lda	[<L169+d_0],Y
  2370 00:103F: A0 02 00     	ldy	#$2
  2371 00:1042: F7 14        	sbc	[<L169+d_0],Y
  Tue Dec  8 2020 22:45                                                Page 45


  2372 00:1044: 85 03        	sta	<R0+2
  2373 00:1046: A5 01        	lda	<R0
  2374 00:1048: C5 09        	cmp	<L170+length_1
  2375 00:104A: A5 03        	lda	<R0+2
  2376 00:104C: E5 0B        	sbc	<L170+length_1+2
  2377 00:104E: B0 03        	bcs	*+5
  2378 00:1050: 82 6B FF     	brl	L171
  2379 00:1053: 38           	sec
  2380 00:1054: A0 1C 00     	ldy	#$1c
  2381 00:1057: B7 14        	lda	[<L169+d_0],Y
  2382 00:1059: A0 18 00     	ldy	#$18
  2383 00:105C: F7 14        	sbc	[<L169+d_0],Y
  2384 00:105E: 85 01        	sta	<R0
  2385 00:1060: A0 1E 00     	ldy	#$1e
  2386 00:1063: B7 14        	lda	[<L169+d_0],Y
  2387 00:1065: A0 1A 00     	ldy	#$1a
  2388 00:1068: F7 14        	sbc	[<L169+d_0],Y
  2389 00:106A: 85 03        	sta	<R0+2
  2390 00:106C: A5 01        	lda	<R0
  2391 00:106E: C5 09        	cmp	<L170+length_1
  2392 00:1070: A5 03        	lda	<R0+2
  2393 00:1072: E5 0B        	sbc	<L170+length_1+2
  2394 00:1074: B0 0A        	bcs	L10102
  2395 00:1076: A9 FF FF     	lda	#$ffff
  2396 00:1079: AA           	tax
  2397 00:107A: A9 FB FF     	lda	#$fffb
  2398 00:107D: 82 44 FF     	brl	L173
  2399                        L10102:
  2400 00:1080: A5 09        	lda	<L170+length_1
  2401 00:1082: 85 01        	sta	<R0
  2402 00:1084: A5 0B        	lda	<L170+length_1+2
  2403 00:1086: 85 03        	sta	<R0+2
  2404 00:1088: A5 09        	lda	<L170+length_1
  2405 00:108A: D0 02        	bne	L178
  2406 00:108C: C6 0B        	dec	<L170+length_1+2
  2407                        L178:
  2408 00:108E: C6 09        	dec	<L170+length_1
  2409 00:1090: A5 01        	lda	<R0
  2410 00:1092: 05 03        	ora	<R0+2
  2411 00:1094: F0 45        	beq	L10103
  2412 00:1096: A0 18 00     	ldy	#$18
  2413 00:1099: B7 14        	lda	[<L169+d_0],Y
  2414 00:109B: 85 01        	sta	<R0
  2415 00:109D: C8           	iny
  2416 00:109E: C8           	iny
  2417 00:109F: B7 14        	lda	[<L169+d_0],Y
  2418 00:10A1: 85 03        	sta	<R0+2
  2419 00:10A3: A7 14        	lda	[<L169+d_0]
  2420 00:10A5: 85 05        	sta	<R1
  2421 00:10A7: A0 02 00     	ldy	#$2
  2422 00:10AA: B7 14        	lda	[<L169+d_0],Y
  2423 00:10AC: 85 07        	sta	<R1+2
  2424 00:10AE: E2 20        	sep	#$20
  2425                        	longa	off
  2426 00:10B0: A7 05        	lda	[<R1]
  2427 00:10B2: 87 01        	sta	[<R0]
  2428 00:10B4: C2 20        	rep	#$20
  2429                        	longa	on
  Tue Dec  8 2020 22:45                                                Page 46


  2430 00:10B6: A9 01 00     	lda	#$1
  2431 00:10B9: 18           	clc
  2432 00:10BA: 67 14        	adc	[<L169+d_0]
  2433 00:10BC: 87 14        	sta	[<L169+d_0]
  2434 00:10BE: A9 00 00     	lda	#$0
  2435 00:10C1: 77 14        	adc	[<L169+d_0],Y
  2436 00:10C3: 97 14        	sta	[<L169+d_0],Y
  2437 00:10C5: 18           	clc
  2438 00:10C6: A9 01 00     	lda	#$1
  2439 00:10C9: A0 18 00     	ldy	#$18
  2440 00:10CC: 77 14        	adc	[<L169+d_0],Y
  2441 00:10CE: 97 14        	sta	[<L169+d_0],Y
  2442 00:10D0: A9 00 00     	lda	#$0
  2443 00:10D3: C8           	iny
  2444 00:10D4: C8           	iny
  2445 00:10D5: 77 14        	adc	[<L169+d_0],Y
  2446 00:10D7: 97 14        	sta	[<L169+d_0],Y
  2447 00:10D9: 80 A5        	bra	L10102
  2448                        L10103:
  2449 00:10DB: A9 00 00     	lda	#$0
  2450 00:10DE: A0 08 00     	ldy	#$8
  2451 00:10E1: 97 14        	sta	[<L169+d_0],Y
  2452 00:10E3: C8           	iny
  2453 00:10E4: C8           	iny
  2454 00:10E5: 97 14        	sta	[<L169+d_0],Y
  2455 00:10E7: C8           	iny
  2456 00:10E8: C8           	iny
  2457 00:10E9: 97 14        	sta	[<L169+d_0],Y
  2458 00:10EB: C8           	iny
  2459 00:10EC: C8           	iny
  2460 00:10ED: 97 14        	sta	[<L169+d_0],Y
  2461 00:10EF: AA           	tax
  2462 00:10F0: 82 D1 FE     	brl	L173
  2463             00000010   L169	equ	16
  2464             00000009   L170	equ	9
  2465                        	ends
  2466                        	efunc
  2467                        	code
  2468                        	func
  2469                        ~~tinf_inflate_fixed_block:
  2470                        	longa	on
  2471                        	longi	on
  2472 00:10F3: 3B           	tsc
  2473 00:10F4: 38           	sec
  2474 00:10F5: E9 0C 00     	sbc	#L180
  2475 00:10F8: 1B           	tcs
  2476 00:10F9: 0B           	phd
  2477 00:10FA: 5B           	tcd
  2478             00000004   d_0	set	4
  2479 00:10FB: A9 84 02     	lda	#$284
  2480 00:10FE: 18           	clc
  2481 00:10FF: 65 10        	adc	<L180+d_0
  2482 00:1101: 85 01        	sta	<R0
  2483 00:1103: A9 00 00     	lda	#$0
  2484 00:1106: 65 12        	adc	<L180+d_0+2
  2485 00:1108: 48           	pha
  2486 00:1109: D4 01        	pei	<R0
  2487 00:110B: A9 20 00     	lda	#$20
  Tue Dec  8 2020 22:45                                                Page 47


  2488 00:110E: 18           	clc
  2489 00:110F: 65 10        	adc	<L180+d_0
  2490 00:1111: 85 05        	sta	<R1
  2491 00:1113: A9 00 00     	lda	#$0
  2492 00:1116: 65 12        	adc	<L180+d_0+2
  2493 00:1118: 48           	pha
  2494 00:1119: D4 05        	pei	<R1
  2495 00:111B: 22 xx xx xx  	jsl	~~tinf_build_fixed_trees
  2496 00:111F: A9 84 02     	lda	#$284
  2497 00:1122: 18           	clc
  2498 00:1123: 65 10        	adc	<L180+d_0
  2499 00:1125: 85 01        	sta	<R0
  2500 00:1127: A9 00 00     	lda	#$0
  2501 00:112A: 65 12        	adc	<L180+d_0+2
  2502 00:112C: 48           	pha
  2503 00:112D: D4 01        	pei	<R0
  2504 00:112F: A9 20 00     	lda	#$20
  2505 00:1132: 18           	clc
  2506 00:1133: 65 10        	adc	<L180+d_0
  2507 00:1135: 85 05        	sta	<R1
  2508 00:1137: A9 00 00     	lda	#$0
  2509 00:113A: 65 12        	adc	<L180+d_0+2
  2510 00:113C: 48           	pha
  2511 00:113D: D4 05        	pei	<R1
  2512 00:113F: D4 12        	pei	<L180+d_0+2
  2513 00:1141: D4 10        	pei	<L180+d_0
  2514 00:1143: 22 xx xx xx  	jsl	~~tinf_inflate_block_data
  2515 00:1147: 85 09        	sta	<R2
  2516 00:1149: 86 0B        	stx	<R2+2
  2517 00:114B: A6 0B        	ldx	<R2+2
  2518 00:114D: A5 09        	lda	<R2
  2519 00:114F: A8           	tay
  2520 00:1150: A5 0E        	lda	<L180+2
  2521 00:1152: 85 12        	sta	<L180+2+4
  2522 00:1154: A5 0D        	lda	<L180+1
  2523 00:1156: 85 11        	sta	<L180+1+4
  2524 00:1158: 2B           	pld
  2525 00:1159: 3B           	tsc
  2526 00:115A: 18           	clc
  2527 00:115B: 69 10 00     	adc	#L180+4
  2528 00:115E: 1B           	tcs
  2529 00:115F: 98           	tya
  2530 00:1160: 6B           	rtl
  2531             0000000C   L180	equ	12
  2532             0000000D   L181	equ	13
  2533                        	ends
  2534                        	efunc
  2535                        	code
  2536                        	func
  2537                        ~~tinf_inflate_dynamic_block:
  2538                        	longa	on
  2539                        	longi	on
  2540 00:1161: 3B           	tsc
  2541 00:1162: 38           	sec
  2542 00:1163: E9 0C 00     	sbc	#L183
  2543 00:1166: 1B           	tcs
  2544 00:1167: 0B           	phd
  2545 00:1168: 5B           	tcd
  Tue Dec  8 2020 22:45                                                Page 48


  2546             00000004   d_0	set	4
  2547             00000000   res_1	set	0
  2548 00:1169: A9 84 02     	lda	#$284
  2549 00:116C: 18           	clc
  2550 00:116D: 65 10        	adc	<L183+d_0
  2551 00:116F: 85 01        	sta	<R0
  2552 00:1171: A9 00 00     	lda	#$0
  2553 00:1174: 65 12        	adc	<L183+d_0+2
  2554 00:1176: 48           	pha
  2555 00:1177: D4 01        	pei	<R0
  2556 00:1179: A9 20 00     	lda	#$20
  2557 00:117C: 18           	clc
  2558 00:117D: 65 10        	adc	<L183+d_0
  2559 00:117F: 85 05        	sta	<R1
  2560 00:1181: A9 00 00     	lda	#$0
  2561 00:1184: 65 12        	adc	<L183+d_0+2
  2562 00:1186: 48           	pha
  2563 00:1187: D4 05        	pei	<R1
  2564 00:1189: D4 12        	pei	<L183+d_0+2
  2565 00:118B: D4 10        	pei	<L183+d_0
  2566 00:118D: 22 xx xx xx  	jsl	~~tinf_decode_trees
  2567 00:1191: 85 09        	sta	<L184+res_1
  2568 00:1193: 86 0B        	stx	<L184+res_1+2
  2569 00:1195: 05 0B        	ora	<L184+res_1+2
  2570 00:1197: F0 16        	beq	L10104
  2571                        L20056:
  2572 00:1199: A6 0B        	ldx	<L184+res_1+2
  2573 00:119B: A5 09        	lda	<L184+res_1
  2574 00:119D: A8           	tay
  2575 00:119E: A5 0E        	lda	<L183+2
  2576 00:11A0: 85 12        	sta	<L183+2+4
  2577 00:11A2: A5 0D        	lda	<L183+1
  2578 00:11A4: 85 11        	sta	<L183+1+4
  2579 00:11A6: 2B           	pld
  2580 00:11A7: 3B           	tsc
  2581 00:11A8: 18           	clc
  2582 00:11A9: 69 10 00     	adc	#L183+4
  2583 00:11AC: 1B           	tcs
  2584 00:11AD: 98           	tya
  2585 00:11AE: 6B           	rtl
  2586                        L10104:
  2587 00:11AF: A9 84 02     	lda	#$284
  2588 00:11B2: 18           	clc
  2589 00:11B3: 65 10        	adc	<L183+d_0
  2590 00:11B5: 85 01        	sta	<R0
  2591 00:11B7: A9 00 00     	lda	#$0
  2592 00:11BA: 65 12        	adc	<L183+d_0+2
  2593 00:11BC: 48           	pha
  2594 00:11BD: D4 01        	pei	<R0
  2595 00:11BF: A9 20 00     	lda	#$20
  2596 00:11C2: 18           	clc
  2597 00:11C3: 65 10        	adc	<L183+d_0
  2598 00:11C5: 85 05        	sta	<R1
  2599 00:11C7: A9 00 00     	lda	#$0
  2600 00:11CA: 65 12        	adc	<L183+d_0+2
  2601 00:11CC: 48           	pha
  2602 00:11CD: D4 05        	pei	<R1
  2603 00:11CF: D4 12        	pei	<L183+d_0+2
  Tue Dec  8 2020 22:45                                                Page 49


  2604 00:11D1: D4 10        	pei	<L183+d_0
  2605 00:11D3: 22 xx xx xx  	jsl	~~tinf_inflate_block_data
  2606 00:11D7: 85 09        	sta	<L184+res_1
  2607 00:11D9: 86 0B        	stx	<L184+res_1+2
  2608 00:11DB: 80 BC        	bra	L20056
  2609             0000000C   L183	equ	12
  2610             00000009   L184	equ	9
  2611                        	ends
  2612                        	efunc
  2613                        	code
  2614                        	xdef	~~tinf_init
  2615                        	func
  2616                        ~~tinf_init:
  2617                        	longa	on
  2618                        	longi	on
  2619 00:11DD: 6B           	rtl
  2620             00000000   L187	equ	0
  2621             00000001   L188	equ	1
  2622                        	ends
  2623                        	efunc
  2624                        	code
  2625                        	xdef	~~tinf_uncompress
  2626                        	func
  2627                        ~~tinf_uncompress:
  2628                        	longa	on
  2629                        	longi	on
  2630 00:11DE: 3B           	tsc
  2631 00:11DF: 38           	sec
  2632 00:11E0: E9 14 00     	sbc	#L190
  2633 00:11E3: 1B           	tcs
  2634 00:11E4: 0B           	phd
  2635 00:11E5: 5B           	tcd
  2636             00000004   dest_0	set	4
  2637             00000008   destLen_0	set	8
  2638             0000000C   source_0	set	12
  2639             00000010   sourceLen_0	set	16
  2640             00000000   d_1	set	0
  2641             00000004   bfinal_1	set	4
  2642             00000008   btype_1	set	8
  2643             0000000C   res_1	set	12
  2644 00:11E6: F4 00 00     	pea	#^$4e8
  2645 00:11E9: F4 E8 04     	pea	#<$4e8
  2646 00:11EC: 22 xx xx xx  	jsl	~~malloc
  2647 00:11F0: 85 05        	sta	<L191+d_1
  2648 00:11F2: 86 07        	stx	<L191+d_1+2
  2649 00:11F4: A5 20        	lda	<L190+source_0
  2650 00:11F6: 87 05        	sta	[<L191+d_1]
  2651 00:11F8: A5 22        	lda	<L190+source_0+2
  2652 00:11FA: A0 02 00     	ldy	#$2
  2653 00:11FD: 97 05        	sta	[<L191+d_1],Y
  2654 00:11FF: A7 05        	lda	[<L191+d_1]
  2655 00:1201: 18           	clc
  2656 00:1202: 65 24        	adc	<L190+sourceLen_0
  2657 00:1204: 85 01        	sta	<R0
  2658 00:1206: B7 05        	lda	[<L191+d_1],Y
  2659 00:1208: 65 26        	adc	<L190+sourceLen_0+2
  2660 00:120A: 85 03        	sta	<R0+2
  2661 00:120C: A5 01        	lda	<R0
  Tue Dec  8 2020 22:45                                                Page 50


  2662 00:120E: C8           	iny
  2663 00:120F: C8           	iny
  2664 00:1210: 97 05        	sta	[<L191+d_1],Y
  2665 00:1212: A5 03        	lda	<R0+2
  2666 00:1214: C8           	iny
  2667 00:1215: C8           	iny
  2668 00:1216: 97 05        	sta	[<L191+d_1],Y
  2669 00:1218: A9 00 00     	lda	#$0
  2670 00:121B: C8           	iny
  2671 00:121C: C8           	iny
  2672 00:121D: 97 05        	sta	[<L191+d_1],Y
  2673 00:121F: C8           	iny
  2674 00:1220: C8           	iny
  2675 00:1221: 97 05        	sta	[<L191+d_1],Y
  2676 00:1223: C8           	iny
  2677 00:1224: C8           	iny
  2678 00:1225: 97 05        	sta	[<L191+d_1],Y
  2679 00:1227: C8           	iny
  2680 00:1228: C8           	iny
  2681 00:1229: 97 05        	sta	[<L191+d_1],Y
  2682 00:122B: C8           	iny
  2683 00:122C: C8           	iny
  2684 00:122D: 97 05        	sta	[<L191+d_1],Y
  2685 00:122F: C8           	iny
  2686 00:1230: C8           	iny
  2687 00:1231: 97 05        	sta	[<L191+d_1],Y
  2688 00:1233: A5 18        	lda	<L190+dest_0
  2689 00:1235: A0 18 00     	ldy	#$18
  2690 00:1238: 97 05        	sta	[<L191+d_1],Y
  2691 00:123A: A5 1A        	lda	<L190+dest_0+2
  2692 00:123C: C8           	iny
  2693 00:123D: C8           	iny
  2694 00:123E: 97 05        	sta	[<L191+d_1],Y
  2695 00:1240: 88           	dey
  2696 00:1241: 88           	dey
  2697 00:1242: B7 05        	lda	[<L191+d_1],Y
  2698 00:1244: A0 14 00     	ldy	#$14
  2699 00:1247: 97 05        	sta	[<L191+d_1],Y
  2700 00:1249: A0 1A 00     	ldy	#$1a
  2701 00:124C: B7 05        	lda	[<L191+d_1],Y
  2702 00:124E: A0 16 00     	ldy	#$16
  2703 00:1251: 97 05        	sta	[<L191+d_1],Y
  2704 00:1253: 18           	clc
  2705 00:1254: C8           	iny
  2706 00:1255: C8           	iny
  2707 00:1256: B7 05        	lda	[<L191+d_1],Y
  2708 00:1258: 67 1C        	adc	[<L190+destLen_0]
  2709 00:125A: 85 01        	sta	<R0
  2710 00:125C: C8           	iny
  2711 00:125D: C8           	iny
  2712 00:125E: B7 05        	lda	[<L191+d_1],Y
  2713 00:1260: A0 02 00     	ldy	#$2
  2714 00:1263: 77 1C        	adc	[<L190+destLen_0],Y
  2715 00:1265: 85 03        	sta	<R0+2
  2716 00:1267: A5 01        	lda	<R0
  2717 00:1269: A0 1C 00     	ldy	#$1c
  2718 00:126C: 97 05        	sta	[<L191+d_1],Y
  2719 00:126E: A5 03        	lda	<R0+2
  Tue Dec  8 2020 22:45                                                Page 51


  2720 00:1270: C8           	iny
  2721 00:1271: C8           	iny
  2722 00:1272: 97 05        	sta	[<L191+d_1],Y
  2723                        L10107:
  2724 00:1274: F4 00 00     	pea	#^$1
  2725 00:1277: F4 01 00     	pea	#<$1
  2726 00:127A: D4 07        	pei	<L191+d_1+2
  2727 00:127C: D4 05        	pei	<L191+d_1
  2728 00:127E: 22 xx xx xx  	jsl	~~tinf_getbits
  2729 00:1282: 85 09        	sta	<L191+bfinal_1
  2730 00:1284: 86 0B        	stx	<L191+bfinal_1+2
  2731 00:1286: F4 00 00     	pea	#^$2
  2732 00:1289: F4 02 00     	pea	#<$2
  2733 00:128C: D4 07        	pei	<L191+d_1+2
  2734 00:128E: D4 05        	pei	<L191+d_1
  2735 00:1290: 22 xx xx xx  	jsl	~~tinf_getbits
  2736 00:1294: 85 0D        	sta	<L191+btype_1
  2737 00:1296: 86 0F        	stx	<L191+btype_1+2
  2738 00:1298: A6 0F        	ldx	<L191+btype_1+2
  2739 00:129A: A5 0D        	lda	<L191+btype_1
  2740                        	xref	~~~lswt
  2741 00:129C: 22 xx xx xx  	jsl	~~~lswt
  2742 00:12A0: 03 00        	dw	3
  2743 00:12A2: 00 00 00 00  	dl	0
  2744 00:12A6: xx xx        	dw	L10110-1
  2745 00:12A8: 01 00 00 00  	dl	1
  2746 00:12AC: xx xx        	dw	L10111-1
  2747 00:12AE: 02 00 00 00  	dl	2
  2748 00:12B2: xx xx        	dw	L10112-1
  2749 00:12B4: xx xx        	dw	L10113-1
  2750                        L10110:
  2751 00:12B6: D4 07        	pei	<L191+d_1+2
  2752 00:12B8: D4 05        	pei	<L191+d_1
  2753 00:12BA: 22 xx xx xx  	jsl	~~tinf_inflate_uncompressed_block
  2754                        L20060:
  2755 00:12BE: 85 11        	sta	<L191+res_1
  2756 00:12C0: 86 13        	stx	<L191+res_1+2
  2757 00:12C2: 80 3E        	bra	L10109
  2758                        L20059:
  2759 00:12C4: A5 09        	lda	<L191+bfinal_1
  2760 00:12C6: 05 0B        	ora	<L191+bfinal_1+2
  2761 00:12C8: F0 AA        	beq	L10107
  2762 00:12CA: A0 10 00     	ldy	#$10
  2763 00:12CD: B7 05        	lda	[<L191+d_1],Y
  2764 00:12CF: C8           	iny
  2765 00:12D0: C8           	iny
  2766 00:12D1: 17 05        	ora	[<L191+d_1],Y
  2767 00:12D3: F0 51        	beq	L10115
  2768 00:12D5: D4 07        	pei	<L191+d_1+2
  2769 00:12D7: D4 05        	pei	<L191+d_1
  2770 00:12D9: 22 xx xx xx  	jsl	~~free
  2771 00:12DD: A9 FF FF     	lda	#$ffff
  2772 00:12E0: AA           	tax
  2773 00:12E1: 3A           	dea
  2774 00:12E2: 3A           	dea
  2775 00:12E3: 80 2F        	bra	L193
  2776                        L10111:
  2777 00:12E5: D4 07        	pei	<L191+d_1+2
  Tue Dec  8 2020 22:45                                                Page 52


  2778 00:12E7: D4 05        	pei	<L191+d_1
  2779 00:12E9: 22 xx xx xx  	jsl	~~tinf_inflate_fixed_block
  2780 00:12ED: 80 CF        	bra	L20060
  2781                        L10112:
  2782 00:12EF: D4 07        	pei	<L191+d_1+2
  2783 00:12F1: D4 05        	pei	<L191+d_1
  2784 00:12F3: 22 xx xx xx  	jsl	~~tinf_inflate_dynamic_block
  2785 00:12F7: 80 C5        	bra	L20060
  2786                        L10113:
  2787 00:12F9: A9 FD FF     	lda	#$fffd
  2788 00:12FC: 85 11        	sta	<L191+res_1
  2789 00:12FE: 1A           	ina
  2790 00:12FF: 1A           	ina
  2791 00:1300: 85 13        	sta	<L191+res_1+2
  2792                        L10109:
  2793 00:1302: A5 11        	lda	<L191+res_1
  2794 00:1304: 05 13        	ora	<L191+res_1+2
  2795 00:1306: F0 BC        	beq	L20059
  2796 00:1308: D4 07        	pei	<L191+d_1+2
  2797 00:130A: D4 05        	pei	<L191+d_1
  2798 00:130C: 22 xx xx xx  	jsl	~~free
  2799 00:1310: A6 13        	ldx	<L191+res_1+2
  2800 00:1312: A5 11        	lda	<L191+res_1
  2801                        L193:
  2802 00:1314: A8           	tay
  2803 00:1315: A5 16        	lda	<L190+2
  2804 00:1317: 85 26        	sta	<L190+2+16
  2805 00:1319: A5 15        	lda	<L190+1
  2806 00:131B: 85 25        	sta	<L190+1+16
  2807 00:131D: 2B           	pld
  2808 00:131E: 3B           	tsc
  2809 00:131F: 18           	clc
  2810 00:1320: 69 24 00     	adc	#L190+16
  2811 00:1323: 1B           	tcs
  2812 00:1324: 98           	tya
  2813 00:1325: 6B           	rtl
  2814                        L10115:
  2815 00:1326: 38           	sec
  2816 00:1327: A0 18 00     	ldy	#$18
  2817 00:132A: B7 05        	lda	[<L191+d_1],Y
  2818 00:132C: A0 14 00     	ldy	#$14
  2819 00:132F: F7 05        	sbc	[<L191+d_1],Y
  2820 00:1331: 85 01        	sta	<R0
  2821 00:1333: A0 1A 00     	ldy	#$1a
  2822 00:1336: B7 05        	lda	[<L191+d_1],Y
  2823 00:1338: A0 16 00     	ldy	#$16
  2824 00:133B: F7 05        	sbc	[<L191+d_1],Y
  2825 00:133D: 85 03        	sta	<R0+2
  2826 00:133F: A5 01        	lda	<R0
  2827 00:1341: 87 1C        	sta	[<L190+destLen_0]
  2828 00:1343: A5 03        	lda	<R0+2
  2829 00:1345: A0 02 00     	ldy	#$2
  2830 00:1348: 97 1C        	sta	[<L190+destLen_0],Y
  2831 00:134A: D4 07        	pei	<L191+d_1+2
  2832 00:134C: D4 05        	pei	<L191+d_1
  2833 00:134E: 22 xx xx xx  	jsl	~~free
  2834 00:1352: A9 00 00     	lda	#$0
  2835 00:1355: AA           	tax
  Tue Dec  8 2020 22:45                                                Page 53


  2836 00:1356: 80 BC        	bra	L193
  2837             00000014   L190	equ	20
  2838             00000005   L191	equ	5
  2839                        	ends
  2840                        	efunc
  2841                        	xref	~~printf
  2842                        	xref	~~free
  2843                        	xref	~~malloc
  2844                        	xref	~~__assert_fail


      Lines assembled: 2844
      Errors: 0
