  Thu Nov 19 2020 16:41                                                Page 1


                     ***************************************
                     **      WDC 65C816 Macro Assembler   **
                     **                                   **
                     **     Version 3.49.1- Feb  6 2006    **
                     ***************************************

     1                        ;:ts=8
     2             00000001   R0	equ	1
     3             00000005   R1	equ	5
     4             00000009   R2	equ	9
     5             0000000D   R3	equ	13
     6                        	code
     7                        	func
     8                        ~~__cmsg_nxthdr:
     9                        	longa	on
    10                        	longi	on
    11 00:0000: 3B           	tsc
    12 00:0001: 38           	sec
    13 00:0002: E9 0C 00     	sbc	#L2
    14 00:0005: 1B           	tcs
    15 00:0006: 0B           	phd
    16 00:0007: 5B           	tcd
    17             00000004   __ctl_0	set	4
    18             00000008   __size_0	set	8
    19             0000000C   __cmsg_0	set	12
    20             00000000   __ptr_1	set	0
    21 00:0008: A9 03 00     	lda	#$3
    22 00:000B: 18           	clc
    23 00:000C: 67 18        	adc	[<L2+__cmsg_0]
    24 00:000E: 85 01        	sta	<R0
    25 00:0010: A9 00 00     	lda	#$0
    26 00:0013: A0 02 00     	ldy	#$2
    27 00:0016: 77 18        	adc	[<L2+__cmsg_0],Y
    28 00:0018: 85 03        	sta	<R0+2
    29 00:001A: A5 01        	lda	<R0
    30 00:001C: 29 FC FF     	and	#<$fffffffc
    31 00:001F: 85 05        	sta	<R1
    32 00:0021: A5 03        	lda	<R0+2
    33 00:0023: 85 07        	sta	<R1+2
    34 00:0025: A5 18        	lda	<L2+__cmsg_0
    35 00:0027: 18           	clc
    36 00:0028: 65 05        	adc	<R1
    37 00:002A: 85 09        	sta	<L3+__ptr_1
    38 00:002C: A5 1A        	lda	<L2+__cmsg_0+2
    39 00:002E: 65 07        	adc	<R1+2
    40 00:0030: 85 0B        	sta	<L3+__ptr_1+2
    41 00:0032: A9 08 00     	lda	#$8
    42 00:0035: 18           	clc
    43 00:0036: 65 09        	adc	<L3+__ptr_1
    44 00:0038: 85 01        	sta	<R0
    45 00:003A: A9 00 00     	lda	#$0
    46 00:003D: 65 0B        	adc	<L3+__ptr_1+2
    47 00:003F: 85 03        	sta	<R0+2
    48 00:0041: 38           	sec
    49 00:0042: A5 01        	lda	<R0
    50 00:0044: E5 10        	sbc	<L2+__ctl_0
    51 00:0046: 85 05        	sta	<R1
    52 00:0048: A5 03        	lda	<R0+2
  Thu Nov 19 2020 16:41                                                Page 2


    53 00:004A: E5 12        	sbc	<L2+__ctl_0+2
    54 00:004C: 85 07        	sta	<R1+2
    55 00:004E: A5 14        	lda	<L2+__size_0
    56 00:0050: C5 05        	cmp	<R1
    57 00:0052: A5 16        	lda	<L2+__size_0+2
    58 00:0054: E5 07        	sbc	<R1+2
    59 00:0056: B0 16        	bcs	L10001
    60 00:0058: A9 00 00     	lda	#$0
    61 00:005B: AA           	tax
    62                        L5:
    63 00:005C: A8           	tay
    64 00:005D: A5 0E        	lda	<L2+2
    65 00:005F: 85 1A        	sta	<L2+2+12
    66 00:0061: A5 0D        	lda	<L2+1
    67 00:0063: 85 19        	sta	<L2+1+12
    68 00:0065: 2B           	pld
    69 00:0066: 3B           	tsc
    70 00:0067: 18           	clc
    71 00:0068: 69 18 00     	adc	#L2+12
    72 00:006B: 1B           	tcs
    73 00:006C: 98           	tya
    74 00:006D: 6B           	rtl
    75                        L10001:
    76 00:006E: A6 0B        	ldx	<L3+__ptr_1+2
    77 00:0070: A5 09        	lda	<L3+__ptr_1
    78 00:0072: 80 E8        	bra	L5
    79             0000000C   L2	equ	12
    80             00000009   L3	equ	9
    81                        	ends
    82                        	efunc
    83                        	code
    84                        	func
    85                        ~~cmsg_nxthdr:
    86                        	longa	on
    87                        	longi	on
    88 00:0074: 3B           	tsc
    89 00:0075: 38           	sec
    90 00:0076: E9 04 00     	sbc	#L6
    91 00:0079: 1B           	tcs
    92 00:007A: 0B           	phd
    93 00:007B: 5B           	tcd
    94             00000004   __msg_0	set	4
    95             00000008   __cmsg_0	set	8
    96 00:007C: D4 0E        	pei	<L6+__cmsg_0+2
    97 00:007E: D4 0C        	pei	<L6+__cmsg_0
    98 00:0080: A0 14 00     	ldy	#$14
    99 00:0083: B7 08        	lda	[<L6+__msg_0],Y
   100 00:0085: 48           	pha
   101 00:0086: 88           	dey
   102 00:0087: 88           	dey
   103 00:0088: B7 08        	lda	[<L6+__msg_0],Y
   104 00:008A: 48           	pha
   105 00:008B: 88           	dey
   106 00:008C: 88           	dey
   107 00:008D: B7 08        	lda	[<L6+__msg_0],Y
   108 00:008F: 48           	pha
   109 00:0090: 88           	dey
   110 00:0091: 88           	dey
  Thu Nov 19 2020 16:41                                                Page 3


   111 00:0092: B7 08        	lda	[<L6+__msg_0],Y
   112 00:0094: 48           	pha
   113 00:0095: 22 xx xx xx  	jsl	~~__cmsg_nxthdr
   114 00:0099: 85 01        	sta	<R0
   115 00:009B: 86 03        	stx	<R0+2
   116 00:009D: A6 03        	ldx	<R0+2
   117 00:009F: A5 01        	lda	<R0
   118 00:00A1: A8           	tay
   119 00:00A2: A5 06        	lda	<L6+2
   120 00:00A4: 85 0E        	sta	<L6+2+8
   121 00:00A6: A5 05        	lda	<L6+1
   122 00:00A8: 85 0D        	sta	<L6+1+8
   123 00:00AA: 2B           	pld
   124 00:00AB: 3B           	tsc
   125 00:00AC: 18           	clc
   126 00:00AD: 69 0C 00     	adc	#L6+8
   127 00:00B0: 1B           	tcs
   128 00:00B1: 98           	tya
   129 00:00B2: 6B           	rtl
   130             00000004   L6	equ	4
   131             00000005   L7	equ	5
   132                        	ends
   133                        	efunc
   134                        	data
   135                        	xdef	~~z_errmsg
   136                        ~~z_errmsg:
   137 00:0000: xx xx xx xx  	dl	L1+0
   138 00:0004: xx xx xx xx  	dl	L1+16
   139 00:0008: xx xx xx xx  	dl	L1+27
   140 00:000C: xx xx xx xx  	dl	L1+28
   141 00:0010: xx xx xx xx  	dl	L1+39
   142 00:0014: xx xx xx xx  	dl	L1+52
   143 00:0018: xx xx xx xx  	dl	L1+63
   144 00:001C: xx xx xx xx  	dl	L1+83
   145 00:0020: xx xx xx xx  	dl	L1+96
   146 00:0024: xx xx xx xx  	dl	L1+117
   147 00:0028:              	ends
   148                        	data
   149                        L1:
   150 00:0028: 6E 65 65 64  	db	$6E,$65,$65,$64,$20,$64,$69,$63,$74,$69,
                    $6F,$6E,$61,$72,$79
       00:002C: 20 64 69 63 
       00:0030: 74 69 6F 6E 
       00:0034: 61 72 79 
   151 00:0037: 00 73 74 72  	db	$00,$73,$74,$72,$65,$61,$6D,$20,$65,$6E,
                    $64,$00,$00,$66,$69
       00:003B: 65 61 6D 20 
       00:003F: 65 6E 64 00 
       00:0043: 00 66 69 
   152 00:0046: 6C 65 20 65  	db	$6C,$65,$20,$65,$72,$72,$6F,$72,$00,$73,
                    $74,$72,$65,$61,$6D
       00:004A: 72 72 6F 72 
       00:004E: 00 73 74 72 
       00:0052: 65 61 6D 
   153 00:0055: 20 65 72 72  	db	$20,$65,$72,$72,$6F,$72,$00,$64,$61,$74,
                    $61,$20,$65,$72,$72
       00:0059: 6F 72 00 64 
       00:005D: 61 74 61 20 
  Thu Nov 19 2020 16:41                                                Page 4


       00:0061: 65 72 72 
   154 00:0064: 6F 72 00 69  	db	$6F,$72,$00,$69,$6E,$73,$75,$66,$66,$69,
                    $63,$69,$65,$6E,$74
       00:0068: 6E 73 75 66 
       00:006C: 66 69 63 69 
       00:0070: 65 6E 74 
   155 00:0073: 20 6D 65 6D  	db	$20,$6D,$65,$6D,$6F,$72,$79,$00,$62,$75,
                    $66,$66,$65,$72,$20
       00:0077: 6F 72 79 00 
       00:007B: 62 75 66 66 
       00:007F: 65 72 20 
   156 00:0082: 65 72 72 6F  	db	$65,$72,$72,$6F,$72,$00,$69,$6E,$63,$6F,
                    $6D,$70,$61,$74,$69
       00:0086: 72 00 69 6E 
       00:008A: 63 6F 6D 70 
       00:008E: 61 74 69 
   157 00:0091: 62 6C 65 20  	db	$62,$6C,$65,$20,$76,$65,$72,$73,$69,$6F,
                    $6E,$00,$00
       00:0095: 76 65 72 73 
       00:0099: 69 6F 6E 00 
       00:009D: 00 
   158 00:009E:              	ends
   159                        	code
   160                        	xdef	~~zlibVersion
   161                        	func
   162                        ~~zlibVersion:
   163                        	longa	on
   164                        	longi	on
   165 00:00B3: A9 xx xx     	lda	#^L9
   166 00:00B6: AA           	tax
   167 00:00B7: A9 xx xx     	lda	#<L9
   168 00:00BA: 6B           	rtl
   169             00000000   L10	equ	0
   170             00000001   L11	equ	1
   171                        	ends
   172                        	efunc
   173                        	data
   174                        L9:
   175 00:009E: 31 2E 32 2E  	db	$31,$2E,$32,$2E,$31,$31,$00
       00:00A2: 31 31 00 
   176 00:00A5:              	ends
   177                        	code
   178                        	xdef	~~zlibCompileFlags
   179                        	func
   180                        ~~zlibCompileFlags:
   181                        	longa	on
   182                        	longi	on
   183 00:00BB: 3B           	tsc
   184 00:00BC: 38           	sec
   185 00:00BD: E9 04 00     	sbc	#L14
   186 00:00C0: 1B           	tcs
   187 00:00C1: 0B           	phd
   188 00:00C2: 5B           	tcd
   189             00000000   flags_1	set	0
   190 00:00C3: 64 01        	stz	<L15+flags_1
   191 00:00C5: 64 03        	stz	<L15+flags_1+2
   192 00:00C7: A9 02 00     	lda	#$2
   193                        	xref	~~~swt
  Thu Nov 19 2020 16:41                                                Page 5


   194 00:00CA: 22 xx xx xx  	jsl	~~~swt
   195 00:00CE: 03 00        	dw	3
   196 00:00D0: 02 00        	dw	2
   197 00:00D2: xx xx        	dw	L10003-1
   198 00:00D4: 04 00        	dw	4
   199 00:00D6: xx xx        	dw	L10005-1
   200 00:00D8: 08 00        	dw	8
   201 00:00DA: xx xx        	dw	L10006-1
   202 00:00DC: xx xx        	dw	L10007-1
   203                        L10005:
   204 00:00DE: E6 01        	inc	<L15+flags_1
   205 00:00E0: D0 02        	bne	L10003
   206                        L20000:
   207 00:00E2: E6 03        	inc	<L15+flags_1+2
   208                        L10003:
   209 00:00E4: A9 04 00     	lda	#$4
   210                        	xref	~~~swt
   211 00:00E7: 22 xx xx xx  	jsl	~~~swt
   212 00:00EB: 03 00        	dw	3
   213 00:00ED: 02 00        	dw	2
   214 00:00EF: xx xx        	dw	L10009-1
   215 00:00F1: 04 00        	dw	4
   216 00:00F3: xx xx        	dw	L10011-1
   217 00:00F5: 08 00        	dw	8
   218 00:00F7: xx xx        	dw	L10012-1
   219 00:00F9: xx xx        	dw	L10013-1
   220                        L10006:
   221 00:00FB: 18           	clc
   222 00:00FC: A9 02 00     	lda	#$2
   223                        L20015:
   224 00:00FF: 65 01        	adc	<L15+flags_1
   225 00:0101: 85 01        	sta	<L15+flags_1
   226 00:0103: 90 DF        	bcc	L10003
   227 00:0105: 80 DB        	bra	L20000
   228                        L10007:
   229 00:0107: 18           	clc
   230 00:0108: A9 03 00     	lda	#$3
   231 00:010B: 80 F2        	bra	L20015
   232                        L10011:
   233 00:010D: 18           	clc
   234 00:010E: A9 04 00     	lda	#$4
   235                        L20010:
   236 00:0111: 65 01        	adc	<L15+flags_1
   237 00:0113: 85 01        	sta	<L15+flags_1
   238 00:0115: 90 02        	bcc	L10009
   239 00:0117: E6 03        	inc	<L15+flags_1+2
   240                        L10009:
   241 00:0119: A9 04 00     	lda	#$4
   242                        	xref	~~~swt
   243 00:011C: 22 xx xx xx  	jsl	~~~swt
   244 00:0120: 03 00        	dw	3
   245 00:0122: 02 00        	dw	2
   246 00:0124: xx xx        	dw	L10015-1
   247 00:0126: 04 00        	dw	4
   248 00:0128: xx xx        	dw	L10017-1
   249 00:012A: 08 00        	dw	8
   250 00:012C: xx xx        	dw	L10018-1
   251 00:012E: xx xx        	dw	L10019-1
  Thu Nov 19 2020 16:41                                                Page 6


   252                        L10012:
   253 00:0130: 18           	clc
   254 00:0131: A9 08 00     	lda	#$8
   255 00:0134: 80 DB        	bra	L20010
   256                        L10013:
   257 00:0136: 18           	clc
   258 00:0137: A9 0C 00     	lda	#$c
   259 00:013A: 80 D5        	bra	L20010
   260                        L10017:
   261 00:013C: 18           	clc
   262 00:013D: A9 10 00     	lda	#$10
   263                        L20011:
   264 00:0140: 65 01        	adc	<L15+flags_1
   265 00:0142: 85 01        	sta	<L15+flags_1
   266 00:0144: 90 02        	bcc	L10015
   267 00:0146: E6 03        	inc	<L15+flags_1+2
   268                        L10015:
   269 00:0148: A9 04 00     	lda	#$4
   270                        	xref	~~~swt
   271 00:014B: 22 xx xx xx  	jsl	~~~swt
   272 00:014F: 03 00        	dw	3
   273 00:0151: 02 00        	dw	2
   274 00:0153: xx xx        	dw	L10021-1
   275 00:0155: 04 00        	dw	4
   276 00:0157: xx xx        	dw	L10023-1
   277 00:0159: 08 00        	dw	8
   278 00:015B: xx xx        	dw	L10024-1
   279 00:015D: xx xx        	dw	L10025-1
   280                        L10018:
   281 00:015F: 18           	clc
   282 00:0160: A9 20 00     	lda	#$20
   283 00:0163: 80 DB        	bra	L20011
   284                        L10019:
   285 00:0165: 18           	clc
   286 00:0166: A9 30 00     	lda	#$30
   287 00:0169: 80 D5        	bra	L20011
   288                        L10023:
   289 00:016B: 18           	clc
   290 00:016C: A9 40 00     	lda	#$40
   291                        L20012:
   292 00:016F: 65 01        	adc	<L15+flags_1
   293 00:0171: 85 01        	sta	<L15+flags_1
   294 00:0173: 90 02        	bcc	L10021
   295 00:0175: E6 03        	inc	<L15+flags_1+2
   296                        L10021:
   297 00:0177: A6 03        	ldx	<L15+flags_1+2
   298 00:0179: A5 01        	lda	<L15+flags_1
   299 00:017B: A8           	tay
   300 00:017C: 2B           	pld
   301 00:017D: 3B           	tsc
   302 00:017E: 18           	clc
   303 00:017F: 69 04 00     	adc	#L14
   304 00:0182: 1B           	tcs
   305 00:0183: 98           	tya
   306 00:0184: 6B           	rtl
   307                        L10024:
   308 00:0185: 18           	clc
   309 00:0186: A9 80 00     	lda	#$80
  Thu Nov 19 2020 16:41                                                Page 7


   310 00:0189: 80 E4        	bra	L20012
   311                        L10025:
   312 00:018B: 18           	clc
   313 00:018C: A9 C0 00     	lda	#$c0
   314 00:018F: 80 DE        	bra	L20012
   315             00000004   L14	equ	4
   316             00000001   L15	equ	1
   317                        	ends
   318                        	efunc
   319                        	code
   320                        	xdef	~~zError
   321                        	func
   322                        ~~zError:
   323                        	longa	on
   324                        	longi	on
   325 00:0191: 3B           	tsc
   326 00:0192: 38           	sec
   327 00:0193: E9 08 00     	sbc	#L29
   328 00:0196: 1B           	tcs
   329 00:0197: 0B           	phd
   330 00:0198: 5B           	tcd
   331             00000004   err_0	set	4
   332 00:0199: 38           	sec
   333 00:019A: A9 02 00     	lda	#$2
   334 00:019D: E5 0C        	sbc	<L29+err_0
   335 00:019F: 0A           	asl	A
   336 00:01A0: 0A           	asl	A
   337 00:01A1: 18           	clc
   338 00:01A2: 69 xx xx     	adc	#<~~z_errmsg
   339 00:01A5: 85 05        	sta	<R1
   340 00:01A7: A0 02 00     	ldy	#$2
   341 00:01AA: B1 05        	lda	(<R1),Y
   342 00:01AC: AA           	tax
   343 00:01AD: B2 05        	lda	(<R1)
   344 00:01AF: A8           	tay
   345 00:01B0: A5 0A        	lda	<L29+2
   346 00:01B2: 85 0C        	sta	<L29+2+2
   347 00:01B4: A5 09        	lda	<L29+1
   348 00:01B6: 85 0B        	sta	<L29+1+2
   349 00:01B8: 2B           	pld
   350 00:01B9: 3B           	tsc
   351 00:01BA: 18           	clc
   352 00:01BB: 69 0A 00     	adc	#L29+2
   353 00:01BE: 1B           	tcs
   354 00:01BF: 98           	tya
   355 00:01C0: 6B           	rtl
   356             00000008   L29	equ	8
   357             00000009   L30	equ	9
   358                        	ends
   359                        	efunc
   360                        	code
   361                        	xdef	~~zcalloc
   362                        	func
   363                        ~~zcalloc:
   364                        	longa	on
   365                        	longi	on
   366 00:01C1: 3B           	tsc
   367 00:01C2: 38           	sec
  Thu Nov 19 2020 16:41                                                Page 8


   368 00:01C3: E9 0C 00     	sbc	#L32
   369 00:01C6: 1B           	tcs
   370 00:01C7: 0B           	phd
   371 00:01C8: 5B           	tcd
   372             00000004   opaque_0	set	4
   373             00000008   items_0	set	8
   374             0000000A   size_0	set	10
   375 00:01C9: A5 16        	lda	<L32+size_0
   376 00:01CB: 85 01        	sta	<R0
   377 00:01CD: 64 03        	stz	<R0+2
   378 00:01CF: D4 03        	pei	<R0+2
   379 00:01D1: D4 01        	pei	<R0
   380 00:01D3: A5 14        	lda	<L32+items_0
   381 00:01D5: 85 05        	sta	<R1
   382 00:01D7: 64 07        	stz	<R1+2
   383 00:01D9: D4 07        	pei	<R1+2
   384 00:01DB: D4 05        	pei	<R1
   385 00:01DD: 22 xx xx xx  	jsl	~~calloc
   386 00:01E1: 85 09        	sta	<R2
   387 00:01E3: 86 0B        	stx	<R2+2
   388 00:01E5: A6 0B        	ldx	<R2+2
   389 00:01E7: A5 09        	lda	<R2
   390 00:01E9: A8           	tay
   391 00:01EA: A5 0E        	lda	<L32+2
   392 00:01EC: 85 16        	sta	<L32+2+8
   393 00:01EE: A5 0D        	lda	<L32+1
   394 00:01F0: 85 15        	sta	<L32+1+8
   395 00:01F2: 2B           	pld
   396 00:01F3: 3B           	tsc
   397 00:01F4: 18           	clc
   398 00:01F5: 69 14 00     	adc	#L32+8
   399 00:01F8: 1B           	tcs
   400 00:01F9: 98           	tya
   401 00:01FA: 6B           	rtl
   402             0000000C   L32	equ	12
   403             0000000D   L33	equ	13
   404                        	ends
   405                        	efunc
   406                        	code
   407                        	xdef	~~zcfree
   408                        	func
   409                        ~~zcfree:
   410                        	longa	on
   411                        	longi	on
   412 00:01FB: 3B           	tsc
   413 00:01FC: 38           	sec
   414 00:01FD: E9 00 00     	sbc	#L35
   415 00:0200: 1B           	tcs
   416 00:0201: 0B           	phd
   417 00:0202: 5B           	tcd
   418             00000004   opaque_0	set	4
   419             00000008   ptr_0	set	8
   420 00:0203: D4 0A        	pei	<L35+ptr_0+2
   421 00:0205: D4 08        	pei	<L35+ptr_0
   422 00:0207: 22 xx xx xx  	jsl	~~free
   423 00:020B: A5 02        	lda	<L35+2
   424 00:020D: 85 0A        	sta	<L35+2+8
   425 00:020F: A5 01        	lda	<L35+1
  Thu Nov 19 2020 16:41                                                Page 9


   426 00:0211: 85 09        	sta	<L35+1+8
   427 00:0213: 2B           	pld
   428 00:0214: 3B           	tsc
   429 00:0215: 18           	clc
   430 00:0216: 69 08 00     	adc	#L35+8
   431 00:0219: 1B           	tcs
   432 00:021A: 6B           	rtl
   433             00000000   L35	equ	0
   434             00000001   L36	equ	1
   435                        	ends
   436                        	efunc
   437                        	xref	~~free
   438                        	xref	~~calloc


      Lines assembled: 438
      Errors: 0
